ARM GAS  /tmp/ccydMd0r.s 			page 1


   1              		.arch armv8.1-m.main
   2              		.fpu fpv5-d16
   3              		.arch_extension dsp
   4              		.arch_extension fp
   5              		.arch_extension fp.dp
   6              		.arch_extension mve
   7              		.arch_extension mve.fp
   8              		.eabi_attribute 5, "cortex-m55"
   9              		.eabi_attribute 28, 1
  10              		.eabi_attribute 20, 1
  11              		.eabi_attribute 21, 1
  12              		.eabi_attribute 23, 3
  13              		.eabi_attribute 24, 1
  14              		.eabi_attribute 25, 1
  15              		.eabi_attribute 26, 1
  16              		.eabi_attribute 30, 4
  17              		.eabi_attribute 34, 1
  18              		.eabi_attribute 38, 1
  19              		.eabi_attribute 18, 4
  20              		.file	"vd1943.c"
  21              		.text
  22              	.Ltext0:
  23              		.cfi_sections	.debug_frame
  24              		.file 1 "../Middlewares/stm32-mw-camera/sensors/vd1943/vd1943.c"
  25              		.section	.text.VD1943_log_impl,"ax",%progbits
  26              		.align	1
  27              		.syntax unified
  28              		.thumb
  29              		.thumb_func
  31              	VD1943_log_impl:
  32              	.LVL0:
  33              	.LFB0:
   1:../Middlewares/stm32-mw-camera/sensors/vd1943/vd1943.c **** /**
   2:../Middlewares/stm32-mw-camera/sensors/vd1943/vd1943.c ****   ******************************************************************************
   3:../Middlewares/stm32-mw-camera/sensors/vd1943/vd1943.c ****   * @file    vd1943.c
   4:../Middlewares/stm32-mw-camera/sensors/vd1943/vd1943.c ****   * @author  MDG Application Team
   5:../Middlewares/stm32-mw-camera/sensors/vd1943/vd1943.c ****   ******************************************************************************
   6:../Middlewares/stm32-mw-camera/sensors/vd1943/vd1943.c ****   * @attention
   7:../Middlewares/stm32-mw-camera/sensors/vd1943/vd1943.c ****   *
   8:../Middlewares/stm32-mw-camera/sensors/vd1943/vd1943.c ****   * Copyright (c) 2024 STMicroelectronics.
   9:../Middlewares/stm32-mw-camera/sensors/vd1943/vd1943.c ****   * All rights reserved.
  10:../Middlewares/stm32-mw-camera/sensors/vd1943/vd1943.c ****   *
  11:../Middlewares/stm32-mw-camera/sensors/vd1943/vd1943.c ****   * This software is licensed under terms that can be found in the LICENSE file
  12:../Middlewares/stm32-mw-camera/sensors/vd1943/vd1943.c ****   * in the root directory of this software component.
  13:../Middlewares/stm32-mw-camera/sensors/vd1943/vd1943.c ****   * If no LICENSE file comes with this software, it is provided AS-IS.
  14:../Middlewares/stm32-mw-camera/sensors/vd1943/vd1943.c ****   *
  15:../Middlewares/stm32-mw-camera/sensors/vd1943/vd1943.c ****   ******************************************************************************
  16:../Middlewares/stm32-mw-camera/sensors/vd1943/vd1943.c ****   */
  17:../Middlewares/stm32-mw-camera/sensors/vd1943/vd1943.c **** 
  18:../Middlewares/stm32-mw-camera/sensors/vd1943/vd1943.c **** #include "vd1943.h"
  19:../Middlewares/stm32-mw-camera/sensors/vd1943/vd1943.c **** 
  20:../Middlewares/stm32-mw-camera/sensors/vd1943/vd1943.c **** #include <assert.h>
  21:../Middlewares/stm32-mw-camera/sensors/vd1943/vd1943.c **** #include <stdint.h>
  22:../Middlewares/stm32-mw-camera/sensors/vd1943/vd1943.c **** 
  23:../Middlewares/stm32-mw-camera/sensors/vd1943/vd1943.c **** #include "vd1943_patch_cut_13.c"
  24:../Middlewares/stm32-mw-camera/sensors/vd1943/vd1943.c **** #include "vd5943_patch_cut_13.c"
  25:../Middlewares/stm32-mw-camera/sensors/vd1943/vd1943.c **** #include "vd1943_vt_patch.c"
ARM GAS  /tmp/ccydMd0r.s 			page 2


  26:../Middlewares/stm32-mw-camera/sensors/vd1943/vd1943.c **** 
  27:../Middlewares/stm32-mw-camera/sensors/vd1943/vd1943.c **** /* STATUS */
  28:../Middlewares/stm32-mw-camera/sensors/vd1943/vd1943.c **** #define VD1943_REG_MODEL_ID                                   0x0000
  29:../Middlewares/stm32-mw-camera/sensors/vd1943/vd1943.c ****   #define VD1943_MODEL_ID_1_3                                 0x53393430
  30:../Middlewares/stm32-mw-camera/sensors/vd1943/vd1943.c ****   #define VD1943_MODEL_ID_1_4                                 0x53393431
  31:../Middlewares/stm32-mw-camera/sensors/vd1943/vd1943.c **** #define VD1943_REG_ROM_REVISION                               0x000c
  32:../Middlewares/stm32-mw-camera/sensors/vd1943/vd1943.c ****   #define VD1943_ROM_REVISION_13                              0x0400
  33:../Middlewares/stm32-mw-camera/sensors/vd1943/vd1943.c ****   #define VD1943_ROM_REVISION_14                              0x0540
  34:../Middlewares/stm32-mw-camera/sensors/vd1943/vd1943.c **** #define VD1943_REG_CFA_SELECTION                              0x000e
  35:../Middlewares/stm32-mw-camera/sensors/vd1943/vd1943.c ****   #define VD1943_OPTICAL_RGBIR                                0x00
  36:../Middlewares/stm32-mw-camera/sensors/vd1943/vd1943.c ****   #define VD1943_OPTICAL_MONO                                 0x01
  37:../Middlewares/stm32-mw-camera/sensors/vd1943/vd1943.c **** #define VD1943_REG_SYSTEM_FSM_STATE                           0x0044
  38:../Middlewares/stm32-mw-camera/sensors/vd1943/vd1943.c ****   #define VD1943_HW_STBY                                      0
  39:../Middlewares/stm32-mw-camera/sensors/vd1943/vd1943.c ****   #define VD1943_SYSTEM_UP                                    1
  40:../Middlewares/stm32-mw-camera/sensors/vd1943/vd1943.c ****   #define VD1943_BOOT                                         2
  41:../Middlewares/stm32-mw-camera/sensors/vd1943/vd1943.c ****   #define VD1943_SW_STBY                                      3
  42:../Middlewares/stm32-mw-camera/sensors/vd1943/vd1943.c ****   #define VD1943_STREAMING                                    4
  43:../Middlewares/stm32-mw-camera/sensors/vd1943/vd1943.c ****   #define VD1943_HALT                                         6
  44:../Middlewares/stm32-mw-camera/sensors/vd1943/vd1943.c **** #define VD1943_REG_SYSTEM_ERROR                               0x0048
  45:../Middlewares/stm32-mw-camera/sensors/vd1943/vd1943.c **** #define VD1943_FWPATCH_REVISION                               0x004a
  46:../Middlewares/stm32-mw-camera/sensors/vd1943/vd1943.c **** #define VD1943_REG_SYSTEM_PLL_CLK                             0x0228
  47:../Middlewares/stm32-mw-camera/sensors/vd1943/vd1943.c **** #define VD1943_REG_PIXEL_CLK                                  0x022c
  48:../Middlewares/stm32-mw-camera/sensors/vd1943/vd1943.c **** /* CMD */
  49:../Middlewares/stm32-mw-camera/sensors/vd1943/vd1943.c ****   #define VD1943_CMD_ACK                                      0
  50:../Middlewares/stm32-mw-camera/sensors/vd1943/vd1943.c **** #define VD1943_REG_SYSTEM_UP                                  0x0514
  51:../Middlewares/stm32-mw-camera/sensors/vd1943/vd1943.c ****   #define VD1943_CMD_START_SENSOR                             1
  52:../Middlewares/stm32-mw-camera/sensors/vd1943/vd1943.c **** #define VD1943_REG_BOOT                                       0x0515
  53:../Middlewares/stm32-mw-camera/sensors/vd1943/vd1943.c ****   #define VD1943_CMD_LOAD_CERTIFICATE                         1
  54:../Middlewares/stm32-mw-camera/sensors/vd1943/vd1943.c ****   #define VD1943_CMD_LOAD_FWP                                 2
  55:../Middlewares/stm32-mw-camera/sensors/vd1943/vd1943.c ****   #define VD1943_CMD_END_BOOT                                 0x10
  56:../Middlewares/stm32-mw-camera/sensors/vd1943/vd1943.c **** #define VD1943_REG_SW_STBY                                    0x0516
  57:../Middlewares/stm32-mw-camera/sensors/vd1943/vd1943.c ****   #define VD1943_CMD_START_STREAMING                          1
  58:../Middlewares/stm32-mw-camera/sensors/vd1943/vd1943.c ****   #define VD1943_CMD_UPDATE_VT_RAM_START                      3
  59:../Middlewares/stm32-mw-camera/sensors/vd1943/vd1943.c ****   #define VD1943_CMD_UPDATE_VT_RAM_END                        4
  60:../Middlewares/stm32-mw-camera/sensors/vd1943/vd1943.c **** #define VD1943_REG_STREAMING                                  0x0517
  61:../Middlewares/stm32-mw-camera/sensors/vd1943/vd1943.c ****   #define VD1943_CMD_STOP_STREAMING                           1
  62:../Middlewares/stm32-mw-camera/sensors/vd1943/vd1943.c **** /* SENSOR SETTINGS */
  63:../Middlewares/stm32-mw-camera/sensors/vd1943/vd1943.c **** #define VD1943_REG_EXT_CLOCK                                  0x0734
  64:../Middlewares/stm32-mw-camera/sensors/vd1943/vd1943.c **** #define VD1943_REG_MIPI_DATA_RATE                             0x0738
  65:../Middlewares/stm32-mw-camera/sensors/vd1943/vd1943.c **** #define VD1943_REG_LANE_NB_SEL                                0x0743
  66:../Middlewares/stm32-mw-camera/sensors/vd1943/vd1943.c ****   #define VD1943_LANE_NB_SEL_4                                0
  67:../Middlewares/stm32-mw-camera/sensors/vd1943/vd1943.c ****   #define VD1943_LANE_NB_SEL_2                                1
  68:../Middlewares/stm32-mw-camera/sensors/vd1943/vd1943.c **** /* DIAG SETTINGS */
  69:../Middlewares/stm32-mw-camera/sensors/vd1943/vd1943.c **** #define VD1943_REG_DIAG_DISABLE_FW_0_ERR                      0x078d
  70:../Middlewares/stm32-mw-camera/sensors/vd1943/vd1943.c ****   #define VD1943_DIAG_DISABLE_FW_0_ERR_UI_CRC                 1
  71:../Middlewares/stm32-mw-camera/sensors/vd1943/vd1943.c **** #define VD1943_REG_DIAG_DISABLE_FW_1_ERR                      0x078e
  72:../Middlewares/stm32-mw-camera/sensors/vd1943/vd1943.c ****   #define VD1943_DIAG_DISABLE_FW_1_ERR_TASK_MONITOR           4
  73:../Middlewares/stm32-mw-camera/sensors/vd1943/vd1943.c **** #define VD1943_REG_DIAG_DISABLE_STREAMING_ERR                 0x078f
  74:../Middlewares/stm32-mw-camera/sensors/vd1943/vd1943.c ****   #define VD1943_DIAG_DISABLE_STREAMING_ERR_ALL               0xff
  75:../Middlewares/stm32-mw-camera/sensors/vd1943/vd1943.c **** /* STREAM STATICS */
  76:../Middlewares/stm32-mw-camera/sensors/vd1943/vd1943.c **** #define VD1943_REG_ROI_A_WIDTH_OFFSET                         0x090c
  77:../Middlewares/stm32-mw-camera/sensors/vd1943/vd1943.c **** #define VD1943_REG_ROI_A_HEIGHT_OFFSET                        0x090e
  78:../Middlewares/stm32-mw-camera/sensors/vd1943/vd1943.c **** #define VD1943_REG_ROI_A_WIDTH                                0x0910
  79:../Middlewares/stm32-mw-camera/sensors/vd1943/vd1943.c **** #define VD1943_REG_ROI_A_HEIGHT                               0x0912
  80:../Middlewares/stm32-mw-camera/sensors/vd1943/vd1943.c **** #define VD1943_REG_ROI_A_DT                                   0x0914
  81:../Middlewares/stm32-mw-camera/sensors/vd1943/vd1943.c **** #define VD1943_REG_LINE_LENGTH                                0x0934
  82:../Middlewares/stm32-mw-camera/sensors/vd1943/vd1943.c **** #define VD1943_REG_ORIENTATION                                0x0937
ARM GAS  /tmp/ccydMd0r.s 			page 3


  83:../Middlewares/stm32-mw-camera/sensors/vd1943/vd1943.c **** #define VD1943_REG_PATGEN_CTRL                                0x0938
  84:../Middlewares/stm32-mw-camera/sensors/vd1943/vd1943.c ****  #define VD1943_PATGEN_CTRL_DISABLE                           0x0000
  85:../Middlewares/stm32-mw-camera/sensors/vd1943/vd1943.c ****  #define VD1943_PATGEN_CTRL_DGREY                             0x2201
  86:../Middlewares/stm32-mw-camera/sensors/vd1943/vd1943.c ****  #define VD1943_PATGEN_CTRL_PN28                              0x2801
  87:../Middlewares/stm32-mw-camera/sensors/vd1943/vd1943.c **** #define VD1943_REG_OIF_LANE_PHY_MAP                           0x093a
  88:../Middlewares/stm32-mw-camera/sensors/vd1943/vd1943.c **** #define VD1943_REG_OIF_LANE_PHY_SWAP                          0x093b
  89:../Middlewares/stm32-mw-camera/sensors/vd1943/vd1943.c **** #define VD1943_REG_OIF_INTERPACKET_DELAY                      0x093c
  90:../Middlewares/stm32-mw-camera/sensors/vd1943/vd1943.c **** #define VD1943_REG_VT_CTRL                                    0x0ac6
  91:../Middlewares/stm32-mw-camera/sensors/vd1943/vd1943.c ****   #define VD1943_VT_CTRL_MASTER                               0
  92:../Middlewares/stm32-mw-camera/sensors/vd1943/vd1943.c ****   #define VD1943_VT_CTRL_SLAVE                                1
  93:../Middlewares/stm32-mw-camera/sensors/vd1943/vd1943.c **** #define VD1943_REG_OIF_ISL_ENABLE                             0x0ac7
  94:../Middlewares/stm32-mw-camera/sensors/vd1943/vd1943.c **** #define VD1943_REG_GPIO_x_CTRL(_i_)                           (0xad4 + (_i_))
  95:../Middlewares/stm32-mw-camera/sensors/vd1943/vd1943.c **** #define VD1943_REG_CFA_BLENDER_ALPHA_CTRL                     0x0aed
  96:../Middlewares/stm32-mw-camera/sensors/vd1943/vd1943.c ****   #define VD1943_CFA_BLENDER_NORMAL                           0
  97:../Middlewares/stm32-mw-camera/sensors/vd1943/vd1943.c ****   #define VD1943_CFA_BLENDER_ZERO                             2
  98:../Middlewares/stm32-mw-camera/sensors/vd1943/vd1943.c **** #define VD1943_REG_OIF_DT_ISL                                 0x0afc
  99:../Middlewares/stm32-mw-camera/sensors/vd1943/vd1943.c **** /* STREAM_CTXx_STATIC */
 100:../Middlewares/stm32-mw-camera/sensors/vd1943/vd1943.c **** #define VD1943_REG_CTXx_STATIC_OFFSET(_x_, _addr_)            (0x0b40 + (_x_) * 72 + (_addr_))
 101:../Middlewares/stm32-mw-camera/sensors/vd1943/vd1943.c **** #define VD1943_REG_SENSOR_CONFIGURATION(_x_)                  VD1943_REG_CTXx_STATIC_OFFSET(_x_, 0x
 102:../Middlewares/stm32-mw-camera/sensors/vd1943/vd1943.c **** #define VD1943_REG_FRAME_LENGTH(_x_)                          VD1943_REG_CTXx_STATIC_OFFSET(_x_, 0x
 103:../Middlewares/stm32-mw-camera/sensors/vd1943/vd1943.c **** #define VD1943_REG_GPIO_CTRL(_x_)                             VD1943_REG_CTXx_STATIC_OFFSET(_x_, 0x
 104:../Middlewares/stm32-mw-camera/sensors/vd1943/vd1943.c ****  #define VD1943_GPIO_DISABLE                                  0
 105:../Middlewares/stm32-mw-camera/sensors/vd1943/vd1943.c ****  #define VD1943_GPIO_ENABLE                                   1
 106:../Middlewares/stm32-mw-camera/sensors/vd1943/vd1943.c **** /* STREAM DYNAMICS */
 107:../Middlewares/stm32-mw-camera/sensors/vd1943/vd1943.c **** /* STREAM_CTXx_DYNAMIC */
 108:../Middlewares/stm32-mw-camera/sensors/vd1943/vd1943.c **** #define VD1943_REG_CTXx_DYNAMIC_OFFSET(_x_, _addr_)           (0x0c78 + (_x_) * 40 + (_addr_))
 109:../Middlewares/stm32-mw-camera/sensors/vd1943/vd1943.c **** 
 110:../Middlewares/stm32-mw-camera/sensors/vd1943/vd1943.c **** #define VD1943_REG_GROUP_PARAMETER_HOLD(_x_)                  VD1943_REG_CTXx_DYNAMIC_OFFSET(_x_, 0
 111:../Middlewares/stm32-mw-camera/sensors/vd1943/vd1943.c ****  #define VD1943_GROUP_PARAMETER_HOLD_DISABLE                  0
 112:../Middlewares/stm32-mw-camera/sensors/vd1943/vd1943.c ****  #define VD1943_GROUP_PARAMETER_HOLD_ENABLE                   1
 113:../Middlewares/stm32-mw-camera/sensors/vd1943/vd1943.c **** #define VD1943_REG_ANALOG_GAIN(_x_)                           VD1943_REG_CTXx_DYNAMIC_OFFSET(_x_, 0
 114:../Middlewares/stm32-mw-camera/sensors/vd1943/vd1943.c **** #define VD1943_REG_INTEGRATION_TIME_PRIMARY(_x_)              VD1943_REG_CTXx_DYNAMIC_OFFSET(_x_, 0
 115:../Middlewares/stm32-mw-camera/sensors/vd1943/vd1943.c **** #define VD1943_REG_INTEGRATION_TIME_IR(_x_)                   VD1943_REG_CTXx_DYNAMIC_OFFSET(_x_, 0
 116:../Middlewares/stm32-mw-camera/sensors/vd1943/vd1943.c **** #define VD1943_REG_INTEGRATION_TIME_SHORT(_x_)                VD1943_REG_CTXx_DYNAMIC_OFFSET(_x_, 0
 117:../Middlewares/stm32-mw-camera/sensors/vd1943/vd1943.c **** #define VD1943_DIGITAL_GAIN_R(_x_)                            VD1943_REG_CTXx_DYNAMIC_OFFSET(_x_, 0
 118:../Middlewares/stm32-mw-camera/sensors/vd1943/vd1943.c **** #define VD1943_DIGITAL_GAIN_G(_x_)                            VD1943_REG_CTXx_DYNAMIC_OFFSET(_x_, 0
 119:../Middlewares/stm32-mw-camera/sensors/vd1943/vd1943.c **** #define VD1943_DIGITAL_GAIN_B(_x_)                            VD1943_REG_CTXx_DYNAMIC_OFFSET(_x_, 0
 120:../Middlewares/stm32-mw-camera/sensors/vd1943/vd1943.c **** #define VD1943_DIGITAL_GAIN_IR(_x_)                           VD1943_REG_CTXx_DYNAMIC_OFFSET(_x_, 0
 121:../Middlewares/stm32-mw-camera/sensors/vd1943/vd1943.c **** 
 122:../Middlewares/stm32-mw-camera/sensors/vd1943/vd1943.c **** /* DEBUG */
 123:../Middlewares/stm32-mw-camera/sensors/vd1943/vd1943.c **** #define VD1943_REG_DPHYTX_CTRL                                0x108c
 124:../Middlewares/stm32-mw-camera/sensors/vd1943/vd1943.c **** #define VD1943_REG_BOTTOM_STATUS_LINE_DISABLE                 0x110c
 125:../Middlewares/stm32-mw-camera/sensors/vd1943/vd1943.c **** /* CERTIFICATE */
 126:../Middlewares/stm32-mw-camera/sensors/vd1943/vd1943.c **** #define VD1943_REG_CERTIFICATE_AREA_START_ADDR                0x1aa8
 127:../Middlewares/stm32-mw-camera/sensors/vd1943/vd1943.c **** /* PATCH AREA */
 128:../Middlewares/stm32-mw-camera/sensors/vd1943/vd1943.c **** #define VD1943_REG_FWPATCH_START_ADDR                         0x2000
 129:../Middlewares/stm32-mw-camera/sensors/vd1943/vd1943.c **** 
 130:../Middlewares/stm32-mw-camera/sensors/vd1943/vd1943.c **** #define VD1943_MIN_VBLANK                                     60
 131:../Middlewares/stm32-mw-camera/sensors/vd1943/vd1943.c **** 
 132:../Middlewares/stm32-mw-camera/sensors/vd1943/vd1943.c **** /* Yes we are above maximum recommended line time duration. But this value allow to output a 10 bit
 133:../Middlewares/stm32-mw-camera/sensors/vd1943/vd1943.c ****  * global shutter mode in a 2 lanes configuration.
 134:../Middlewares/stm32-mw-camera/sensors/vd1943/vd1943.c ****  */
 135:../Middlewares/stm32-mw-camera/sensors/vd1943/vd1943.c **** #define VD1943_LINE_TIME_IN_NS                                14500
 136:../Middlewares/stm32-mw-camera/sensors/vd1943/vd1943.c **** #define VD1943_LINE_LENGTH_MIN                                3375
 137:../Middlewares/stm32-mw-camera/sensors/vd1943/vd1943.c **** 
 138:../Middlewares/stm32-mw-camera/sensors/vd1943/vd1943.c **** /* FIXME : Need characterization */
 139:../Middlewares/stm32-mw-camera/sensors/vd1943/vd1943.c **** #define VD1943_EXPOSURE_MARGIN                                100
ARM GAS  /tmp/ccydMd0r.s 			page 4


 140:../Middlewares/stm32-mw-camera/sensors/vd1943/vd1943.c **** 
 141:../Middlewares/stm32-mw-camera/sensors/vd1943/vd1943.c **** #ifndef MIN
 142:../Middlewares/stm32-mw-camera/sensors/vd1943/vd1943.c **** #define MIN(a,b) ((a)<(b)?(a):(b))
 143:../Middlewares/stm32-mw-camera/sensors/vd1943/vd1943.c **** #endif
 144:../Middlewares/stm32-mw-camera/sensors/vd1943/vd1943.c **** 
 145:../Middlewares/stm32-mw-camera/sensors/vd1943/vd1943.c **** #ifndef MAX
 146:../Middlewares/stm32-mw-camera/sensors/vd1943/vd1943.c **** #define MAX(a,b) ((a)>(b)?(a):(b))
 147:../Middlewares/stm32-mw-camera/sensors/vd1943/vd1943.c **** #endif
 148:../Middlewares/stm32-mw-camera/sensors/vd1943/vd1943.c **** 
 149:../Middlewares/stm32-mw-camera/sensors/vd1943/vd1943.c **** #define VD1943_COMPUTE_LEFT(_w_)                              ((VD1943_MAX_WIDTH - (_w_)) / 2)
 150:../Middlewares/stm32-mw-camera/sensors/vd1943/vd1943.c **** #define VD1943_COMPUTE_TOP(_h_)                               ((VD1943_MAX_HEIGHT - (_h_)) / 2)
 151:../Middlewares/stm32-mw-camera/sensors/vd1943/vd1943.c **** 
 152:../Middlewares/stm32-mw-camera/sensors/vd1943/vd1943.c **** struct vd1943_rect {
 153:../Middlewares/stm32-mw-camera/sensors/vd1943/vd1943.c ****   int32_t left;
 154:../Middlewares/stm32-mw-camera/sensors/vd1943/vd1943.c ****   int32_t top;
 155:../Middlewares/stm32-mw-camera/sensors/vd1943/vd1943.c ****   uint32_t width;
 156:../Middlewares/stm32-mw-camera/sensors/vd1943/vd1943.c ****   uint32_t height;
 157:../Middlewares/stm32-mw-camera/sensors/vd1943/vd1943.c **** };
 158:../Middlewares/stm32-mw-camera/sensors/vd1943/vd1943.c **** 
 159:../Middlewares/stm32-mw-camera/sensors/vd1943/vd1943.c **** static const struct vd1943_rect vd1943_supported_modes[] = {
 160:../Middlewares/stm32-mw-camera/sensors/vd1943/vd1943.c ****   /* VD1943_RES_QVGA_320_240 */
 161:../Middlewares/stm32-mw-camera/sensors/vd1943/vd1943.c ****   {
 162:../Middlewares/stm32-mw-camera/sensors/vd1943/vd1943.c ****     .left = VD1943_COMPUTE_LEFT(320),
 163:../Middlewares/stm32-mw-camera/sensors/vd1943/vd1943.c ****     .top = VD1943_COMPUTE_TOP(240),
 164:../Middlewares/stm32-mw-camera/sensors/vd1943/vd1943.c ****     .width = 320,
 165:../Middlewares/stm32-mw-camera/sensors/vd1943/vd1943.c ****     .height = 240,
 166:../Middlewares/stm32-mw-camera/sensors/vd1943/vd1943.c ****   },
 167:../Middlewares/stm32-mw-camera/sensors/vd1943/vd1943.c ****   /* VD1943_RES_VGA_640_480 */
 168:../Middlewares/stm32-mw-camera/sensors/vd1943/vd1943.c ****   {
 169:../Middlewares/stm32-mw-camera/sensors/vd1943/vd1943.c ****     .left = VD1943_COMPUTE_LEFT(640),
 170:../Middlewares/stm32-mw-camera/sensors/vd1943/vd1943.c ****     .top = VD1943_COMPUTE_TOP(480),
 171:../Middlewares/stm32-mw-camera/sensors/vd1943/vd1943.c ****     .width = 640,
 172:../Middlewares/stm32-mw-camera/sensors/vd1943/vd1943.c ****     .height = 480,
 173:../Middlewares/stm32-mw-camera/sensors/vd1943/vd1943.c ****   },
 174:../Middlewares/stm32-mw-camera/sensors/vd1943/vd1943.c ****   /* VD1943_RES_VGA_800_600 */
 175:../Middlewares/stm32-mw-camera/sensors/vd1943/vd1943.c ****   {
 176:../Middlewares/stm32-mw-camera/sensors/vd1943/vd1943.c ****     .left = VD1943_COMPUTE_LEFT(800),
 177:../Middlewares/stm32-mw-camera/sensors/vd1943/vd1943.c ****     .top = VD1943_COMPUTE_TOP(600),
 178:../Middlewares/stm32-mw-camera/sensors/vd1943/vd1943.c ****     .width = 800,
 179:../Middlewares/stm32-mw-camera/sensors/vd1943/vd1943.c ****     .height = 600,
 180:../Middlewares/stm32-mw-camera/sensors/vd1943/vd1943.c ****   },
 181:../Middlewares/stm32-mw-camera/sensors/vd1943/vd1943.c ****   /* VD1943_RES_XGA_1024_768 */
 182:../Middlewares/stm32-mw-camera/sensors/vd1943/vd1943.c ****   {
 183:../Middlewares/stm32-mw-camera/sensors/vd1943/vd1943.c ****     .left = VD1943_COMPUTE_LEFT(1024),
 184:../Middlewares/stm32-mw-camera/sensors/vd1943/vd1943.c ****     .top = VD1943_COMPUTE_TOP(768),
 185:../Middlewares/stm32-mw-camera/sensors/vd1943/vd1943.c ****     .width = 1024,
 186:../Middlewares/stm32-mw-camera/sensors/vd1943/vd1943.c ****     .height = 768,
 187:../Middlewares/stm32-mw-camera/sensors/vd1943/vd1943.c ****   },
 188:../Middlewares/stm32-mw-camera/sensors/vd1943/vd1943.c ****   /* VD1943_RES_720P_1280_720 */
 189:../Middlewares/stm32-mw-camera/sensors/vd1943/vd1943.c ****   {
 190:../Middlewares/stm32-mw-camera/sensors/vd1943/vd1943.c ****     .left = VD1943_COMPUTE_LEFT(1280),
 191:../Middlewares/stm32-mw-camera/sensors/vd1943/vd1943.c ****     .top = VD1943_COMPUTE_TOP(720),
 192:../Middlewares/stm32-mw-camera/sensors/vd1943/vd1943.c ****     .width = 1280,
 193:../Middlewares/stm32-mw-camera/sensors/vd1943/vd1943.c ****     .height = 720,
 194:../Middlewares/stm32-mw-camera/sensors/vd1943/vd1943.c ****   },
 195:../Middlewares/stm32-mw-camera/sensors/vd1943/vd1943.c ****   /* VD1943_RES_SXGA_1280_1024 */
 196:../Middlewares/stm32-mw-camera/sensors/vd1943/vd1943.c ****   {
ARM GAS  /tmp/ccydMd0r.s 			page 5


 197:../Middlewares/stm32-mw-camera/sensors/vd1943/vd1943.c ****     .left = VD1943_COMPUTE_LEFT(1280),
 198:../Middlewares/stm32-mw-camera/sensors/vd1943/vd1943.c ****     .top = VD1943_COMPUTE_TOP(1024),
 199:../Middlewares/stm32-mw-camera/sensors/vd1943/vd1943.c ****     .width = 1280,
 200:../Middlewares/stm32-mw-camera/sensors/vd1943/vd1943.c ****     .height = 1024,
 201:../Middlewares/stm32-mw-camera/sensors/vd1943/vd1943.c ****   },
 202:../Middlewares/stm32-mw-camera/sensors/vd1943/vd1943.c ****   /* VD1943_RES_1080P_1920_1080 */
 203:../Middlewares/stm32-mw-camera/sensors/vd1943/vd1943.c ****   {
 204:../Middlewares/stm32-mw-camera/sensors/vd1943/vd1943.c ****     .left = VD1943_COMPUTE_LEFT(1920),
 205:../Middlewares/stm32-mw-camera/sensors/vd1943/vd1943.c ****     .top = VD1943_COMPUTE_TOP(1080),
 206:../Middlewares/stm32-mw-camera/sensors/vd1943/vd1943.c ****     .width = 1920,
 207:../Middlewares/stm32-mw-camera/sensors/vd1943/vd1943.c ****     .height = 1080,
 208:../Middlewares/stm32-mw-camera/sensors/vd1943/vd1943.c ****   },
 209:../Middlewares/stm32-mw-camera/sensors/vd1943/vd1943.c ****   /* VD1943_RES_QXGA_2048_1536 */
 210:../Middlewares/stm32-mw-camera/sensors/vd1943/vd1943.c ****   {
 211:../Middlewares/stm32-mw-camera/sensors/vd1943/vd1943.c ****     .left = VD1943_COMPUTE_LEFT(2048),
 212:../Middlewares/stm32-mw-camera/sensors/vd1943/vd1943.c ****     .top = VD1943_COMPUTE_TOP(1536),
 213:../Middlewares/stm32-mw-camera/sensors/vd1943/vd1943.c ****     .width = 2048,
 214:../Middlewares/stm32-mw-camera/sensors/vd1943/vd1943.c ****     .height = 1536,
 215:../Middlewares/stm32-mw-camera/sensors/vd1943/vd1943.c ****   },
 216:../Middlewares/stm32-mw-camera/sensors/vd1943/vd1943.c ****   /* VD1943_RES_FULL43_2560_1920 */
 217:../Middlewares/stm32-mw-camera/sensors/vd1943/vd1943.c ****   {
 218:../Middlewares/stm32-mw-camera/sensors/vd1943/vd1943.c ****     .left = VD1943_COMPUTE_LEFT(2560),
 219:../Middlewares/stm32-mw-camera/sensors/vd1943/vd1943.c ****     .top = VD1943_COMPUTE_TOP(1920),
 220:../Middlewares/stm32-mw-camera/sensors/vd1943/vd1943.c ****     .width = 2560,
 221:../Middlewares/stm32-mw-camera/sensors/vd1943/vd1943.c ****     .height = 1920,
 222:../Middlewares/stm32-mw-camera/sensors/vd1943/vd1943.c ****   },
 223:../Middlewares/stm32-mw-camera/sensors/vd1943/vd1943.c ****   /* VD1943_RES_FULL_2560_1984 */
 224:../Middlewares/stm32-mw-camera/sensors/vd1943/vd1943.c ****   {
 225:../Middlewares/stm32-mw-camera/sensors/vd1943/vd1943.c ****     .left = VD1943_COMPUTE_LEFT(2560),
 226:../Middlewares/stm32-mw-camera/sensors/vd1943/vd1943.c ****     .top = VD1943_COMPUTE_TOP(1984),
 227:../Middlewares/stm32-mw-camera/sensors/vd1943/vd1943.c ****     .width = 2560,
 228:../Middlewares/stm32-mw-camera/sensors/vd1943/vd1943.c ****     .height = 1984,
 229:../Middlewares/stm32-mw-camera/sensors/vd1943/vd1943.c ****   },
 230:../Middlewares/stm32-mw-camera/sensors/vd1943/vd1943.c **** };
 231:../Middlewares/stm32-mw-camera/sensors/vd1943/vd1943.c **** 
 232:../Middlewares/stm32-mw-camera/sensors/vd1943/vd1943.c **** #define VD1943_TraceError(_ctx_,_ret_) do { \
 233:../Middlewares/stm32-mw-camera/sensors/vd1943/vd1943.c ****   if (_ret_) VD1943_error(_ctx_, "Error on %s:%d : %d\n", __func__, __LINE__, _ret_); \
 234:../Middlewares/stm32-mw-camera/sensors/vd1943/vd1943.c ****   if (_ret_) display_error(_ctx_); \
 235:../Middlewares/stm32-mw-camera/sensors/vd1943/vd1943.c ****   if (_ret_) return _ret_; \
 236:../Middlewares/stm32-mw-camera/sensors/vd1943/vd1943.c **** } while(0)
 237:../Middlewares/stm32-mw-camera/sensors/vd1943/vd1943.c **** 
 238:../Middlewares/stm32-mw-camera/sensors/vd1943/vd1943.c **** static void VD1943_log_impl(VD1943_Ctx_t *ctx, int lvl, const char *format, ...)
 239:../Middlewares/stm32-mw-camera/sensors/vd1943/vd1943.c **** {
  34              		.loc 1 239 1 view -0
  35              		.cfi_startproc
  36              		@ args = 4, pretend = 8, frame = 8
  37              		@ frame_needed = 0, uses_anonymous_args = 1
 240:../Middlewares/stm32-mw-camera/sensors/vd1943/vd1943.c ****   va_list ap;
  38              		.loc 1 240 3 view .LVU1
 241:../Middlewares/stm32-mw-camera/sensors/vd1943/vd1943.c **** 
 242:../Middlewares/stm32-mw-camera/sensors/vd1943/vd1943.c ****   if (!ctx->log)
  39              		.loc 1 242 3 view .LVU2
 239:../Middlewares/stm32-mw-camera/sensors/vd1943/vd1943.c ****   va_list ap;
  40              		.loc 1 239 1 is_stmt 0 view .LVU3
  41 0000 0CB4     		push	{r2, r3}
  42              		.cfi_def_cfa_offset 8
  43              		.cfi_offset 2, -8
ARM GAS  /tmp/ccydMd0r.s 			page 6


  44              		.cfi_offset 3, -4
  45 0002 13B5     		push	{r0, r1, r4, lr}
  46              		.cfi_def_cfa_offset 24
  47              		.cfi_offset 4, -16
  48              		.cfi_offset 14, -12
  49              		.loc 1 242 6 view .LVU4
  50 0004 446A     		ldr	r4, [r0, #36]
  51 0006 1CB1     		cbz	r4, .L1
 243:../Middlewares/stm32-mw-camera/sensors/vd1943/vd1943.c ****     return ;
 244:../Middlewares/stm32-mw-camera/sensors/vd1943/vd1943.c **** 
 245:../Middlewares/stm32-mw-camera/sensors/vd1943/vd1943.c ****   va_start(ap, format);
  52              		.loc 1 245 3 is_stmt 1 view .LVU5
  53 0008 05AB     		add	r3, sp, #20
 246:../Middlewares/stm32-mw-camera/sensors/vd1943/vd1943.c ****   ctx->log(ctx, lvl, format, ap);
  54              		.loc 1 246 3 is_stmt 0 view .LVU6
  55 000a 049A     		ldr	r2, [sp, #16]
 245:../Middlewares/stm32-mw-camera/sensors/vd1943/vd1943.c ****   ctx->log(ctx, lvl, format, ap);
  56              		.loc 1 245 3 view .LVU7
  57 000c 0193     		str	r3, [sp, #4]
  58              		.loc 1 246 3 is_stmt 1 view .LVU8
  59 000e A047     		blx	r4
  60              	.LVL1:
 247:../Middlewares/stm32-mw-camera/sensors/vd1943/vd1943.c ****   va_end(ap);
  61              		.loc 1 247 3 view .LVU9
  62              	.L1:
 248:../Middlewares/stm32-mw-camera/sensors/vd1943/vd1943.c **** }
  63              		.loc 1 248 1 is_stmt 0 view .LVU10
  64 0010 02B0     		add	sp, sp, #8
  65              		.cfi_def_cfa_offset 16
  66              		@ sp needed
  67 0012 BDE81040 		pop	{r4, lr}
  68              		.cfi_restore 14
  69              		.cfi_restore 4
  70              		.cfi_def_cfa_offset 8
  71 0016 02B0     		add	sp, sp, #8
  72              		.cfi_restore 3
  73              		.cfi_restore 2
  74              		.cfi_def_cfa_offset 0
  75 0018 7047     		bx	lr
  76              		.cfi_endproc
  77              	.LFE0:
  79              		.section	.rodata.VD1943_PollReg8.str1.1,"aMS",%progbits,1
  80              	.LC0:
  81 0000 56443139 		.ascii	"VD1943_DG%d-%d : current state %d\012\000"
  81      34335F44 
  81      4725642D 
  81      2564203A 
  81      20637572 
  82              		.section	.text.VD1943_PollReg8,"ax",%progbits
  83              		.align	1
  84              		.syntax unified
  85              		.thumb
  86              		.thumb_func
  88              	VD1943_PollReg8:
  89              	.LVL2:
  90              	.LFB2:
 249:../Middlewares/stm32-mw-camera/sensors/vd1943/vd1943.c **** 
ARM GAS  /tmp/ccydMd0r.s 			page 7


 250:../Middlewares/stm32-mw-camera/sensors/vd1943/vd1943.c **** #define VD1943_dbg(_ctx_, _lvl_, _fmt_, ...) do { \
 251:../Middlewares/stm32-mw-camera/sensors/vd1943/vd1943.c ****   VD1943_log_impl(_ctx_, VD1943_LVL_DBG(_lvl_), "VD1943_DG%d-%d : " _fmt_, _lvl_, __LINE__, ##__VA_
 252:../Middlewares/stm32-mw-camera/sensors/vd1943/vd1943.c **** } while(0)
 253:../Middlewares/stm32-mw-camera/sensors/vd1943/vd1943.c **** 
 254:../Middlewares/stm32-mw-camera/sensors/vd1943/vd1943.c **** #define VD1943_notice(_ctx_, _fmt_, ...) do { \
 255:../Middlewares/stm32-mw-camera/sensors/vd1943/vd1943.c ****   VD1943_log_impl(_ctx_, VD1943_LVL_NOTICE, "VD1943_NOT-%d : " _fmt_, __LINE__, ##__VA_ARGS__); \
 256:../Middlewares/stm32-mw-camera/sensors/vd1943/vd1943.c **** } while(0)
 257:../Middlewares/stm32-mw-camera/sensors/vd1943/vd1943.c **** 
 258:../Middlewares/stm32-mw-camera/sensors/vd1943/vd1943.c **** #define VD1943_warn(_ctx_, _fmt_, ...) do { \
 259:../Middlewares/stm32-mw-camera/sensors/vd1943/vd1943.c ****   VD1943_log_impl(_ctx_, VD1943_LVL_WARNING, "VD1943_WRN-%d : " _fmt_, __LINE__, ##__VA_ARGS__); \
 260:../Middlewares/stm32-mw-camera/sensors/vd1943/vd1943.c **** } while(0)
 261:../Middlewares/stm32-mw-camera/sensors/vd1943/vd1943.c **** 
 262:../Middlewares/stm32-mw-camera/sensors/vd1943/vd1943.c **** #define VD1943_error(_ctx_, _fmt_, ...) do { \
 263:../Middlewares/stm32-mw-camera/sensors/vd1943/vd1943.c ****   VD1943_log_impl(_ctx_, VD1943_LVL_ERROR, "VD1943_ERR-%d : " _fmt_, __LINE__, ##__VA_ARGS__); \
 264:../Middlewares/stm32-mw-camera/sensors/vd1943/vd1943.c **** } while(0)
 265:../Middlewares/stm32-mw-camera/sensors/vd1943/vd1943.c **** 
 266:../Middlewares/stm32-mw-camera/sensors/vd1943/vd1943.c **** static void display_error(VD1943_Ctx_t *ctx)
 267:../Middlewares/stm32-mw-camera/sensors/vd1943/vd1943.c **** {
 268:../Middlewares/stm32-mw-camera/sensors/vd1943/vd1943.c ****   uint16_t reg16;
 269:../Middlewares/stm32-mw-camera/sensors/vd1943/vd1943.c ****   int ret;
 270:../Middlewares/stm32-mw-camera/sensors/vd1943/vd1943.c **** 
 271:../Middlewares/stm32-mw-camera/sensors/vd1943/vd1943.c ****   ret = ctx->read16(ctx, VD1943_REG_SYSTEM_ERROR, &reg16);
 272:../Middlewares/stm32-mw-camera/sensors/vd1943/vd1943.c ****   assert(ret == 0);
 273:../Middlewares/stm32-mw-camera/sensors/vd1943/vd1943.c ****   VD1943_error(ctx, "ERROR_CODE : 0x%04x\n", reg16);
 274:../Middlewares/stm32-mw-camera/sensors/vd1943/vd1943.c **** }
 275:../Middlewares/stm32-mw-camera/sensors/vd1943/vd1943.c **** 
 276:../Middlewares/stm32-mw-camera/sensors/vd1943/vd1943.c **** static int VD1943_PollReg8(VD1943_Ctx_t *ctx, uint16_t addr, uint8_t poll_val)
 277:../Middlewares/stm32-mw-camera/sensors/vd1943/vd1943.c **** {
  91              		.loc 1 277 1 is_stmt 1 view -0
  92              		.cfi_startproc
  93              		@ args = 0, pretend = 0, frame = 8
  94              		@ frame_needed = 0, uses_anonymous_args = 0
 278:../Middlewares/stm32-mw-camera/sensors/vd1943/vd1943.c ****   const unsigned int loop_delay_ms = 10;
  95              		.loc 1 278 3 view .LVU12
 279:../Middlewares/stm32-mw-camera/sensors/vd1943/vd1943.c ****   const unsigned int timeout_ms = 500;
  96              		.loc 1 279 3 view .LVU13
 280:../Middlewares/stm32-mw-camera/sensors/vd1943/vd1943.c ****   int loop_nb = timeout_ms / loop_delay_ms;
  97              		.loc 1 280 3 view .LVU14
 281:../Middlewares/stm32-mw-camera/sensors/vd1943/vd1943.c ****   uint8_t val;
  98              		.loc 1 281 3 view .LVU15
 282:../Middlewares/stm32-mw-camera/sensors/vd1943/vd1943.c ****   int ret;
  99              		.loc 1 282 3 view .LVU16
 283:../Middlewares/stm32-mw-camera/sensors/vd1943/vd1943.c **** 
 284:../Middlewares/stm32-mw-camera/sensors/vd1943/vd1943.c ****   while (--loop_nb) {
 100              		.loc 1 284 3 view .LVU17
 101              		.loc 1 284 10 view .LVU18
 277:../Middlewares/stm32-mw-camera/sensors/vd1943/vd1943.c ****   const unsigned int loop_delay_ms = 10;
 102              		.loc 1 277 1 is_stmt 0 view .LVU19
 103 0000 F0B5     		push	{r4, r5, r6, r7, lr}
 104              		.cfi_def_cfa_offset 20
 105              		.cfi_offset 4, -20
 106              		.cfi_offset 5, -16
 107              		.cfi_offset 6, -12
 108              		.cfi_offset 7, -8
 109              		.cfi_offset 14, -4
 110 0002 0446     		mov	r4, r0
 111 0004 0E46     		mov	r6, r1
ARM GAS  /tmp/ccydMd0r.s 			page 8


 112 0006 1746     		mov	r7, r2
 113 0008 3125     		movs	r5, #49
 114 000a 85B0     		sub	sp, sp, #20
 115              		.cfi_def_cfa_offset 40
 116              	.LVL3:
 117              	.L8:
 285:../Middlewares/stm32-mw-camera/sensors/vd1943/vd1943.c ****     ret = ctx->read8(ctx, addr, &val);
 118              		.loc 1 285 5 is_stmt 1 view .LVU20
 119              		.loc 1 285 11 is_stmt 0 view .LVU21
 120 000c 3146     		mov	r1, r6
 121 000e 2046     		mov	r0, r4
 122 0010 6368     		ldr	r3, [r4, #4]
 123 0012 0DF10F02 		add	r2, sp, #15
 124 0016 9847     		blx	r3
 125              	.LVL4:
 286:../Middlewares/stm32-mw-camera/sensors/vd1943/vd1943.c ****     if (ret < 0)
 126              		.loc 1 286 5 is_stmt 1 view .LVU22
 127              		.loc 1 286 8 is_stmt 0 view .LVU23
 128 0018 0028     		cmp	r0, #0
 129              		.loc 1 286 8 view .LVU24
 130 001a 17DB     		blt	.L6
 287:../Middlewares/stm32-mw-camera/sensors/vd1943/vd1943.c ****       return ret;
 288:../Middlewares/stm32-mw-camera/sensors/vd1943/vd1943.c ****     if (val == poll_val)
 131              		.loc 1 288 5 is_stmt 1 view .LVU25
 132              		.loc 1 288 8 is_stmt 0 view .LVU26
 133 001c 9DF80F30 		ldrb	r3, [sp, #15]	@ zero_extendqisi2
 134 0020 BB42     		cmp	r3, r7
 135 0022 15D0     		beq	.L9
 289:../Middlewares/stm32-mw-camera/sensors/vd1943/vd1943.c ****       return 0;
 290:../Middlewares/stm32-mw-camera/sensors/vd1943/vd1943.c ****     ctx->delay(ctx, loop_delay_ms);
 136              		.loc 1 290 5 is_stmt 1 view .LVU27
 137 0024 0A21     		movs	r1, #10
 138 0026 2046     		mov	r0, r4
 139              	.LVL5:
 140              		.loc 1 290 5 is_stmt 0 view .LVU28
 141 0028 236A     		ldr	r3, [r4, #32]
 142 002a 9847     		blx	r3
 143              	.LVL6:
 284:../Middlewares/stm32-mw-camera/sensors/vd1943/vd1943.c ****     ret = ctx->read8(ctx, addr, &val);
 144              		.loc 1 284 10 is_stmt 1 view .LVU29
 284:../Middlewares/stm32-mw-camera/sensors/vd1943/vd1943.c ****     ret = ctx->read8(ctx, addr, &val);
 145              		.loc 1 284 10 is_stmt 0 view .LVU30
 146 002c 013D     		subs	r5, r5, #1
 147              	.LVL7:
 284:../Middlewares/stm32-mw-camera/sensors/vd1943/vd1943.c ****     ret = ctx->read8(ctx, addr, &val);
 148              		.loc 1 284 10 view .LVU31
 149 002e EDD1     		bne	.L8
 291:../Middlewares/stm32-mw-camera/sensors/vd1943/vd1943.c ****   }
 292:../Middlewares/stm32-mw-camera/sensors/vd1943/vd1943.c **** 
 293:../Middlewares/stm32-mw-camera/sensors/vd1943/vd1943.c ****   VD1943_dbg(ctx, 0, "current state %d\n", val);
 150              		.loc 1 293 3 is_stmt 1 view .LVU32
 151              		.loc 1 293 3 view .LVU33
 152 0030 9DF80F30 		ldrb	r3, [sp, #15]	@ zero_extendqisi2
 153 0034 2046     		mov	r0, r4
 154 0036 0193     		str	r3, [sp, #4]
 155 0038 40F22513 		movw	r3, #293
 156 003c 0321     		movs	r1, #3
ARM GAS  /tmp/ccydMd0r.s 			page 9


 157 003e 0093     		str	r3, [sp]
 158 0040 044A     		ldr	r2, .L11
 159 0042 2B46     		mov	r3, r5
 160 0044 FFF7FEFF 		bl	VD1943_log_impl
 161              	.LVL8:
 162              		.loc 1 293 3 discriminator 1 view .LVU34
 294:../Middlewares/stm32-mw-camera/sensors/vd1943/vd1943.c **** 
 295:../Middlewares/stm32-mw-camera/sensors/vd1943/vd1943.c ****   return -1;
 163              		.loc 1 295 3 view .LVU35
 164              		.loc 1 295 10 is_stmt 0 view .LVU36
 165 0048 4FF0FF30 		mov	r0, #-1
 166              	.LVL9:
 167              	.L6:
 296:../Middlewares/stm32-mw-camera/sensors/vd1943/vd1943.c **** }
 168              		.loc 1 296 1 view .LVU37
 169 004c 05B0     		add	sp, sp, #20
 170              		.cfi_remember_state
 171              		.cfi_def_cfa_offset 20
 172              		@ sp needed
 173 004e F0BD     		pop	{r4, r5, r6, r7, pc}
 174              	.LVL10:
 175              	.L9:
 176              		.cfi_restore_state
 289:../Middlewares/stm32-mw-camera/sensors/vd1943/vd1943.c ****     ctx->delay(ctx, loop_delay_ms);
 177              		.loc 1 289 14 view .LVU38
 178 0050 0020     		movs	r0, #0
 179              	.LVL11:
 289:../Middlewares/stm32-mw-camera/sensors/vd1943/vd1943.c ****     ctx->delay(ctx, loop_delay_ms);
 180              		.loc 1 289 14 view .LVU39
 181 0052 FBE7     		b	.L6
 182              	.L12:
 183              		.align	2
 184              	.L11:
 185 0054 00000000 		.word	.LC0
 186              		.cfi_endproc
 187              	.LFE2:
 189              		.section	.rodata.display_error.str1.1,"aMS",%progbits,1
 190              	.LC1:
 191 0000 72657420 		.ascii	"ret == 0\000"
 191      3D3D2030 
 191      00
 192              	.LC2:
 193 0009 2E2E2F4D 		.ascii	"../Middlewares/stm32-mw-camera/sensors/vd1943/vd194"
 193      6964646C 
 193      65776172 
 193      65732F73 
 193      746D3332 
 194 003c 332E6300 		.ascii	"3.c\000"
 195              	.LC3:
 196 0040 56443139 		.ascii	"VD1943_ERR-%d : ERROR_CODE : 0x%04x\012\000"
 196      34335F45 
 196      52522D25 
 196      64203A20 
 196      4552524F 
 197              		.section	.text.display_error,"ax",%progbits
 198              		.align	1
 199              		.syntax unified
ARM GAS  /tmp/ccydMd0r.s 			page 10


 200              		.thumb
 201              		.thumb_func
 203              	display_error:
 204              	.LVL12:
 205              	.LFB1:
 267:../Middlewares/stm32-mw-camera/sensors/vd1943/vd1943.c ****   uint16_t reg16;
 206              		.loc 1 267 1 is_stmt 1 view -0
 207              		.cfi_startproc
 208              		@ args = 0, pretend = 0, frame = 8
 209              		@ frame_needed = 0, uses_anonymous_args = 0
 268:../Middlewares/stm32-mw-camera/sensors/vd1943/vd1943.c ****   int ret;
 210              		.loc 1 268 3 view .LVU41
 269:../Middlewares/stm32-mw-camera/sensors/vd1943/vd1943.c **** 
 211              		.loc 1 269 3 view .LVU42
 271:../Middlewares/stm32-mw-camera/sensors/vd1943/vd1943.c ****   assert(ret == 0);
 212              		.loc 1 271 3 view .LVU43
 267:../Middlewares/stm32-mw-camera/sensors/vd1943/vd1943.c ****   uint16_t reg16;
 213              		.loc 1 267 1 is_stmt 0 view .LVU44
 214 0000 1FB5     		push	{r0, r1, r2, r3, r4, lr}
 215              		.cfi_def_cfa_offset 24
 216              		.cfi_offset 4, -8
 217              		.cfi_offset 14, -4
 271:../Middlewares/stm32-mw-camera/sensors/vd1943/vd1943.c ****   assert(ret == 0);
 218              		.loc 1 271 9 view .LVU45
 219 0002 4821     		movs	r1, #72
 220 0004 8368     		ldr	r3, [r0, #8]
 221 0006 0DF10E02 		add	r2, sp, #14
 267:../Middlewares/stm32-mw-camera/sensors/vd1943/vd1943.c ****   uint16_t reg16;
 222              		.loc 1 267 1 view .LVU46
 223 000a 0446     		mov	r4, r0
 271:../Middlewares/stm32-mw-camera/sensors/vd1943/vd1943.c ****   assert(ret == 0);
 224              		.loc 1 271 9 view .LVU47
 225 000c 9847     		blx	r3
 226              	.LVL13:
 272:../Middlewares/stm32-mw-camera/sensors/vd1943/vd1943.c ****   VD1943_error(ctx, "ERROR_CODE : 0x%04x\n", reg16);
 227              		.loc 1 272 3 is_stmt 1 view .LVU48
 228 000e 0146     		mov	r1, r0
 229 0010 30B1     		cbz	r0, .L14
 230              	.LBB4:
 231              	.LBI4:
 266:../Middlewares/stm32-mw-camera/sensors/vd1943/vd1943.c **** {
 232              		.loc 1 266 13 view .LVU49
 233              	.LVL14:
 234              	.LBB5:
 272:../Middlewares/stm32-mw-camera/sensors/vd1943/vd1943.c ****   VD1943_error(ctx, "ERROR_CODE : 0x%04x\n", reg16);
 235              		.loc 1 272 3 is_stmt 0 discriminator 1 view .LVU50
 236 0012 4FF48871 		mov	r1, #272
 237 0016 084B     		ldr	r3, .L15
 238 0018 084A     		ldr	r2, .L15+4
 239 001a 0948     		ldr	r0, .L15+8
 240              	.LVL15:
 272:../Middlewares/stm32-mw-camera/sensors/vd1943/vd1943.c ****   VD1943_error(ctx, "ERROR_CODE : 0x%04x\n", reg16);
 241              		.loc 1 272 3 discriminator 1 view .LVU51
 242 001c FFF7FEFF 		bl	__assert_func
 243              	.LVL16:
 244              	.L14:
 272:../Middlewares/stm32-mw-camera/sensors/vd1943/vd1943.c ****   VD1943_error(ctx, "ERROR_CODE : 0x%04x\n", reg16);
ARM GAS  /tmp/ccydMd0r.s 			page 11


 245              		.loc 1 272 3 discriminator 1 view .LVU52
 246              	.LBE5:
 247              	.LBE4:
 273:../Middlewares/stm32-mw-camera/sensors/vd1943/vd1943.c **** }
 248              		.loc 1 273 3 is_stmt 1 view .LVU53
 273:../Middlewares/stm32-mw-camera/sensors/vd1943/vd1943.c **** }
 249              		.loc 1 273 3 view .LVU54
 250 0020 BDF80E30 		ldrh	r3, [sp, #14]
 251 0024 2046     		mov	r0, r4
 252              	.LVL17:
 273:../Middlewares/stm32-mw-camera/sensors/vd1943/vd1943.c **** }
 253              		.loc 1 273 3 is_stmt 0 view .LVU55
 254 0026 0093     		str	r3, [sp]
 255 0028 064A     		ldr	r2, .L15+12
 256 002a 40F21113 		movw	r3, #273
 257 002e FFF7FEFF 		bl	VD1943_log_impl
 258              	.LVL18:
 273:../Middlewares/stm32-mw-camera/sensors/vd1943/vd1943.c **** }
 259              		.loc 1 273 3 is_stmt 1 discriminator 1 view .LVU56
 274:../Middlewares/stm32-mw-camera/sensors/vd1943/vd1943.c **** 
 260              		.loc 1 274 1 is_stmt 0 view .LVU57
 261 0032 04B0     		add	sp, sp, #16
 262              		.cfi_def_cfa_offset 8
 263              		@ sp needed
 264 0034 10BD     		pop	{r4, pc}
 265              	.LVL19:
 266              	.L16:
 274:../Middlewares/stm32-mw-camera/sensors/vd1943/vd1943.c **** 
 267              		.loc 1 274 1 view .LVU58
 268 0036 00BF     		.align	2
 269              	.L15:
 270 0038 00000000 		.word	.LC1
 271 003c 00000000 		.word	__func__.34
 272 0040 09000000 		.word	.LC2
 273 0044 40000000 		.word	.LC3
 274              		.cfi_endproc
 275              	.LFE1:
 277              		.section	.rodata.VD1943_ComputeFrameLength.str1.1,"aMS",%progbits,1
 278              	.LC4:
 279 0000 56443139 		.ascii	"VD1943_ERR-%d : Error on %s:%d : %d\012\000"
 279      34335F45 
 279      52522D25 
 279      64203A20 
 279      4572726F 
 280              	.LC5:
 281 0025 56443139 		.ascii	"VD1943_DG%d-%d : frame_length to MAX(%d, %d) = %d t"
 281      34335F44 
 281      4725642D 
 281      2564203A 
 281      20667261 
 282 0058 6F207265 		.ascii	"o reach %d fps\012\000"
 282      61636820 
 282      25642066 
 282      70730A00 
 283              		.section	.text.VD1943_ComputeFrameLength,"ax",%progbits
 284              		.align	1
 285              		.syntax unified
ARM GAS  /tmp/ccydMd0r.s 			page 12


 286              		.thumb
 287              		.thumb_func
 289              	VD1943_ComputeFrameLength:
 290              	.LVL20:
 291              	.LFB33:
 297:../Middlewares/stm32-mw-camera/sensors/vd1943/vd1943.c **** 
 298:../Middlewares/stm32-mw-camera/sensors/vd1943/vd1943.c **** static int VD1943_WaitState(VD1943_Ctx_t *ctx, int state)
 299:../Middlewares/stm32-mw-camera/sensors/vd1943/vd1943.c **** {
 300:../Middlewares/stm32-mw-camera/sensors/vd1943/vd1943.c ****   int ret = VD1943_PollReg8(ctx, VD1943_REG_SYSTEM_FSM_STATE, state);
 301:../Middlewares/stm32-mw-camera/sensors/vd1943/vd1943.c **** 
 302:../Middlewares/stm32-mw-camera/sensors/vd1943/vd1943.c ****   if (ret)
 303:../Middlewares/stm32-mw-camera/sensors/vd1943/vd1943.c ****     VD1943_warn(ctx, "Unable to reach state %d\n", state);
 304:../Middlewares/stm32-mw-camera/sensors/vd1943/vd1943.c ****   else
 305:../Middlewares/stm32-mw-camera/sensors/vd1943/vd1943.c ****     VD1943_dbg(ctx, 0, "reach state %d\n", state);
 306:../Middlewares/stm32-mw-camera/sensors/vd1943/vd1943.c **** 
 307:../Middlewares/stm32-mw-camera/sensors/vd1943/vd1943.c ****   return ret;
 308:../Middlewares/stm32-mw-camera/sensors/vd1943/vd1943.c **** }
 309:../Middlewares/stm32-mw-camera/sensors/vd1943/vd1943.c **** 
 310:../Middlewares/stm32-mw-camera/sensors/vd1943/vd1943.c **** static int VD1943_ApplyCmdAndWait(VD1943_Ctx_t *ctx, uint16_t addr, uint8_t cmd)
 311:../Middlewares/stm32-mw-camera/sensors/vd1943/vd1943.c **** {
 312:../Middlewares/stm32-mw-camera/sensors/vd1943/vd1943.c ****   int ret;
 313:../Middlewares/stm32-mw-camera/sensors/vd1943/vd1943.c **** 
 314:../Middlewares/stm32-mw-camera/sensors/vd1943/vd1943.c ****   VD1943_dbg(ctx, 0, "Apply cmd %d to 0x%04x\n", cmd, addr);
 315:../Middlewares/stm32-mw-camera/sensors/vd1943/vd1943.c ****   ret = ctx->write8(ctx, addr, cmd);
 316:../Middlewares/stm32-mw-camera/sensors/vd1943/vd1943.c ****   VD1943_TraceError(ctx, ret);
 317:../Middlewares/stm32-mw-camera/sensors/vd1943/vd1943.c **** 
 318:../Middlewares/stm32-mw-camera/sensors/vd1943/vd1943.c ****   ret = VD1943_PollReg8(ctx, addr, VD1943_CMD_ACK);
 319:../Middlewares/stm32-mw-camera/sensors/vd1943/vd1943.c ****   VD1943_TraceError(ctx, ret);
 320:../Middlewares/stm32-mw-camera/sensors/vd1943/vd1943.c **** 
 321:../Middlewares/stm32-mw-camera/sensors/vd1943/vd1943.c ****   return 0;
 322:../Middlewares/stm32-mw-camera/sensors/vd1943/vd1943.c **** }
 323:../Middlewares/stm32-mw-camera/sensors/vd1943/vd1943.c **** 
 324:../Middlewares/stm32-mw-camera/sensors/vd1943/vd1943.c **** static int VD1943_CheckModelId(VD1943_Ctx_t *ctx)
 325:../Middlewares/stm32-mw-camera/sensors/vd1943/vd1943.c **** {
 326:../Middlewares/stm32-mw-camera/sensors/vd1943/vd1943.c ****   uint32_t reg32;
 327:../Middlewares/stm32-mw-camera/sensors/vd1943/vd1943.c ****   uint16_t reg16;
 328:../Middlewares/stm32-mw-camera/sensors/vd1943/vd1943.c ****   int ret;
 329:../Middlewares/stm32-mw-camera/sensors/vd1943/vd1943.c **** 
 330:../Middlewares/stm32-mw-camera/sensors/vd1943/vd1943.c ****   ret = ctx->read32(ctx, VD1943_REG_MODEL_ID, &reg32);
 331:../Middlewares/stm32-mw-camera/sensors/vd1943/vd1943.c ****   VD1943_TraceError(ctx, ret);
 332:../Middlewares/stm32-mw-camera/sensors/vd1943/vd1943.c ****   VD1943_dbg(ctx, 0, "model_id = 0x%08x\n", reg32);
 333:../Middlewares/stm32-mw-camera/sensors/vd1943/vd1943.c ****   if (reg32 != VD1943_MODEL_ID_1_3 && reg32 != VD1943_MODEL_ID_1_4) {
 334:../Middlewares/stm32-mw-camera/sensors/vd1943/vd1943.c ****     VD1943_error(ctx, "Unsupported model id: 0x%08x\n", reg32);
 335:../Middlewares/stm32-mw-camera/sensors/vd1943/vd1943.c ****     return -1;
 336:../Middlewares/stm32-mw-camera/sensors/vd1943/vd1943.c ****   }
 337:../Middlewares/stm32-mw-camera/sensors/vd1943/vd1943.c **** 
 338:../Middlewares/stm32-mw-camera/sensors/vd1943/vd1943.c ****   ret = ctx->read16(ctx, VD1943_REG_ROM_REVISION, &reg16);
 339:../Middlewares/stm32-mw-camera/sensors/vd1943/vd1943.c ****   VD1943_TraceError(ctx, ret);
 340:../Middlewares/stm32-mw-camera/sensors/vd1943/vd1943.c ****   VD1943_dbg(ctx, 0, "rom revision = 0x%08x\n", reg16);
 341:../Middlewares/stm32-mw-camera/sensors/vd1943/vd1943.c ****   if (reg16 == VD1943_ROM_REVISION_13) {
 342:../Middlewares/stm32-mw-camera/sensors/vd1943/vd1943.c ****     ctx->ctx.is_fastboot = 0;
 343:../Middlewares/stm32-mw-camera/sensors/vd1943/vd1943.c ****   } else if (reg16 == VD1943_ROM_REVISION_14) {
 344:../Middlewares/stm32-mw-camera/sensors/vd1943/vd1943.c ****     ctx->ctx.is_fastboot = 1;
 345:../Middlewares/stm32-mw-camera/sensors/vd1943/vd1943.c ****   } else {
 346:../Middlewares/stm32-mw-camera/sensors/vd1943/vd1943.c ****     VD1943_error(ctx, "Unsupported rom revision: 0x%08x\n", reg16);
 347:../Middlewares/stm32-mw-camera/sensors/vd1943/vd1943.c ****     return -1;
 348:../Middlewares/stm32-mw-camera/sensors/vd1943/vd1943.c ****   }
ARM GAS  /tmp/ccydMd0r.s 			page 13


 349:../Middlewares/stm32-mw-camera/sensors/vd1943/vd1943.c **** 
 350:../Middlewares/stm32-mw-camera/sensors/vd1943/vd1943.c ****   if (ctx->ctx.is_fastboot) {
 351:../Middlewares/stm32-mw-camera/sensors/vd1943/vd1943.c ****     ret = ctx->read16(ctx, VD1943_REG_CFA_SELECTION, &reg16);
 352:../Middlewares/stm32-mw-camera/sensors/vd1943/vd1943.c ****     VD1943_TraceError(ctx, ret);
 353:../Middlewares/stm32-mw-camera/sensors/vd1943/vd1943.c ****     VD1943_dbg(ctx, 0, "optical revision = 0x%04x\n", reg16);
 354:../Middlewares/stm32-mw-camera/sensors/vd1943/vd1943.c ****     ctx->ctx.is_mono = (reg16 == VD1943_OPTICAL_MONO);
 355:../Middlewares/stm32-mw-camera/sensors/vd1943/vd1943.c ****   } else {
 356:../Middlewares/stm32-mw-camera/sensors/vd1943/vd1943.c ****     /* On cut 1.3 it's not possible to differentiate versions */
 357:../Middlewares/stm32-mw-camera/sensors/vd1943/vd1943.c **** #ifdef USE_VD5943_SENSOR
 358:../Middlewares/stm32-mw-camera/sensors/vd1943/vd1943.c ****     ctx->ctx.is_mono = 1;
 359:../Middlewares/stm32-mw-camera/sensors/vd1943/vd1943.c **** #else
 360:../Middlewares/stm32-mw-camera/sensors/vd1943/vd1943.c ****     ctx->ctx.is_mono = 0;
 361:../Middlewares/stm32-mw-camera/sensors/vd1943/vd1943.c **** #endif
 362:../Middlewares/stm32-mw-camera/sensors/vd1943/vd1943.c ****   }
 363:../Middlewares/stm32-mw-camera/sensors/vd1943/vd1943.c **** 
 364:../Middlewares/stm32-mw-camera/sensors/vd1943/vd1943.c ****   return 0;
 365:../Middlewares/stm32-mw-camera/sensors/vd1943/vd1943.c **** }
 366:../Middlewares/stm32-mw-camera/sensors/vd1943/vd1943.c **** 
 367:../Middlewares/stm32-mw-camera/sensors/vd1943/vd1943.c **** static int VD1943_GoToBootState(VD1943_Ctx_t *ctx)
 368:../Middlewares/stm32-mw-camera/sensors/vd1943/vd1943.c **** {
 369:../Middlewares/stm32-mw-camera/sensors/vd1943/vd1943.c ****   int ret;
 370:../Middlewares/stm32-mw-camera/sensors/vd1943/vd1943.c **** 
 371:../Middlewares/stm32-mw-camera/sensors/vd1943/vd1943.c ****   ret = VD1943_ApplyCmdAndWait(ctx, VD1943_REG_SYSTEM_UP, VD1943_CMD_START_SENSOR);
 372:../Middlewares/stm32-mw-camera/sensors/vd1943/vd1943.c ****   if (ret)
 373:../Middlewares/stm32-mw-camera/sensors/vd1943/vd1943.c ****     return ret;
 374:../Middlewares/stm32-mw-camera/sensors/vd1943/vd1943.c **** 
 375:../Middlewares/stm32-mw-camera/sensors/vd1943/vd1943.c ****   ret = VD1943_WaitState(ctx, VD1943_BOOT);
 376:../Middlewares/stm32-mw-camera/sensors/vd1943/vd1943.c ****   if (ret)
 377:../Middlewares/stm32-mw-camera/sensors/vd1943/vd1943.c ****     return ret;
 378:../Middlewares/stm32-mw-camera/sensors/vd1943/vd1943.c **** 
 379:../Middlewares/stm32-mw-camera/sensors/vd1943/vd1943.c ****   return 0;
 380:../Middlewares/stm32-mw-camera/sensors/vd1943/vd1943.c **** }
 381:../Middlewares/stm32-mw-camera/sensors/vd1943/vd1943.c **** 
 382:../Middlewares/stm32-mw-camera/sensors/vd1943/vd1943.c **** static int VD1943_ApplyCertificate(VD1943_Ctx_t *ctx)
 383:../Middlewares/stm32-mw-camera/sensors/vd1943/vd1943.c **** {
 384:../Middlewares/stm32-mw-camera/sensors/vd1943/vd1943.c ****   struct drv_vd1943_ctx *drv_vd1943_ctx = &ctx->ctx;
 385:../Middlewares/stm32-mw-camera/sensors/vd1943/vd1943.c ****   int ret;
 386:../Middlewares/stm32-mw-camera/sensors/vd1943/vd1943.c **** 
 387:../Middlewares/stm32-mw-camera/sensors/vd1943/vd1943.c ****   if (drv_vd1943_ctx->is_mono) {
 388:../Middlewares/stm32-mw-camera/sensors/vd1943/vd1943.c ****       ret = ctx->write_array(ctx, VD1943_REG_CERTIFICATE_AREA_START_ADDR, (uint8_t *)fw_patch_13_mo
 389:../Middlewares/stm32-mw-camera/sensors/vd1943/vd1943.c ****                              sizeof(fw_patch_13_mono_cert));
 390:../Middlewares/stm32-mw-camera/sensors/vd1943/vd1943.c ****   } else {
 391:../Middlewares/stm32-mw-camera/sensors/vd1943/vd1943.c ****       ret = ctx->write_array(ctx, VD1943_REG_CERTIFICATE_AREA_START_ADDR, (uint8_t *)fw_patch_13_rg
 392:../Middlewares/stm32-mw-camera/sensors/vd1943/vd1943.c ****                              sizeof(fw_patch_13_rgbnir_cert));
 393:../Middlewares/stm32-mw-camera/sensors/vd1943/vd1943.c ****   }
 394:../Middlewares/stm32-mw-camera/sensors/vd1943/vd1943.c ****   VD1943_TraceError(ctx, ret);
 395:../Middlewares/stm32-mw-camera/sensors/vd1943/vd1943.c **** 
 396:../Middlewares/stm32-mw-camera/sensors/vd1943/vd1943.c ****   ret = VD1943_ApplyCmdAndWait(ctx, VD1943_REG_BOOT, VD1943_CMD_LOAD_CERTIFICATE);
 397:../Middlewares/stm32-mw-camera/sensors/vd1943/vd1943.c ****   if (ret)
 398:../Middlewares/stm32-mw-camera/sensors/vd1943/vd1943.c ****     return ret;
 399:../Middlewares/stm32-mw-camera/sensors/vd1943/vd1943.c **** 
 400:../Middlewares/stm32-mw-camera/sensors/vd1943/vd1943.c ****   return 0;
 401:../Middlewares/stm32-mw-camera/sensors/vd1943/vd1943.c **** }
 402:../Middlewares/stm32-mw-camera/sensors/vd1943/vd1943.c **** 
 403:../Middlewares/stm32-mw-camera/sensors/vd1943/vd1943.c **** static int VD1943_ApplyFwPatch(VD1943_Ctx_t *ctx)
 404:../Middlewares/stm32-mw-camera/sensors/vd1943/vd1943.c **** {
 405:../Middlewares/stm32-mw-camera/sensors/vd1943/vd1943.c ****   struct drv_vd1943_ctx *drv_vd1943_ctx = &ctx->ctx;
ARM GAS  /tmp/ccydMd0r.s 			page 14


 406:../Middlewares/stm32-mw-camera/sensors/vd1943/vd1943.c ****   uint16_t reg16;
 407:../Middlewares/stm32-mw-camera/sensors/vd1943/vd1943.c ****   int ret;
 408:../Middlewares/stm32-mw-camera/sensors/vd1943/vd1943.c **** 
 409:../Middlewares/stm32-mw-camera/sensors/vd1943/vd1943.c ****   if (drv_vd1943_ctx->is_mono) {
 410:../Middlewares/stm32-mw-camera/sensors/vd1943/vd1943.c ****       ret = ctx->write_array(ctx, VD1943_REG_FWPATCH_START_ADDR, (uint8_t *)fw_patch_13_mono_array,
 411:../Middlewares/stm32-mw-camera/sensors/vd1943/vd1943.c ****                              sizeof(fw_patch_13_mono_array));
 412:../Middlewares/stm32-mw-camera/sensors/vd1943/vd1943.c ****   } else {
 413:../Middlewares/stm32-mw-camera/sensors/vd1943/vd1943.c ****       ret = ctx->write_array(ctx, VD1943_REG_FWPATCH_START_ADDR, (uint8_t *)fw_patch_13_rgbnir_arra
 414:../Middlewares/stm32-mw-camera/sensors/vd1943/vd1943.c ****                              sizeof(fw_patch_13_rgbnir_array));
 415:../Middlewares/stm32-mw-camera/sensors/vd1943/vd1943.c ****   }
 416:../Middlewares/stm32-mw-camera/sensors/vd1943/vd1943.c ****   VD1943_TraceError(ctx, ret);
 417:../Middlewares/stm32-mw-camera/sensors/vd1943/vd1943.c **** 
 418:../Middlewares/stm32-mw-camera/sensors/vd1943/vd1943.c ****   ret = VD1943_ApplyCmdAndWait(ctx, VD1943_REG_BOOT, VD1943_CMD_LOAD_FWP);
 419:../Middlewares/stm32-mw-camera/sensors/vd1943/vd1943.c ****   if (ret)
 420:../Middlewares/stm32-mw-camera/sensors/vd1943/vd1943.c ****     return ret;
 421:../Middlewares/stm32-mw-camera/sensors/vd1943/vd1943.c **** 
 422:../Middlewares/stm32-mw-camera/sensors/vd1943/vd1943.c ****   ret = ctx->read16(ctx, VD1943_FWPATCH_REVISION, &reg16);
 423:../Middlewares/stm32-mw-camera/sensors/vd1943/vd1943.c ****   VD1943_TraceError(ctx, ret);
 424:../Middlewares/stm32-mw-camera/sensors/vd1943/vd1943.c ****   VD1943_notice(ctx, "patch = %d.%d\n", reg16 >> 8, reg16 & 0xff);
 425:../Middlewares/stm32-mw-camera/sensors/vd1943/vd1943.c **** 
 426:../Middlewares/stm32-mw-camera/sensors/vd1943/vd1943.c ****   return 0;
 427:../Middlewares/stm32-mw-camera/sensors/vd1943/vd1943.c **** }
 428:../Middlewares/stm32-mw-camera/sensors/vd1943/vd1943.c **** 
 429:../Middlewares/stm32-mw-camera/sensors/vd1943/vd1943.c **** static int VD1943_GoToStandbyState(VD1943_Ctx_t *ctx)
 430:../Middlewares/stm32-mw-camera/sensors/vd1943/vd1943.c **** {
 431:../Middlewares/stm32-mw-camera/sensors/vd1943/vd1943.c ****   struct drv_vd1943_ctx *drv_vd1943_ctx = &ctx->ctx;
 432:../Middlewares/stm32-mw-camera/sensors/vd1943/vd1943.c ****   int ret;
 433:../Middlewares/stm32-mw-camera/sensors/vd1943/vd1943.c **** 
 434:../Middlewares/stm32-mw-camera/sensors/vd1943/vd1943.c ****   /* Need to setup input clock before boot */
 435:../Middlewares/stm32-mw-camera/sensors/vd1943/vd1943.c ****   ret = ctx->write32(ctx, VD1943_REG_EXT_CLOCK, drv_vd1943_ctx->config_save.ext_clock_freq_in_hz);
 436:../Middlewares/stm32-mw-camera/sensors/vd1943/vd1943.c ****   VD1943_TraceError(ctx, ret);
 437:../Middlewares/stm32-mw-camera/sensors/vd1943/vd1943.c **** 
 438:../Middlewares/stm32-mw-camera/sensors/vd1943/vd1943.c ****   ret = VD1943_ApplyCmdAndWait(ctx, VD1943_REG_BOOT, VD1943_CMD_END_BOOT);
 439:../Middlewares/stm32-mw-camera/sensors/vd1943/vd1943.c ****   if (ret)
 440:../Middlewares/stm32-mw-camera/sensors/vd1943/vd1943.c ****     return ret;
 441:../Middlewares/stm32-mw-camera/sensors/vd1943/vd1943.c **** 
 442:../Middlewares/stm32-mw-camera/sensors/vd1943/vd1943.c ****   ret = VD1943_WaitState(ctx, VD1943_SW_STBY);
 443:../Middlewares/stm32-mw-camera/sensors/vd1943/vd1943.c ****   if (ret)
 444:../Middlewares/stm32-mw-camera/sensors/vd1943/vd1943.c ****     return ret;
 445:../Middlewares/stm32-mw-camera/sensors/vd1943/vd1943.c **** 
 446:../Middlewares/stm32-mw-camera/sensors/vd1943/vd1943.c ****   return 0;
 447:../Middlewares/stm32-mw-camera/sensors/vd1943/vd1943.c **** }
 448:../Middlewares/stm32-mw-camera/sensors/vd1943/vd1943.c **** 
 449:../Middlewares/stm32-mw-camera/sensors/vd1943/vd1943.c **** static int VD1943_ApplyVTPatch(VD1943_Ctx_t *ctx)
 450:../Middlewares/stm32-mw-camera/sensors/vd1943/vd1943.c **** {
 451:../Middlewares/stm32-mw-camera/sensors/vd1943/vd1943.c ****   int ret;
 452:../Middlewares/stm32-mw-camera/sensors/vd1943/vd1943.c **** 
 453:../Middlewares/stm32-mw-camera/sensors/vd1943/vd1943.c ****   ret = VD1943_ApplyCmdAndWait(ctx, VD1943_REG_SW_STBY, VD1943_CMD_UPDATE_VT_RAM_START);
 454:../Middlewares/stm32-mw-camera/sensors/vd1943/vd1943.c ****   if (ret)
 455:../Middlewares/stm32-mw-camera/sensors/vd1943/vd1943.c ****     return ret;
 456:../Middlewares/stm32-mw-camera/sensors/vd1943/vd1943.c **** 
 457:../Middlewares/stm32-mw-camera/sensors/vd1943/vd1943.c ****   ret = ctx->write_array(ctx, 0x5bc0, (uint8_t *) gt_ram_pat_content, sizeof(gt_ram_pat_content));
 458:../Middlewares/stm32-mw-camera/sensors/vd1943/vd1943.c ****   VD1943_TraceError(ctx, ret);
 459:../Middlewares/stm32-mw-camera/sensors/vd1943/vd1943.c **** 
 460:../Middlewares/stm32-mw-camera/sensors/vd1943/vd1943.c ****   ret = ctx->write_array(ctx, 0x5e40, (uint8_t *) gt_ram_seq1_content, sizeof(gt_ram_seq1_content))
 461:../Middlewares/stm32-mw-camera/sensors/vd1943/vd1943.c ****   VD1943_TraceError(ctx, ret);
 462:../Middlewares/stm32-mw-camera/sensors/vd1943/vd1943.c **** 
ARM GAS  /tmp/ccydMd0r.s 			page 15


 463:../Middlewares/stm32-mw-camera/sensors/vd1943/vd1943.c ****   ret = ctx->write_array(ctx, 0x5f80, (uint8_t *) gt_ram_seq2_content, sizeof(gt_ram_seq2_content))
 464:../Middlewares/stm32-mw-camera/sensors/vd1943/vd1943.c ****   VD1943_TraceError(ctx, ret);
 465:../Middlewares/stm32-mw-camera/sensors/vd1943/vd1943.c **** 
 466:../Middlewares/stm32-mw-camera/sensors/vd1943/vd1943.c ****   ret = ctx->write_array(ctx, 0x60c0, (uint8_t *) gt_ram_seq3_content, sizeof(gt_ram_seq3_content))
 467:../Middlewares/stm32-mw-camera/sensors/vd1943/vd1943.c ****   VD1943_TraceError(ctx, ret);
 468:../Middlewares/stm32-mw-camera/sensors/vd1943/vd1943.c **** 
 469:../Middlewares/stm32-mw-camera/sensors/vd1943/vd1943.c ****   ret = ctx->write_array(ctx, 0x6160, (uint8_t *) gt_ram_seq4_content, sizeof(gt_ram_seq4_content))
 470:../Middlewares/stm32-mw-camera/sensors/vd1943/vd1943.c ****   VD1943_TraceError(ctx, ret);
 471:../Middlewares/stm32-mw-camera/sensors/vd1943/vd1943.c **** 
 472:../Middlewares/stm32-mw-camera/sensors/vd1943/vd1943.c ****   ret = ctx->write_array(ctx, 0x6ac0, (uint8_t *) rd_ram_pat_content, sizeof(rd_ram_pat_content));
 473:../Middlewares/stm32-mw-camera/sensors/vd1943/vd1943.c ****   VD1943_TraceError(ctx, ret);
 474:../Middlewares/stm32-mw-camera/sensors/vd1943/vd1943.c **** 
 475:../Middlewares/stm32-mw-camera/sensors/vd1943/vd1943.c ****   ret = ctx->write_array(ctx, 0x5000, (uint8_t *) rd_ram_seq1_content, sizeof(rd_ram_seq1_content))
 476:../Middlewares/stm32-mw-camera/sensors/vd1943/vd1943.c ****   VD1943_TraceError(ctx, ret);
 477:../Middlewares/stm32-mw-camera/sensors/vd1943/vd1943.c **** 
 478:../Middlewares/stm32-mw-camera/sensors/vd1943/vd1943.c ****   ret = VD1943_ApplyCmdAndWait(ctx, VD1943_REG_SW_STBY, VD1943_CMD_UPDATE_VT_RAM_END);
 479:../Middlewares/stm32-mw-camera/sensors/vd1943/vd1943.c ****   if (ret)
 480:../Middlewares/stm32-mw-camera/sensors/vd1943/vd1943.c ****     return ret;
 481:../Middlewares/stm32-mw-camera/sensors/vd1943/vd1943.c **** 
 482:../Middlewares/stm32-mw-camera/sensors/vd1943/vd1943.c ****   return 0;
 483:../Middlewares/stm32-mw-camera/sensors/vd1943/vd1943.c **** }
 484:../Middlewares/stm32-mw-camera/sensors/vd1943/vd1943.c **** 
 485:../Middlewares/stm32-mw-camera/sensors/vd1943/vd1943.c **** static int VD1943_SetDigitalGain_RGB(VD1943_Ctx_t *ctx, unsigned int gain)
 486:../Middlewares/stm32-mw-camera/sensors/vd1943/vd1943.c **** {
 487:../Middlewares/stm32-mw-camera/sensors/vd1943/vd1943.c ****   int ret;
 488:../Middlewares/stm32-mw-camera/sensors/vd1943/vd1943.c **** 
 489:../Middlewares/stm32-mw-camera/sensors/vd1943/vd1943.c ****   ret = ctx->write16(ctx, VD1943_DIGITAL_GAIN_R(0), gain);
 490:../Middlewares/stm32-mw-camera/sensors/vd1943/vd1943.c ****   VD1943_TraceError(ctx, ret);
 491:../Middlewares/stm32-mw-camera/sensors/vd1943/vd1943.c ****   ret = ctx->write16(ctx, VD1943_DIGITAL_GAIN_G(0), gain);
 492:../Middlewares/stm32-mw-camera/sensors/vd1943/vd1943.c ****   VD1943_TraceError(ctx, ret);
 493:../Middlewares/stm32-mw-camera/sensors/vd1943/vd1943.c ****   ret = ctx->write16(ctx, VD1943_DIGITAL_GAIN_B(0), gain);
 494:../Middlewares/stm32-mw-camera/sensors/vd1943/vd1943.c ****   VD1943_TraceError(ctx, ret);
 495:../Middlewares/stm32-mw-camera/sensors/vd1943/vd1943.c **** 
 496:../Middlewares/stm32-mw-camera/sensors/vd1943/vd1943.c ****   return 0;
 497:../Middlewares/stm32-mw-camera/sensors/vd1943/vd1943.c **** }
 498:../Middlewares/stm32-mw-camera/sensors/vd1943/vd1943.c **** 
 499:../Middlewares/stm32-mw-camera/sensors/vd1943/vd1943.c **** static int VD1943_SetDigitalGain_IR(VD1943_Ctx_t *ctx, unsigned int gain)
 500:../Middlewares/stm32-mw-camera/sensors/vd1943/vd1943.c **** {
 501:../Middlewares/stm32-mw-camera/sensors/vd1943/vd1943.c ****   int ret;
 502:../Middlewares/stm32-mw-camera/sensors/vd1943/vd1943.c **** 
 503:../Middlewares/stm32-mw-camera/sensors/vd1943/vd1943.c ****   ret = ctx->write16(ctx, VD1943_DIGITAL_GAIN_IR(0), gain);
 504:../Middlewares/stm32-mw-camera/sensors/vd1943/vd1943.c ****   VD1943_TraceError(ctx, ret);
 505:../Middlewares/stm32-mw-camera/sensors/vd1943/vd1943.c **** 
 506:../Middlewares/stm32-mw-camera/sensors/vd1943/vd1943.c ****   return 0;
 507:../Middlewares/stm32-mw-camera/sensors/vd1943/vd1943.c **** }
 508:../Middlewares/stm32-mw-camera/sensors/vd1943/vd1943.c **** 
 509:../Middlewares/stm32-mw-camera/sensors/vd1943/vd1943.c **** static int VD1943_SetDigitalGain_RGBNIR(VD1943_Ctx_t *ctx, unsigned int gain)
 510:../Middlewares/stm32-mw-camera/sensors/vd1943/vd1943.c **** {
 511:../Middlewares/stm32-mw-camera/sensors/vd1943/vd1943.c ****   int ret;
 512:../Middlewares/stm32-mw-camera/sensors/vd1943/vd1943.c **** 
 513:../Middlewares/stm32-mw-camera/sensors/vd1943/vd1943.c ****   ret = VD1943_SetDigitalGain_RGB(ctx, gain);
 514:../Middlewares/stm32-mw-camera/sensors/vd1943/vd1943.c ****   if (ret)
 515:../Middlewares/stm32-mw-camera/sensors/vd1943/vd1943.c ****     return ret;
 516:../Middlewares/stm32-mw-camera/sensors/vd1943/vd1943.c ****   ret = VD1943_SetDigitalGain_IR(ctx, gain);
 517:../Middlewares/stm32-mw-camera/sensors/vd1943/vd1943.c ****   if (ret)
 518:../Middlewares/stm32-mw-camera/sensors/vd1943/vd1943.c ****     return ret;
 519:../Middlewares/stm32-mw-camera/sensors/vd1943/vd1943.c **** 
ARM GAS  /tmp/ccydMd0r.s 			page 16


 520:../Middlewares/stm32-mw-camera/sensors/vd1943/vd1943.c ****   return 0;
 521:../Middlewares/stm32-mw-camera/sensors/vd1943/vd1943.c **** }
 522:../Middlewares/stm32-mw-camera/sensors/vd1943/vd1943.c **** 
 523:../Middlewares/stm32-mw-camera/sensors/vd1943/vd1943.c **** static int VD1943_GetExpoCommon(VD1943_Ctx_t *ctx, unsigned int *expo_in_us)
 524:../Middlewares/stm32-mw-camera/sensors/vd1943/vd1943.c **** {
 525:../Middlewares/stm32-mw-camera/sensors/vd1943/vd1943.c ****   uint16_t reg16;
 526:../Middlewares/stm32-mw-camera/sensors/vd1943/vd1943.c ****   int ret;
 527:../Middlewares/stm32-mw-camera/sensors/vd1943/vd1943.c **** 
 528:../Middlewares/stm32-mw-camera/sensors/vd1943/vd1943.c ****   ret = ctx->read16(ctx, VD1943_REG_INTEGRATION_TIME_PRIMARY(0), &reg16);
 529:../Middlewares/stm32-mw-camera/sensors/vd1943/vd1943.c ****   VD1943_TraceError(ctx, ret);
 530:../Middlewares/stm32-mw-camera/sensors/vd1943/vd1943.c ****   *expo_in_us = (reg16 * VD1943_LINE_TIME_IN_NS) / 1000;
 531:../Middlewares/stm32-mw-camera/sensors/vd1943/vd1943.c **** 
 532:../Middlewares/stm32-mw-camera/sensors/vd1943/vd1943.c ****   return 0;
 533:../Middlewares/stm32-mw-camera/sensors/vd1943/vd1943.c **** }
 534:../Middlewares/stm32-mw-camera/sensors/vd1943/vd1943.c **** 
 535:../Middlewares/stm32-mw-camera/sensors/vd1943/vd1943.c **** static int VD1943_SetExpo_GS(VD1943_Ctx_t *ctx, unsigned int expo_in_us)
 536:../Middlewares/stm32-mw-camera/sensors/vd1943/vd1943.c **** {
 537:../Middlewares/stm32-mw-camera/sensors/vd1943/vd1943.c ****   unsigned int expo_in_line = (expo_in_us * 1000 + VD1943_LINE_TIME_IN_NS - 1) / VD1943_LINE_TIME_I
 538:../Middlewares/stm32-mw-camera/sensors/vd1943/vd1943.c ****   int ret;
 539:../Middlewares/stm32-mw-camera/sensors/vd1943/vd1943.c **** 
 540:../Middlewares/stm32-mw-camera/sensors/vd1943/vd1943.c ****   if (expo_in_line < 4)
 541:../Middlewares/stm32-mw-camera/sensors/vd1943/vd1943.c ****     return -1;
 542:../Middlewares/stm32-mw-camera/sensors/vd1943/vd1943.c **** 
 543:../Middlewares/stm32-mw-camera/sensors/vd1943/vd1943.c ****   ret = ctx->write16(ctx, VD1943_REG_INTEGRATION_TIME_PRIMARY(0), expo_in_line);
 544:../Middlewares/stm32-mw-camera/sensors/vd1943/vd1943.c ****   VD1943_TraceError(ctx, ret);
 545:../Middlewares/stm32-mw-camera/sensors/vd1943/vd1943.c **** 
 546:../Middlewares/stm32-mw-camera/sensors/vd1943/vd1943.c ****   return 0;
 547:../Middlewares/stm32-mw-camera/sensors/vd1943/vd1943.c **** }
 548:../Middlewares/stm32-mw-camera/sensors/vd1943/vd1943.c **** 
 549:../Middlewares/stm32-mw-camera/sensors/vd1943/vd1943.c **** static int VD1943_SetExpoSplit_GS(VD1943_Ctx_t *ctx, unsigned int expo_in_us)
 550:../Middlewares/stm32-mw-camera/sensors/vd1943/vd1943.c **** {
 551:../Middlewares/stm32-mw-camera/sensors/vd1943/vd1943.c ****   unsigned int expo_in_line = (expo_in_us * 1000 + VD1943_LINE_TIME_IN_NS - 1) / VD1943_LINE_TIME_I
 552:../Middlewares/stm32-mw-camera/sensors/vd1943/vd1943.c ****   int ret;
 553:../Middlewares/stm32-mw-camera/sensors/vd1943/vd1943.c **** 
 554:../Middlewares/stm32-mw-camera/sensors/vd1943/vd1943.c ****   if (expo_in_line < 4)
 555:../Middlewares/stm32-mw-camera/sensors/vd1943/vd1943.c ****     return -1;
 556:../Middlewares/stm32-mw-camera/sensors/vd1943/vd1943.c **** 
 557:../Middlewares/stm32-mw-camera/sensors/vd1943/vd1943.c ****   ret = ctx->write16(ctx, VD1943_REG_INTEGRATION_TIME_PRIMARY(0), expo_in_line);
 558:../Middlewares/stm32-mw-camera/sensors/vd1943/vd1943.c ****   VD1943_TraceError(ctx, ret);
 559:../Middlewares/stm32-mw-camera/sensors/vd1943/vd1943.c **** 
 560:../Middlewares/stm32-mw-camera/sensors/vd1943/vd1943.c ****   ret = ctx->write16(ctx, VD1943_REG_INTEGRATION_TIME_IR(0), expo_in_line);
 561:../Middlewares/stm32-mw-camera/sensors/vd1943/vd1943.c ****   VD1943_TraceError(ctx, ret);
 562:../Middlewares/stm32-mw-camera/sensors/vd1943/vd1943.c **** 
 563:../Middlewares/stm32-mw-camera/sensors/vd1943/vd1943.c ****   return 0;
 564:../Middlewares/stm32-mw-camera/sensors/vd1943/vd1943.c **** }
 565:../Middlewares/stm32-mw-camera/sensors/vd1943/vd1943.c **** 
 566:../Middlewares/stm32-mw-camera/sensors/vd1943/vd1943.c **** static int VD1943_GetExpo_GS(VD1943_Ctx_t *ctx, unsigned int *expo_in_us)
 567:../Middlewares/stm32-mw-camera/sensors/vd1943/vd1943.c **** {
 568:../Middlewares/stm32-mw-camera/sensors/vd1943/vd1943.c ****   return VD1943_GetExpoCommon(ctx, expo_in_us);
 569:../Middlewares/stm32-mw-camera/sensors/vd1943/vd1943.c **** }
 570:../Middlewares/stm32-mw-camera/sensors/vd1943/vd1943.c **** 
 571:../Middlewares/stm32-mw-camera/sensors/vd1943/vd1943.c **** static int VD1943_SetExpo_RS(VD1943_Ctx_t *ctx, unsigned int expo_in_us)
 572:../Middlewares/stm32-mw-camera/sensors/vd1943/vd1943.c **** {
 573:../Middlewares/stm32-mw-camera/sensors/vd1943/vd1943.c ****   unsigned int expo_in_line = (expo_in_us * 1000 + VD1943_LINE_TIME_IN_NS - 1) / VD1943_LINE_TIME_I
 574:../Middlewares/stm32-mw-camera/sensors/vd1943/vd1943.c ****   int ret;
 575:../Middlewares/stm32-mw-camera/sensors/vd1943/vd1943.c **** 
 576:../Middlewares/stm32-mw-camera/sensors/vd1943/vd1943.c ****   if (expo_in_line < 2)
ARM GAS  /tmp/ccydMd0r.s 			page 17


 577:../Middlewares/stm32-mw-camera/sensors/vd1943/vd1943.c ****     return -1;
 578:../Middlewares/stm32-mw-camera/sensors/vd1943/vd1943.c **** 
 579:../Middlewares/stm32-mw-camera/sensors/vd1943/vd1943.c ****   ret = ctx->write16(ctx, VD1943_REG_INTEGRATION_TIME_PRIMARY(0), expo_in_line);
 580:../Middlewares/stm32-mw-camera/sensors/vd1943/vd1943.c ****   VD1943_TraceError(ctx, ret);
 581:../Middlewares/stm32-mw-camera/sensors/vd1943/vd1943.c **** 
 582:../Middlewares/stm32-mw-camera/sensors/vd1943/vd1943.c ****   return 0;
 583:../Middlewares/stm32-mw-camera/sensors/vd1943/vd1943.c **** }
 584:../Middlewares/stm32-mw-camera/sensors/vd1943/vd1943.c **** 
 585:../Middlewares/stm32-mw-camera/sensors/vd1943/vd1943.c **** static int VD1943_GetExpo_RS(VD1943_Ctx_t *ctx, unsigned int *expo_in_us)
 586:../Middlewares/stm32-mw-camera/sensors/vd1943/vd1943.c **** {
 587:../Middlewares/stm32-mw-camera/sensors/vd1943/vd1943.c ****   return VD1943_GetExpoCommon(ctx, expo_in_us);
 588:../Middlewares/stm32-mw-camera/sensors/vd1943/vd1943.c **** }
 589:../Middlewares/stm32-mw-camera/sensors/vd1943/vd1943.c **** 
 590:../Middlewares/stm32-mw-camera/sensors/vd1943/vd1943.c **** static int VD1943_SetExpo_RS_HDR(VD1943_Ctx_t *ctx, unsigned int expo_in_us)
 591:../Middlewares/stm32-mw-camera/sensors/vd1943/vd1943.c **** {
 592:../Middlewares/stm32-mw-camera/sensors/vd1943/vd1943.c ****   /* we use a short expo ratio of 1/20 */
 593:../Middlewares/stm32-mw-camera/sensors/vd1943/vd1943.c ****   unsigned int expo_short_in_line = (expo_in_us * 50 + VD1943_LINE_TIME_IN_NS - 1) / VD1943_LINE_TI
 594:../Middlewares/stm32-mw-camera/sensors/vd1943/vd1943.c ****   int ret;
 595:../Middlewares/stm32-mw-camera/sensors/vd1943/vd1943.c **** 
 596:../Middlewares/stm32-mw-camera/sensors/vd1943/vd1943.c ****   ret = VD1943_SetExpo_RS(ctx, expo_in_us);
 597:../Middlewares/stm32-mw-camera/sensors/vd1943/vd1943.c ****   if (ret)
 598:../Middlewares/stm32-mw-camera/sensors/vd1943/vd1943.c ****     return ret;
 599:../Middlewares/stm32-mw-camera/sensors/vd1943/vd1943.c **** 
 600:../Middlewares/stm32-mw-camera/sensors/vd1943/vd1943.c ****   expo_short_in_line = MAX(2, expo_short_in_line);
 601:../Middlewares/stm32-mw-camera/sensors/vd1943/vd1943.c ****   ret = ctx->write16(ctx, VD1943_REG_INTEGRATION_TIME_SHORT(0), expo_short_in_line);
 602:../Middlewares/stm32-mw-camera/sensors/vd1943/vd1943.c ****   VD1943_TraceError(ctx, ret);
 603:../Middlewares/stm32-mw-camera/sensors/vd1943/vd1943.c **** 
 604:../Middlewares/stm32-mw-camera/sensors/vd1943/vd1943.c ****   return 0;
 605:../Middlewares/stm32-mw-camera/sensors/vd1943/vd1943.c **** }
 606:../Middlewares/stm32-mw-camera/sensors/vd1943/vd1943.c **** 
 607:../Middlewares/stm32-mw-camera/sensors/vd1943/vd1943.c **** static int VD1943_SetBayerType_RGB(VD1943_Ctx_t *ctx)
 608:../Middlewares/stm32-mw-camera/sensors/vd1943/vd1943.c **** {
 609:../Middlewares/stm32-mw-camera/sensors/vd1943/vd1943.c ****   struct drv_vd1943_ctx *drv_vd1943_ctx = &ctx->ctx;
 610:../Middlewares/stm32-mw-camera/sensors/vd1943/vd1943.c **** 
 611:../Middlewares/stm32-mw-camera/sensors/vd1943/vd1943.c ****   switch (drv_vd1943_ctx->config_save.flip_mirror_mode) {
 612:../Middlewares/stm32-mw-camera/sensors/vd1943/vd1943.c ****   case VD1943_MIRROR_FLIP_NONE:
 613:../Middlewares/stm32-mw-camera/sensors/vd1943/vd1943.c ****     ctx->bayer = VD1943_BAYER_GBRG;
 614:../Middlewares/stm32-mw-camera/sensors/vd1943/vd1943.c ****     break;
 615:../Middlewares/stm32-mw-camera/sensors/vd1943/vd1943.c ****   case VD1943_FLIP:
 616:../Middlewares/stm32-mw-camera/sensors/vd1943/vd1943.c ****     ctx->bayer = VD1943_BAYER_RGGB;
 617:../Middlewares/stm32-mw-camera/sensors/vd1943/vd1943.c ****     break;
 618:../Middlewares/stm32-mw-camera/sensors/vd1943/vd1943.c ****   case VD1943_MIRROR:
 619:../Middlewares/stm32-mw-camera/sensors/vd1943/vd1943.c ****     ctx->bayer = VD1943_BAYER_BGGR;
 620:../Middlewares/stm32-mw-camera/sensors/vd1943/vd1943.c ****     break;
 621:../Middlewares/stm32-mw-camera/sensors/vd1943/vd1943.c ****   case VD1943_MIRROR_FLIP:
 622:../Middlewares/stm32-mw-camera/sensors/vd1943/vd1943.c ****     ctx->bayer = VD1943_BAYER_GBRG;
 623:../Middlewares/stm32-mw-camera/sensors/vd1943/vd1943.c ****     break;
 624:../Middlewares/stm32-mw-camera/sensors/vd1943/vd1943.c ****   default:
 625:../Middlewares/stm32-mw-camera/sensors/vd1943/vd1943.c ****     assert(0);
 626:../Middlewares/stm32-mw-camera/sensors/vd1943/vd1943.c ****   }
 627:../Middlewares/stm32-mw-camera/sensors/vd1943/vd1943.c **** 
 628:../Middlewares/stm32-mw-camera/sensors/vd1943/vd1943.c ****   return 0;
 629:../Middlewares/stm32-mw-camera/sensors/vd1943/vd1943.c **** }
 630:../Middlewares/stm32-mw-camera/sensors/vd1943/vd1943.c **** 
 631:../Middlewares/stm32-mw-camera/sensors/vd1943/vd1943.c **** static int VD1943_SetBayerType_RGBNIR(VD1943_Ctx_t *ctx)
 632:../Middlewares/stm32-mw-camera/sensors/vd1943/vd1943.c **** {
 633:../Middlewares/stm32-mw-camera/sensors/vd1943/vd1943.c ****   struct drv_vd1943_ctx *drv_vd1943_ctx = &ctx->ctx;
ARM GAS  /tmp/ccydMd0r.s 			page 18


 634:../Middlewares/stm32-mw-camera/sensors/vd1943/vd1943.c **** 
 635:../Middlewares/stm32-mw-camera/sensors/vd1943/vd1943.c ****   switch (drv_vd1943_ctx->config_save.flip_mirror_mode) {
 636:../Middlewares/stm32-mw-camera/sensors/vd1943/vd1943.c ****   case VD1943_MIRROR_FLIP_NONE:
 637:../Middlewares/stm32-mw-camera/sensors/vd1943/vd1943.c ****     ctx->bayer = VD1943_BAYER_RGBNIR;
 638:../Middlewares/stm32-mw-camera/sensors/vd1943/vd1943.c ****     break;
 639:../Middlewares/stm32-mw-camera/sensors/vd1943/vd1943.c ****   case VD1943_FLIP:
 640:../Middlewares/stm32-mw-camera/sensors/vd1943/vd1943.c ****     ctx->bayer = VD1943_BAYER_RGBNIR_FLIP;
 641:../Middlewares/stm32-mw-camera/sensors/vd1943/vd1943.c ****     break;
 642:../Middlewares/stm32-mw-camera/sensors/vd1943/vd1943.c ****   case VD1943_MIRROR:
 643:../Middlewares/stm32-mw-camera/sensors/vd1943/vd1943.c ****     ctx->bayer = VD1943_BAYER_RGBNIR_MIRROR;
 644:../Middlewares/stm32-mw-camera/sensors/vd1943/vd1943.c ****     break;
 645:../Middlewares/stm32-mw-camera/sensors/vd1943/vd1943.c ****   case VD1943_MIRROR_FLIP:
 646:../Middlewares/stm32-mw-camera/sensors/vd1943/vd1943.c ****     ctx->bayer = VD1943_BAYER_RGBNIR_FLIP_MIRROR;
 647:../Middlewares/stm32-mw-camera/sensors/vd1943/vd1943.c ****     break;
 648:../Middlewares/stm32-mw-camera/sensors/vd1943/vd1943.c ****   default:
 649:../Middlewares/stm32-mw-camera/sensors/vd1943/vd1943.c ****     assert(0);
 650:../Middlewares/stm32-mw-camera/sensors/vd1943/vd1943.c ****   }
 651:../Middlewares/stm32-mw-camera/sensors/vd1943/vd1943.c **** 
 652:../Middlewares/stm32-mw-camera/sensors/vd1943/vd1943.c ****   return 0;
 653:../Middlewares/stm32-mw-camera/sensors/vd1943/vd1943.c **** }
 654:../Middlewares/stm32-mw-camera/sensors/vd1943/vd1943.c **** 
 655:../Middlewares/stm32-mw-camera/sensors/vd1943/vd1943.c **** static int VD1943_SetBayerType(VD1943_Ctx_t *ctx)
 656:../Middlewares/stm32-mw-camera/sensors/vd1943/vd1943.c **** {
 657:../Middlewares/stm32-mw-camera/sensors/vd1943/vd1943.c ****   struct drv_vd1943_ctx *drv_vd1943_ctx = &ctx->ctx;
 658:../Middlewares/stm32-mw-camera/sensors/vd1943/vd1943.c **** 
 659:../Middlewares/stm32-mw-camera/sensors/vd1943/vd1943.c ****   if (drv_vd1943_ctx->is_mono)
 660:../Middlewares/stm32-mw-camera/sensors/vd1943/vd1943.c ****     // Monochrom variant, force Bayer None (= Mono)  
 661:../Middlewares/stm32-mw-camera/sensors/vd1943/vd1943.c ****     return VD1943_BAYER_NONE;
 662:../Middlewares/stm32-mw-camera/sensors/vd1943/vd1943.c **** 
 663:../Middlewares/stm32-mw-camera/sensors/vd1943/vd1943.c ****   switch (drv_vd1943_ctx->config_save.image_processing_mode) {
 664:../Middlewares/stm32-mw-camera/sensors/vd1943/vd1943.c ****   case VD1943_GS_SS1_RGB_8:
 665:../Middlewares/stm32-mw-camera/sensors/vd1943/vd1943.c ****   case VD1943_GS_SS1_RGB_10:
 666:../Middlewares/stm32-mw-camera/sensors/vd1943/vd1943.c ****   case VD1943_RS_SDR_RGB_8:
 667:../Middlewares/stm32-mw-camera/sensors/vd1943/vd1943.c ****   case VD1943_RS_SDR_RGB_10:
 668:../Middlewares/stm32-mw-camera/sensors/vd1943/vd1943.c ****   case VD1943_RS_SDR_RGB_12:
 669:../Middlewares/stm32-mw-camera/sensors/vd1943/vd1943.c ****   case VD1943_RS_HDR_RGB_10:
 670:../Middlewares/stm32-mw-camera/sensors/vd1943/vd1943.c ****   case VD1943_RS_HDR_RGB_12:
 671:../Middlewares/stm32-mw-camera/sensors/vd1943/vd1943.c ****     return VD1943_SetBayerType_RGB(ctx);
 672:../Middlewares/stm32-mw-camera/sensors/vd1943/vd1943.c ****     break;
 673:../Middlewares/stm32-mw-camera/sensors/vd1943/vd1943.c ****   case VD1943_GS_SS1_NATIVE_8:
 674:../Middlewares/stm32-mw-camera/sensors/vd1943/vd1943.c ****   case VD1943_GS_SS1_NATIVE_10:
 675:../Middlewares/stm32-mw-camera/sensors/vd1943/vd1943.c ****   case VD1943_GS_SS1_SPLIT_NATIVE_8:
 676:../Middlewares/stm32-mw-camera/sensors/vd1943/vd1943.c ****   case VD1943_GS_SS1_SPLIT_NATIVE_10:
 677:../Middlewares/stm32-mw-camera/sensors/vd1943/vd1943.c ****   case VD1943_RS_SDR_NATIVE_8:
 678:../Middlewares/stm32-mw-camera/sensors/vd1943/vd1943.c ****   case VD1943_RS_SDR_NATIVE_10:
 679:../Middlewares/stm32-mw-camera/sensors/vd1943/vd1943.c ****   case VD1943_RS_SDR_NATIVE_12:
 680:../Middlewares/stm32-mw-camera/sensors/vd1943/vd1943.c ****   case VD1943_RS_HDR_NATIVE_10:
 681:../Middlewares/stm32-mw-camera/sensors/vd1943/vd1943.c ****   case VD1943_RS_HDR_NATIVE_12:
 682:../Middlewares/stm32-mw-camera/sensors/vd1943/vd1943.c ****     return VD1943_SetBayerType_RGBNIR(ctx);
 683:../Middlewares/stm32-mw-camera/sensors/vd1943/vd1943.c ****     break;
 684:../Middlewares/stm32-mw-camera/sensors/vd1943/vd1943.c ****   case VD1943_GS_SS1_IR_8:
 685:../Middlewares/stm32-mw-camera/sensors/vd1943/vd1943.c ****   case VD1943_GS_SS1_IR_10:
 686:../Middlewares/stm32-mw-camera/sensors/vd1943/vd1943.c ****   case VD1943_GS_SS1_SPLIT_IR_8:
 687:../Middlewares/stm32-mw-camera/sensors/vd1943/vd1943.c ****   case VD1943_GS_SS1_SPLIT_IR_10:
 688:../Middlewares/stm32-mw-camera/sensors/vd1943/vd1943.c ****   case VD1943_GS_SS2_MONO_8:
 689:../Middlewares/stm32-mw-camera/sensors/vd1943/vd1943.c ****   case VD1943_GS_SS2_MONO_10:
 690:../Middlewares/stm32-mw-camera/sensors/vd1943/vd1943.c ****   case VD1943_GS_SS4_MONO_8:
ARM GAS  /tmp/ccydMd0r.s 			page 19


 691:../Middlewares/stm32-mw-camera/sensors/vd1943/vd1943.c ****   case VD1943_GS_SS4_MONO_10:
 692:../Middlewares/stm32-mw-camera/sensors/vd1943/vd1943.c ****   case VD1943_GS_SS32_MONO_8:
 693:../Middlewares/stm32-mw-camera/sensors/vd1943/vd1943.c ****   case VD1943_GS_SS32_MONO_10:
 694:../Middlewares/stm32-mw-camera/sensors/vd1943/vd1943.c ****     return VD1943_BAYER_NONE;
 695:../Middlewares/stm32-mw-camera/sensors/vd1943/vd1943.c ****   default:
 696:../Middlewares/stm32-mw-camera/sensors/vd1943/vd1943.c ****     assert(0);
 697:../Middlewares/stm32-mw-camera/sensors/vd1943/vd1943.c ****   }
 698:../Middlewares/stm32-mw-camera/sensors/vd1943/vd1943.c **** 
 699:../Middlewares/stm32-mw-camera/sensors/vd1943/vd1943.c ****   return 0;
 700:../Middlewares/stm32-mw-camera/sensors/vd1943/vd1943.c **** }
 701:../Middlewares/stm32-mw-camera/sensors/vd1943/vd1943.c **** 
 702:../Middlewares/stm32-mw-camera/sensors/vd1943/vd1943.c **** static int VD1943_GetSubSamplingFactor(VD1943_Ctx_t *ctx, int *ss_factor)
 703:../Middlewares/stm32-mw-camera/sensors/vd1943/vd1943.c **** {
 704:../Middlewares/stm32-mw-camera/sensors/vd1943/vd1943.c ****   struct drv_vd1943_ctx *drv_vd1943_ctx = &ctx->ctx;
 705:../Middlewares/stm32-mw-camera/sensors/vd1943/vd1943.c **** 
 706:../Middlewares/stm32-mw-camera/sensors/vd1943/vd1943.c ****   switch (drv_vd1943_ctx->config_save.image_processing_mode) {
 707:../Middlewares/stm32-mw-camera/sensors/vd1943/vd1943.c ****   case VD1943_GS_SS32_MONO_8:
 708:../Middlewares/stm32-mw-camera/sensors/vd1943/vd1943.c ****   case VD1943_GS_SS32_MONO_10:
 709:../Middlewares/stm32-mw-camera/sensors/vd1943/vd1943.c ****     *ss_factor = 32;
 710:../Middlewares/stm32-mw-camera/sensors/vd1943/vd1943.c ****     break;
 711:../Middlewares/stm32-mw-camera/sensors/vd1943/vd1943.c ****   case VD1943_GS_SS2_MONO_8:
 712:../Middlewares/stm32-mw-camera/sensors/vd1943/vd1943.c ****   case VD1943_GS_SS2_MONO_10:
 713:../Middlewares/stm32-mw-camera/sensors/vd1943/vd1943.c ****     *ss_factor = 2;
 714:../Middlewares/stm32-mw-camera/sensors/vd1943/vd1943.c ****     break;
 715:../Middlewares/stm32-mw-camera/sensors/vd1943/vd1943.c ****   case VD1943_GS_SS4_MONO_8:
 716:../Middlewares/stm32-mw-camera/sensors/vd1943/vd1943.c ****   case VD1943_GS_SS4_MONO_10:
 717:../Middlewares/stm32-mw-camera/sensors/vd1943/vd1943.c ****     *ss_factor = 4;
 718:../Middlewares/stm32-mw-camera/sensors/vd1943/vd1943.c ****     break;
 719:../Middlewares/stm32-mw-camera/sensors/vd1943/vd1943.c ****   default:
 720:../Middlewares/stm32-mw-camera/sensors/vd1943/vd1943.c ****     *ss_factor = 1;
 721:../Middlewares/stm32-mw-camera/sensors/vd1943/vd1943.c ****   }
 722:../Middlewares/stm32-mw-camera/sensors/vd1943/vd1943.c **** 
 723:../Middlewares/stm32-mw-camera/sensors/vd1943/vd1943.c ****   return 0;
 724:../Middlewares/stm32-mw-camera/sensors/vd1943/vd1943.c **** }
 725:../Middlewares/stm32-mw-camera/sensors/vd1943/vd1943.c **** 
 726:../Middlewares/stm32-mw-camera/sensors/vd1943/vd1943.c **** static int VD1943_Boot(VD1943_Ctx_t *ctx)
 727:../Middlewares/stm32-mw-camera/sensors/vd1943/vd1943.c **** {
 728:../Middlewares/stm32-mw-camera/sensors/vd1943/vd1943.c ****   int ret;
 729:../Middlewares/stm32-mw-camera/sensors/vd1943/vd1943.c **** 
 730:../Middlewares/stm32-mw-camera/sensors/vd1943/vd1943.c ****   ret = VD1943_WaitState(ctx, VD1943_SYSTEM_UP);
 731:../Middlewares/stm32-mw-camera/sensors/vd1943/vd1943.c ****   if (ret)
 732:../Middlewares/stm32-mw-camera/sensors/vd1943/vd1943.c ****     return ret;
 733:../Middlewares/stm32-mw-camera/sensors/vd1943/vd1943.c **** 
 734:../Middlewares/stm32-mw-camera/sensors/vd1943/vd1943.c ****   ret = VD1943_CheckModelId(ctx);
 735:../Middlewares/stm32-mw-camera/sensors/vd1943/vd1943.c ****   if (ret)
 736:../Middlewares/stm32-mw-camera/sensors/vd1943/vd1943.c ****     return ret;
 737:../Middlewares/stm32-mw-camera/sensors/vd1943/vd1943.c **** 
 738:../Middlewares/stm32-mw-camera/sensors/vd1943/vd1943.c ****   ret = VD1943_GoToBootState(ctx);
 739:../Middlewares/stm32-mw-camera/sensors/vd1943/vd1943.c ****   if (ret)
 740:../Middlewares/stm32-mw-camera/sensors/vd1943/vd1943.c ****     return ret;
 741:../Middlewares/stm32-mw-camera/sensors/vd1943/vd1943.c **** 
 742:../Middlewares/stm32-mw-camera/sensors/vd1943/vd1943.c ****   if (!ctx->ctx.is_fastboot) {
 743:../Middlewares/stm32-mw-camera/sensors/vd1943/vd1943.c ****     ret = VD1943_ApplyCertificate(ctx);
 744:../Middlewares/stm32-mw-camera/sensors/vd1943/vd1943.c ****     if (ret)
 745:../Middlewares/stm32-mw-camera/sensors/vd1943/vd1943.c ****       return ret;
 746:../Middlewares/stm32-mw-camera/sensors/vd1943/vd1943.c **** 
 747:../Middlewares/stm32-mw-camera/sensors/vd1943/vd1943.c ****     ret = VD1943_ApplyFwPatch(ctx);
ARM GAS  /tmp/ccydMd0r.s 			page 20


 748:../Middlewares/stm32-mw-camera/sensors/vd1943/vd1943.c ****     if (ret)
 749:../Middlewares/stm32-mw-camera/sensors/vd1943/vd1943.c ****       return ret;
 750:../Middlewares/stm32-mw-camera/sensors/vd1943/vd1943.c ****   }
 751:../Middlewares/stm32-mw-camera/sensors/vd1943/vd1943.c **** 
 752:../Middlewares/stm32-mw-camera/sensors/vd1943/vd1943.c ****   ret = VD1943_GoToStandbyState(ctx);
 753:../Middlewares/stm32-mw-camera/sensors/vd1943/vd1943.c ****   if (ret)
 754:../Middlewares/stm32-mw-camera/sensors/vd1943/vd1943.c ****     return ret;
 755:../Middlewares/stm32-mw-camera/sensors/vd1943/vd1943.c **** 
 756:../Middlewares/stm32-mw-camera/sensors/vd1943/vd1943.c ****   if (!ctx->ctx.is_fastboot) {
 757:../Middlewares/stm32-mw-camera/sensors/vd1943/vd1943.c ****     ret = VD1943_ApplyVTPatch(ctx);
 758:../Middlewares/stm32-mw-camera/sensors/vd1943/vd1943.c ****     if (ret)
 759:../Middlewares/stm32-mw-camera/sensors/vd1943/vd1943.c ****       return ret;
 760:../Middlewares/stm32-mw-camera/sensors/vd1943/vd1943.c ****   }
 761:../Middlewares/stm32-mw-camera/sensors/vd1943/vd1943.c **** 
 762:../Middlewares/stm32-mw-camera/sensors/vd1943/vd1943.c ****   ret = VD1943_SetBayerType(ctx);
 763:../Middlewares/stm32-mw-camera/sensors/vd1943/vd1943.c ****   if (ret)
 764:../Middlewares/stm32-mw-camera/sensors/vd1943/vd1943.c ****     return ret;
 765:../Middlewares/stm32-mw-camera/sensors/vd1943/vd1943.c **** 
 766:../Middlewares/stm32-mw-camera/sensors/vd1943/vd1943.c ****   return 0;
 767:../Middlewares/stm32-mw-camera/sensors/vd1943/vd1943.c **** }
 768:../Middlewares/stm32-mw-camera/sensors/vd1943/vd1943.c **** 
 769:../Middlewares/stm32-mw-camera/sensors/vd1943/vd1943.c **** static uint8_t VD1943_GetLaneNb(VD1943_OutItf_Config_t *out_itf)
 770:../Middlewares/stm32-mw-camera/sensors/vd1943/vd1943.c **** {
 771:../Middlewares/stm32-mw-camera/sensors/vd1943/vd1943.c ****   switch (out_itf->datalane_nb) {
 772:../Middlewares/stm32-mw-camera/sensors/vd1943/vd1943.c ****   case 2:
 773:../Middlewares/stm32-mw-camera/sensors/vd1943/vd1943.c ****     return VD1943_LANE_NB_SEL_2;
 774:../Middlewares/stm32-mw-camera/sensors/vd1943/vd1943.c ****     break;
 775:../Middlewares/stm32-mw-camera/sensors/vd1943/vd1943.c ****   case 4:
 776:../Middlewares/stm32-mw-camera/sensors/vd1943/vd1943.c ****     return VD1943_LANE_NB_SEL_4;
 777:../Middlewares/stm32-mw-camera/sensors/vd1943/vd1943.c ****     break;
 778:../Middlewares/stm32-mw-camera/sensors/vd1943/vd1943.c ****   default:
 779:../Middlewares/stm32-mw-camera/sensors/vd1943/vd1943.c ****     assert(0);
 780:../Middlewares/stm32-mw-camera/sensors/vd1943/vd1943.c ****   }
 781:../Middlewares/stm32-mw-camera/sensors/vd1943/vd1943.c **** 
 782:../Middlewares/stm32-mw-camera/sensors/vd1943/vd1943.c ****   return VD1943_LANE_NB_SEL_2;
 783:../Middlewares/stm32-mw-camera/sensors/vd1943/vd1943.c **** }
 784:../Middlewares/stm32-mw-camera/sensors/vd1943/vd1943.c **** 
 785:../Middlewares/stm32-mw-camera/sensors/vd1943/vd1943.c **** static uint8_t VD1943_GetLogicalPhysicalMapping(VD1943_OutItf_Config_t *out_itf)
 786:../Middlewares/stm32-mw-camera/sensors/vd1943/vd1943.c **** {
 787:../Middlewares/stm32-mw-camera/sensors/vd1943/vd1943.c ****   return (out_itf->logic_lane_mapping[0] << 0) |
 788:../Middlewares/stm32-mw-camera/sensors/vd1943/vd1943.c ****          (out_itf->logic_lane_mapping[1] << 2) |
 789:../Middlewares/stm32-mw-camera/sensors/vd1943/vd1943.c ****          (out_itf->logic_lane_mapping[2] << 4) |
 790:../Middlewares/stm32-mw-camera/sensors/vd1943/vd1943.c ****          (out_itf->logic_lane_mapping[3] << 6);
 791:../Middlewares/stm32-mw-camera/sensors/vd1943/vd1943.c **** }
 792:../Middlewares/stm32-mw-camera/sensors/vd1943/vd1943.c **** 
 793:../Middlewares/stm32-mw-camera/sensors/vd1943/vd1943.c **** static uint8_t VD1943_GetLaneSwap(VD1943_OutItf_Config_t *out_itf)
 794:../Middlewares/stm32-mw-camera/sensors/vd1943/vd1943.c **** {
 795:../Middlewares/stm32-mw-camera/sensors/vd1943/vd1943.c ****   return (out_itf->physical_lane_swap_enable[0] << 0) |
 796:../Middlewares/stm32-mw-camera/sensors/vd1943/vd1943.c ****          (out_itf->physical_lane_swap_enable[1] << 1) |
 797:../Middlewares/stm32-mw-camera/sensors/vd1943/vd1943.c ****          (out_itf->physical_lane_swap_enable[2] << 2) |
 798:../Middlewares/stm32-mw-camera/sensors/vd1943/vd1943.c ****          (out_itf->physical_lane_swap_enable[3] << 3) |
 799:../Middlewares/stm32-mw-camera/sensors/vd1943/vd1943.c ****          (out_itf->clock_lane_swap_enable << 4);
 800:../Middlewares/stm32-mw-camera/sensors/vd1943/vd1943.c **** }
 801:../Middlewares/stm32-mw-camera/sensors/vd1943/vd1943.c **** 
 802:../Middlewares/stm32-mw-camera/sensors/vd1943/vd1943.c **** static int VD1943_SetupOutputDataType(VD1943_Ctx_t *ctx)
 803:../Middlewares/stm32-mw-camera/sensors/vd1943/vd1943.c **** {
 804:../Middlewares/stm32-mw-camera/sensors/vd1943/vd1943.c ****   uint8_t dt;
ARM GAS  /tmp/ccydMd0r.s 			page 21


 805:../Middlewares/stm32-mw-camera/sensors/vd1943/vd1943.c ****   int ret;
 806:../Middlewares/stm32-mw-camera/sensors/vd1943/vd1943.c **** 
 807:../Middlewares/stm32-mw-camera/sensors/vd1943/vd1943.c ****   switch (ctx->ctx.config_save.image_processing_mode) {
 808:../Middlewares/stm32-mw-camera/sensors/vd1943/vd1943.c ****   case VD1943_GS_SS1_NATIVE_8:
 809:../Middlewares/stm32-mw-camera/sensors/vd1943/vd1943.c ****   case VD1943_GS_SS1_SPLIT_NATIVE_8:
 810:../Middlewares/stm32-mw-camera/sensors/vd1943/vd1943.c ****   case VD1943_GS_SS1_RGB_8:
 811:../Middlewares/stm32-mw-camera/sensors/vd1943/vd1943.c ****   case VD1943_GS_SS1_IR_8:
 812:../Middlewares/stm32-mw-camera/sensors/vd1943/vd1943.c ****   case VD1943_GS_SS1_SPLIT_IR_8:
 813:../Middlewares/stm32-mw-camera/sensors/vd1943/vd1943.c ****   case VD1943_GS_SS2_MONO_8:
 814:../Middlewares/stm32-mw-camera/sensors/vd1943/vd1943.c ****   case VD1943_GS_SS4_MONO_8:
 815:../Middlewares/stm32-mw-camera/sensors/vd1943/vd1943.c ****   case VD1943_GS_SS32_MONO_8:
 816:../Middlewares/stm32-mw-camera/sensors/vd1943/vd1943.c ****   case VD1943_RS_SDR_NATIVE_8:
 817:../Middlewares/stm32-mw-camera/sensors/vd1943/vd1943.c ****   case VD1943_RS_SDR_RGB_8:
 818:../Middlewares/stm32-mw-camera/sensors/vd1943/vd1943.c ****     dt = 0x2a;
 819:../Middlewares/stm32-mw-camera/sensors/vd1943/vd1943.c ****     break;
 820:../Middlewares/stm32-mw-camera/sensors/vd1943/vd1943.c ****   case VD1943_GS_SS1_NATIVE_10:
 821:../Middlewares/stm32-mw-camera/sensors/vd1943/vd1943.c ****   case VD1943_GS_SS1_SPLIT_NATIVE_10:
 822:../Middlewares/stm32-mw-camera/sensors/vd1943/vd1943.c ****   case VD1943_GS_SS1_RGB_10:
 823:../Middlewares/stm32-mw-camera/sensors/vd1943/vd1943.c ****   case VD1943_GS_SS1_IR_10:
 824:../Middlewares/stm32-mw-camera/sensors/vd1943/vd1943.c ****   case VD1943_GS_SS1_SPLIT_IR_10:
 825:../Middlewares/stm32-mw-camera/sensors/vd1943/vd1943.c ****   case VD1943_GS_SS2_MONO_10:
 826:../Middlewares/stm32-mw-camera/sensors/vd1943/vd1943.c ****   case VD1943_GS_SS4_MONO_10:
 827:../Middlewares/stm32-mw-camera/sensors/vd1943/vd1943.c ****   case VD1943_GS_SS32_MONO_10:
 828:../Middlewares/stm32-mw-camera/sensors/vd1943/vd1943.c ****   case VD1943_RS_SDR_NATIVE_10:
 829:../Middlewares/stm32-mw-camera/sensors/vd1943/vd1943.c ****   case VD1943_RS_SDR_RGB_10:
 830:../Middlewares/stm32-mw-camera/sensors/vd1943/vd1943.c ****   case VD1943_RS_HDR_NATIVE_10:
 831:../Middlewares/stm32-mw-camera/sensors/vd1943/vd1943.c ****   case VD1943_RS_HDR_RGB_10:
 832:../Middlewares/stm32-mw-camera/sensors/vd1943/vd1943.c ****     dt = 0x2b;
 833:../Middlewares/stm32-mw-camera/sensors/vd1943/vd1943.c ****     break;
 834:../Middlewares/stm32-mw-camera/sensors/vd1943/vd1943.c ****   case VD1943_RS_SDR_NATIVE_12:
 835:../Middlewares/stm32-mw-camera/sensors/vd1943/vd1943.c ****   case VD1943_RS_SDR_RGB_12:
 836:../Middlewares/stm32-mw-camera/sensors/vd1943/vd1943.c ****   case VD1943_RS_HDR_NATIVE_12:
 837:../Middlewares/stm32-mw-camera/sensors/vd1943/vd1943.c ****   case VD1943_RS_HDR_RGB_12:
 838:../Middlewares/stm32-mw-camera/sensors/vd1943/vd1943.c ****     dt = 0x2c;
 839:../Middlewares/stm32-mw-camera/sensors/vd1943/vd1943.c ****     break;
 840:../Middlewares/stm32-mw-camera/sensors/vd1943/vd1943.c ****   default:
 841:../Middlewares/stm32-mw-camera/sensors/vd1943/vd1943.c ****     assert(0);
 842:../Middlewares/stm32-mw-camera/sensors/vd1943/vd1943.c ****     return -1;
 843:../Middlewares/stm32-mw-camera/sensors/vd1943/vd1943.c ****   }
 844:../Middlewares/stm32-mw-camera/sensors/vd1943/vd1943.c **** 
 845:../Middlewares/stm32-mw-camera/sensors/vd1943/vd1943.c ****   ret = ctx->write8(ctx, VD1943_REG_ROI_A_DT, dt);
 846:../Middlewares/stm32-mw-camera/sensors/vd1943/vd1943.c ****   VD1943_TraceError(ctx, ret);
 847:../Middlewares/stm32-mw-camera/sensors/vd1943/vd1943.c **** 
 848:../Middlewares/stm32-mw-camera/sensors/vd1943/vd1943.c ****   return ret;
 849:../Middlewares/stm32-mw-camera/sensors/vd1943/vd1943.c **** }
 850:../Middlewares/stm32-mw-camera/sensors/vd1943/vd1943.c **** 
 851:../Middlewares/stm32-mw-camera/sensors/vd1943/vd1943.c **** static int VD1943_SetupOutput(VD1943_Ctx_t *ctx)
 852:../Middlewares/stm32-mw-camera/sensors/vd1943/vd1943.c **** {
 853:../Middlewares/stm32-mw-camera/sensors/vd1943/vd1943.c ****   VD1943_OutItf_Config_t *out_itf = &ctx->ctx.config_save.out_itf;
 854:../Middlewares/stm32-mw-camera/sensors/vd1943/vd1943.c ****   int ret;
 855:../Middlewares/stm32-mw-camera/sensors/vd1943/vd1943.c **** 
 856:../Middlewares/stm32-mw-camera/sensors/vd1943/vd1943.c ****   /* setup sensor mode */
 857:../Middlewares/stm32-mw-camera/sensors/vd1943/vd1943.c ****   ret = ctx->write32(ctx, VD1943_REG_SENSOR_CONFIGURATION(0), ctx->ctx.config_save.image_processing
 858:../Middlewares/stm32-mw-camera/sensors/vd1943/vd1943.c ****   VD1943_TraceError(ctx, ret);
 859:../Middlewares/stm32-mw-camera/sensors/vd1943/vd1943.c **** 
 860:../Middlewares/stm32-mw-camera/sensors/vd1943/vd1943.c ****   /* Disable CFA_BLENDER when used in RGB. Note that this approach consider that
 861:../Middlewares/stm32-mw-camera/sensors/vd1943/vd1943.c ****      when RGB is in use there's a pure RGB lens - which is not systematic.
ARM GAS  /tmp/ccydMd0r.s 			page 22


 862:../Middlewares/stm32-mw-camera/sensors/vd1943/vd1943.c ****      Proper approach (TODO) would be to make it a controllable setting. */
 863:../Middlewares/stm32-mw-camera/sensors/vd1943/vd1943.c ****   if (ctx->bayer == VD1943_BAYER_GBRG || ctx->bayer == VD1943_BAYER_RGGB ||
 864:../Middlewares/stm32-mw-camera/sensors/vd1943/vd1943.c ****       ctx->bayer == VD1943_BAYER_BGGR || ctx->bayer == VD1943_BAYER_GBRG)
 865:../Middlewares/stm32-mw-camera/sensors/vd1943/vd1943.c ****   {
 866:../Middlewares/stm32-mw-camera/sensors/vd1943/vd1943.c ****     ret = ctx->write8(ctx, VD1943_REG_CFA_BLENDER_ALPHA_CTRL, VD1943_CFA_BLENDER_ZERO);
 867:../Middlewares/stm32-mw-camera/sensors/vd1943/vd1943.c ****   } else {
 868:../Middlewares/stm32-mw-camera/sensors/vd1943/vd1943.c ****     ret = ctx->write8(ctx, VD1943_REG_CFA_BLENDER_ALPHA_CTRL, VD1943_CFA_BLENDER_NORMAL);
 869:../Middlewares/stm32-mw-camera/sensors/vd1943/vd1943.c ****   }
 870:../Middlewares/stm32-mw-camera/sensors/vd1943/vd1943.c ****   VD1943_TraceError(ctx, ret);
 871:../Middlewares/stm32-mw-camera/sensors/vd1943/vd1943.c **** 
 872:../Middlewares/stm32-mw-camera/sensors/vd1943/vd1943.c ****   /* csi-2 output itf */
 873:../Middlewares/stm32-mw-camera/sensors/vd1943/vd1943.c ****    /* lane number */
 874:../Middlewares/stm32-mw-camera/sensors/vd1943/vd1943.c ****   ret = ctx->write8(ctx, VD1943_REG_LANE_NB_SEL, VD1943_GetLaneNb(out_itf));
 875:../Middlewares/stm32-mw-camera/sensors/vd1943/vd1943.c ****   VD1943_TraceError(ctx, ret);
 876:../Middlewares/stm32-mw-camera/sensors/vd1943/vd1943.c ****   /* logical / physical mapping */
 877:../Middlewares/stm32-mw-camera/sensors/vd1943/vd1943.c ****   ret = ctx->write8(ctx, VD1943_REG_OIF_LANE_PHY_MAP, VD1943_GetLogicalPhysicalMapping(out_itf));
 878:../Middlewares/stm32-mw-camera/sensors/vd1943/vd1943.c ****   VD1943_TraceError(ctx, ret);
 879:../Middlewares/stm32-mw-camera/sensors/vd1943/vd1943.c ****   /* lane swap */
 880:../Middlewares/stm32-mw-camera/sensors/vd1943/vd1943.c ****   ret = ctx->write8(ctx, VD1943_REG_OIF_LANE_PHY_SWAP, VD1943_GetLaneSwap(out_itf));
 881:../Middlewares/stm32-mw-camera/sensors/vd1943/vd1943.c ****   VD1943_TraceError(ctx, ret);
 882:../Middlewares/stm32-mw-camera/sensors/vd1943/vd1943.c ****    /* data rate */
 883:../Middlewares/stm32-mw-camera/sensors/vd1943/vd1943.c ****   ret = ctx->write32(ctx, VD1943_REG_MIPI_DATA_RATE, out_itf->data_rate_in_mps);
 884:../Middlewares/stm32-mw-camera/sensors/vd1943/vd1943.c ****   VD1943_TraceError(ctx, ret);
 885:../Middlewares/stm32-mw-camera/sensors/vd1943/vd1943.c ****    /* data type / RAW8*/
 886:../Middlewares/stm32-mw-camera/sensors/vd1943/vd1943.c ****   ret = VD1943_SetupOutputDataType(ctx);
 887:../Middlewares/stm32-mw-camera/sensors/vd1943/vd1943.c ****   if (ret)
 888:../Middlewares/stm32-mw-camera/sensors/vd1943/vd1943.c ****     return ret;
 889:../Middlewares/stm32-mw-camera/sensors/vd1943/vd1943.c ****    /* Force ISL Datatype to 0x12 (not the default value on Cut1.4) */
 890:../Middlewares/stm32-mw-camera/sensors/vd1943/vd1943.c ****   ret = ctx->write8(ctx, VD1943_REG_OIF_DT_ISL, 0x12);
 891:../Middlewares/stm32-mw-camera/sensors/vd1943/vd1943.c ****   VD1943_TraceError(ctx, ret);
 892:../Middlewares/stm32-mw-camera/sensors/vd1943/vd1943.c **** 
 893:../Middlewares/stm32-mw-camera/sensors/vd1943/vd1943.c ****   return 0;
 894:../Middlewares/stm32-mw-camera/sensors/vd1943/vd1943.c **** }
 895:../Middlewares/stm32-mw-camera/sensors/vd1943/vd1943.c **** 
 896:../Middlewares/stm32-mw-camera/sensors/vd1943/vd1943.c **** static int VD1943_SetupSize(VD1943_Ctx_t *ctx)
 897:../Middlewares/stm32-mw-camera/sensors/vd1943/vd1943.c **** {
 898:../Middlewares/stm32-mw-camera/sensors/vd1943/vd1943.c ****   const struct vd1943_rect *rect = &vd1943_supported_modes[ctx->ctx.config_save.resolution];
 899:../Middlewares/stm32-mw-camera/sensors/vd1943/vd1943.c ****   int ss_factor;
 900:../Middlewares/stm32-mw-camera/sensors/vd1943/vd1943.c ****   int ret;
 901:../Middlewares/stm32-mw-camera/sensors/vd1943/vd1943.c **** 
 902:../Middlewares/stm32-mw-camera/sensors/vd1943/vd1943.c ****   assert(rect->left % 4 == 0);
 903:../Middlewares/stm32-mw-camera/sensors/vd1943/vd1943.c ****   assert(rect->top % 4 == 0);
 904:../Middlewares/stm32-mw-camera/sensors/vd1943/vd1943.c ****   assert(rect->width % 4 == 0);
 905:../Middlewares/stm32-mw-camera/sensors/vd1943/vd1943.c ****   assert(rect->height % 4 == 0);
 906:../Middlewares/stm32-mw-camera/sensors/vd1943/vd1943.c **** 
 907:../Middlewares/stm32-mw-camera/sensors/vd1943/vd1943.c ****   ret = VD1943_GetSubSamplingFactor(ctx, &ss_factor);
 908:../Middlewares/stm32-mw-camera/sensors/vd1943/vd1943.c ****   if (ret)
 909:../Middlewares/stm32-mw-camera/sensors/vd1943/vd1943.c ****     return ret;
 910:../Middlewares/stm32-mw-camera/sensors/vd1943/vd1943.c **** 
 911:../Middlewares/stm32-mw-camera/sensors/vd1943/vd1943.c ****   ret = ctx->write16(ctx, VD1943_REG_ROI_A_WIDTH_OFFSET, rect->left);
 912:../Middlewares/stm32-mw-camera/sensors/vd1943/vd1943.c ****   VD1943_TraceError(ctx, ret);
 913:../Middlewares/stm32-mw-camera/sensors/vd1943/vd1943.c ****   ret = ctx->write16(ctx, VD1943_REG_ROI_A_HEIGHT_OFFSET, rect->top);
 914:../Middlewares/stm32-mw-camera/sensors/vd1943/vd1943.c ****   VD1943_TraceError(ctx, ret);
 915:../Middlewares/stm32-mw-camera/sensors/vd1943/vd1943.c ****   ret = ctx->write16(ctx, VD1943_REG_ROI_A_WIDTH, rect->width / ss_factor);
 916:../Middlewares/stm32-mw-camera/sensors/vd1943/vd1943.c ****   VD1943_TraceError(ctx, ret);
 917:../Middlewares/stm32-mw-camera/sensors/vd1943/vd1943.c ****   ret = ctx->write16(ctx, VD1943_REG_ROI_A_HEIGHT, rect->height / ss_factor);
 918:../Middlewares/stm32-mw-camera/sensors/vd1943/vd1943.c ****   VD1943_TraceError(ctx, ret);
ARM GAS  /tmp/ccydMd0r.s 			page 23


 919:../Middlewares/stm32-mw-camera/sensors/vd1943/vd1943.c **** 
 920:../Middlewares/stm32-mw-camera/sensors/vd1943/vd1943.c ****   return 0;
 921:../Middlewares/stm32-mw-camera/sensors/vd1943/vd1943.c **** }
 922:../Middlewares/stm32-mw-camera/sensors/vd1943/vd1943.c **** 
 923:../Middlewares/stm32-mw-camera/sensors/vd1943/vd1943.c **** static int VD1943_SetupLineLen(VD1943_Ctx_t *ctx)
 924:../Middlewares/stm32-mw-camera/sensors/vd1943/vd1943.c **** {
 925:../Middlewares/stm32-mw-camera/sensors/vd1943/vd1943.c ****   uint8_t gs_mode;
 926:../Middlewares/stm32-mw-camera/sensors/vd1943/vd1943.c ****   uint32_t system_pll_clk;
 927:../Middlewares/stm32-mw-camera/sensors/vd1943/vd1943.c ****   uint32_t vt_pixelrate;
 928:../Middlewares/stm32-mw-camera/sensors/vd1943/vd1943.c ****   unsigned int bpp;
 929:../Middlewares/stm32-mw-camera/sensors/vd1943/vd1943.c ****   uint32_t mipi_bandwidth;
 930:../Middlewares/stm32-mw-camera/sensors/vd1943/vd1943.c ****   uint32_t mipi_pixelrate;
 931:../Middlewares/stm32-mw-camera/sensors/vd1943/vd1943.c ****   uint16_t line_length;
 932:../Middlewares/stm32-mw-camera/sensors/vd1943/vd1943.c ****   uint32_t mipi_transition_cst_in_px;
 933:../Middlewares/stm32-mw-camera/sensors/vd1943/vd1943.c ****   uint32_t mipi_interpacket_delay_in_px;
 934:../Middlewares/stm32-mw-camera/sensors/vd1943/vd1943.c ****   uint64_t mipi_virtual_linelength = 0;
 935:../Middlewares/stm32-mw-camera/sensors/vd1943/vd1943.c ****   int ret;
 936:../Middlewares/stm32-mw-camera/sensors/vd1943/vd1943.c **** 
 937:../Middlewares/stm32-mw-camera/sensors/vd1943/vd1943.c ****   /* Shutter mode directly impact linelength */
 938:../Middlewares/stm32-mw-camera/sensors/vd1943/vd1943.c ****   switch (ctx->ctx.config_save.image_processing_mode)
 939:../Middlewares/stm32-mw-camera/sensors/vd1943/vd1943.c ****   {
 940:../Middlewares/stm32-mw-camera/sensors/vd1943/vd1943.c ****   case VD1943_GS_SS1_NATIVE_8:
 941:../Middlewares/stm32-mw-camera/sensors/vd1943/vd1943.c ****   case VD1943_GS_SS1_NATIVE_10:
 942:../Middlewares/stm32-mw-camera/sensors/vd1943/vd1943.c ****   case VD1943_GS_SS1_SPLIT_NATIVE_8:
 943:../Middlewares/stm32-mw-camera/sensors/vd1943/vd1943.c ****   case VD1943_GS_SS1_SPLIT_NATIVE_10:
 944:../Middlewares/stm32-mw-camera/sensors/vd1943/vd1943.c ****   case VD1943_GS_SS1_SPLIT_IR_8:
 945:../Middlewares/stm32-mw-camera/sensors/vd1943/vd1943.c ****   case VD1943_GS_SS1_SPLIT_IR_10:
 946:../Middlewares/stm32-mw-camera/sensors/vd1943/vd1943.c ****   case VD1943_GS_SS1_RGB_8:
 947:../Middlewares/stm32-mw-camera/sensors/vd1943/vd1943.c ****   case VD1943_GS_SS1_RGB_10:
 948:../Middlewares/stm32-mw-camera/sensors/vd1943/vd1943.c ****   case VD1943_GS_SS1_IR_8:
 949:../Middlewares/stm32-mw-camera/sensors/vd1943/vd1943.c ****   case VD1943_GS_SS1_IR_10:
 950:../Middlewares/stm32-mw-camera/sensors/vd1943/vd1943.c ****   case VD1943_GS_SS2_MONO_8:
 951:../Middlewares/stm32-mw-camera/sensors/vd1943/vd1943.c ****   case VD1943_GS_SS2_MONO_10:
 952:../Middlewares/stm32-mw-camera/sensors/vd1943/vd1943.c ****   case VD1943_GS_SS4_MONO_8:
 953:../Middlewares/stm32-mw-camera/sensors/vd1943/vd1943.c ****   case VD1943_GS_SS4_MONO_10:
 954:../Middlewares/stm32-mw-camera/sensors/vd1943/vd1943.c ****   case VD1943_GS_SS32_MONO_8:
 955:../Middlewares/stm32-mw-camera/sensors/vd1943/vd1943.c ****   case VD1943_GS_SS32_MONO_10:
 956:../Middlewares/stm32-mw-camera/sensors/vd1943/vd1943.c ****     gs_mode = 1;
 957:../Middlewares/stm32-mw-camera/sensors/vd1943/vd1943.c ****     break;
 958:../Middlewares/stm32-mw-camera/sensors/vd1943/vd1943.c ****   case VD1943_RS_SDR_NATIVE_8:
 959:../Middlewares/stm32-mw-camera/sensors/vd1943/vd1943.c ****   case VD1943_RS_SDR_NATIVE_10:
 960:../Middlewares/stm32-mw-camera/sensors/vd1943/vd1943.c ****   case VD1943_RS_SDR_NATIVE_12:
 961:../Middlewares/stm32-mw-camera/sensors/vd1943/vd1943.c ****   case VD1943_RS_SDR_RGB_8:
 962:../Middlewares/stm32-mw-camera/sensors/vd1943/vd1943.c ****   case VD1943_RS_SDR_RGB_10:
 963:../Middlewares/stm32-mw-camera/sensors/vd1943/vd1943.c ****   case VD1943_RS_SDR_RGB_12:
 964:../Middlewares/stm32-mw-camera/sensors/vd1943/vd1943.c ****   case VD1943_RS_HDR_NATIVE_10:
 965:../Middlewares/stm32-mw-camera/sensors/vd1943/vd1943.c ****   case VD1943_RS_HDR_NATIVE_12:
 966:../Middlewares/stm32-mw-camera/sensors/vd1943/vd1943.c ****   case VD1943_RS_HDR_RGB_10:
 967:../Middlewares/stm32-mw-camera/sensors/vd1943/vd1943.c ****   case VD1943_RS_HDR_RGB_12:
 968:../Middlewares/stm32-mw-camera/sensors/vd1943/vd1943.c ****     gs_mode = 0;
 969:../Middlewares/stm32-mw-camera/sensors/vd1943/vd1943.c ****     break;
 970:../Middlewares/stm32-mw-camera/sensors/vd1943/vd1943.c ****   default:
 971:../Middlewares/stm32-mw-camera/sensors/vd1943/vd1943.c ****     return -1;
 972:../Middlewares/stm32-mw-camera/sensors/vd1943/vd1943.c ****   }
 973:../Middlewares/stm32-mw-camera/sensors/vd1943/vd1943.c **** 
 974:../Middlewares/stm32-mw-camera/sensors/vd1943/vd1943.c ****   ret = ctx->read32(ctx, VD1943_REG_SYSTEM_PLL_CLK, &system_pll_clk);
 975:../Middlewares/stm32-mw-camera/sensors/vd1943/vd1943.c ****   VD1943_TraceError(ctx, ret);
ARM GAS  /tmp/ccydMd0r.s 			page 24


 976:../Middlewares/stm32-mw-camera/sensors/vd1943/vd1943.c ****   VD1943_dbg(ctx, 0, "system pll clock = %d hz\n", system_pll_clk);
 977:../Middlewares/stm32-mw-camera/sensors/vd1943/vd1943.c **** 
 978:../Middlewares/stm32-mw-camera/sensors/vd1943/vd1943.c ****   /* With 2 rows of ADC used in GS mode, the VT pixel rate is doubled */
 979:../Middlewares/stm32-mw-camera/sensors/vd1943/vd1943.c ****   if (gs_mode)
 980:../Middlewares/stm32-mw-camera/sensors/vd1943/vd1943.c ****   {
 981:../Middlewares/stm32-mw-camera/sensors/vd1943/vd1943.c ****     vt_pixelrate = system_pll_clk / 2;
 982:../Middlewares/stm32-mw-camera/sensors/vd1943/vd1943.c ****   }
 983:../Middlewares/stm32-mw-camera/sensors/vd1943/vd1943.c ****   else
 984:../Middlewares/stm32-mw-camera/sensors/vd1943/vd1943.c ****   {
 985:../Middlewares/stm32-mw-camera/sensors/vd1943/vd1943.c ****     vt_pixelrate = system_pll_clk / 4;
 986:../Middlewares/stm32-mw-camera/sensors/vd1943/vd1943.c ****   }
 987:../Middlewares/stm32-mw-camera/sensors/vd1943/vd1943.c **** 
 988:../Middlewares/stm32-mw-camera/sensors/vd1943/vd1943.c ****   /* Compute the max pixelrate on the mipi link based on pixel depth */
 989:../Middlewares/stm32-mw-camera/sensors/vd1943/vd1943.c ****   ret = VD1943_GetPixelDepth(ctx, &bpp);
 990:../Middlewares/stm32-mw-camera/sensors/vd1943/vd1943.c ****   if (ret)
 991:../Middlewares/stm32-mw-camera/sensors/vd1943/vd1943.c ****     return ret;
 992:../Middlewares/stm32-mw-camera/sensors/vd1943/vd1943.c **** 
 993:../Middlewares/stm32-mw-camera/sensors/vd1943/vd1943.c ****   mipi_bandwidth = ctx->ctx.config_save.out_itf.data_rate_in_mps * ctx->ctx.config_save.out_itf.dat
 994:../Middlewares/stm32-mw-camera/sensors/vd1943/vd1943.c ****   mipi_pixelrate = mipi_bandwidth / bpp;
 995:../Middlewares/stm32-mw-camera/sensors/vd1943/vd1943.c **** 
 996:../Middlewares/stm32-mw-camera/sensors/vd1943/vd1943.c ****   /* Compute the mins linelength given the mipi bandwidth */
 997:../Middlewares/stm32-mw-camera/sensors/vd1943/vd1943.c ****   if (mipi_pixelrate < vt_pixelrate)
 998:../Middlewares/stm32-mw-camera/sensors/vd1943/vd1943.c ****   {
 999:../Middlewares/stm32-mw-camera/sensors/vd1943/vd1943.c ****     /*
1000:../Middlewares/stm32-mw-camera/sensors/vd1943/vd1943.c ****      * Compute a virtual (mipi-equivalent) linelength that could fit
1001:../Middlewares/stm32-mw-camera/sensors/vd1943/vd1943.c ****      * with MIPI limitation (MIPI link being the bottleneck here).
1002:../Middlewares/stm32-mw-camera/sensors/vd1943/vd1943.c ****      */
1003:../Middlewares/stm32-mw-camera/sensors/vd1943/vd1943.c ****     mipi_transition_cst_in_px = mipi_pixelrate / 1000000 / 4;
1004:../Middlewares/stm32-mw-camera/sensors/vd1943/vd1943.c ****     mipi_interpacket_delay_in_px = 30 * 8 * ctx->ctx.config_save.out_itf.datalane_nb / bpp;
1005:../Middlewares/stm32-mw-camera/sensors/vd1943/vd1943.c ****     mipi_virtual_linelength = mipi_transition_cst_in_px +
1006:../Middlewares/stm32-mw-camera/sensors/vd1943/vd1943.c ****                               vd1943_supported_modes[ctx->ctx.config_save.resolution].width +
1007:../Middlewares/stm32-mw-camera/sensors/vd1943/vd1943.c ****                               mipi_interpacket_delay_in_px;
1008:../Middlewares/stm32-mw-camera/sensors/vd1943/vd1943.c ****     mipi_virtual_linelength = mipi_virtual_linelength * vt_pixelrate / mipi_pixelrate;
1009:../Middlewares/stm32-mw-camera/sensors/vd1943/vd1943.c ****   }
1010:../Middlewares/stm32-mw-camera/sensors/vd1943/vd1943.c ****   line_length = MAX(VD1943_LINE_LENGTH_MIN, (uint16_t)mipi_virtual_linelength);
1011:../Middlewares/stm32-mw-camera/sensors/vd1943/vd1943.c **** 
1012:../Middlewares/stm32-mw-camera/sensors/vd1943/vd1943.c ****   /* Ensure linelength is a multiple of 4 */
1013:../Middlewares/stm32-mw-camera/sensors/vd1943/vd1943.c ****   line_length = ((line_length + 3) / 4) * 4;
1014:../Middlewares/stm32-mw-camera/sensors/vd1943/vd1943.c **** 
1015:../Middlewares/stm32-mw-camera/sensors/vd1943/vd1943.c ****   VD1943_dbg(ctx, 0, "line_length = %d\n", line_length);
1016:../Middlewares/stm32-mw-camera/sensors/vd1943/vd1943.c **** 
1017:../Middlewares/stm32-mw-camera/sensors/vd1943/vd1943.c ****   ret = ctx->write16(ctx, VD1943_REG_LINE_LENGTH, line_length);
1018:../Middlewares/stm32-mw-camera/sensors/vd1943/vd1943.c ****   VD1943_TraceError(ctx, ret);
1019:../Middlewares/stm32-mw-camera/sensors/vd1943/vd1943.c **** 
1020:../Middlewares/stm32-mw-camera/sensors/vd1943/vd1943.c ****   return 0;
1021:../Middlewares/stm32-mw-camera/sensors/vd1943/vd1943.c **** }
1022:../Middlewares/stm32-mw-camera/sensors/vd1943/vd1943.c **** 
1023:../Middlewares/stm32-mw-camera/sensors/vd1943/vd1943.c **** static int VD1943_ComputeFrameLength(VD1943_Ctx_t *ctx, int fps, uint16_t *frame_length)
1024:../Middlewares/stm32-mw-camera/sensors/vd1943/vd1943.c **** {
 292              		.loc 1 1024 1 is_stmt 1 view -0
 293              		.cfi_startproc
 294              		@ args = 0, pretend = 0, frame = 8
 295              		@ frame_needed = 0, uses_anonymous_args = 0
1025:../Middlewares/stm32-mw-camera/sensors/vd1943/vd1943.c ****   uint8_t gs_mode;
 296              		.loc 1 1025 3 view .LVU60
1026:../Middlewares/stm32-mw-camera/sensors/vd1943/vd1943.c ****   struct drv_vd1943_ctx *drv_vd1943_ctx = &ctx->ctx;
 297              		.loc 1 1026 3 view .LVU61
ARM GAS  /tmp/ccydMd0r.s 			page 25


1027:../Middlewares/stm32-mw-camera/sensors/vd1943/vd1943.c ****   int min_frame_length;
 298              		.loc 1 1027 3 view .LVU62
1028:../Middlewares/stm32-mw-camera/sensors/vd1943/vd1943.c ****   int req_frame_length;
 299              		.loc 1 1028 3 view .LVU63
1029:../Middlewares/stm32-mw-camera/sensors/vd1943/vd1943.c ****   uint32_t system_pll_clk;
 300              		.loc 1 1029 3 view .LVU64
1030:../Middlewares/stm32-mw-camera/sensors/vd1943/vd1943.c ****   uint16_t line_length;
 301              		.loc 1 1030 3 view .LVU65
1031:../Middlewares/stm32-mw-camera/sensors/vd1943/vd1943.c ****   uint16_t height;
 302              		.loc 1 1031 3 view .LVU66
1032:../Middlewares/stm32-mw-camera/sensors/vd1943/vd1943.c ****   int ret;
 303              		.loc 1 1032 3 view .LVU67
1033:../Middlewares/stm32-mw-camera/sensors/vd1943/vd1943.c **** 
1034:../Middlewares/stm32-mw-camera/sensors/vd1943/vd1943.c ****   /* Shutter mode directly impact linelength */
1035:../Middlewares/stm32-mw-camera/sensors/vd1943/vd1943.c ****   switch (ctx->ctx.config_save.image_processing_mode)
 304              		.loc 1 1035 3 view .LVU68
1024:../Middlewares/stm32-mw-camera/sensors/vd1943/vd1943.c ****   uint8_t gs_mode;
 305              		.loc 1 1024 1 is_stmt 0 view .LVU69
 306 0000 2DE9F041 		push	{r4, r5, r6, r7, r8, lr}
 307              		.cfi_def_cfa_offset 24
 308              		.cfi_offset 4, -24
 309              		.cfi_offset 5, -20
 310              		.cfi_offset 6, -16
 311              		.cfi_offset 7, -12
 312              		.cfi_offset 8, -8
 313              		.cfi_offset 14, -4
 314              		.loc 1 1035 31 view .LVU70
 315 0004 90F84430 		ldrb	r3, [r0, #68]	@ zero_extendqisi2
1024:../Middlewares/stm32-mw-camera/sensors/vd1943/vd1943.c ****   uint8_t gs_mode;
 316              		.loc 1 1024 1 view .LVU71
 317 0008 0546     		mov	r5, r0
 318              		.loc 1 1035 3 view .LVU72
 319 000a 122B     		cmp	r3, #18
1024:../Middlewares/stm32-mw-camera/sensors/vd1943/vd1943.c ****   uint8_t gs_mode;
 320              		.loc 1 1024 1 view .LVU73
 321 000c 0E46     		mov	r6, r1
 322 000e 1746     		mov	r7, r2
 323 0010 88B0     		sub	sp, sp, #32
 324              		.cfi_def_cfa_offset 56
 325              		.loc 1 1035 3 view .LVU74
 326 0012 07D8     		bhi	.L18
 327 0014 082B     		cmp	r3, #8
 328 0016 02D8     		bhi	.L28
 329 0018 013B     		subs	r3, r3, #1
 330 001a 052B     		cmp	r3, #5
 331 001c 63D8     		bhi	.L30
 332              	.L28:
1036:../Middlewares/stm32-mw-camera/sensors/vd1943/vd1943.c ****   {
1037:../Middlewares/stm32-mw-camera/sensors/vd1943/vd1943.c ****   case VD1943_GS_SS1_NATIVE_8:
1038:../Middlewares/stm32-mw-camera/sensors/vd1943/vd1943.c ****   case VD1943_GS_SS1_NATIVE_10:
1039:../Middlewares/stm32-mw-camera/sensors/vd1943/vd1943.c ****   case VD1943_GS_SS1_SPLIT_NATIVE_8:
1040:../Middlewares/stm32-mw-camera/sensors/vd1943/vd1943.c ****   case VD1943_GS_SS1_SPLIT_NATIVE_10:
1041:../Middlewares/stm32-mw-camera/sensors/vd1943/vd1943.c ****   case VD1943_GS_SS1_SPLIT_IR_8:
1042:../Middlewares/stm32-mw-camera/sensors/vd1943/vd1943.c ****   case VD1943_GS_SS1_SPLIT_IR_10:
1043:../Middlewares/stm32-mw-camera/sensors/vd1943/vd1943.c ****   case VD1943_GS_SS1_RGB_8:
1044:../Middlewares/stm32-mw-camera/sensors/vd1943/vd1943.c ****   case VD1943_GS_SS1_RGB_10:
1045:../Middlewares/stm32-mw-camera/sensors/vd1943/vd1943.c ****   case VD1943_GS_SS1_IR_8:
ARM GAS  /tmp/ccydMd0r.s 			page 26


1046:../Middlewares/stm32-mw-camera/sensors/vd1943/vd1943.c ****   case VD1943_GS_SS1_IR_10:
1047:../Middlewares/stm32-mw-camera/sensors/vd1943/vd1943.c ****   case VD1943_GS_SS2_MONO_8:
1048:../Middlewares/stm32-mw-camera/sensors/vd1943/vd1943.c ****   case VD1943_GS_SS2_MONO_10:
1049:../Middlewares/stm32-mw-camera/sensors/vd1943/vd1943.c ****   case VD1943_GS_SS4_MONO_8:
1050:../Middlewares/stm32-mw-camera/sensors/vd1943/vd1943.c ****   case VD1943_GS_SS4_MONO_10:
1051:../Middlewares/stm32-mw-camera/sensors/vd1943/vd1943.c ****   case VD1943_GS_SS32_MONO_8:
1052:../Middlewares/stm32-mw-camera/sensors/vd1943/vd1943.c ****   case VD1943_GS_SS32_MONO_10:
1053:../Middlewares/stm32-mw-camera/sensors/vd1943/vd1943.c ****     gs_mode = 1;
 333              		.loc 1 1053 13 view .LVU75
 334 001e 4FF00108 		mov	r8, #1
 335 0022 04E0     		b	.L19
 336              	.L18:
1035:../Middlewares/stm32-mw-camera/sensors/vd1943/vd1943.c ****   {
 337              		.loc 1 1035 3 view .LVU76
 338 0024 1A3B     		subs	r3, r3, #26
 339 0026 092B     		cmp	r3, #9
 340 0028 5DD8     		bhi	.L30
 341 002a 4FF00008 		mov	r8, #0
 342              	.L19:
 343              	.LVL21:
1054:../Middlewares/stm32-mw-camera/sensors/vd1943/vd1943.c ****     break;
1055:../Middlewares/stm32-mw-camera/sensors/vd1943/vd1943.c ****   case VD1943_RS_SDR_NATIVE_8:
1056:../Middlewares/stm32-mw-camera/sensors/vd1943/vd1943.c ****   case VD1943_RS_SDR_NATIVE_10:
1057:../Middlewares/stm32-mw-camera/sensors/vd1943/vd1943.c ****   case VD1943_RS_SDR_NATIVE_12:
1058:../Middlewares/stm32-mw-camera/sensors/vd1943/vd1943.c ****   case VD1943_RS_SDR_RGB_8:
1059:../Middlewares/stm32-mw-camera/sensors/vd1943/vd1943.c ****   case VD1943_RS_SDR_RGB_10:
1060:../Middlewares/stm32-mw-camera/sensors/vd1943/vd1943.c ****   case VD1943_RS_SDR_RGB_12:
1061:../Middlewares/stm32-mw-camera/sensors/vd1943/vd1943.c ****   case VD1943_RS_HDR_NATIVE_10:
1062:../Middlewares/stm32-mw-camera/sensors/vd1943/vd1943.c ****   case VD1943_RS_HDR_NATIVE_12:
1063:../Middlewares/stm32-mw-camera/sensors/vd1943/vd1943.c ****   case VD1943_RS_HDR_RGB_10:
1064:../Middlewares/stm32-mw-camera/sensors/vd1943/vd1943.c ****   case VD1943_RS_HDR_RGB_12:
1065:../Middlewares/stm32-mw-camera/sensors/vd1943/vd1943.c ****     gs_mode = 0;
1066:../Middlewares/stm32-mw-camera/sensors/vd1943/vd1943.c ****     break;
1067:../Middlewares/stm32-mw-camera/sensors/vd1943/vd1943.c ****   default:
1068:../Middlewares/stm32-mw-camera/sensors/vd1943/vd1943.c ****     return -1;
1069:../Middlewares/stm32-mw-camera/sensors/vd1943/vd1943.c ****   }
1070:../Middlewares/stm32-mw-camera/sensors/vd1943/vd1943.c **** 
1071:../Middlewares/stm32-mw-camera/sensors/vd1943/vd1943.c ****   ret = ctx->read32(ctx, VD1943_REG_SYSTEM_PLL_CLK, &system_pll_clk);
 344              		.loc 1 1071 3 is_stmt 1 view .LVU77
 345              		.loc 1 1071 9 is_stmt 0 view .LVU78
 346 002e 4FF40A71 		mov	r1, #552
 347              	.LVL22:
 348              		.loc 1 1071 9 view .LVU79
 349 0032 2846     		mov	r0, r5
 350              	.LVL23:
 351              		.loc 1 1071 9 view .LVU80
 352 0034 EB68     		ldr	r3, [r5, #12]
 353 0036 07AA     		add	r2, sp, #28
 354              	.LVL24:
 355              		.loc 1 1071 9 view .LVU81
 356 0038 9847     		blx	r3
 357              	.LVL25:
1072:../Middlewares/stm32-mw-camera/sensors/vd1943/vd1943.c ****   VD1943_TraceError(ctx, ret);
 358              		.loc 1 1072 3 is_stmt 1 view .LVU82
 359              		.loc 1 1072 3 view .LVU83
 360 003a 0446     		mov	r4, r0
 361 003c 58B9     		cbnz	r0, .L21
ARM GAS  /tmp/ccydMd0r.s 			page 27


 362              		.loc 1 1072 3 discriminator 6 view .LVU84
 363              		.loc 1 1072 3 view .LVU85
1073:../Middlewares/stm32-mw-camera/sensors/vd1943/vd1943.c ****   ret = ctx->read16(ctx, VD1943_REG_LINE_LENGTH, &line_length);
 364              		.loc 1 1073 3 view .LVU86
 365              		.loc 1 1073 9 is_stmt 0 view .LVU87
 366 003e 40F63411 		movw	r1, #2356
 367 0042 2846     		mov	r0, r5
 368              	.LVL26:
 369              		.loc 1 1073 9 view .LVU88
 370 0044 AB68     		ldr	r3, [r5, #8]
 371 0046 06AA     		add	r2, sp, #24
 372 0048 9847     		blx	r3
 373              	.LVL27:
1074:../Middlewares/stm32-mw-camera/sensors/vd1943/vd1943.c ****   VD1943_TraceError(ctx, ret);
 374              		.loc 1 1074 3 is_stmt 1 view .LVU89
 375              		.loc 1 1074 3 view .LVU90
 376 004a 0446     		mov	r4, r0
 377 004c A8B1     		cbz	r0, .L31
 378              		.loc 1 1074 3 discriminator 1 view .LVU91
 379              		.loc 1 1074 3 discriminator 1 view .LVU92
 380 004e 40F23243 		movw	r3, #1074
 381 0052 0290     		str	r0, [sp, #8]
 382 0054 02E0     		b	.L33
 383              	.L21:
1072:../Middlewares/stm32-mw-camera/sensors/vd1943/vd1943.c ****   VD1943_TraceError(ctx, ret);
 384              		.loc 1 1072 3 discriminator 1 view .LVU93
1072:../Middlewares/stm32-mw-camera/sensors/vd1943/vd1943.c ****   VD1943_TraceError(ctx, ret);
 385              		.loc 1 1072 3 discriminator 1 view .LVU94
 386 0056 4FF48663 		mov	r3, #1072
 387 005a 0290     		str	r0, [sp, #8]
 388              	.L33:
 389              		.loc 1 1074 3 is_stmt 0 discriminator 1 view .LVU95
 390 005c 234A     		ldr	r2, .L34
 391 005e 2846     		mov	r0, r5
 392              	.LVL28:
 393              		.loc 1 1074 3 discriminator 1 view .LVU96
 394 0060 0092     		str	r2, [sp]
 395 0062 0021     		movs	r1, #0
 396 0064 224A     		ldr	r2, .L34+4
 397 0066 0193     		str	r3, [sp, #4]
 398 0068 FFF7FEFF 		bl	VD1943_log_impl
 399              	.LVL29:
 400              		.loc 1 1074 3 is_stmt 1 discriminator 3 view .LVU97
 401              		.loc 1 1074 3 discriminator 3 view .LVU98
 402              		.loc 1 1074 3 discriminator 4 view .LVU99
 403 006c 2846     		mov	r0, r5
 404 006e FFF7FEFF 		bl	display_error
 405              	.LVL30:
 406              		.loc 1 1074 3 discriminator 6 view .LVU100
 407              		.loc 1 1074 3 discriminator 7 view .LVU101
 408              	.L17:
1075:../Middlewares/stm32-mw-camera/sensors/vd1943/vd1943.c ****   ret = ctx->read16(ctx, VD1943_REG_ROI_A_HEIGHT, &height);
1076:../Middlewares/stm32-mw-camera/sensors/vd1943/vd1943.c ****   VD1943_TraceError(ctx, ret);
1077:../Middlewares/stm32-mw-camera/sensors/vd1943/vd1943.c **** 
1078:../Middlewares/stm32-mw-camera/sensors/vd1943/vd1943.c ****   min_frame_length = height + VD1943_MIN_VBLANK;
1079:../Middlewares/stm32-mw-camera/sensors/vd1943/vd1943.c ****   if (gs_mode)
1080:../Middlewares/stm32-mw-camera/sensors/vd1943/vd1943.c ****     min_frame_length = min_frame_length / 2;
ARM GAS  /tmp/ccydMd0r.s 			page 28


1081:../Middlewares/stm32-mw-camera/sensors/vd1943/vd1943.c ****   req_frame_length =  system_pll_clk / (4 * line_length * drv_vd1943_ctx->config_save.frame_rate);
1082:../Middlewares/stm32-mw-camera/sensors/vd1943/vd1943.c ****   *frame_length = MIN(MAX(min_frame_length, req_frame_length), 65535);
1083:../Middlewares/stm32-mw-camera/sensors/vd1943/vd1943.c **** 
1084:../Middlewares/stm32-mw-camera/sensors/vd1943/vd1943.c ****   VD1943_dbg(ctx, 0, "frame_length to MAX(%d, %d) = %d to reach %d fps\n", min_frame_length, req_fr
1085:../Middlewares/stm32-mw-camera/sensors/vd1943/vd1943.c ****              *frame_length, fps);
1086:../Middlewares/stm32-mw-camera/sensors/vd1943/vd1943.c **** 
1087:../Middlewares/stm32-mw-camera/sensors/vd1943/vd1943.c ****   return 0;
1088:../Middlewares/stm32-mw-camera/sensors/vd1943/vd1943.c **** }
 409              		.loc 1 1088 1 is_stmt 0 view .LVU102
 410 0072 2046     		mov	r0, r4
 411 0074 08B0     		add	sp, sp, #32
 412              		.cfi_remember_state
 413              		.cfi_def_cfa_offset 24
 414              		@ sp needed
 415 0076 BDE8F081 		pop	{r4, r5, r6, r7, r8, pc}
 416              	.LVL31:
 417              	.L31:
 418              		.cfi_restore_state
1074:../Middlewares/stm32-mw-camera/sensors/vd1943/vd1943.c ****   VD1943_TraceError(ctx, ret);
 419              		.loc 1 1074 3 is_stmt 1 discriminator 3 view .LVU103
1074:../Middlewares/stm32-mw-camera/sensors/vd1943/vd1943.c ****   VD1943_TraceError(ctx, ret);
 420              		.loc 1 1074 3 discriminator 3 view .LVU104
1074:../Middlewares/stm32-mw-camera/sensors/vd1943/vd1943.c ****   VD1943_TraceError(ctx, ret);
 421              		.loc 1 1074 3 discriminator 6 view .LVU105
1074:../Middlewares/stm32-mw-camera/sensors/vd1943/vd1943.c ****   VD1943_TraceError(ctx, ret);
 422              		.loc 1 1074 3 view .LVU106
1075:../Middlewares/stm32-mw-camera/sensors/vd1943/vd1943.c ****   ret = ctx->read16(ctx, VD1943_REG_ROI_A_HEIGHT, &height);
 423              		.loc 1 1075 3 view .LVU107
1075:../Middlewares/stm32-mw-camera/sensors/vd1943/vd1943.c ****   ret = ctx->read16(ctx, VD1943_REG_ROI_A_HEIGHT, &height);
 424              		.loc 1 1075 9 is_stmt 0 view .LVU108
 425 007a 40F61211 		movw	r1, #2322
 426 007e 2846     		mov	r0, r5
 427              	.LVL32:
1075:../Middlewares/stm32-mw-camera/sensors/vd1943/vd1943.c ****   ret = ctx->read16(ctx, VD1943_REG_ROI_A_HEIGHT, &height);
 428              		.loc 1 1075 9 view .LVU109
 429 0080 AB68     		ldr	r3, [r5, #8]
 430 0082 0DF11A02 		add	r2, sp, #26
 431 0086 9847     		blx	r3
 432              	.LVL33:
1076:../Middlewares/stm32-mw-camera/sensors/vd1943/vd1943.c **** 
 433              		.loc 1 1076 3 is_stmt 1 view .LVU110
1076:../Middlewares/stm32-mw-camera/sensors/vd1943/vd1943.c **** 
 434              		.loc 1 1076 3 view .LVU111
 435 0088 0446     		mov	r4, r0
 436 008a 18B1     		cbz	r0, .L32
1076:../Middlewares/stm32-mw-camera/sensors/vd1943/vd1943.c **** 
 437              		.loc 1 1076 3 discriminator 1 view .LVU112
1076:../Middlewares/stm32-mw-camera/sensors/vd1943/vd1943.c **** 
 438              		.loc 1 1076 3 discriminator 1 view .LVU113
 439 008c 40F23443 		movw	r3, #1076
 440 0090 0290     		str	r0, [sp, #8]
 441 0092 E3E7     		b	.L33
 442              	.L32:
1076:../Middlewares/stm32-mw-camera/sensors/vd1943/vd1943.c **** 
 443              		.loc 1 1076 3 discriminator 3 view .LVU114
1076:../Middlewares/stm32-mw-camera/sensors/vd1943/vd1943.c **** 
 444              		.loc 1 1076 3 discriminator 3 view .LVU115
ARM GAS  /tmp/ccydMd0r.s 			page 29


1076:../Middlewares/stm32-mw-camera/sensors/vd1943/vd1943.c **** 
 445              		.loc 1 1076 3 discriminator 6 view .LVU116
1076:../Middlewares/stm32-mw-camera/sensors/vd1943/vd1943.c **** 
 446              		.loc 1 1076 3 view .LVU117
1078:../Middlewares/stm32-mw-camera/sensors/vd1943/vd1943.c ****   if (gs_mode)
 447              		.loc 1 1078 3 view .LVU118
1078:../Middlewares/stm32-mw-camera/sensors/vd1943/vd1943.c ****   if (gs_mode)
 448              		.loc 1 1078 29 is_stmt 0 view .LVU119
 449 0094 BDF81A30 		ldrh	r3, [sp, #26]
 450              	.LVL34:
1079:../Middlewares/stm32-mw-camera/sensors/vd1943/vd1943.c ****     min_frame_length = min_frame_length / 2;
 451              		.loc 1 1079 3 is_stmt 1 view .LVU120
1079:../Middlewares/stm32-mw-camera/sensors/vd1943/vd1943.c ****     min_frame_length = min_frame_length / 2;
 452              		.loc 1 1079 6 is_stmt 0 view .LVU121
 453 0098 B8F1000F 		cmp	r8, #0
 454 009c 20D1     		bne	.L26
1078:../Middlewares/stm32-mw-camera/sensors/vd1943/vd1943.c ****   if (gs_mode)
 455              		.loc 1 1078 20 view .LVU122
 456 009e 3C33     		adds	r3, r3, #60
 457              	.LVL35:
 458              	.L27:
1081:../Middlewares/stm32-mw-camera/sensors/vd1943/vd1943.c ****   *frame_length = MIN(MAX(min_frame_length, req_frame_length), 65535);
 459              		.loc 1 1081 3 is_stmt 1 view .LVU123
1081:../Middlewares/stm32-mw-camera/sensors/vd1943/vd1943.c ****   *frame_length = MIN(MAX(min_frame_length, req_frame_length), 65535);
 460              		.loc 1 1081 57 is_stmt 0 view .LVU124
 461 00a0 296C     		ldr	r1, [r5, #64]
 462 00a2 BDF81820 		ldrh	r2, [sp, #24]
1082:../Middlewares/stm32-mw-camera/sensors/vd1943/vd1943.c **** 
 463              		.loc 1 1082 19 view .LVU125
 464 00a6 4FF6FF70 		movw	r0, #65535
 465              	.LVL36:
1081:../Middlewares/stm32-mw-camera/sensors/vd1943/vd1943.c ****   *frame_length = MIN(MAX(min_frame_length, req_frame_length), 65535);
 466              		.loc 1 1081 57 view .LVU126
 467 00aa 4A43     		muls	r2, r1, r2
1081:../Middlewares/stm32-mw-camera/sensors/vd1943/vd1943.c ****   *frame_length = MIN(MAX(min_frame_length, req_frame_length), 65535);
 468              		.loc 1 1081 38 view .LVU127
 469 00ac 0799     		ldr	r1, [sp, #28]
1081:../Middlewares/stm32-mw-camera/sensors/vd1943/vd1943.c ****   *frame_length = MIN(MAX(min_frame_length, req_frame_length), 65535);
 470              		.loc 1 1081 57 view .LVU128
 471 00ae 9200     		lsls	r2, r2, #2
1081:../Middlewares/stm32-mw-camera/sensors/vd1943/vd1943.c ****   *frame_length = MIN(MAX(min_frame_length, req_frame_length), 65535);
 472              		.loc 1 1081 38 view .LVU129
 473 00b0 B1FBF2F2 		udiv	r2, r1, r2
 474              	.LVL37:
1082:../Middlewares/stm32-mw-camera/sensors/vd1943/vd1943.c **** 
 475              		.loc 1 1082 3 is_stmt 1 view .LVU130
1082:../Middlewares/stm32-mw-camera/sensors/vd1943/vd1943.c **** 
 476              		.loc 1 1082 19 is_stmt 0 view .LVU131
 477 00b4 9342     		cmp	r3, r2
 478 00b6 1946     		mov	r1, r3
 479 00b8 B8BF     		it	lt
 480 00ba 1146     		movlt	r1, r2
 481 00bc 8142     		cmp	r1, r0
 482 00be A8BF     		it	ge
 483 00c0 0146     		movge	r1, r0
1082:../Middlewares/stm32-mw-camera/sensors/vd1943/vd1943.c **** 
 484              		.loc 1 1082 17 view .LVU132
ARM GAS  /tmp/ccydMd0r.s 			page 30


 485 00c2 3980     		strh	r1, [r7]	@ movhi
1084:../Middlewares/stm32-mw-camera/sensors/vd1943/vd1943.c ****              *frame_length, fps);
 486              		.loc 1 1084 3 is_stmt 1 view .LVU133
1084:../Middlewares/stm32-mw-camera/sensors/vd1943/vd1943.c ****              *frame_length, fps);
 487              		.loc 1 1084 3 view .LVU134
 488 00c4 CDE90132 		strd	r3, r2, [sp, #4]
 489 00c8 40F23C43 		movw	r3, #1084
 490              	.LVL38:
1084:../Middlewares/stm32-mw-camera/sensors/vd1943/vd1943.c ****              *frame_length, fps);
 491              		.loc 1 1084 3 is_stmt 0 view .LVU135
 492 00cc CDE90316 		strd	r1, r6, [sp, #12]
 493 00d0 0093     		str	r3, [sp]
 494 00d2 0321     		movs	r1, #3
 495 00d4 0023     		movs	r3, #0
 496 00d6 2846     		mov	r0, r5
 497 00d8 064A     		ldr	r2, .L34+8
 498              	.LVL39:
1084:../Middlewares/stm32-mw-camera/sensors/vd1943/vd1943.c ****              *frame_length, fps);
 499              		.loc 1 1084 3 view .LVU136
 500 00da FFF7FEFF 		bl	VD1943_log_impl
 501              	.LVL40:
1084:../Middlewares/stm32-mw-camera/sensors/vd1943/vd1943.c ****              *frame_length, fps);
 502              		.loc 1 1084 3 is_stmt 1 discriminator 1 view .LVU137
1087:../Middlewares/stm32-mw-camera/sensors/vd1943/vd1943.c **** }
 503              		.loc 1 1087 3 view .LVU138
1087:../Middlewares/stm32-mw-camera/sensors/vd1943/vd1943.c **** }
 504              		.loc 1 1087 10 is_stmt 0 view .LVU139
 505 00de C8E7     		b	.L17
 506              	.LVL41:
 507              	.L26:
1080:../Middlewares/stm32-mw-camera/sensors/vd1943/vd1943.c ****   req_frame_length =  system_pll_clk / (4 * line_length * drv_vd1943_ctx->config_save.frame_rate);
 508              		.loc 1 1080 5 is_stmt 1 view .LVU140
1080:../Middlewares/stm32-mw-camera/sensors/vd1943/vd1943.c ****   req_frame_length =  system_pll_clk / (4 * line_length * drv_vd1943_ctx->config_save.frame_rate);
 509              		.loc 1 1080 22 is_stmt 0 view .LVU141
 510 00e0 5B10     		asrs	r3, r3, #1
 511              	.LVL42:
1080:../Middlewares/stm32-mw-camera/sensors/vd1943/vd1943.c ****   req_frame_length =  system_pll_clk / (4 * line_length * drv_vd1943_ctx->config_save.frame_rate);
 512              		.loc 1 1080 22 view .LVU142
 513 00e2 1E33     		adds	r3, r3, #30
 514 00e4 DCE7     		b	.L27
 515              	.LVL43:
 516              	.L30:
1035:../Middlewares/stm32-mw-camera/sensors/vd1943/vd1943.c ****   {
 517              		.loc 1 1035 3 view .LVU143
 518 00e6 4FF0FF34 		mov	r4, #-1
 519 00ea C2E7     		b	.L17
 520              	.L35:
 521              		.align	2
 522              	.L34:
 523 00ec 00000000 		.word	__func__.35
 524 00f0 00000000 		.word	.LC4
 525 00f4 25000000 		.word	.LC5
 526              		.cfi_endproc
 527              	.LFE33:
 529              		.section	.text.VD1943_GetExpoCommon,"ax",%progbits
 530              		.align	1
 531              		.syntax unified
ARM GAS  /tmp/ccydMd0r.s 			page 31


 532              		.thumb
 533              		.thumb_func
 535              	VD1943_GetExpoCommon:
 536              	.LVL44:
 537              	.LFB14:
 524:../Middlewares/stm32-mw-camera/sensors/vd1943/vd1943.c ****   uint16_t reg16;
 538              		.loc 1 524 1 is_stmt 1 view -0
 539              		.cfi_startproc
 540              		@ args = 0, pretend = 0, frame = 8
 541              		@ frame_needed = 0, uses_anonymous_args = 0
 525:../Middlewares/stm32-mw-camera/sensors/vd1943/vd1943.c ****   int ret;
 542              		.loc 1 525 3 view .LVU145
 526:../Middlewares/stm32-mw-camera/sensors/vd1943/vd1943.c **** 
 543              		.loc 1 526 3 view .LVU146
 528:../Middlewares/stm32-mw-camera/sensors/vd1943/vd1943.c ****   VD1943_TraceError(ctx, ret);
 544              		.loc 1 528 3 view .LVU147
 524:../Middlewares/stm32-mw-camera/sensors/vd1943/vd1943.c ****   uint16_t reg16;
 545              		.loc 1 524 1 is_stmt 0 view .LVU148
 546 0000 70B5     		push	{r4, r5, r6, lr}
 547              		.cfi_def_cfa_offset 16
 548              		.cfi_offset 4, -16
 549              		.cfi_offset 5, -12
 550              		.cfi_offset 6, -8
 551              		.cfi_offset 14, -4
 552 0002 86B0     		sub	sp, sp, #24
 553              		.cfi_def_cfa_offset 40
 524:../Middlewares/stm32-mw-camera/sensors/vd1943/vd1943.c ****   uint16_t reg16;
 554              		.loc 1 524 1 view .LVU149
 555 0004 0E46     		mov	r6, r1
 528:../Middlewares/stm32-mw-camera/sensors/vd1943/vd1943.c ****   VD1943_TraceError(ctx, ret);
 556              		.loc 1 528 9 view .LVU150
 557 0006 8368     		ldr	r3, [r0, #8]
 558 0008 40F67A41 		movw	r1, #3194
 559              	.LVL45:
 528:../Middlewares/stm32-mw-camera/sensors/vd1943/vd1943.c ****   VD1943_TraceError(ctx, ret);
 560              		.loc 1 528 9 view .LVU151
 561 000c 0DF11602 		add	r2, sp, #22
 524:../Middlewares/stm32-mw-camera/sensors/vd1943/vd1943.c ****   uint16_t reg16;
 562              		.loc 1 524 1 view .LVU152
 563 0010 0546     		mov	r5, r0
 528:../Middlewares/stm32-mw-camera/sensors/vd1943/vd1943.c ****   VD1943_TraceError(ctx, ret);
 564              		.loc 1 528 9 view .LVU153
 565 0012 9847     		blx	r3
 566              	.LVL46:
 529:../Middlewares/stm32-mw-camera/sensors/vd1943/vd1943.c ****   *expo_in_us = (reg16 * VD1943_LINE_TIME_IN_NS) / 1000;
 567              		.loc 1 529 3 is_stmt 1 view .LVU154
 529:../Middlewares/stm32-mw-camera/sensors/vd1943/vd1943.c ****   *expo_in_us = (reg16 * VD1943_LINE_TIME_IN_NS) / 1000;
 568              		.loc 1 529 3 view .LVU155
 569 0014 0446     		mov	r4, r0
 570 0016 60B9     		cbnz	r0, .L37
 529:../Middlewares/stm32-mw-camera/sensors/vd1943/vd1943.c ****   *expo_in_us = (reg16 * VD1943_LINE_TIME_IN_NS) / 1000;
 571              		.loc 1 529 3 discriminator 6 view .LVU156
 529:../Middlewares/stm32-mw-camera/sensors/vd1943/vd1943.c ****   *expo_in_us = (reg16 * VD1943_LINE_TIME_IN_NS) / 1000;
 572              		.loc 1 529 3 view .LVU157
 530:../Middlewares/stm32-mw-camera/sensors/vd1943/vd1943.c **** 
 573              		.loc 1 530 3 view .LVU158
 530:../Middlewares/stm32-mw-camera/sensors/vd1943/vd1943.c **** 
ARM GAS  /tmp/ccydMd0r.s 			page 32


 574              		.loc 1 530 24 is_stmt 0 view .LVU159
 575 0018 43F6A402 		movw	r2, #14500
 576 001c BDF81630 		ldrh	r3, [sp, #22]
 577 0020 5343     		muls	r3, r2, r3
 530:../Middlewares/stm32-mw-camera/sensors/vd1943/vd1943.c **** 
 578              		.loc 1 530 50 view .LVU160
 579 0022 4FF47A72 		mov	r2, #1000
 580 0026 B3FBF2F3 		udiv	r3, r3, r2
 530:../Middlewares/stm32-mw-camera/sensors/vd1943/vd1943.c **** 
 581              		.loc 1 530 15 view .LVU161
 582 002a 3360     		str	r3, [r6]
 532:../Middlewares/stm32-mw-camera/sensors/vd1943/vd1943.c **** }
 583              		.loc 1 532 3 is_stmt 1 view .LVU162
 584              	.LVL47:
 585              	.L36:
 533:../Middlewares/stm32-mw-camera/sensors/vd1943/vd1943.c **** 
 586              		.loc 1 533 1 is_stmt 0 view .LVU163
 587 002c 2046     		mov	r0, r4
 588 002e 06B0     		add	sp, sp, #24
 589              		.cfi_remember_state
 590              		.cfi_def_cfa_offset 16
 591              		@ sp needed
 592 0030 70BD     		pop	{r4, r5, r6, pc}
 593              	.LVL48:
 594              	.L37:
 595              		.cfi_restore_state
 529:../Middlewares/stm32-mw-camera/sensors/vd1943/vd1943.c ****   *expo_in_us = (reg16 * VD1943_LINE_TIME_IN_NS) / 1000;
 596              		.loc 1 529 3 is_stmt 1 discriminator 1 view .LVU164
 529:../Middlewares/stm32-mw-camera/sensors/vd1943/vd1943.c ****   *expo_in_us = (reg16 * VD1943_LINE_TIME_IN_NS) / 1000;
 597              		.loc 1 529 3 discriminator 1 view .LVU165
 598 0032 40F21123 		movw	r3, #529
 599 0036 064A     		ldr	r2, .L39
 600 0038 0290     		str	r0, [sp, #8]
 601 003a 0092     		str	r2, [sp]
 602 003c 2846     		mov	r0, r5
 603              	.LVL49:
 529:../Middlewares/stm32-mw-camera/sensors/vd1943/vd1943.c ****   *expo_in_us = (reg16 * VD1943_LINE_TIME_IN_NS) / 1000;
 604              		.loc 1 529 3 is_stmt 0 discriminator 1 view .LVU166
 605 003e 0021     		movs	r1, #0
 606 0040 044A     		ldr	r2, .L39+4
 607 0042 0193     		str	r3, [sp, #4]
 608 0044 FFF7FEFF 		bl	VD1943_log_impl
 609              	.LVL50:
 529:../Middlewares/stm32-mw-camera/sensors/vd1943/vd1943.c ****   *expo_in_us = (reg16 * VD1943_LINE_TIME_IN_NS) / 1000;
 610              		.loc 1 529 3 is_stmt 1 discriminator 3 view .LVU167
 529:../Middlewares/stm32-mw-camera/sensors/vd1943/vd1943.c ****   *expo_in_us = (reg16 * VD1943_LINE_TIME_IN_NS) / 1000;
 611              		.loc 1 529 3 discriminator 3 view .LVU168
 529:../Middlewares/stm32-mw-camera/sensors/vd1943/vd1943.c ****   *expo_in_us = (reg16 * VD1943_LINE_TIME_IN_NS) / 1000;
 612              		.loc 1 529 3 discriminator 4 view .LVU169
 613 0048 2846     		mov	r0, r5
 614 004a FFF7FEFF 		bl	display_error
 615              	.LVL51:
 529:../Middlewares/stm32-mw-camera/sensors/vd1943/vd1943.c ****   *expo_in_us = (reg16 * VD1943_LINE_TIME_IN_NS) / 1000;
 616              		.loc 1 529 3 discriminator 6 view .LVU170
 617 004e EDE7     		b	.L36
 618              	.L40:
 619              		.align	2
ARM GAS  /tmp/ccydMd0r.s 			page 33


 620              	.L39:
 621 0050 00000000 		.word	__func__.31
 622 0054 00000000 		.word	.LC4
 623              		.cfi_endproc
 624              	.LFE14:
 626              		.section	.text.VD1943_GetExpo_GS,"ax",%progbits
 627              		.align	1
 628              		.syntax unified
 629              		.thumb
 630              		.thumb_func
 632              	VD1943_GetExpo_GS:
 633              	.LVL52:
 634              	.LFB17:
 567:../Middlewares/stm32-mw-camera/sensors/vd1943/vd1943.c ****   return VD1943_GetExpoCommon(ctx, expo_in_us);
 635              		.loc 1 567 1 view -0
 636              		.cfi_startproc
 637              		@ args = 0, pretend = 0, frame = 0
 638              		@ frame_needed = 0, uses_anonymous_args = 0
 639              		@ link register save eliminated.
 568:../Middlewares/stm32-mw-camera/sensors/vd1943/vd1943.c **** }
 640              		.loc 1 568 3 view .LVU172
 568:../Middlewares/stm32-mw-camera/sensors/vd1943/vd1943.c **** }
 641              		.loc 1 568 10 is_stmt 0 view .LVU173
 642 0000 FFF7FEBF 		b	VD1943_GetExpoCommon
 643              	.LVL53:
 568:../Middlewares/stm32-mw-camera/sensors/vd1943/vd1943.c **** }
 644              		.loc 1 568 10 view .LVU174
 645              		.cfi_endproc
 646              	.LFE17:
 648              		.section	.text.VD1943_SetExpo_RS,"ax",%progbits
 649              		.align	1
 650              		.syntax unified
 651              		.thumb
 652              		.thumb_func
 654              	VD1943_SetExpo_RS:
 655              	.LVL54:
 656              	.LFB18:
 572:../Middlewares/stm32-mw-camera/sensors/vd1943/vd1943.c ****   unsigned int expo_in_line = (expo_in_us * 1000 + VD1943_LINE_TIME_IN_NS - 1) / VD1943_LINE_TIME_I
 657              		.loc 1 572 1 is_stmt 1 view -0
 658              		.cfi_startproc
 659              		@ args = 0, pretend = 0, frame = 0
 660              		@ frame_needed = 0, uses_anonymous_args = 0
 573:../Middlewares/stm32-mw-camera/sensors/vd1943/vd1943.c ****   int ret;
 661              		.loc 1 573 3 view .LVU176
 573:../Middlewares/stm32-mw-camera/sensors/vd1943/vd1943.c ****   int ret;
 662              		.loc 1 573 75 is_stmt 0 view .LVU177
 663 0000 4FF47A72 		mov	r2, #1000
 664 0004 43F6A303 		movw	r3, #14499
 665 0008 02FB0131 		mla	r1, r2, r1, r3
 666              	.LVL55:
 576:../Middlewares/stm32-mw-camera/sensors/vd1943/vd1943.c ****     return -1;
 667              		.loc 1 576 6 view .LVU178
 668 000c 47F24713 		movw	r3, #28999
 573:../Middlewares/stm32-mw-camera/sensors/vd1943/vd1943.c ****   int ret;
 669              		.loc 1 573 16 view .LVU179
 670 0010 43F6A402 		movw	r2, #14500
 572:../Middlewares/stm32-mw-camera/sensors/vd1943/vd1943.c ****   unsigned int expo_in_line = (expo_in_us * 1000 + VD1943_LINE_TIME_IN_NS - 1) / VD1943_LINE_TIME_I
ARM GAS  /tmp/ccydMd0r.s 			page 34


 671              		.loc 1 572 1 view .LVU180
 672 0014 30B5     		push	{r4, r5, lr}
 673              		.cfi_def_cfa_offset 12
 674              		.cfi_offset 4, -12
 675              		.cfi_offset 5, -8
 676              		.cfi_offset 14, -4
 576:../Middlewares/stm32-mw-camera/sensors/vd1943/vd1943.c ****     return -1;
 677              		.loc 1 576 6 view .LVU181
 678 0016 9942     		cmp	r1, r3
 572:../Middlewares/stm32-mw-camera/sensors/vd1943/vd1943.c ****   unsigned int expo_in_line = (expo_in_us * 1000 + VD1943_LINE_TIME_IN_NS - 1) / VD1943_LINE_TIME_I
 679              		.loc 1 572 1 view .LVU182
 680 0018 0546     		mov	r5, r0
 573:../Middlewares/stm32-mw-camera/sensors/vd1943/vd1943.c ****   int ret;
 681              		.loc 1 573 16 view .LVU183
 682 001a B1FBF2F2 		udiv	r2, r1, r2
 683              	.LVL56:
 574:../Middlewares/stm32-mw-camera/sensors/vd1943/vd1943.c **** 
 684              		.loc 1 574 3 is_stmt 1 view .LVU184
 576:../Middlewares/stm32-mw-camera/sensors/vd1943/vd1943.c ****     return -1;
 685              		.loc 1 576 3 view .LVU185
 572:../Middlewares/stm32-mw-camera/sensors/vd1943/vd1943.c ****   unsigned int expo_in_line = (expo_in_us * 1000 + VD1943_LINE_TIME_IN_NS - 1) / VD1943_LINE_TIME_I
 686              		.loc 1 572 1 is_stmt 0 view .LVU186
 687 001e 85B0     		sub	sp, sp, #20
 688              		.cfi_def_cfa_offset 32
 576:../Middlewares/stm32-mw-camera/sensors/vd1943/vd1943.c ****     return -1;
 689              		.loc 1 576 6 view .LVU187
 690 0020 17D9     		bls	.L45
 579:../Middlewares/stm32-mw-camera/sensors/vd1943/vd1943.c ****   VD1943_TraceError(ctx, ret);
 691              		.loc 1 579 3 is_stmt 1 view .LVU188
 579:../Middlewares/stm32-mw-camera/sensors/vd1943/vd1943.c ****   VD1943_TraceError(ctx, ret);
 692              		.loc 1 579 9 is_stmt 0 view .LVU189
 693 0022 40F67A41 		movw	r1, #3194
 694 0026 4369     		ldr	r3, [r0, #20]
 695 0028 92B2     		uxth	r2, r2
 696              	.LVL57:
 579:../Middlewares/stm32-mw-camera/sensors/vd1943/vd1943.c ****   VD1943_TraceError(ctx, ret);
 697              		.loc 1 579 9 view .LVU190
 698 002a 9847     		blx	r3
 699              	.LVL58:
 580:../Middlewares/stm32-mw-camera/sensors/vd1943/vd1943.c **** 
 700              		.loc 1 580 3 is_stmt 1 view .LVU191
 580:../Middlewares/stm32-mw-camera/sensors/vd1943/vd1943.c **** 
 701              		.loc 1 580 3 view .LVU192
 702 002c 0446     		mov	r4, r0
 703 002e 68B1     		cbz	r0, .L42
 580:../Middlewares/stm32-mw-camera/sensors/vd1943/vd1943.c **** 
 704              		.loc 1 580 3 discriminator 1 view .LVU193
 580:../Middlewares/stm32-mw-camera/sensors/vd1943/vd1943.c **** 
 705              		.loc 1 580 3 discriminator 1 view .LVU194
 706 0030 4FF41173 		mov	r3, #580
 707 0034 084A     		ldr	r2, .L49
 708 0036 0290     		str	r0, [sp, #8]
 709 0038 0092     		str	r2, [sp]
 710 003a 2846     		mov	r0, r5
 711              	.LVL59:
 580:../Middlewares/stm32-mw-camera/sensors/vd1943/vd1943.c **** 
 712              		.loc 1 580 3 is_stmt 0 discriminator 1 view .LVU195
ARM GAS  /tmp/ccydMd0r.s 			page 35


 713 003c 0021     		movs	r1, #0
 714 003e 074A     		ldr	r2, .L49+4
 715 0040 0193     		str	r3, [sp, #4]
 716 0042 FFF7FEFF 		bl	VD1943_log_impl
 717              	.LVL60:
 580:../Middlewares/stm32-mw-camera/sensors/vd1943/vd1943.c **** 
 718              		.loc 1 580 3 is_stmt 1 discriminator 3 view .LVU196
 580:../Middlewares/stm32-mw-camera/sensors/vd1943/vd1943.c **** 
 719              		.loc 1 580 3 discriminator 3 view .LVU197
 580:../Middlewares/stm32-mw-camera/sensors/vd1943/vd1943.c **** 
 720              		.loc 1 580 3 discriminator 4 view .LVU198
 721 0046 2846     		mov	r0, r5
 722 0048 FFF7FEFF 		bl	display_error
 723              	.LVL61:
 724              	.L42:
 583:../Middlewares/stm32-mw-camera/sensors/vd1943/vd1943.c **** 
 725              		.loc 1 583 1 is_stmt 0 view .LVU199
 726 004c 2046     		mov	r0, r4
 727 004e 05B0     		add	sp, sp, #20
 728              		.cfi_remember_state
 729              		.cfi_def_cfa_offset 12
 730              		@ sp needed
 731 0050 30BD     		pop	{r4, r5, pc}
 732              	.LVL62:
 733              	.L45:
 734              		.cfi_restore_state
 577:../Middlewares/stm32-mw-camera/sensors/vd1943/vd1943.c **** 
 735              		.loc 1 577 12 view .LVU200
 736 0052 4FF0FF34 		mov	r4, #-1
 737 0056 F9E7     		b	.L42
 738              	.L50:
 739              		.align	2
 740              	.L49:
 741 0058 00000000 		.word	__func__.30
 742 005c 00000000 		.word	.LC4
 743              		.cfi_endproc
 744              	.LFE18:
 746              		.section	.text.VD1943_SetExpo_RS_HDR,"ax",%progbits
 747              		.align	1
 748              		.syntax unified
 749              		.thumb
 750              		.thumb_func
 752              	VD1943_SetExpo_RS_HDR:
 753              	.LVL63:
 754              	.LFB20:
 591:../Middlewares/stm32-mw-camera/sensors/vd1943/vd1943.c ****   /* we use a short expo ratio of 1/20 */
 755              		.loc 1 591 1 is_stmt 1 view -0
 756              		.cfi_startproc
 757              		@ args = 0, pretend = 0, frame = 0
 758              		@ frame_needed = 0, uses_anonymous_args = 0
 593:../Middlewares/stm32-mw-camera/sensors/vd1943/vd1943.c ****   int ret;
 759              		.loc 1 593 3 view .LVU202
 591:../Middlewares/stm32-mw-camera/sensors/vd1943/vd1943.c ****   /* we use a short expo ratio of 1/20 */
 760              		.loc 1 591 1 is_stmt 0 view .LVU203
 761 0000 7FB5     		push	{r0, r1, r2, r3, r4, r5, r6, lr}
 762              		.cfi_def_cfa_offset 32
 763              		.cfi_offset 4, -16
ARM GAS  /tmp/ccydMd0r.s 			page 36


 764              		.cfi_offset 5, -12
 765              		.cfi_offset 6, -8
 766              		.cfi_offset 14, -4
 591:../Middlewares/stm32-mw-camera/sensors/vd1943/vd1943.c ****   /* we use a short expo ratio of 1/20 */
 767              		.loc 1 591 1 view .LVU204
 768 0002 0546     		mov	r5, r0
 769 0004 0E46     		mov	r6, r1
 770              	.LVL64:
 594:../Middlewares/stm32-mw-camera/sensors/vd1943/vd1943.c **** 
 771              		.loc 1 594 3 is_stmt 1 view .LVU205
 596:../Middlewares/stm32-mw-camera/sensors/vd1943/vd1943.c ****   if (ret)
 772              		.loc 1 596 3 view .LVU206
 596:../Middlewares/stm32-mw-camera/sensors/vd1943/vd1943.c ****   if (ret)
 773              		.loc 1 596 9 is_stmt 0 view .LVU207
 774 0006 FFF7FEFF 		bl	VD1943_SetExpo_RS
 775              	.LVL65:
 597:../Middlewares/stm32-mw-camera/sensors/vd1943/vd1943.c ****     return ret;
 776              		.loc 1 597 3 is_stmt 1 view .LVU208
 597:../Middlewares/stm32-mw-camera/sensors/vd1943/vd1943.c ****     return ret;
 777              		.loc 1 597 6 is_stmt 0 view .LVU209
 778 000a 0446     		mov	r4, r0
 779 000c 08BB     		cbnz	r0, .L51
 600:../Middlewares/stm32-mw-camera/sensors/vd1943/vd1943.c ****   ret = ctx->write16(ctx, VD1943_REG_INTEGRATION_TIME_SHORT(0), expo_short_in_line);
 780              		.loc 1 600 3 is_stmt 1 view .LVU210
 593:../Middlewares/stm32-mw-camera/sensors/vd1943/vd1943.c ****   int ret;
 781              		.loc 1 593 79 is_stmt 0 view .LVU211
 782 000e 3223     		movs	r3, #50
 783 0010 43F6A302 		movw	r2, #14499
 784 0014 03FB0622 		mla	r2, r3, r6, r2
 593:../Middlewares/stm32-mw-camera/sensors/vd1943/vd1943.c ****   int ret;
 785              		.loc 1 593 16 view .LVU212
 786 0018 43F6A403 		movw	r3, #14500
 787 001c B2FBF3F2 		udiv	r2, r2, r3
 788              	.LVL66:
 601:../Middlewares/stm32-mw-camera/sensors/vd1943/vd1943.c ****   VD1943_TraceError(ctx, ret);
 789              		.loc 1 601 3 is_stmt 1 view .LVU213
 600:../Middlewares/stm32-mw-camera/sensors/vd1943/vd1943.c ****   ret = ctx->write16(ctx, VD1943_REG_INTEGRATION_TIME_SHORT(0), expo_short_in_line);
 790              		.loc 1 600 22 is_stmt 0 view .LVU214
 791 0020 022A     		cmp	r2, #2
 792 0022 38BF     		it	cc
 793 0024 0222     		movcc	r2, #2
 794              	.LVL67:
 601:../Middlewares/stm32-mw-camera/sensors/vd1943/vd1943.c ****   VD1943_TraceError(ctx, ret);
 795              		.loc 1 601 9 view .LVU215
 796 0026 40F67E41 		movw	r1, #3198
 797 002a 2846     		mov	r0, r5
 798              	.LVL68:
 601:../Middlewares/stm32-mw-camera/sensors/vd1943/vd1943.c ****   VD1943_TraceError(ctx, ret);
 799              		.loc 1 601 9 view .LVU216
 800 002c 6B69     		ldr	r3, [r5, #20]
 801              	.LVL69:
 601:../Middlewares/stm32-mw-camera/sensors/vd1943/vd1943.c ****   VD1943_TraceError(ctx, ret);
 802              		.loc 1 601 9 view .LVU217
 803 002e 92B2     		uxth	r2, r2
 804 0030 9847     		blx	r3
 805              	.LVL70:
 602:../Middlewares/stm32-mw-camera/sensors/vd1943/vd1943.c **** 
ARM GAS  /tmp/ccydMd0r.s 			page 37


 806              		.loc 1 602 3 is_stmt 1 view .LVU218
 602:../Middlewares/stm32-mw-camera/sensors/vd1943/vd1943.c **** 
 807              		.loc 1 602 3 view .LVU219
 808 0032 0446     		mov	r4, r0
 809 0034 68B1     		cbz	r0, .L51
 602:../Middlewares/stm32-mw-camera/sensors/vd1943/vd1943.c **** 
 810              		.loc 1 602 3 discriminator 1 view .LVU220
 602:../Middlewares/stm32-mw-camera/sensors/vd1943/vd1943.c **** 
 811              		.loc 1 602 3 discriminator 1 view .LVU221
 812 0036 40F25A23 		movw	r3, #602
 813 003a 074A     		ldr	r2, .L57
 814 003c 0290     		str	r0, [sp, #8]
 815 003e 0092     		str	r2, [sp]
 816 0040 2846     		mov	r0, r5
 817              	.LVL71:
 602:../Middlewares/stm32-mw-camera/sensors/vd1943/vd1943.c **** 
 818              		.loc 1 602 3 is_stmt 0 discriminator 1 view .LVU222
 819 0042 0021     		movs	r1, #0
 820 0044 054A     		ldr	r2, .L57+4
 821 0046 0193     		str	r3, [sp, #4]
 822 0048 FFF7FEFF 		bl	VD1943_log_impl
 823              	.LVL72:
 602:../Middlewares/stm32-mw-camera/sensors/vd1943/vd1943.c **** 
 824              		.loc 1 602 3 is_stmt 1 discriminator 3 view .LVU223
 602:../Middlewares/stm32-mw-camera/sensors/vd1943/vd1943.c **** 
 825              		.loc 1 602 3 discriminator 3 view .LVU224
 602:../Middlewares/stm32-mw-camera/sensors/vd1943/vd1943.c **** 
 826              		.loc 1 602 3 discriminator 4 view .LVU225
 827 004c 2846     		mov	r0, r5
 828 004e FFF7FEFF 		bl	display_error
 829              	.LVL73:
 830              	.L51:
 605:../Middlewares/stm32-mw-camera/sensors/vd1943/vd1943.c **** 
 831              		.loc 1 605 1 is_stmt 0 view .LVU226
 832 0052 2046     		mov	r0, r4
 833 0054 04B0     		add	sp, sp, #16
 834              		.cfi_def_cfa_offset 16
 835              		@ sp needed
 836 0056 70BD     		pop	{r4, r5, r6, pc}
 837              	.LVL74:
 838              	.L58:
 605:../Middlewares/stm32-mw-camera/sensors/vd1943/vd1943.c **** 
 839              		.loc 1 605 1 view .LVU227
 840              		.align	2
 841              	.L57:
 842 0058 00000000 		.word	__func__.32
 843 005c 00000000 		.word	.LC4
 844              		.cfi_endproc
 845              	.LFE20:
 847              		.section	.text.VD1943_SetDigitalGain_IR,"ax",%progbits
 848              		.align	1
 849              		.syntax unified
 850              		.thumb
 851              		.thumb_func
 853              	VD1943_SetDigitalGain_IR:
 854              	.LVL75:
 855              	.LFB12:
ARM GAS  /tmp/ccydMd0r.s 			page 38


 500:../Middlewares/stm32-mw-camera/sensors/vd1943/vd1943.c ****   int ret;
 856              		.loc 1 500 1 is_stmt 1 view -0
 857              		.cfi_startproc
 858              		@ args = 0, pretend = 0, frame = 0
 859              		@ frame_needed = 0, uses_anonymous_args = 0
 501:../Middlewares/stm32-mw-camera/sensors/vd1943/vd1943.c **** 
 860              		.loc 1 501 3 view .LVU229
 503:../Middlewares/stm32-mw-camera/sensors/vd1943/vd1943.c ****   VD1943_TraceError(ctx, ret);
 861              		.loc 1 503 3 view .LVU230
 500:../Middlewares/stm32-mw-camera/sensors/vd1943/vd1943.c ****   int ret;
 862              		.loc 1 500 1 is_stmt 0 view .LVU231
 863 0000 30B5     		push	{r4, r5, lr}
 864              		.cfi_def_cfa_offset 12
 865              		.cfi_offset 4, -12
 866              		.cfi_offset 5, -8
 867              		.cfi_offset 14, -4
 503:../Middlewares/stm32-mw-camera/sensors/vd1943/vd1943.c ****   VD1943_TraceError(ctx, ret);
 868              		.loc 1 503 9 view .LVU232
 869 0002 8AB2     		uxth	r2, r1
 870 0004 4369     		ldr	r3, [r0, #20]
 871 0006 40F68641 		movw	r1, #3206
 872              	.LVL76:
 500:../Middlewares/stm32-mw-camera/sensors/vd1943/vd1943.c ****   int ret;
 873              		.loc 1 500 1 view .LVU233
 874 000a 85B0     		sub	sp, sp, #20
 875              		.cfi_def_cfa_offset 32
 500:../Middlewares/stm32-mw-camera/sensors/vd1943/vd1943.c ****   int ret;
 876              		.loc 1 500 1 view .LVU234
 877 000c 0546     		mov	r5, r0
 503:../Middlewares/stm32-mw-camera/sensors/vd1943/vd1943.c ****   VD1943_TraceError(ctx, ret);
 878              		.loc 1 503 9 view .LVU235
 879 000e 9847     		blx	r3
 880              	.LVL77:
 504:../Middlewares/stm32-mw-camera/sensors/vd1943/vd1943.c **** 
 881              		.loc 1 504 3 is_stmt 1 view .LVU236
 504:../Middlewares/stm32-mw-camera/sensors/vd1943/vd1943.c **** 
 882              		.loc 1 504 3 view .LVU237
 883 0010 0446     		mov	r4, r0
 884 0012 68B1     		cbz	r0, .L59
 504:../Middlewares/stm32-mw-camera/sensors/vd1943/vd1943.c **** 
 885              		.loc 1 504 3 discriminator 1 view .LVU238
 504:../Middlewares/stm32-mw-camera/sensors/vd1943/vd1943.c **** 
 886              		.loc 1 504 3 discriminator 1 view .LVU239
 887 0014 4FF4FC73 		mov	r3, #504
 888 0018 074A     		ldr	r2, .L64
 889 001a 0290     		str	r0, [sp, #8]
 890 001c 0092     		str	r2, [sp]
 891 001e 2846     		mov	r0, r5
 892              	.LVL78:
 504:../Middlewares/stm32-mw-camera/sensors/vd1943/vd1943.c **** 
 893              		.loc 1 504 3 is_stmt 0 discriminator 1 view .LVU240
 894 0020 0021     		movs	r1, #0
 895 0022 064A     		ldr	r2, .L64+4
 896 0024 0193     		str	r3, [sp, #4]
 897 0026 FFF7FEFF 		bl	VD1943_log_impl
 898              	.LVL79:
 504:../Middlewares/stm32-mw-camera/sensors/vd1943/vd1943.c **** 
ARM GAS  /tmp/ccydMd0r.s 			page 39


 899              		.loc 1 504 3 is_stmt 1 discriminator 3 view .LVU241
 504:../Middlewares/stm32-mw-camera/sensors/vd1943/vd1943.c **** 
 900              		.loc 1 504 3 discriminator 3 view .LVU242
 504:../Middlewares/stm32-mw-camera/sensors/vd1943/vd1943.c **** 
 901              		.loc 1 504 3 discriminator 4 view .LVU243
 902 002a 2846     		mov	r0, r5
 903 002c FFF7FEFF 		bl	display_error
 904              	.LVL80:
 504:../Middlewares/stm32-mw-camera/sensors/vd1943/vd1943.c **** 
 905              		.loc 1 504 3 discriminator 6 view .LVU244
 906              	.L59:
 507:../Middlewares/stm32-mw-camera/sensors/vd1943/vd1943.c **** 
 907              		.loc 1 507 1 is_stmt 0 view .LVU245
 908 0030 2046     		mov	r0, r4
 909 0032 05B0     		add	sp, sp, #20
 910              		.cfi_def_cfa_offset 12
 911              		@ sp needed
 912 0034 30BD     		pop	{r4, r5, pc}
 913              	.LVL81:
 914              	.L65:
 507:../Middlewares/stm32-mw-camera/sensors/vd1943/vd1943.c **** 
 915              		.loc 1 507 1 view .LVU246
 916 0036 00BF     		.align	2
 917              	.L64:
 918 0038 00000000 		.word	__func__.29
 919 003c 00000000 		.word	.LC4
 920              		.cfi_endproc
 921              	.LFE12:
 923              		.section	.text.VD1943_SetDigitalGain_RGB,"ax",%progbits
 924              		.align	1
 925              		.syntax unified
 926              		.thumb
 927              		.thumb_func
 929              	VD1943_SetDigitalGain_RGB:
 930              	.LVL82:
 931              	.LFB11:
 486:../Middlewares/stm32-mw-camera/sensors/vd1943/vd1943.c ****   int ret;
 932              		.loc 1 486 1 is_stmt 1 view -0
 933              		.cfi_startproc
 934              		@ args = 0, pretend = 0, frame = 0
 935              		@ frame_needed = 0, uses_anonymous_args = 0
 487:../Middlewares/stm32-mw-camera/sensors/vd1943/vd1943.c **** 
 936              		.loc 1 487 3 view .LVU248
 489:../Middlewares/stm32-mw-camera/sensors/vd1943/vd1943.c ****   VD1943_TraceError(ctx, ret);
 937              		.loc 1 489 3 view .LVU249
 486:../Middlewares/stm32-mw-camera/sensors/vd1943/vd1943.c ****   int ret;
 938              		.loc 1 486 1 is_stmt 0 view .LVU250
 939 0000 7FB5     		push	{r0, r1, r2, r3, r4, r5, r6, lr}
 940              		.cfi_def_cfa_offset 32
 941              		.cfi_offset 4, -16
 942              		.cfi_offset 5, -12
 943              		.cfi_offset 6, -8
 944              		.cfi_offset 14, -4
 489:../Middlewares/stm32-mw-camera/sensors/vd1943/vd1943.c ****   VD1943_TraceError(ctx, ret);
 945              		.loc 1 489 9 view .LVU251
 946 0002 8EB2     		uxth	r6, r1
 947 0004 3246     		mov	r2, r6
ARM GAS  /tmp/ccydMd0r.s 			page 40


 948 0006 4FF44861 		mov	r1, #3200
 949              	.LVL83:
 489:../Middlewares/stm32-mw-camera/sensors/vd1943/vd1943.c ****   VD1943_TraceError(ctx, ret);
 950              		.loc 1 489 9 view .LVU252
 951 000a 4369     		ldr	r3, [r0, #20]
 486:../Middlewares/stm32-mw-camera/sensors/vd1943/vd1943.c ****   int ret;
 952              		.loc 1 486 1 view .LVU253
 953 000c 0546     		mov	r5, r0
 489:../Middlewares/stm32-mw-camera/sensors/vd1943/vd1943.c ****   VD1943_TraceError(ctx, ret);
 954              		.loc 1 489 9 view .LVU254
 955 000e 9847     		blx	r3
 956              	.LVL84:
 490:../Middlewares/stm32-mw-camera/sensors/vd1943/vd1943.c ****   ret = ctx->write16(ctx, VD1943_DIGITAL_GAIN_G(0), gain);
 957              		.loc 1 490 3 is_stmt 1 view .LVU255
 490:../Middlewares/stm32-mw-camera/sensors/vd1943/vd1943.c ****   ret = ctx->write16(ctx, VD1943_DIGITAL_GAIN_G(0), gain);
 958              		.loc 1 490 3 view .LVU256
 959 0010 0446     		mov	r4, r0
 960 0012 58B9     		cbnz	r0, .L67
 490:../Middlewares/stm32-mw-camera/sensors/vd1943/vd1943.c ****   ret = ctx->write16(ctx, VD1943_DIGITAL_GAIN_G(0), gain);
 961              		.loc 1 490 3 discriminator 6 view .LVU257
 490:../Middlewares/stm32-mw-camera/sensors/vd1943/vd1943.c ****   ret = ctx->write16(ctx, VD1943_DIGITAL_GAIN_G(0), gain);
 962              		.loc 1 490 3 view .LVU258
 491:../Middlewares/stm32-mw-camera/sensors/vd1943/vd1943.c ****   VD1943_TraceError(ctx, ret);
 963              		.loc 1 491 3 view .LVU259
 491:../Middlewares/stm32-mw-camera/sensors/vd1943/vd1943.c ****   VD1943_TraceError(ctx, ret);
 964              		.loc 1 491 9 is_stmt 0 view .LVU260
 965 0014 3246     		mov	r2, r6
 966 0016 40F68241 		movw	r1, #3202
 967 001a 2846     		mov	r0, r5
 968              	.LVL85:
 491:../Middlewares/stm32-mw-camera/sensors/vd1943/vd1943.c ****   VD1943_TraceError(ctx, ret);
 969              		.loc 1 491 9 view .LVU261
 970 001c 6B69     		ldr	r3, [r5, #20]
 971 001e 9847     		blx	r3
 972              	.LVL86:
 492:../Middlewares/stm32-mw-camera/sensors/vd1943/vd1943.c ****   ret = ctx->write16(ctx, VD1943_DIGITAL_GAIN_B(0), gain);
 973              		.loc 1 492 3 is_stmt 1 view .LVU262
 492:../Middlewares/stm32-mw-camera/sensors/vd1943/vd1943.c ****   ret = ctx->write16(ctx, VD1943_DIGITAL_GAIN_B(0), gain);
 974              		.loc 1 492 3 view .LVU263
 975 0020 0446     		mov	r4, r0
 976 0022 A0B1     		cbz	r0, .L73
 492:../Middlewares/stm32-mw-camera/sensors/vd1943/vd1943.c ****   ret = ctx->write16(ctx, VD1943_DIGITAL_GAIN_B(0), gain);
 977              		.loc 1 492 3 discriminator 1 view .LVU264
 492:../Middlewares/stm32-mw-camera/sensors/vd1943/vd1943.c ****   ret = ctx->write16(ctx, VD1943_DIGITAL_GAIN_B(0), gain);
 978              		.loc 1 492 3 discriminator 1 view .LVU265
 979 0024 4FF4F673 		mov	r3, #492
 980 0028 0290     		str	r0, [sp, #8]
 981 002a 02E0     		b	.L74
 982              	.L67:
 490:../Middlewares/stm32-mw-camera/sensors/vd1943/vd1943.c ****   ret = ctx->write16(ctx, VD1943_DIGITAL_GAIN_G(0), gain);
 983              		.loc 1 490 3 discriminator 1 view .LVU266
 490:../Middlewares/stm32-mw-camera/sensors/vd1943/vd1943.c ****   ret = ctx->write16(ctx, VD1943_DIGITAL_GAIN_G(0), gain);
 984              		.loc 1 490 3 discriminator 1 view .LVU267
 985 002c 4FF4F573 		mov	r3, #490
 986 0030 0290     		str	r0, [sp, #8]
 987              	.L74:
 494:../Middlewares/stm32-mw-camera/sensors/vd1943/vd1943.c **** 
ARM GAS  /tmp/ccydMd0r.s 			page 41


 988              		.loc 1 494 3 is_stmt 0 discriminator 1 view .LVU268
 989 0032 0D4A     		ldr	r2, .L75
 990 0034 2846     		mov	r0, r5
 991              	.LVL87:
 494:../Middlewares/stm32-mw-camera/sensors/vd1943/vd1943.c **** 
 992              		.loc 1 494 3 discriminator 1 view .LVU269
 993 0036 0092     		str	r2, [sp]
 994 0038 0021     		movs	r1, #0
 995 003a 0C4A     		ldr	r2, .L75+4
 996 003c 0193     		str	r3, [sp, #4]
 997 003e FFF7FEFF 		bl	VD1943_log_impl
 998              	.LVL88:
 494:../Middlewares/stm32-mw-camera/sensors/vd1943/vd1943.c **** 
 999              		.loc 1 494 3 is_stmt 1 discriminator 3 view .LVU270
 494:../Middlewares/stm32-mw-camera/sensors/vd1943/vd1943.c **** 
 1000              		.loc 1 494 3 discriminator 3 view .LVU271
 494:../Middlewares/stm32-mw-camera/sensors/vd1943/vd1943.c **** 
 1001              		.loc 1 494 3 discriminator 4 view .LVU272
 1002 0042 2846     		mov	r0, r5
 1003 0044 FFF7FEFF 		bl	display_error
 1004              	.LVL89:
 494:../Middlewares/stm32-mw-camera/sensors/vd1943/vd1943.c **** 
 1005              		.loc 1 494 3 discriminator 6 view .LVU273
 494:../Middlewares/stm32-mw-camera/sensors/vd1943/vd1943.c **** 
 1006              		.loc 1 494 3 discriminator 7 view .LVU274
 1007              	.L66:
 497:../Middlewares/stm32-mw-camera/sensors/vd1943/vd1943.c **** 
 1008              		.loc 1 497 1 is_stmt 0 view .LVU275
 1009 0048 2046     		mov	r0, r4
 1010 004a 04B0     		add	sp, sp, #16
 1011              		.cfi_remember_state
 1012              		.cfi_def_cfa_offset 16
 1013              		@ sp needed
 1014 004c 70BD     		pop	{r4, r5, r6, pc}
 1015              	.LVL90:
 1016              	.L73:
 1017              		.cfi_restore_state
 492:../Middlewares/stm32-mw-camera/sensors/vd1943/vd1943.c ****   ret = ctx->write16(ctx, VD1943_DIGITAL_GAIN_B(0), gain);
 1018              		.loc 1 492 3 is_stmt 1 discriminator 3 view .LVU276
 492:../Middlewares/stm32-mw-camera/sensors/vd1943/vd1943.c ****   ret = ctx->write16(ctx, VD1943_DIGITAL_GAIN_B(0), gain);
 1019              		.loc 1 492 3 discriminator 3 view .LVU277
 492:../Middlewares/stm32-mw-camera/sensors/vd1943/vd1943.c ****   ret = ctx->write16(ctx, VD1943_DIGITAL_GAIN_B(0), gain);
 1020              		.loc 1 492 3 discriminator 6 view .LVU278
 492:../Middlewares/stm32-mw-camera/sensors/vd1943/vd1943.c ****   ret = ctx->write16(ctx, VD1943_DIGITAL_GAIN_B(0), gain);
 1021              		.loc 1 492 3 view .LVU279
 493:../Middlewares/stm32-mw-camera/sensors/vd1943/vd1943.c ****   VD1943_TraceError(ctx, ret);
 1022              		.loc 1 493 3 view .LVU280
 493:../Middlewares/stm32-mw-camera/sensors/vd1943/vd1943.c ****   VD1943_TraceError(ctx, ret);
 1023              		.loc 1 493 9 is_stmt 0 view .LVU281
 1024 004e 3246     		mov	r2, r6
 1025 0050 40F68441 		movw	r1, #3204
 1026 0054 2846     		mov	r0, r5
 1027              	.LVL91:
 493:../Middlewares/stm32-mw-camera/sensors/vd1943/vd1943.c ****   VD1943_TraceError(ctx, ret);
 1028              		.loc 1 493 9 view .LVU282
 1029 0056 6B69     		ldr	r3, [r5, #20]
 1030 0058 9847     		blx	r3
ARM GAS  /tmp/ccydMd0r.s 			page 42


 1031              	.LVL92:
 494:../Middlewares/stm32-mw-camera/sensors/vd1943/vd1943.c **** 
 1032              		.loc 1 494 3 is_stmt 1 view .LVU283
 494:../Middlewares/stm32-mw-camera/sensors/vd1943/vd1943.c **** 
 1033              		.loc 1 494 3 view .LVU284
 1034 005a 0446     		mov	r4, r0
 1035 005c 0028     		cmp	r0, #0
 1036 005e F3D0     		beq	.L66
 494:../Middlewares/stm32-mw-camera/sensors/vd1943/vd1943.c **** 
 1037              		.loc 1 494 3 discriminator 1 view .LVU285
 494:../Middlewares/stm32-mw-camera/sensors/vd1943/vd1943.c **** 
 1038              		.loc 1 494 3 discriminator 1 view .LVU286
 1039 0060 4FF4F773 		mov	r3, #494
 1040 0064 0290     		str	r0, [sp, #8]
 1041 0066 E4E7     		b	.L74
 1042              	.L76:
 1043              		.align	2
 1044              	.L75:
 1045 0068 00000000 		.word	__func__.28
 1046 006c 00000000 		.word	.LC4
 1047              		.cfi_endproc
 1048              	.LFE11:
 1050              		.section	.text.VD1943_SetDigitalGain_RGBNIR,"ax",%progbits
 1051              		.align	1
 1052              		.syntax unified
 1053              		.thumb
 1054              		.thumb_func
 1056              	VD1943_SetDigitalGain_RGBNIR:
 1057              	.LVL93:
 1058              	.LFB13:
 510:../Middlewares/stm32-mw-camera/sensors/vd1943/vd1943.c ****   int ret;
 1059              		.loc 1 510 1 view -0
 1060              		.cfi_startproc
 1061              		@ args = 0, pretend = 0, frame = 0
 1062              		@ frame_needed = 0, uses_anonymous_args = 0
 511:../Middlewares/stm32-mw-camera/sensors/vd1943/vd1943.c **** 
 1063              		.loc 1 511 3 view .LVU288
 513:../Middlewares/stm32-mw-camera/sensors/vd1943/vd1943.c ****   if (ret)
 1064              		.loc 1 513 3 view .LVU289
 510:../Middlewares/stm32-mw-camera/sensors/vd1943/vd1943.c ****   int ret;
 1065              		.loc 1 510 1 is_stmt 0 view .LVU290
 1066 0000 38B5     		push	{r3, r4, r5, lr}
 1067              		.cfi_def_cfa_offset 16
 1068              		.cfi_offset 3, -16
 1069              		.cfi_offset 4, -12
 1070              		.cfi_offset 5, -8
 1071              		.cfi_offset 14, -4
 510:../Middlewares/stm32-mw-camera/sensors/vd1943/vd1943.c ****   int ret;
 1072              		.loc 1 510 1 view .LVU291
 1073 0002 0446     		mov	r4, r0
 1074 0004 0D46     		mov	r5, r1
 513:../Middlewares/stm32-mw-camera/sensors/vd1943/vd1943.c ****   if (ret)
 1075              		.loc 1 513 9 view .LVU292
 1076 0006 FFF7FEFF 		bl	VD1943_SetDigitalGain_RGB
 1077              	.LVL94:
 514:../Middlewares/stm32-mw-camera/sensors/vd1943/vd1943.c ****     return ret;
 1078              		.loc 1 514 3 is_stmt 1 view .LVU293
ARM GAS  /tmp/ccydMd0r.s 			page 43


 514:../Middlewares/stm32-mw-camera/sensors/vd1943/vd1943.c ****     return ret;
 1079              		.loc 1 514 6 is_stmt 0 view .LVU294
 1080 000a 28B9     		cbnz	r0, .L77
 516:../Middlewares/stm32-mw-camera/sensors/vd1943/vd1943.c ****   if (ret)
 1081              		.loc 1 516 3 is_stmt 1 view .LVU295
 516:../Middlewares/stm32-mw-camera/sensors/vd1943/vd1943.c ****   if (ret)
 1082              		.loc 1 516 9 is_stmt 0 view .LVU296
 1083 000c 2946     		mov	r1, r5
 1084 000e 2046     		mov	r0, r4
 1085              	.LVL95:
 521:../Middlewares/stm32-mw-camera/sensors/vd1943/vd1943.c **** 
 1086              		.loc 1 521 1 view .LVU297
 1087 0010 BDE83840 		pop	{r3, r4, r5, lr}
 1088              		.cfi_remember_state
 1089              		.cfi_restore 14
 1090              		.cfi_restore 5
 1091              		.cfi_restore 4
 1092              		.cfi_restore 3
 1093              		.cfi_def_cfa_offset 0
 1094              	.LVL96:
 516:../Middlewares/stm32-mw-camera/sensors/vd1943/vd1943.c ****   if (ret)
 1095              		.loc 1 516 9 view .LVU298
 1096 0014 FFF7FEBF 		b	VD1943_SetDigitalGain_IR
 1097              	.LVL97:
 1098              	.L77:
 1099              		.cfi_restore_state
 521:../Middlewares/stm32-mw-camera/sensors/vd1943/vd1943.c **** 
 1100              		.loc 1 521 1 view .LVU299
 1101 0018 38BD     		pop	{r3, r4, r5, pc}
 521:../Middlewares/stm32-mw-camera/sensors/vd1943/vd1943.c **** 
 1102              		.loc 1 521 1 view .LVU300
 1103              		.cfi_endproc
 1104              	.LFE13:
 1106              		.section	.text.VD1943_SetExpoSplit_GS,"ax",%progbits
 1107              		.align	1
 1108              		.syntax unified
 1109              		.thumb
 1110              		.thumb_func
 1112              	VD1943_SetExpoSplit_GS:
 1113              	.LVL98:
 1114              	.LFB16:
 550:../Middlewares/stm32-mw-camera/sensors/vd1943/vd1943.c ****   unsigned int expo_in_line = (expo_in_us * 1000 + VD1943_LINE_TIME_IN_NS - 1) / VD1943_LINE_TIME_I
 1115              		.loc 1 550 1 is_stmt 1 view -0
 1116              		.cfi_startproc
 1117              		@ args = 0, pretend = 0, frame = 0
 1118              		@ frame_needed = 0, uses_anonymous_args = 0
 551:../Middlewares/stm32-mw-camera/sensors/vd1943/vd1943.c ****   int ret;
 1119              		.loc 1 551 3 view .LVU302
 550:../Middlewares/stm32-mw-camera/sensors/vd1943/vd1943.c ****   unsigned int expo_in_line = (expo_in_us * 1000 + VD1943_LINE_TIME_IN_NS - 1) / VD1943_LINE_TIME_I
 1120              		.loc 1 550 1 is_stmt 0 view .LVU303
 1121 0000 7FB5     		push	{r0, r1, r2, r3, r4, r5, r6, lr}
 1122              		.cfi_def_cfa_offset 32
 1123              		.cfi_offset 4, -16
 1124              		.cfi_offset 5, -12
 1125              		.cfi_offset 6, -8
 1126              		.cfi_offset 14, -4
 551:../Middlewares/stm32-mw-camera/sensors/vd1943/vd1943.c ****   int ret;
ARM GAS  /tmp/ccydMd0r.s 			page 44


 1127              		.loc 1 551 75 view .LVU304
 1128 0002 43F6A303 		movw	r3, #14499
 1129 0006 4FF47A72 		mov	r2, #1000
 1130 000a 02FB0131 		mla	r1, r2, r1, r3
 1131              	.LVL99:
 554:../Middlewares/stm32-mw-camera/sensors/vd1943/vd1943.c ****     return -1;
 1132              		.loc 1 554 6 view .LVU305
 1133 000e 4EF28F23 		movw	r3, #57999
 551:../Middlewares/stm32-mw-camera/sensors/vd1943/vd1943.c ****   int ret;
 1134              		.loc 1 551 16 view .LVU306
 1135 0012 43F6A406 		movw	r6, #14500
 554:../Middlewares/stm32-mw-camera/sensors/vd1943/vd1943.c ****     return -1;
 1136              		.loc 1 554 6 view .LVU307
 1137 0016 9942     		cmp	r1, r3
 550:../Middlewares/stm32-mw-camera/sensors/vd1943/vd1943.c ****   unsigned int expo_in_line = (expo_in_us * 1000 + VD1943_LINE_TIME_IN_NS - 1) / VD1943_LINE_TIME_I
 1138              		.loc 1 550 1 view .LVU308
 1139 0018 0546     		mov	r5, r0
 551:../Middlewares/stm32-mw-camera/sensors/vd1943/vd1943.c ****   int ret;
 1140              		.loc 1 551 16 view .LVU309
 1141 001a B1FBF6F6 		udiv	r6, r1, r6
 1142              	.LVL100:
 552:../Middlewares/stm32-mw-camera/sensors/vd1943/vd1943.c **** 
 1143              		.loc 1 552 3 is_stmt 1 view .LVU310
 554:../Middlewares/stm32-mw-camera/sensors/vd1943/vd1943.c ****     return -1;
 1144              		.loc 1 554 3 view .LVU311
 554:../Middlewares/stm32-mw-camera/sensors/vd1943/vd1943.c ****     return -1;
 1145              		.loc 1 554 6 is_stmt 0 view .LVU312
 1146 001e 24D9     		bls	.L84
 557:../Middlewares/stm32-mw-camera/sensors/vd1943/vd1943.c ****   VD1943_TraceError(ctx, ret);
 1147              		.loc 1 557 3 is_stmt 1 view .LVU313
 557:../Middlewares/stm32-mw-camera/sensors/vd1943/vd1943.c ****   VD1943_TraceError(ctx, ret);
 1148              		.loc 1 557 9 is_stmt 0 view .LVU314
 1149 0020 B6B2     		uxth	r6, r6
 1150              	.LVL101:
 557:../Middlewares/stm32-mw-camera/sensors/vd1943/vd1943.c ****   VD1943_TraceError(ctx, ret);
 1151              		.loc 1 557 9 view .LVU315
 1152 0022 3246     		mov	r2, r6
 1153 0024 40F67A41 		movw	r1, #3194
 1154              	.LVL102:
 557:../Middlewares/stm32-mw-camera/sensors/vd1943/vd1943.c ****   VD1943_TraceError(ctx, ret);
 1155              		.loc 1 557 9 view .LVU316
 1156 0028 4369     		ldr	r3, [r0, #20]
 1157 002a 9847     		blx	r3
 1158              	.LVL103:
 558:../Middlewares/stm32-mw-camera/sensors/vd1943/vd1943.c **** 
 1159              		.loc 1 558 3 is_stmt 1 view .LVU317
 558:../Middlewares/stm32-mw-camera/sensors/vd1943/vd1943.c **** 
 1160              		.loc 1 558 3 view .LVU318
 1161 002c 0446     		mov	r4, r0
 1162 002e 58B9     		cbnz	r0, .L81
 558:../Middlewares/stm32-mw-camera/sensors/vd1943/vd1943.c **** 
 1163              		.loc 1 558 3 discriminator 6 view .LVU319
 558:../Middlewares/stm32-mw-camera/sensors/vd1943/vd1943.c **** 
 1164              		.loc 1 558 3 view .LVU320
 560:../Middlewares/stm32-mw-camera/sensors/vd1943/vd1943.c ****   VD1943_TraceError(ctx, ret);
 1165              		.loc 1 560 3 view .LVU321
 560:../Middlewares/stm32-mw-camera/sensors/vd1943/vd1943.c ****   VD1943_TraceError(ctx, ret);
ARM GAS  /tmp/ccydMd0r.s 			page 45


 1166              		.loc 1 560 9 is_stmt 0 view .LVU322
 1167 0030 3246     		mov	r2, r6
 1168 0032 40F67C41 		movw	r1, #3196
 1169 0036 2846     		mov	r0, r5
 1170              	.LVL104:
 560:../Middlewares/stm32-mw-camera/sensors/vd1943/vd1943.c ****   VD1943_TraceError(ctx, ret);
 1171              		.loc 1 560 9 view .LVU323
 1172 0038 6B69     		ldr	r3, [r5, #20]
 1173 003a 9847     		blx	r3
 1174              	.LVL105:
 561:../Middlewares/stm32-mw-camera/sensors/vd1943/vd1943.c **** 
 1175              		.loc 1 561 3 is_stmt 1 view .LVU324
 561:../Middlewares/stm32-mw-camera/sensors/vd1943/vd1943.c **** 
 1176              		.loc 1 561 3 view .LVU325
 1177 003c 0446     		mov	r4, r0
 1178 003e 88B1     		cbz	r0, .L79
 561:../Middlewares/stm32-mw-camera/sensors/vd1943/vd1943.c **** 
 1179              		.loc 1 561 3 discriminator 1 view .LVU326
 561:../Middlewares/stm32-mw-camera/sensors/vd1943/vd1943.c **** 
 1180              		.loc 1 561 3 discriminator 1 view .LVU327
 1181 0040 40F23123 		movw	r3, #561
 1182 0044 0290     		str	r0, [sp, #8]
 1183 0046 02E0     		b	.L85
 1184              	.L81:
 558:../Middlewares/stm32-mw-camera/sensors/vd1943/vd1943.c **** 
 1185              		.loc 1 558 3 discriminator 1 view .LVU328
 558:../Middlewares/stm32-mw-camera/sensors/vd1943/vd1943.c **** 
 1186              		.loc 1 558 3 discriminator 1 view .LVU329
 1187 0048 40F22E23 		movw	r3, #558
 1188 004c 0290     		str	r0, [sp, #8]
 1189              	.L85:
 561:../Middlewares/stm32-mw-camera/sensors/vd1943/vd1943.c **** 
 1190              		.loc 1 561 3 is_stmt 0 discriminator 1 view .LVU330
 1191 004e 084A     		ldr	r2, .L86
 1192 0050 2846     		mov	r0, r5
 1193              	.LVL106:
 561:../Middlewares/stm32-mw-camera/sensors/vd1943/vd1943.c **** 
 1194              		.loc 1 561 3 discriminator 1 view .LVU331
 1195 0052 0092     		str	r2, [sp]
 1196 0054 0021     		movs	r1, #0
 1197 0056 074A     		ldr	r2, .L86+4
 1198 0058 0193     		str	r3, [sp, #4]
 1199 005a FFF7FEFF 		bl	VD1943_log_impl
 1200              	.LVL107:
 561:../Middlewares/stm32-mw-camera/sensors/vd1943/vd1943.c **** 
 1201              		.loc 1 561 3 is_stmt 1 discriminator 3 view .LVU332
 561:../Middlewares/stm32-mw-camera/sensors/vd1943/vd1943.c **** 
 1202              		.loc 1 561 3 discriminator 3 view .LVU333
 561:../Middlewares/stm32-mw-camera/sensors/vd1943/vd1943.c **** 
 1203              		.loc 1 561 3 discriminator 4 view .LVU334
 1204 005e 2846     		mov	r0, r5
 1205 0060 FFF7FEFF 		bl	display_error
 1206              	.LVL108:
 561:../Middlewares/stm32-mw-camera/sensors/vd1943/vd1943.c **** 
 1207              		.loc 1 561 3 discriminator 6 view .LVU335
 561:../Middlewares/stm32-mw-camera/sensors/vd1943/vd1943.c **** 
 1208              		.loc 1 561 3 discriminator 7 view .LVU336
ARM GAS  /tmp/ccydMd0r.s 			page 46


 1209              	.L79:
 564:../Middlewares/stm32-mw-camera/sensors/vd1943/vd1943.c **** 
 1210              		.loc 1 564 1 is_stmt 0 view .LVU337
 1211 0064 2046     		mov	r0, r4
 1212 0066 04B0     		add	sp, sp, #16
 1213              		.cfi_remember_state
 1214              		.cfi_def_cfa_offset 16
 1215              		@ sp needed
 1216 0068 70BD     		pop	{r4, r5, r6, pc}
 1217              	.LVL109:
 1218              	.L84:
 1219              		.cfi_restore_state
 555:../Middlewares/stm32-mw-camera/sensors/vd1943/vd1943.c **** 
 1220              		.loc 1 555 12 view .LVU338
 1221 006a 4FF0FF34 		mov	r4, #-1
 1222 006e F9E7     		b	.L79
 1223              	.L87:
 1224              		.align	2
 1225              	.L86:
 1226 0070 00000000 		.word	__func__.27
 1227 0074 00000000 		.word	.LC4
 1228              		.cfi_endproc
 1229              	.LFE16:
 1231              		.section	.text.VD1943_SetExpo_GS,"ax",%progbits
 1232              		.align	1
 1233              		.syntax unified
 1234              		.thumb
 1235              		.thumb_func
 1237              	VD1943_SetExpo_GS:
 1238              	.LVL110:
 1239              	.LFB15:
 536:../Middlewares/stm32-mw-camera/sensors/vd1943/vd1943.c ****   unsigned int expo_in_line = (expo_in_us * 1000 + VD1943_LINE_TIME_IN_NS - 1) / VD1943_LINE_TIME_I
 1240              		.loc 1 536 1 is_stmt 1 view -0
 1241              		.cfi_startproc
 1242              		@ args = 0, pretend = 0, frame = 0
 1243              		@ frame_needed = 0, uses_anonymous_args = 0
 537:../Middlewares/stm32-mw-camera/sensors/vd1943/vd1943.c ****   int ret;
 1244              		.loc 1 537 3 view .LVU340
 537:../Middlewares/stm32-mw-camera/sensors/vd1943/vd1943.c ****   int ret;
 1245              		.loc 1 537 75 is_stmt 0 view .LVU341
 1246 0000 4FF47A72 		mov	r2, #1000
 1247 0004 43F6A303 		movw	r3, #14499
 1248 0008 02FB0131 		mla	r1, r2, r1, r3
 1249              	.LVL111:
 540:../Middlewares/stm32-mw-camera/sensors/vd1943/vd1943.c ****     return -1;
 1250              		.loc 1 540 6 view .LVU342
 1251 000c 4EF28F23 		movw	r3, #57999
 537:../Middlewares/stm32-mw-camera/sensors/vd1943/vd1943.c ****   int ret;
 1252              		.loc 1 537 16 view .LVU343
 1253 0010 43F6A402 		movw	r2, #14500
 536:../Middlewares/stm32-mw-camera/sensors/vd1943/vd1943.c ****   unsigned int expo_in_line = (expo_in_us * 1000 + VD1943_LINE_TIME_IN_NS - 1) / VD1943_LINE_TIME_I
 1254              		.loc 1 536 1 view .LVU344
 1255 0014 30B5     		push	{r4, r5, lr}
 1256              		.cfi_def_cfa_offset 12
 1257              		.cfi_offset 4, -12
 1258              		.cfi_offset 5, -8
 1259              		.cfi_offset 14, -4
ARM GAS  /tmp/ccydMd0r.s 			page 47


 540:../Middlewares/stm32-mw-camera/sensors/vd1943/vd1943.c ****     return -1;
 1260              		.loc 1 540 6 view .LVU345
 1261 0016 9942     		cmp	r1, r3
 536:../Middlewares/stm32-mw-camera/sensors/vd1943/vd1943.c ****   unsigned int expo_in_line = (expo_in_us * 1000 + VD1943_LINE_TIME_IN_NS - 1) / VD1943_LINE_TIME_I
 1262              		.loc 1 536 1 view .LVU346
 1263 0018 0546     		mov	r5, r0
 537:../Middlewares/stm32-mw-camera/sensors/vd1943/vd1943.c ****   int ret;
 1264              		.loc 1 537 16 view .LVU347
 1265 001a B1FBF2F2 		udiv	r2, r1, r2
 1266              	.LVL112:
 538:../Middlewares/stm32-mw-camera/sensors/vd1943/vd1943.c **** 
 1267              		.loc 1 538 3 is_stmt 1 view .LVU348
 540:../Middlewares/stm32-mw-camera/sensors/vd1943/vd1943.c ****     return -1;
 1268              		.loc 1 540 3 view .LVU349
 536:../Middlewares/stm32-mw-camera/sensors/vd1943/vd1943.c ****   unsigned int expo_in_line = (expo_in_us * 1000 + VD1943_LINE_TIME_IN_NS - 1) / VD1943_LINE_TIME_I
 1269              		.loc 1 536 1 is_stmt 0 view .LVU350
 1270 001e 85B0     		sub	sp, sp, #20
 1271              		.cfi_def_cfa_offset 32
 540:../Middlewares/stm32-mw-camera/sensors/vd1943/vd1943.c ****     return -1;
 1272              		.loc 1 540 6 view .LVU351
 1273 0020 17D9     		bls	.L91
 543:../Middlewares/stm32-mw-camera/sensors/vd1943/vd1943.c ****   VD1943_TraceError(ctx, ret);
 1274              		.loc 1 543 3 is_stmt 1 view .LVU352
 543:../Middlewares/stm32-mw-camera/sensors/vd1943/vd1943.c ****   VD1943_TraceError(ctx, ret);
 1275              		.loc 1 543 9 is_stmt 0 view .LVU353
 1276 0022 40F67A41 		movw	r1, #3194
 1277 0026 4369     		ldr	r3, [r0, #20]
 1278 0028 92B2     		uxth	r2, r2
 1279              	.LVL113:
 543:../Middlewares/stm32-mw-camera/sensors/vd1943/vd1943.c ****   VD1943_TraceError(ctx, ret);
 1280              		.loc 1 543 9 view .LVU354
 1281 002a 9847     		blx	r3
 1282              	.LVL114:
 544:../Middlewares/stm32-mw-camera/sensors/vd1943/vd1943.c **** 
 1283              		.loc 1 544 3 is_stmt 1 view .LVU355
 544:../Middlewares/stm32-mw-camera/sensors/vd1943/vd1943.c **** 
 1284              		.loc 1 544 3 view .LVU356
 1285 002c 0446     		mov	r4, r0
 1286 002e 68B1     		cbz	r0, .L88
 544:../Middlewares/stm32-mw-camera/sensors/vd1943/vd1943.c **** 
 1287              		.loc 1 544 3 discriminator 1 view .LVU357
 544:../Middlewares/stm32-mw-camera/sensors/vd1943/vd1943.c **** 
 1288              		.loc 1 544 3 discriminator 1 view .LVU358
 1289 0030 4FF40873 		mov	r3, #544
 1290 0034 084A     		ldr	r2, .L95
 1291 0036 0290     		str	r0, [sp, #8]
 1292 0038 0092     		str	r2, [sp]
 1293 003a 2846     		mov	r0, r5
 1294              	.LVL115:
 544:../Middlewares/stm32-mw-camera/sensors/vd1943/vd1943.c **** 
 1295              		.loc 1 544 3 is_stmt 0 discriminator 1 view .LVU359
 1296 003c 0021     		movs	r1, #0
 1297 003e 074A     		ldr	r2, .L95+4
 1298 0040 0193     		str	r3, [sp, #4]
 1299 0042 FFF7FEFF 		bl	VD1943_log_impl
 1300              	.LVL116:
 544:../Middlewares/stm32-mw-camera/sensors/vd1943/vd1943.c **** 
ARM GAS  /tmp/ccydMd0r.s 			page 48


 1301              		.loc 1 544 3 is_stmt 1 discriminator 3 view .LVU360
 544:../Middlewares/stm32-mw-camera/sensors/vd1943/vd1943.c **** 
 1302              		.loc 1 544 3 discriminator 3 view .LVU361
 544:../Middlewares/stm32-mw-camera/sensors/vd1943/vd1943.c **** 
 1303              		.loc 1 544 3 discriminator 4 view .LVU362
 1304 0046 2846     		mov	r0, r5
 1305 0048 FFF7FEFF 		bl	display_error
 1306              	.LVL117:
 1307              	.L88:
 547:../Middlewares/stm32-mw-camera/sensors/vd1943/vd1943.c **** 
 1308              		.loc 1 547 1 is_stmt 0 view .LVU363
 1309 004c 2046     		mov	r0, r4
 1310 004e 05B0     		add	sp, sp, #20
 1311              		.cfi_remember_state
 1312              		.cfi_def_cfa_offset 12
 1313              		@ sp needed
 1314 0050 30BD     		pop	{r4, r5, pc}
 1315              	.LVL118:
 1316              	.L91:
 1317              		.cfi_restore_state
 541:../Middlewares/stm32-mw-camera/sensors/vd1943/vd1943.c **** 
 1318              		.loc 1 541 12 view .LVU364
 1319 0052 4FF0FF34 		mov	r4, #-1
 1320 0056 F9E7     		b	.L88
 1321              	.L96:
 1322              		.align	2
 1323              	.L95:
 1324 0058 00000000 		.word	__func__.26
 1325 005c 00000000 		.word	.LC4
 1326              		.cfi_endproc
 1327              	.LFE15:
 1329              		.section	.rodata.VD1943_ApplyCmdAndWait.str1.1,"aMS",%progbits,1
 1330              	.LC6:
 1331 0000 56443139 		.ascii	"VD1943_DG%d-%d : Apply cmd %d to 0x%04x\012\000"
 1331      34335F44 
 1331      4725642D 
 1331      2564203A 
 1331      20417070 
 1332              		.section	.text.VD1943_ApplyCmdAndWait,"ax",%progbits
 1333              		.align	1
 1334              		.syntax unified
 1335              		.thumb
 1336              		.thumb_func
 1338              	VD1943_ApplyCmdAndWait:
 1339              	.LVL119:
 1340              	.LFB4:
 311:../Middlewares/stm32-mw-camera/sensors/vd1943/vd1943.c ****   int ret;
 1341              		.loc 1 311 1 is_stmt 1 view -0
 1342              		.cfi_startproc
 1343              		@ args = 0, pretend = 0, frame = 0
 1344              		@ frame_needed = 0, uses_anonymous_args = 0
 312:../Middlewares/stm32-mw-camera/sensors/vd1943/vd1943.c **** 
 1345              		.loc 1 312 3 view .LVU366
 314:../Middlewares/stm32-mw-camera/sensors/vd1943/vd1943.c ****   ret = ctx->write8(ctx, addr, cmd);
 1346              		.loc 1 314 3 view .LVU367
 314:../Middlewares/stm32-mw-camera/sensors/vd1943/vd1943.c ****   ret = ctx->write8(ctx, addr, cmd);
 1347              		.loc 1 314 3 view .LVU368
ARM GAS  /tmp/ccydMd0r.s 			page 49


 311:../Middlewares/stm32-mw-camera/sensors/vd1943/vd1943.c ****   int ret;
 1348              		.loc 1 311 1 is_stmt 0 view .LVU369
 1349 0000 7FB5     		push	{r0, r1, r2, r3, r4, r5, r6, lr}
 1350              		.cfi_def_cfa_offset 32
 1351              		.cfi_offset 4, -16
 1352              		.cfi_offset 5, -12
 1353              		.cfi_offset 6, -8
 1354              		.cfi_offset 14, -4
 314:../Middlewares/stm32-mw-camera/sensors/vd1943/vd1943.c ****   ret = ctx->write8(ctx, addr, cmd);
 1355              		.loc 1 314 3 view .LVU370
 1356 0002 4FF49D73 		mov	r3, #314
 311:../Middlewares/stm32-mw-camera/sensors/vd1943/vd1943.c ****   int ret;
 1357              		.loc 1 311 1 view .LVU371
 1358 0006 0546     		mov	r5, r0
 1359 0008 1446     		mov	r4, r2
 1360 000a 0E46     		mov	r6, r1
 314:../Middlewares/stm32-mw-camera/sensors/vd1943/vd1943.c ****   ret = ctx->write8(ctx, addr, cmd);
 1361              		.loc 1 314 3 view .LVU372
 1362 000c CDE90121 		strd	r2, r1, [sp, #4]
 1363 0010 0093     		str	r3, [sp]
 1364 0012 0321     		movs	r1, #3
 1365              	.LVL120:
 314:../Middlewares/stm32-mw-camera/sensors/vd1943/vd1943.c ****   ret = ctx->write8(ctx, addr, cmd);
 1366              		.loc 1 314 3 view .LVU373
 1367 0014 0023     		movs	r3, #0
 1368 0016 134A     		ldr	r2, .L103
 1369              	.LVL121:
 314:../Middlewares/stm32-mw-camera/sensors/vd1943/vd1943.c ****   ret = ctx->write8(ctx, addr, cmd);
 1370              		.loc 1 314 3 view .LVU374
 1371 0018 FFF7FEFF 		bl	VD1943_log_impl
 1372              	.LVL122:
 314:../Middlewares/stm32-mw-camera/sensors/vd1943/vd1943.c ****   ret = ctx->write8(ctx, addr, cmd);
 1373              		.loc 1 314 3 is_stmt 1 discriminator 1 view .LVU375
 315:../Middlewares/stm32-mw-camera/sensors/vd1943/vd1943.c ****   VD1943_TraceError(ctx, ret);
 1374              		.loc 1 315 3 view .LVU376
 315:../Middlewares/stm32-mw-camera/sensors/vd1943/vd1943.c ****   VD1943_TraceError(ctx, ret);
 1375              		.loc 1 315 9 is_stmt 0 view .LVU377
 1376 001c 2246     		mov	r2, r4
 1377 001e 3146     		mov	r1, r6
 1378 0020 2846     		mov	r0, r5
 1379 0022 2B69     		ldr	r3, [r5, #16]
 1380 0024 9847     		blx	r3
 1381              	.LVL123:
 316:../Middlewares/stm32-mw-camera/sensors/vd1943/vd1943.c **** 
 1382              		.loc 1 316 3 is_stmt 1 view .LVU378
 316:../Middlewares/stm32-mw-camera/sensors/vd1943/vd1943.c **** 
 1383              		.loc 1 316 3 view .LVU379
 1384 0026 0446     		mov	r4, r0
 1385              	.LVL124:
 316:../Middlewares/stm32-mw-camera/sensors/vd1943/vd1943.c **** 
 1386              		.loc 1 316 3 is_stmt 0 view .LVU380
 1387 0028 50B9     		cbnz	r0, .L98
 316:../Middlewares/stm32-mw-camera/sensors/vd1943/vd1943.c **** 
 1388              		.loc 1 316 3 is_stmt 1 discriminator 6 view .LVU381
 316:../Middlewares/stm32-mw-camera/sensors/vd1943/vd1943.c **** 
 1389              		.loc 1 316 3 view .LVU382
 318:../Middlewares/stm32-mw-camera/sensors/vd1943/vd1943.c ****   VD1943_TraceError(ctx, ret);
ARM GAS  /tmp/ccydMd0r.s 			page 50


 1390              		.loc 1 318 3 view .LVU383
 318:../Middlewares/stm32-mw-camera/sensors/vd1943/vd1943.c ****   VD1943_TraceError(ctx, ret);
 1391              		.loc 1 318 9 is_stmt 0 view .LVU384
 1392 002a 0246     		mov	r2, r0
 1393 002c 3146     		mov	r1, r6
 1394 002e 2846     		mov	r0, r5
 1395              	.LVL125:
 318:../Middlewares/stm32-mw-camera/sensors/vd1943/vd1943.c ****   VD1943_TraceError(ctx, ret);
 1396              		.loc 1 318 9 view .LVU385
 1397 0030 FFF7FEFF 		bl	VD1943_PollReg8
 1398              	.LVL126:
 319:../Middlewares/stm32-mw-camera/sensors/vd1943/vd1943.c **** 
 1399              		.loc 1 319 3 is_stmt 1 view .LVU386
 319:../Middlewares/stm32-mw-camera/sensors/vd1943/vd1943.c **** 
 1400              		.loc 1 319 3 view .LVU387
 1401 0034 0446     		mov	r4, r0
 1402 0036 88B1     		cbz	r0, .L97
 319:../Middlewares/stm32-mw-camera/sensors/vd1943/vd1943.c **** 
 1403              		.loc 1 319 3 discriminator 1 view .LVU388
 319:../Middlewares/stm32-mw-camera/sensors/vd1943/vd1943.c **** 
 1404              		.loc 1 319 3 discriminator 1 view .LVU389
 1405 0038 40F23F13 		movw	r3, #319
 1406 003c 0290     		str	r0, [sp, #8]
 1407 003e 02E0     		b	.L102
 1408              	.L98:
 316:../Middlewares/stm32-mw-camera/sensors/vd1943/vd1943.c **** 
 1409              		.loc 1 316 3 discriminator 1 view .LVU390
 316:../Middlewares/stm32-mw-camera/sensors/vd1943/vd1943.c **** 
 1410              		.loc 1 316 3 discriminator 1 view .LVU391
 1411 0040 4FF49E73 		mov	r3, #316
 1412 0044 0290     		str	r0, [sp, #8]
 1413              	.L102:
 319:../Middlewares/stm32-mw-camera/sensors/vd1943/vd1943.c **** 
 1414              		.loc 1 319 3 is_stmt 0 discriminator 1 view .LVU392
 1415 0046 084A     		ldr	r2, .L103+4
 1416 0048 2846     		mov	r0, r5
 1417              	.LVL127:
 319:../Middlewares/stm32-mw-camera/sensors/vd1943/vd1943.c **** 
 1418              		.loc 1 319 3 discriminator 1 view .LVU393
 1419 004a 0092     		str	r2, [sp]
 1420 004c 0021     		movs	r1, #0
 1421 004e 074A     		ldr	r2, .L103+8
 1422 0050 0193     		str	r3, [sp, #4]
 1423 0052 FFF7FEFF 		bl	VD1943_log_impl
 1424              	.LVL128:
 319:../Middlewares/stm32-mw-camera/sensors/vd1943/vd1943.c **** 
 1425              		.loc 1 319 3 is_stmt 1 discriminator 3 view .LVU394
 319:../Middlewares/stm32-mw-camera/sensors/vd1943/vd1943.c **** 
 1426              		.loc 1 319 3 discriminator 3 view .LVU395
 319:../Middlewares/stm32-mw-camera/sensors/vd1943/vd1943.c **** 
 1427              		.loc 1 319 3 discriminator 4 view .LVU396
 1428 0056 2846     		mov	r0, r5
 1429 0058 FFF7FEFF 		bl	display_error
 1430              	.LVL129:
 319:../Middlewares/stm32-mw-camera/sensors/vd1943/vd1943.c **** 
 1431              		.loc 1 319 3 discriminator 6 view .LVU397
 319:../Middlewares/stm32-mw-camera/sensors/vd1943/vd1943.c **** 
ARM GAS  /tmp/ccydMd0r.s 			page 51


 1432              		.loc 1 319 3 discriminator 7 view .LVU398
 1433              	.L97:
 322:../Middlewares/stm32-mw-camera/sensors/vd1943/vd1943.c **** 
 1434              		.loc 1 322 1 is_stmt 0 view .LVU399
 1435 005c 2046     		mov	r0, r4
 1436 005e 04B0     		add	sp, sp, #16
 1437              		.cfi_def_cfa_offset 16
 1438              		@ sp needed
 1439 0060 70BD     		pop	{r4, r5, r6, pc}
 1440              	.LVL130:
 1441              	.L104:
 322:../Middlewares/stm32-mw-camera/sensors/vd1943/vd1943.c **** 
 1442              		.loc 1 322 1 view .LVU400
 1443 0062 00BF     		.align	2
 1444              	.L103:
 1445 0064 00000000 		.word	.LC6
 1446 0068 00000000 		.word	__func__.24
 1447 006c 00000000 		.word	.LC4
 1448              		.cfi_endproc
 1449              	.LFE4:
 1451              		.section	.rodata.VD1943_WaitState.str1.1,"aMS",%progbits,1
 1452              	.LC7:
 1453 0000 56443139 		.ascii	"VD1943_WRN-%d : Unable to reach state %d\012\000"
 1453      34335F57 
 1453      524E2D25 
 1453      64203A20 
 1453      556E6162 
 1454              	.LC8:
 1455 002a 56443139 		.ascii	"VD1943_DG%d-%d : reach state %d\012\000"
 1455      34335F44 
 1455      4725642D 
 1455      2564203A 
 1455      20726561 
 1456              		.section	.text.VD1943_WaitState,"ax",%progbits
 1457              		.align	1
 1458              		.syntax unified
 1459              		.thumb
 1460              		.thumb_func
 1462              	VD1943_WaitState:
 1463              	.LVL131:
 1464              	.LFB3:
 299:../Middlewares/stm32-mw-camera/sensors/vd1943/vd1943.c ****   int ret = VD1943_PollReg8(ctx, VD1943_REG_SYSTEM_FSM_STATE, state);
 1465              		.loc 1 299 1 is_stmt 1 view -0
 1466              		.cfi_startproc
 1467              		@ args = 0, pretend = 0, frame = 0
 1468              		@ frame_needed = 0, uses_anonymous_args = 0
 300:../Middlewares/stm32-mw-camera/sensors/vd1943/vd1943.c **** 
 1469              		.loc 1 300 3 view .LVU402
 299:../Middlewares/stm32-mw-camera/sensors/vd1943/vd1943.c ****   int ret = VD1943_PollReg8(ctx, VD1943_REG_SYSTEM_FSM_STATE, state);
 1470              		.loc 1 299 1 is_stmt 0 view .LVU403
 1471 0000 73B5     		push	{r0, r1, r4, r5, r6, lr}
 1472              		.cfi_def_cfa_offset 24
 1473              		.cfi_offset 4, -16
 1474              		.cfi_offset 5, -12
 1475              		.cfi_offset 6, -8
 1476              		.cfi_offset 14, -4
 300:../Middlewares/stm32-mw-camera/sensors/vd1943/vd1943.c **** 
ARM GAS  /tmp/ccydMd0r.s 			page 52


 1477              		.loc 1 300 13 view .LVU404
 1478 0002 CAB2     		uxtb	r2, r1
 299:../Middlewares/stm32-mw-camera/sensors/vd1943/vd1943.c ****   int ret = VD1943_PollReg8(ctx, VD1943_REG_SYSTEM_FSM_STATE, state);
 1479              		.loc 1 299 1 view .LVU405
 1480 0004 0D46     		mov	r5, r1
 300:../Middlewares/stm32-mw-camera/sensors/vd1943/vd1943.c **** 
 1481              		.loc 1 300 13 view .LVU406
 1482 0006 4421     		movs	r1, #68
 1483              	.LVL132:
 299:../Middlewares/stm32-mw-camera/sensors/vd1943/vd1943.c ****   int ret = VD1943_PollReg8(ctx, VD1943_REG_SYSTEM_FSM_STATE, state);
 1484              		.loc 1 299 1 view .LVU407
 1485 0008 0646     		mov	r6, r0
 300:../Middlewares/stm32-mw-camera/sensors/vd1943/vd1943.c **** 
 1486              		.loc 1 300 13 view .LVU408
 1487 000a FFF7FEFF 		bl	VD1943_PollReg8
 1488              	.LVL133:
 302:../Middlewares/stm32-mw-camera/sensors/vd1943/vd1943.c ****     VD1943_warn(ctx, "Unable to reach state %d\n", state);
 1489              		.loc 1 302 3 is_stmt 1 view .LVU409
 302:../Middlewares/stm32-mw-camera/sensors/vd1943/vd1943.c ****     VD1943_warn(ctx, "Unable to reach state %d\n", state);
 1490              		.loc 1 302 6 is_stmt 0 view .LVU410
 1491 000e 0446     		mov	r4, r0
 1492 0010 50B1     		cbz	r0, .L106
 303:../Middlewares/stm32-mw-camera/sensors/vd1943/vd1943.c ****   else
 1493              		.loc 1 303 5 is_stmt 1 view .LVU411
 303:../Middlewares/stm32-mw-camera/sensors/vd1943/vd1943.c ****   else
 1494              		.loc 1 303 5 view .LVU412
 1495 0012 40F22F13 		movw	r3, #303
 1496 0016 0121     		movs	r1, #1
 1497 0018 3046     		mov	r0, r6
 1498              	.LVL134:
 303:../Middlewares/stm32-mw-camera/sensors/vd1943/vd1943.c ****   else
 1499              		.loc 1 303 5 is_stmt 0 view .LVU413
 1500 001a 094A     		ldr	r2, .L108
 1501 001c 0095     		str	r5, [sp]
 1502 001e FFF7FEFF 		bl	VD1943_log_impl
 1503              	.LVL135:
 303:../Middlewares/stm32-mw-camera/sensors/vd1943/vd1943.c ****   else
 1504              		.loc 1 303 5 is_stmt 1 discriminator 1 view .LVU414
 1505              	.L105:
 308:../Middlewares/stm32-mw-camera/sensors/vd1943/vd1943.c **** 
 1506              		.loc 1 308 1 is_stmt 0 view .LVU415
 1507 0022 2046     		mov	r0, r4
 1508 0024 02B0     		add	sp, sp, #8
 1509              		.cfi_remember_state
 1510              		.cfi_def_cfa_offset 16
 1511              		@ sp needed
 1512 0026 70BD     		pop	{r4, r5, r6, pc}
 1513              	.LVL136:
 1514              	.L106:
 1515              		.cfi_restore_state
 1516              	.LBB8:
 1517              	.LBI8:
 298:../Middlewares/stm32-mw-camera/sensors/vd1943/vd1943.c **** {
 1518              		.loc 1 298 12 is_stmt 1 view .LVU416
 1519              	.LBB9:
 305:../Middlewares/stm32-mw-camera/sensors/vd1943/vd1943.c **** 
 1520              		.loc 1 305 5 view .LVU417
ARM GAS  /tmp/ccydMd0r.s 			page 53


 305:../Middlewares/stm32-mw-camera/sensors/vd1943/vd1943.c **** 
 1521              		.loc 1 305 5 view .LVU418
 1522 0028 40F23113 		movw	r3, #305
 1523 002c 0321     		movs	r1, #3
 1524 002e 0093     		str	r3, [sp]
 1525 0030 044A     		ldr	r2, .L108+4
 1526 0032 0346     		mov	r3, r0
 1527 0034 0195     		str	r5, [sp, #4]
 1528 0036 3046     		mov	r0, r6
 1529              	.LVL137:
 305:../Middlewares/stm32-mw-camera/sensors/vd1943/vd1943.c **** 
 1530              		.loc 1 305 5 is_stmt 0 view .LVU419
 1531 0038 FFF7FEFF 		bl	VD1943_log_impl
 1532              	.LVL138:
 305:../Middlewares/stm32-mw-camera/sensors/vd1943/vd1943.c **** 
 1533              		.loc 1 305 5 view .LVU420
 1534              	.LBE9:
 1535              	.LBE8:
 305:../Middlewares/stm32-mw-camera/sensors/vd1943/vd1943.c **** 
 1536              		.loc 1 305 5 is_stmt 1 view .LVU421
 307:../Middlewares/stm32-mw-camera/sensors/vd1943/vd1943.c **** }
 1537              		.loc 1 307 3 view .LVU422
 307:../Middlewares/stm32-mw-camera/sensors/vd1943/vd1943.c **** }
 1538              		.loc 1 307 10 is_stmt 0 view .LVU423
 1539 003c F1E7     		b	.L105
 1540              	.L109:
 1541 003e 00BF     		.align	2
 1542              	.L108:
 1543 0040 00000000 		.word	.LC7
 1544 0044 2A000000 		.word	.LC8
 1545              		.cfi_endproc
 1546              	.LFE3:
 1548              		.section	.text.VD1943_GetExpo_RS,"ax",%progbits
 1549              		.align	1
 1550              		.syntax unified
 1551              		.thumb
 1552              		.thumb_func
 1554              	VD1943_GetExpo_RS:
 1555              	.LFB61:
 1556              		.cfi_startproc
 585:../Middlewares/stm32-mw-camera/sensors/vd1943/vd1943.c **** {
 1557              		.loc 1 585 12 is_stmt 1 view -0
 1558              		@ args = 0, pretend = 0, frame = 0
 1559              		@ frame_needed = 0, uses_anonymous_args = 0
 1560              		@ link register save eliminated.
 1561 0000 FFF7FEBF 		b	VD1943_GetExpoCommon
 1562              		.cfi_endproc
 1563              	.LFE61:
 1565              		.section	.text.VD1943_GetExposureRange,"ax",%progbits
 1566              		.align	1
 1567              		.global	VD1943_GetExposureRange
 1568              		.syntax unified
 1569              		.thumb
 1570              		.thumb_func
 1572              	VD1943_GetExposureRange:
 1573              	.LVL139:
 1574              	.LFB35:
ARM GAS  /tmp/ccydMd0r.s 			page 54


1089:../Middlewares/stm32-mw-camera/sensors/vd1943/vd1943.c **** 
1090:../Middlewares/stm32-mw-camera/sensors/vd1943/vd1943.c **** static int VD1943_SetupFrameRate(VD1943_Ctx_t *ctx)
1091:../Middlewares/stm32-mw-camera/sensors/vd1943/vd1943.c **** {
1092:../Middlewares/stm32-mw-camera/sensors/vd1943/vd1943.c ****   struct drv_vd1943_ctx *drv_vd1943_ctx = &ctx->ctx;
1093:../Middlewares/stm32-mw-camera/sensors/vd1943/vd1943.c ****   uint16_t frame_length;
1094:../Middlewares/stm32-mw-camera/sensors/vd1943/vd1943.c ****   int ret;
1095:../Middlewares/stm32-mw-camera/sensors/vd1943/vd1943.c **** 
1096:../Middlewares/stm32-mw-camera/sensors/vd1943/vd1943.c ****   ret = VD1943_SetupLineLen(ctx);
1097:../Middlewares/stm32-mw-camera/sensors/vd1943/vd1943.c ****   if (ret)
1098:../Middlewares/stm32-mw-camera/sensors/vd1943/vd1943.c ****     return ret;
1099:../Middlewares/stm32-mw-camera/sensors/vd1943/vd1943.c **** 
1100:../Middlewares/stm32-mw-camera/sensors/vd1943/vd1943.c ****   ret = VD1943_ComputeFrameLength(ctx, drv_vd1943_ctx->config_save.frame_rate, &frame_length);
1101:../Middlewares/stm32-mw-camera/sensors/vd1943/vd1943.c ****   if (ret)
1102:../Middlewares/stm32-mw-camera/sensors/vd1943/vd1943.c ****     return ret;
1103:../Middlewares/stm32-mw-camera/sensors/vd1943/vd1943.c **** 
1104:../Middlewares/stm32-mw-camera/sensors/vd1943/vd1943.c ****   VD1943_dbg(ctx, 0, "Set frame_length to %d to reach %d fps\n", frame_length, drv_vd1943_ctx->conf
1105:../Middlewares/stm32-mw-camera/sensors/vd1943/vd1943.c ****   ret = ctx->write16(ctx, VD1943_REG_FRAME_LENGTH(0), frame_length);
1106:../Middlewares/stm32-mw-camera/sensors/vd1943/vd1943.c ****   VD1943_TraceError(ctx, ret);
1107:../Middlewares/stm32-mw-camera/sensors/vd1943/vd1943.c **** 
1108:../Middlewares/stm32-mw-camera/sensors/vd1943/vd1943.c ****  return 0;
1109:../Middlewares/stm32-mw-camera/sensors/vd1943/vd1943.c **** }
1110:../Middlewares/stm32-mw-camera/sensors/vd1943/vd1943.c **** 
1111:../Middlewares/stm32-mw-camera/sensors/vd1943/vd1943.c **** 
1112:../Middlewares/stm32-mw-camera/sensors/vd1943/vd1943.c **** int VD1943_GetExposureRange(VD1943_Ctx_t *ctx, unsigned int *min_us, unsigned int *max_us)
1113:../Middlewares/stm32-mw-camera/sensors/vd1943/vd1943.c **** {
 1575              		.loc 1 1113 1 view -0
 1576              		.cfi_startproc
 1577              		@ args = 0, pretend = 0, frame = 8
 1578              		@ frame_needed = 0, uses_anonymous_args = 0
1114:../Middlewares/stm32-mw-camera/sensors/vd1943/vd1943.c ****   uint16_t frame_length;
 1579              		.loc 1 1114 3 view .LVU426
1115:../Middlewares/stm32-mw-camera/sensors/vd1943/vd1943.c ****   int ret;
 1580              		.loc 1 1115 3 view .LVU427
1116:../Middlewares/stm32-mw-camera/sensors/vd1943/vd1943.c **** 
1117:../Middlewares/stm32-mw-camera/sensors/vd1943/vd1943.c ****   /* Min Exposure is dependant of shutter mode */
1118:../Middlewares/stm32-mw-camera/sensors/vd1943/vd1943.c ****   switch (ctx->ctx.config_save.image_processing_mode) {
 1581              		.loc 1 1118 3 view .LVU428
1113:../Middlewares/stm32-mw-camera/sensors/vd1943/vd1943.c ****   uint16_t frame_length;
 1582              		.loc 1 1113 1 is_stmt 0 view .LVU429
 1583 0000 13B5     		push	{r0, r1, r4, lr}
 1584              		.cfi_def_cfa_offset 16
 1585              		.cfi_offset 4, -8
 1586              		.cfi_offset 14, -4
 1587              		.loc 1 1118 31 view .LVU430
 1588 0002 90F84430 		ldrb	r3, [r0, #68]	@ zero_extendqisi2
1113:../Middlewares/stm32-mw-camera/sensors/vd1943/vd1943.c ****   uint16_t frame_length;
 1589              		.loc 1 1113 1 view .LVU431
 1590 0006 1446     		mov	r4, r2
 1591              		.loc 1 1118 3 view .LVU432
 1592 0008 122B     		cmp	r3, #18
 1593 000a 06D8     		bhi	.L112
 1594 000c 082B     		cmp	r3, #8
 1595 000e 02D8     		bhi	.L117
 1596 0010 013B     		subs	r3, r3, #1
 1597 0012 052B     		cmp	r3, #5
 1598 0014 19D8     		bhi	.L119
 1599              	.L117:
ARM GAS  /tmp/ccydMd0r.s 			page 55


 1600 0016 3A23     		movs	r3, #58
 1601 0018 03E0     		b	.L113
 1602              	.L112:
 1603 001a 1A3B     		subs	r3, r3, #26
 1604 001c 092B     		cmp	r3, #9
 1605 001e 14D8     		bhi	.L119
 1606 0020 1D23     		movs	r3, #29
 1607              	.L113:
1119:../Middlewares/stm32-mw-camera/sensors/vd1943/vd1943.c ****   case VD1943_GS_SS1_NATIVE_8:
1120:../Middlewares/stm32-mw-camera/sensors/vd1943/vd1943.c ****   case VD1943_GS_SS1_NATIVE_10:
1121:../Middlewares/stm32-mw-camera/sensors/vd1943/vd1943.c ****   case VD1943_GS_SS1_SPLIT_NATIVE_8:
1122:../Middlewares/stm32-mw-camera/sensors/vd1943/vd1943.c ****   case VD1943_GS_SS1_SPLIT_NATIVE_10:
1123:../Middlewares/stm32-mw-camera/sensors/vd1943/vd1943.c ****   case VD1943_GS_SS1_SPLIT_IR_8:
1124:../Middlewares/stm32-mw-camera/sensors/vd1943/vd1943.c ****   case VD1943_GS_SS1_SPLIT_IR_10:
1125:../Middlewares/stm32-mw-camera/sensors/vd1943/vd1943.c ****   case VD1943_GS_SS1_RGB_8:
1126:../Middlewares/stm32-mw-camera/sensors/vd1943/vd1943.c ****   case VD1943_GS_SS1_RGB_10:
1127:../Middlewares/stm32-mw-camera/sensors/vd1943/vd1943.c ****   case VD1943_GS_SS1_IR_8:
1128:../Middlewares/stm32-mw-camera/sensors/vd1943/vd1943.c ****   case VD1943_GS_SS1_IR_10:
1129:../Middlewares/stm32-mw-camera/sensors/vd1943/vd1943.c ****   case VD1943_GS_SS2_MONO_8:
1130:../Middlewares/stm32-mw-camera/sensors/vd1943/vd1943.c ****   case VD1943_GS_SS2_MONO_10:
1131:../Middlewares/stm32-mw-camera/sensors/vd1943/vd1943.c ****   case VD1943_GS_SS4_MONO_8:
1132:../Middlewares/stm32-mw-camera/sensors/vd1943/vd1943.c ****   case VD1943_GS_SS4_MONO_10:
1133:../Middlewares/stm32-mw-camera/sensors/vd1943/vd1943.c ****   case VD1943_GS_SS32_MONO_8:
1134:../Middlewares/stm32-mw-camera/sensors/vd1943/vd1943.c ****   case VD1943_GS_SS32_MONO_10:
1135:../Middlewares/stm32-mw-camera/sensors/vd1943/vd1943.c ****     *min_us = (4 * VD1943_LINE_TIME_IN_NS) / 1000;
 1608              		.loc 1 1135 13 view .LVU433
 1609 0022 0B60     		str	r3, [r1]
1136:../Middlewares/stm32-mw-camera/sensors/vd1943/vd1943.c ****     break;
1137:../Middlewares/stm32-mw-camera/sensors/vd1943/vd1943.c ****   case VD1943_RS_SDR_NATIVE_8:
1138:../Middlewares/stm32-mw-camera/sensors/vd1943/vd1943.c ****   case VD1943_RS_SDR_NATIVE_10:
1139:../Middlewares/stm32-mw-camera/sensors/vd1943/vd1943.c ****   case VD1943_RS_SDR_NATIVE_12:
1140:../Middlewares/stm32-mw-camera/sensors/vd1943/vd1943.c ****   case VD1943_RS_SDR_RGB_8:
1141:../Middlewares/stm32-mw-camera/sensors/vd1943/vd1943.c ****   case VD1943_RS_SDR_RGB_10:
1142:../Middlewares/stm32-mw-camera/sensors/vd1943/vd1943.c ****   case VD1943_RS_SDR_RGB_12:
1143:../Middlewares/stm32-mw-camera/sensors/vd1943/vd1943.c ****   case VD1943_RS_HDR_NATIVE_10:
1144:../Middlewares/stm32-mw-camera/sensors/vd1943/vd1943.c ****   case VD1943_RS_HDR_NATIVE_12:
1145:../Middlewares/stm32-mw-camera/sensors/vd1943/vd1943.c ****   case VD1943_RS_HDR_RGB_10:
1146:../Middlewares/stm32-mw-camera/sensors/vd1943/vd1943.c ****   case VD1943_RS_HDR_RGB_12:
1147:../Middlewares/stm32-mw-camera/sensors/vd1943/vd1943.c ****     *min_us = (2 * VD1943_LINE_TIME_IN_NS) / 1000;
1148:../Middlewares/stm32-mw-camera/sensors/vd1943/vd1943.c ****     break;
1149:../Middlewares/stm32-mw-camera/sensors/vd1943/vd1943.c ****   default:
1150:../Middlewares/stm32-mw-camera/sensors/vd1943/vd1943.c ****     return -1;
1151:../Middlewares/stm32-mw-camera/sensors/vd1943/vd1943.c ****   }
1152:../Middlewares/stm32-mw-camera/sensors/vd1943/vd1943.c **** 
1153:../Middlewares/stm32-mw-camera/sensors/vd1943/vd1943.c ****   /* Max Exposure is dependant of framelength */
1154:../Middlewares/stm32-mw-camera/sensors/vd1943/vd1943.c ****   ret = VD1943_ComputeFrameLength(ctx, ctx->ctx.config_save.frame_rate, &frame_length);
 1610              		.loc 1 1154 3 is_stmt 1 view .LVU434
 1611              		.loc 1 1154 9 is_stmt 0 view .LVU435
 1612 0024 016C     		ldr	r1, [r0, #64]
 1613              	.LVL140:
 1614              		.loc 1 1154 9 view .LVU436
 1615 0026 0DF10602 		add	r2, sp, #6
 1616              	.LVL141:
 1617              		.loc 1 1154 9 view .LVU437
 1618 002a FFF7FEFF 		bl	VD1943_ComputeFrameLength
 1619              	.LVL142:
1155:../Middlewares/stm32-mw-camera/sensors/vd1943/vd1943.c ****   if (ret)
ARM GAS  /tmp/ccydMd0r.s 			page 56


 1620              		.loc 1 1155 3 is_stmt 1 view .LVU438
 1621              		.loc 1 1155 6 is_stmt 0 view .LVU439
 1622 002e 50B9     		cbnz	r0, .L111
1156:../Middlewares/stm32-mw-camera/sensors/vd1943/vd1943.c ****     return ret;
1157:../Middlewares/stm32-mw-camera/sensors/vd1943/vd1943.c ****   *max_us = (frame_length - VD1943_EXPOSURE_MARGIN) * VD1943_LINE_TIME_IN_NS / 1000;
 1623              		.loc 1 1157 3 is_stmt 1 view .LVU440
 1624              		.loc 1 1157 53 is_stmt 0 view .LVU441
 1625 0030 43F6A402 		movw	r2, #14500
 1626              		.loc 1 1157 27 view .LVU442
 1627 0034 BDF80630 		ldrh	r3, [sp, #6]
 1628 0038 643B     		subs	r3, r3, #100
 1629              		.loc 1 1157 53 view .LVU443
 1630 003a 5343     		muls	r3, r2, r3
 1631              		.loc 1 1157 78 view .LVU444
 1632 003c 4FF47A72 		mov	r2, #1000
 1633 0040 93FBF2F3 		sdiv	r3, r3, r2
 1634              		.loc 1 1157 11 view .LVU445
 1635 0044 2360     		str	r3, [r4]
1158:../Middlewares/stm32-mw-camera/sensors/vd1943/vd1943.c **** 
1159:../Middlewares/stm32-mw-camera/sensors/vd1943/vd1943.c ****   return 0;
 1636              		.loc 1 1159 3 is_stmt 1 view .LVU446
 1637              	.LVL143:
 1638              	.L111:
1160:../Middlewares/stm32-mw-camera/sensors/vd1943/vd1943.c **** }
 1639              		.loc 1 1160 1 is_stmt 0 view .LVU447
 1640 0046 02B0     		add	sp, sp, #8
 1641              		.cfi_remember_state
 1642              		.cfi_def_cfa_offset 8
 1643              		@ sp needed
 1644 0048 10BD     		pop	{r4, pc}
 1645              	.LVL144:
 1646              	.L119:
 1647              		.cfi_restore_state
1118:../Middlewares/stm32-mw-camera/sensors/vd1943/vd1943.c ****   case VD1943_GS_SS1_NATIVE_8:
 1648              		.loc 1 1118 3 view .LVU448
 1649 004a 4FF0FF30 		mov	r0, #-1
 1650              	.LVL145:
1118:../Middlewares/stm32-mw-camera/sensors/vd1943/vd1943.c ****   case VD1943_GS_SS1_NATIVE_8:
 1651              		.loc 1 1118 3 view .LVU449
 1652 004e FAE7     		b	.L111
 1653              		.cfi_endproc
 1654              	.LFE35:
 1656              		.section	.rodata.VD1943_Init.str1.1,"aMS",%progbits,1
 1657              	.LC9:
 1658 0000 56443139 		.ascii	"VD1943_ERR-%d : ext_clock_freq_in_hz out of range\000"
 1658      34335F45 
 1658      52522D25 
 1658      64203A20 
 1658      6578745F 
 1659              	.LC10:
 1660 0032 56443139 		.ascii	"VD1943_ERR-%d : data_rate_in_mps out of range\000"
 1660      34335F45 
 1660      52522D25 
 1660      64203A20 
 1660      64617461 
 1661              	.LC11:
 1662 0060 56443139 		.ascii	"VD1943_ERR-%d : datalane_nb out of range\000"
ARM GAS  /tmp/ccydMd0r.s 			page 57


 1662      34335F45 
 1662      52522D25 
 1662      64203A20 
 1662      64617461 
 1663              	.LC12:
 1664 0089 56443139 		.ascii	"VD1943_ERR-%d : resolution out of range\000"
 1664      34335F45 
 1664      52522D25 
 1664      64203A20 
 1664      7265736F 
 1665              	.LC13:
 1666 00b1 3000     		.ascii	"0\000"
 1667              	.LC14:
 1668 00b3 56443139 		.ascii	"VD1943_DG%d-%d : model_id = 0x%08x\012\000"
 1668      34335F44 
 1668      4725642D 
 1668      2564203A 
 1668      206D6F64 
 1669              	.LC15:
 1670 00d7 56443139 		.ascii	"VD1943_ERR-%d : Unsupported model id: 0x%08x\012\000"
 1670      34335F45 
 1670      52522D25 
 1670      64203A20 
 1670      556E7375 
 1671              	.LC16:
 1672 0105 56443139 		.ascii	"VD1943_DG%d-%d : rom revision = 0x%08x\012\000"
 1672      34335F44 
 1672      4725642D 
 1672      2564203A 
 1672      20726F6D 
 1673              	.LC17:
 1674 012d 56443139 		.ascii	"VD1943_ERR-%d : Unsupported rom revision: 0x%08x\012"
 1674      34335F45 
 1674      52522D25 
 1674      64203A20 
 1674      556E7375 
 1675 015e 00       		.ascii	"\000"
 1676              	.LC18:
 1677 015f 56443139 		.ascii	"VD1943_DG%d-%d : optical revision = 0x%04x\012\000"
 1677      34335F44 
 1677      4725642D 
 1677      2564203A 
 1677      206F7074 
 1678              	.LC19:
 1679 018b 56443139 		.ascii	"VD1943_NOT-%d : patch = %d.%d\012\000"
 1679      34335F4E 
 1679      4F542D25 
 1679      64203A20 
 1679      70617463 
 1680              		.section	.text.VD1943_Init,"ax",%progbits
 1681              		.align	1
 1682              		.global	VD1943_Init
 1683              		.syntax unified
 1684              		.thumb
 1685              		.thumb_func
 1687              	VD1943_Init:
 1688              	.LVL146:
ARM GAS  /tmp/ccydMd0r.s 			page 58


 1689              	.LFB46:
1161:../Middlewares/stm32-mw-camera/sensors/vd1943/vd1943.c **** 
1162:../Middlewares/stm32-mw-camera/sensors/vd1943/vd1943.c **** static int VD1943_SetupMirrorFlip(VD1943_Ctx_t *ctx)
1163:../Middlewares/stm32-mw-camera/sensors/vd1943/vd1943.c **** {
1164:../Middlewares/stm32-mw-camera/sensors/vd1943/vd1943.c ****   struct drv_vd1943_ctx *drv_vd1943_ctx = &ctx->ctx;
1165:../Middlewares/stm32-mw-camera/sensors/vd1943/vd1943.c ****   uint8_t mode;
1166:../Middlewares/stm32-mw-camera/sensors/vd1943/vd1943.c ****   int ret;
1167:../Middlewares/stm32-mw-camera/sensors/vd1943/vd1943.c **** 
1168:../Middlewares/stm32-mw-camera/sensors/vd1943/vd1943.c ****   switch (drv_vd1943_ctx->config_save.flip_mirror_mode) {
1169:../Middlewares/stm32-mw-camera/sensors/vd1943/vd1943.c ****   case VD1943_MIRROR_FLIP_NONE:
1170:../Middlewares/stm32-mw-camera/sensors/vd1943/vd1943.c ****     mode = 0;
1171:../Middlewares/stm32-mw-camera/sensors/vd1943/vd1943.c ****     break;
1172:../Middlewares/stm32-mw-camera/sensors/vd1943/vd1943.c ****   case VD1943_FLIP:
1173:../Middlewares/stm32-mw-camera/sensors/vd1943/vd1943.c ****     mode = 2;
1174:../Middlewares/stm32-mw-camera/sensors/vd1943/vd1943.c ****     break;
1175:../Middlewares/stm32-mw-camera/sensors/vd1943/vd1943.c ****   case VD1943_MIRROR:
1176:../Middlewares/stm32-mw-camera/sensors/vd1943/vd1943.c ****     mode = 1;
1177:../Middlewares/stm32-mw-camera/sensors/vd1943/vd1943.c ****     break;
1178:../Middlewares/stm32-mw-camera/sensors/vd1943/vd1943.c ****   case VD1943_MIRROR_FLIP:
1179:../Middlewares/stm32-mw-camera/sensors/vd1943/vd1943.c ****     mode = 3;
1180:../Middlewares/stm32-mw-camera/sensors/vd1943/vd1943.c ****     break;
1181:../Middlewares/stm32-mw-camera/sensors/vd1943/vd1943.c ****   default:
1182:../Middlewares/stm32-mw-camera/sensors/vd1943/vd1943.c ****     return -1;
1183:../Middlewares/stm32-mw-camera/sensors/vd1943/vd1943.c ****   }
1184:../Middlewares/stm32-mw-camera/sensors/vd1943/vd1943.c **** 
1185:../Middlewares/stm32-mw-camera/sensors/vd1943/vd1943.c ****   ret = ctx->write8(ctx, VD1943_REG_ORIENTATION, mode);
1186:../Middlewares/stm32-mw-camera/sensors/vd1943/vd1943.c ****   VD1943_TraceError(ctx, ret);
1187:../Middlewares/stm32-mw-camera/sensors/vd1943/vd1943.c **** 
1188:../Middlewares/stm32-mw-camera/sensors/vd1943/vd1943.c ****   return 0;
1189:../Middlewares/stm32-mw-camera/sensors/vd1943/vd1943.c **** }
1190:../Middlewares/stm32-mw-camera/sensors/vd1943/vd1943.c **** 
1191:../Middlewares/stm32-mw-camera/sensors/vd1943/vd1943.c **** static int VD1943_SetupPatGen(VD1943_Ctx_t *ctx)
1192:../Middlewares/stm32-mw-camera/sensors/vd1943/vd1943.c **** {
1193:../Middlewares/stm32-mw-camera/sensors/vd1943/vd1943.c ****   struct drv_vd1943_ctx *drv_vd1943_ctx = &ctx->ctx;
1194:../Middlewares/stm32-mw-camera/sensors/vd1943/vd1943.c ****   uint16_t reg16;
1195:../Middlewares/stm32-mw-camera/sensors/vd1943/vd1943.c ****   int ret;
1196:../Middlewares/stm32-mw-camera/sensors/vd1943/vd1943.c **** 
1197:../Middlewares/stm32-mw-camera/sensors/vd1943/vd1943.c ****   switch (drv_vd1943_ctx->config_save.patgen) {
1198:../Middlewares/stm32-mw-camera/sensors/vd1943/vd1943.c ****   case VD1943_PATGEN_DISABLE:
1199:../Middlewares/stm32-mw-camera/sensors/vd1943/vd1943.c ****     reg16 = VD1943_PATGEN_CTRL_DISABLE;
1200:../Middlewares/stm32-mw-camera/sensors/vd1943/vd1943.c ****     break;
1201:../Middlewares/stm32-mw-camera/sensors/vd1943/vd1943.c ****   case VD1943_PATGEN_DIAGONAL_GRAYSCALE:
1202:../Middlewares/stm32-mw-camera/sensors/vd1943/vd1943.c ****     reg16 = VD1943_PATGEN_CTRL_DGREY;
1203:../Middlewares/stm32-mw-camera/sensors/vd1943/vd1943.c ****     break;
1204:../Middlewares/stm32-mw-camera/sensors/vd1943/vd1943.c ****   case VD1943_PATGEN_PSEUDO_RANDOM:
1205:../Middlewares/stm32-mw-camera/sensors/vd1943/vd1943.c ****     reg16 = VD1943_PATGEN_CTRL_PN28;
1206:../Middlewares/stm32-mw-camera/sensors/vd1943/vd1943.c ****     break;
1207:../Middlewares/stm32-mw-camera/sensors/vd1943/vd1943.c ****   default:
1208:../Middlewares/stm32-mw-camera/sensors/vd1943/vd1943.c ****     return -1;
1209:../Middlewares/stm32-mw-camera/sensors/vd1943/vd1943.c ****   }
1210:../Middlewares/stm32-mw-camera/sensors/vd1943/vd1943.c **** 
1211:../Middlewares/stm32-mw-camera/sensors/vd1943/vd1943.c ****   ret = ctx->write16(ctx, VD1943_REG_PATGEN_CTRL, reg16);
1212:../Middlewares/stm32-mw-camera/sensors/vd1943/vd1943.c ****   VD1943_TraceError(ctx, ret);
1213:../Middlewares/stm32-mw-camera/sensors/vd1943/vd1943.c **** 
1214:../Middlewares/stm32-mw-camera/sensors/vd1943/vd1943.c ****   return 0;
1215:../Middlewares/stm32-mw-camera/sensors/vd1943/vd1943.c **** }
1216:../Middlewares/stm32-mw-camera/sensors/vd1943/vd1943.c **** 
ARM GAS  /tmp/ccydMd0r.s 			page 59


1217:../Middlewares/stm32-mw-camera/sensors/vd1943/vd1943.c **** static int VD1943_Gpios(VD1943_Ctx_t *ctx)
1218:../Middlewares/stm32-mw-camera/sensors/vd1943/vd1943.c **** {
1219:../Middlewares/stm32-mw-camera/sensors/vd1943/vd1943.c ****   struct drv_vd1943_ctx *drv_vd1943_ctx = &ctx->ctx;
1220:../Middlewares/stm32-mw-camera/sensors/vd1943/vd1943.c ****   int ret;
1221:../Middlewares/stm32-mw-camera/sensors/vd1943/vd1943.c ****   int i;
1222:../Middlewares/stm32-mw-camera/sensors/vd1943/vd1943.c **** 
1223:../Middlewares/stm32-mw-camera/sensors/vd1943/vd1943.c ****   for (i = 0; i < VD1943_GPIO_NB; i++) {
1224:../Middlewares/stm32-mw-camera/sensors/vd1943/vd1943.c ****     ret = ctx->write8(ctx, VD1943_REG_GPIO_x_CTRL(i), drv_vd1943_ctx->config_save.gpios[i].gpio_ctr
1225:../Middlewares/stm32-mw-camera/sensors/vd1943/vd1943.c ****     VD1943_TraceError(ctx, ret);
1226:../Middlewares/stm32-mw-camera/sensors/vd1943/vd1943.c ****     ret = ctx->write8(ctx, VD1943_REG_GPIO_CTRL(0), drv_vd1943_ctx->config_save.gpios[i].enable);
1227:../Middlewares/stm32-mw-camera/sensors/vd1943/vd1943.c ****     VD1943_TraceError(ctx, ret);
1228:../Middlewares/stm32-mw-camera/sensors/vd1943/vd1943.c ****   }
1229:../Middlewares/stm32-mw-camera/sensors/vd1943/vd1943.c **** 
1230:../Middlewares/stm32-mw-camera/sensors/vd1943/vd1943.c ****   return 0;
1231:../Middlewares/stm32-mw-camera/sensors/vd1943/vd1943.c **** }
1232:../Middlewares/stm32-mw-camera/sensors/vd1943/vd1943.c **** 
1233:../Middlewares/stm32-mw-camera/sensors/vd1943/vd1943.c **** static int VD1943_VT_Sync(VD1943_Ctx_t *ctx)
1234:../Middlewares/stm32-mw-camera/sensors/vd1943/vd1943.c **** {
1235:../Middlewares/stm32-mw-camera/sensors/vd1943/vd1943.c ****   struct drv_vd1943_ctx *drv_vd1943_ctx = &ctx->ctx;
1236:../Middlewares/stm32-mw-camera/sensors/vd1943/vd1943.c ****   int i;
1237:../Middlewares/stm32-mw-camera/sensors/vd1943/vd1943.c ****   int ret;
1238:../Middlewares/stm32-mw-camera/sensors/vd1943/vd1943.c **** 
1239:../Middlewares/stm32-mw-camera/sensors/vd1943/vd1943.c ****   /* If Slave mode is enabled, ensure at lease one GPIO is configured accordingly */
1240:../Middlewares/stm32-mw-camera/sensors/vd1943/vd1943.c ****   if (drv_vd1943_ctx->config_save.sync_mode == VD1943_SLAVE) {
1241:../Middlewares/stm32-mw-camera/sensors/vd1943/vd1943.c ****     for (i = 0; i < VD1943_GPIO_NB; i++) {
1242:../Middlewares/stm32-mw-camera/sensors/vd1943/vd1943.c ****       if (((drv_vd1943_ctx->config_save.gpios[i].gpio_ctrl & VD1943_GPIO_FSYNC_IN) == VD1943_GPIO_F
1243:../Middlewares/stm32-mw-camera/sensors/vd1943/vd1943.c ****         (drv_vd1943_ctx->config_save.gpios[i].enable == VD1943_GPIO_ENABLE)) {
1244:../Middlewares/stm32-mw-camera/sensors/vd1943/vd1943.c ****         break;
1245:../Middlewares/stm32-mw-camera/sensors/vd1943/vd1943.c ****       }
1246:../Middlewares/stm32-mw-camera/sensors/vd1943/vd1943.c ****     }
1247:../Middlewares/stm32-mw-camera/sensors/vd1943/vd1943.c **** 
1248:../Middlewares/stm32-mw-camera/sensors/vd1943/vd1943.c ****     if (i == VD1943_GPIO_NB) {
1249:../Middlewares/stm32-mw-camera/sensors/vd1943/vd1943.c ****       // Slave mode is selected but no GPIO is configured
1250:../Middlewares/stm32-mw-camera/sensors/vd1943/vd1943.c ****       return -1;
1251:../Middlewares/stm32-mw-camera/sensors/vd1943/vd1943.c ****     }
1252:../Middlewares/stm32-mw-camera/sensors/vd1943/vd1943.c ****   }
1253:../Middlewares/stm32-mw-camera/sensors/vd1943/vd1943.c **** 
1254:../Middlewares/stm32-mw-camera/sensors/vd1943/vd1943.c ****   ret = ctx->write8(ctx, VD1943_REG_VT_CTRL, drv_vd1943_ctx->config_save.sync_mode);
1255:../Middlewares/stm32-mw-camera/sensors/vd1943/vd1943.c ****   VD1943_TraceError(ctx, ret);
1256:../Middlewares/stm32-mw-camera/sensors/vd1943/vd1943.c **** 
1257:../Middlewares/stm32-mw-camera/sensors/vd1943/vd1943.c ****   return 0;
1258:../Middlewares/stm32-mw-camera/sensors/vd1943/vd1943.c **** }
1259:../Middlewares/stm32-mw-camera/sensors/vd1943/vd1943.c **** 
1260:../Middlewares/stm32-mw-camera/sensors/vd1943/vd1943.c **** static int VD1943_SafetyDisable(VD1943_Ctx_t *ctx)
1261:../Middlewares/stm32-mw-camera/sensors/vd1943/vd1943.c **** {
1262:../Middlewares/stm32-mw-camera/sensors/vd1943/vd1943.c ****   int ret;
1263:../Middlewares/stm32-mw-camera/sensors/vd1943/vd1943.c **** 
1264:../Middlewares/stm32-mw-camera/sensors/vd1943/vd1943.c ****   ret = ctx->write8(ctx, VD1943_REG_DIAG_DISABLE_FW_0_ERR, VD1943_DIAG_DISABLE_FW_0_ERR_UI_CRC);
1265:../Middlewares/stm32-mw-camera/sensors/vd1943/vd1943.c ****   VD1943_TraceError(ctx, ret);
1266:../Middlewares/stm32-mw-camera/sensors/vd1943/vd1943.c ****   ret = ctx->write8(ctx, VD1943_REG_DIAG_DISABLE_FW_1_ERR, VD1943_DIAG_DISABLE_FW_1_ERR_TASK_MONITO
1267:../Middlewares/stm32-mw-camera/sensors/vd1943/vd1943.c ****   VD1943_TraceError(ctx, ret);
1268:../Middlewares/stm32-mw-camera/sensors/vd1943/vd1943.c ****   ret = ctx->write8(ctx, VD1943_REG_DIAG_DISABLE_STREAMING_ERR, VD1943_DIAG_DISABLE_STREAMING_ERR_A
1269:../Middlewares/stm32-mw-camera/sensors/vd1943/vd1943.c ****   VD1943_TraceError(ctx, ret);
1270:../Middlewares/stm32-mw-camera/sensors/vd1943/vd1943.c **** 
1271:../Middlewares/stm32-mw-camera/sensors/vd1943/vd1943.c ****   return 0;
1272:../Middlewares/stm32-mw-camera/sensors/vd1943/vd1943.c **** }
1273:../Middlewares/stm32-mw-camera/sensors/vd1943/vd1943.c **** 
ARM GAS  /tmp/ccydMd0r.s 			page 60


1274:../Middlewares/stm32-mw-camera/sensors/vd1943/vd1943.c **** static int VD1943_Setup(VD1943_Ctx_t *ctx)
1275:../Middlewares/stm32-mw-camera/sensors/vd1943/vd1943.c **** {
1276:../Middlewares/stm32-mw-camera/sensors/vd1943/vd1943.c ****   int ret;
1277:../Middlewares/stm32-mw-camera/sensors/vd1943/vd1943.c **** 
1278:../Middlewares/stm32-mw-camera/sensors/vd1943/vd1943.c ****   ret = VD1943_SetupOutput(ctx);
1279:../Middlewares/stm32-mw-camera/sensors/vd1943/vd1943.c ****   if (ret)
1280:../Middlewares/stm32-mw-camera/sensors/vd1943/vd1943.c ****     return ret;
1281:../Middlewares/stm32-mw-camera/sensors/vd1943/vd1943.c **** 
1282:../Middlewares/stm32-mw-camera/sensors/vd1943/vd1943.c ****   ret = VD1943_SetupSize(ctx);
1283:../Middlewares/stm32-mw-camera/sensors/vd1943/vd1943.c ****   if (ret)
1284:../Middlewares/stm32-mw-camera/sensors/vd1943/vd1943.c ****     return ret;
1285:../Middlewares/stm32-mw-camera/sensors/vd1943/vd1943.c **** 
1286:../Middlewares/stm32-mw-camera/sensors/vd1943/vd1943.c ****   ret = VD1943_SetupFrameRate(ctx);
1287:../Middlewares/stm32-mw-camera/sensors/vd1943/vd1943.c ****   if (ret)
1288:../Middlewares/stm32-mw-camera/sensors/vd1943/vd1943.c ****     return ret;
1289:../Middlewares/stm32-mw-camera/sensors/vd1943/vd1943.c **** 
1290:../Middlewares/stm32-mw-camera/sensors/vd1943/vd1943.c ****   ret = VD1943_SetupMirrorFlip(ctx);
1291:../Middlewares/stm32-mw-camera/sensors/vd1943/vd1943.c ****   if (ret)
1292:../Middlewares/stm32-mw-camera/sensors/vd1943/vd1943.c ****     return ret;
1293:../Middlewares/stm32-mw-camera/sensors/vd1943/vd1943.c **** 
1294:../Middlewares/stm32-mw-camera/sensors/vd1943/vd1943.c ****   ret = VD1943_SetupPatGen(ctx);
1295:../Middlewares/stm32-mw-camera/sensors/vd1943/vd1943.c ****   if (ret)
1296:../Middlewares/stm32-mw-camera/sensors/vd1943/vd1943.c ****     return ret;
1297:../Middlewares/stm32-mw-camera/sensors/vd1943/vd1943.c **** 
1298:../Middlewares/stm32-mw-camera/sensors/vd1943/vd1943.c ****   ret = VD1943_Gpios(ctx);
1299:../Middlewares/stm32-mw-camera/sensors/vd1943/vd1943.c ****   if (ret)
1300:../Middlewares/stm32-mw-camera/sensors/vd1943/vd1943.c ****     return ret;
1301:../Middlewares/stm32-mw-camera/sensors/vd1943/vd1943.c **** 
1302:../Middlewares/stm32-mw-camera/sensors/vd1943/vd1943.c ****   ret = VD1943_VT_Sync(ctx);
1303:../Middlewares/stm32-mw-camera/sensors/vd1943/vd1943.c ****   if (ret)
1304:../Middlewares/stm32-mw-camera/sensors/vd1943/vd1943.c ****     return ret;
1305:../Middlewares/stm32-mw-camera/sensors/vd1943/vd1943.c **** 
1306:../Middlewares/stm32-mw-camera/sensors/vd1943/vd1943.c ****   ret = VD1943_SafetyDisable(ctx);
1307:../Middlewares/stm32-mw-camera/sensors/vd1943/vd1943.c ****   if (ret)
1308:../Middlewares/stm32-mw-camera/sensors/vd1943/vd1943.c ****     return ret;
1309:../Middlewares/stm32-mw-camera/sensors/vd1943/vd1943.c **** 
1310:../Middlewares/stm32-mw-camera/sensors/vd1943/vd1943.c ****   return 0;
1311:../Middlewares/stm32-mw-camera/sensors/vd1943/vd1943.c **** }
1312:../Middlewares/stm32-mw-camera/sensors/vd1943/vd1943.c **** 
1313:../Middlewares/stm32-mw-camera/sensors/vd1943/vd1943.c **** static int VD1943_StartStreaming(VD1943_Ctx_t *ctx)
1314:../Middlewares/stm32-mw-camera/sensors/vd1943/vd1943.c **** {
1315:../Middlewares/stm32-mw-camera/sensors/vd1943/vd1943.c ****   int ret;
1316:../Middlewares/stm32-mw-camera/sensors/vd1943/vd1943.c **** 
1317:../Middlewares/stm32-mw-camera/sensors/vd1943/vd1943.c ****   ret = VD1943_ApplyCmdAndWait(ctx, VD1943_REG_SW_STBY, VD1943_CMD_START_STREAMING);
1318:../Middlewares/stm32-mw-camera/sensors/vd1943/vd1943.c ****   if (ret)
1319:../Middlewares/stm32-mw-camera/sensors/vd1943/vd1943.c ****     return ret;
1320:../Middlewares/stm32-mw-camera/sensors/vd1943/vd1943.c **** 
1321:../Middlewares/stm32-mw-camera/sensors/vd1943/vd1943.c ****   ret = VD1943_WaitState(ctx, VD1943_STREAMING);
1322:../Middlewares/stm32-mw-camera/sensors/vd1943/vd1943.c ****   if (ret)
1323:../Middlewares/stm32-mw-camera/sensors/vd1943/vd1943.c ****     return ret;
1324:../Middlewares/stm32-mw-camera/sensors/vd1943/vd1943.c **** 
1325:../Middlewares/stm32-mw-camera/sensors/vd1943/vd1943.c ****   VD1943_notice(ctx, "Streaming is on\n");
1326:../Middlewares/stm32-mw-camera/sensors/vd1943/vd1943.c **** 
1327:../Middlewares/stm32-mw-camera/sensors/vd1943/vd1943.c ****   return 0;
1328:../Middlewares/stm32-mw-camera/sensors/vd1943/vd1943.c **** }
1329:../Middlewares/stm32-mw-camera/sensors/vd1943/vd1943.c **** 
1330:../Middlewares/stm32-mw-camera/sensors/vd1943/vd1943.c **** static int VD1943_StopStreaming(VD1943_Ctx_t *ctx)
ARM GAS  /tmp/ccydMd0r.s 			page 61


1331:../Middlewares/stm32-mw-camera/sensors/vd1943/vd1943.c **** {
1332:../Middlewares/stm32-mw-camera/sensors/vd1943/vd1943.c ****   int ret;
1333:../Middlewares/stm32-mw-camera/sensors/vd1943/vd1943.c **** 
1334:../Middlewares/stm32-mw-camera/sensors/vd1943/vd1943.c ****   ret = VD1943_ApplyCmdAndWait(ctx, VD1943_REG_STREAMING, VD1943_CMD_STOP_STREAMING);
1335:../Middlewares/stm32-mw-camera/sensors/vd1943/vd1943.c ****   if (ret)
1336:../Middlewares/stm32-mw-camera/sensors/vd1943/vd1943.c ****     return ret;
1337:../Middlewares/stm32-mw-camera/sensors/vd1943/vd1943.c **** 
1338:../Middlewares/stm32-mw-camera/sensors/vd1943/vd1943.c ****   ret = VD1943_WaitState(ctx, VD1943_SW_STBY);
1339:../Middlewares/stm32-mw-camera/sensors/vd1943/vd1943.c ****   if (ret)
1340:../Middlewares/stm32-mw-camera/sensors/vd1943/vd1943.c ****     return ret;
1341:../Middlewares/stm32-mw-camera/sensors/vd1943/vd1943.c **** 
1342:../Middlewares/stm32-mw-camera/sensors/vd1943/vd1943.c ****   VD1943_notice(ctx, "Streaming is on\n");
1343:../Middlewares/stm32-mw-camera/sensors/vd1943/vd1943.c **** 
1344:../Middlewares/stm32-mw-camera/sensors/vd1943/vd1943.c ****   return 0;
1345:../Middlewares/stm32-mw-camera/sensors/vd1943/vd1943.c **** }
1346:../Middlewares/stm32-mw-camera/sensors/vd1943/vd1943.c **** 
1347:../Middlewares/stm32-mw-camera/sensors/vd1943/vd1943.c **** static int VD1943_CheckConfig(VD1943_Ctx_t *ctx, VD1943_Config_t *config)
1348:../Middlewares/stm32-mw-camera/sensors/vd1943/vd1943.c **** {
1349:../Middlewares/stm32-mw-camera/sensors/vd1943/vd1943.c ****   struct drv_vd1943_ctx *drv_vd1943_ctx = &ctx->ctx;
1350:../Middlewares/stm32-mw-camera/sensors/vd1943/vd1943.c **** 
1351:../Middlewares/stm32-mw-camera/sensors/vd1943/vd1943.c ****   if (config->ext_clock_freq_in_hz < VD1943_MIN_CLOCK_FREQ || config->ext_clock_freq_in_hz > VD1943
1352:../Middlewares/stm32-mw-camera/sensors/vd1943/vd1943.c ****     VD1943_error(ctx, "ext_clock_freq_in_hz out of range");
1353:../Middlewares/stm32-mw-camera/sensors/vd1943/vd1943.c ****     return -1;
1354:../Middlewares/stm32-mw-camera/sensors/vd1943/vd1943.c ****   }
1355:../Middlewares/stm32-mw-camera/sensors/vd1943/vd1943.c **** 
1356:../Middlewares/stm32-mw-camera/sensors/vd1943/vd1943.c ****   if (config->out_itf.data_rate_in_mps < VD1943_MIN_DATARATE || config->out_itf.data_rate_in_mps > 
1357:../Middlewares/stm32-mw-camera/sensors/vd1943/vd1943.c ****     VD1943_error(ctx, "data_rate_in_mps out of range");
1358:../Middlewares/stm32-mw-camera/sensors/vd1943/vd1943.c ****     return -1;
1359:../Middlewares/stm32-mw-camera/sensors/vd1943/vd1943.c ****   }
1360:../Middlewares/stm32-mw-camera/sensors/vd1943/vd1943.c **** 
1361:../Middlewares/stm32-mw-camera/sensors/vd1943/vd1943.c ****   if (config->out_itf.datalane_nb != 2 && config->out_itf.datalane_nb != 4) {
1362:../Middlewares/stm32-mw-camera/sensors/vd1943/vd1943.c ****     VD1943_error(ctx, "datalane_nb out of range");
1363:../Middlewares/stm32-mw-camera/sensors/vd1943/vd1943.c ****     return -1;
1364:../Middlewares/stm32-mw-camera/sensors/vd1943/vd1943.c ****   }
1365:../Middlewares/stm32-mw-camera/sensors/vd1943/vd1943.c **** 
1366:../Middlewares/stm32-mw-camera/sensors/vd1943/vd1943.c ****   if (config->resolution < VD1943_RES_QVGA_320_240 ||
1367:../Middlewares/stm32-mw-camera/sensors/vd1943/vd1943.c ****       config->resolution > VD1943_RES_FULL_2560_1984) {
1368:../Middlewares/stm32-mw-camera/sensors/vd1943/vd1943.c ****     VD1943_error(ctx, "resolution out of range");
1369:../Middlewares/stm32-mw-camera/sensors/vd1943/vd1943.c ****     return -1;
1370:../Middlewares/stm32-mw-camera/sensors/vd1943/vd1943.c ****   }
1371:../Middlewares/stm32-mw-camera/sensors/vd1943/vd1943.c **** 
1372:../Middlewares/stm32-mw-camera/sensors/vd1943/vd1943.c ****   switch (config->image_processing_mode) {
1373:../Middlewares/stm32-mw-camera/sensors/vd1943/vd1943.c ****   case VD1943_GS_SS1_NATIVE_8:
1374:../Middlewares/stm32-mw-camera/sensors/vd1943/vd1943.c ****   case VD1943_GS_SS1_NATIVE_10:
1375:../Middlewares/stm32-mw-camera/sensors/vd1943/vd1943.c ****   case VD1943_GS_SS1_SPLIT_NATIVE_8:
1376:../Middlewares/stm32-mw-camera/sensors/vd1943/vd1943.c ****   case VD1943_GS_SS1_SPLIT_NATIVE_10:
1377:../Middlewares/stm32-mw-camera/sensors/vd1943/vd1943.c ****   case VD1943_GS_SS2_MONO_8:
1378:../Middlewares/stm32-mw-camera/sensors/vd1943/vd1943.c ****   case VD1943_GS_SS2_MONO_10:
1379:../Middlewares/stm32-mw-camera/sensors/vd1943/vd1943.c ****   case VD1943_GS_SS4_MONO_8:
1380:../Middlewares/stm32-mw-camera/sensors/vd1943/vd1943.c ****   case VD1943_GS_SS4_MONO_10:
1381:../Middlewares/stm32-mw-camera/sensors/vd1943/vd1943.c ****   case VD1943_GS_SS32_MONO_8:
1382:../Middlewares/stm32-mw-camera/sensors/vd1943/vd1943.c ****   case VD1943_GS_SS32_MONO_10:
1383:../Middlewares/stm32-mw-camera/sensors/vd1943/vd1943.c ****   case VD1943_RS_SDR_NATIVE_8:
1384:../Middlewares/stm32-mw-camera/sensors/vd1943/vd1943.c ****   case VD1943_RS_SDR_NATIVE_10:
1385:../Middlewares/stm32-mw-camera/sensors/vd1943/vd1943.c ****   case VD1943_RS_SDR_NATIVE_12:
1386:../Middlewares/stm32-mw-camera/sensors/vd1943/vd1943.c ****   case VD1943_RS_HDR_NATIVE_10:
1387:../Middlewares/stm32-mw-camera/sensors/vd1943/vd1943.c ****   case VD1943_RS_HDR_NATIVE_12:
ARM GAS  /tmp/ccydMd0r.s 			page 62


1388:../Middlewares/stm32-mw-camera/sensors/vd1943/vd1943.c ****     break;
1389:../Middlewares/stm32-mw-camera/sensors/vd1943/vd1943.c ****   case VD1943_GS_SS1_RGB_8:
1390:../Middlewares/stm32-mw-camera/sensors/vd1943/vd1943.c ****   case VD1943_GS_SS1_RGB_10:
1391:../Middlewares/stm32-mw-camera/sensors/vd1943/vd1943.c ****   case VD1943_GS_SS1_IR_8:
1392:../Middlewares/stm32-mw-camera/sensors/vd1943/vd1943.c ****   case VD1943_GS_SS1_IR_10:
1393:../Middlewares/stm32-mw-camera/sensors/vd1943/vd1943.c ****   case VD1943_GS_SS1_SPLIT_IR_8:
1394:../Middlewares/stm32-mw-camera/sensors/vd1943/vd1943.c ****   case VD1943_GS_SS1_SPLIT_IR_10:
1395:../Middlewares/stm32-mw-camera/sensors/vd1943/vd1943.c ****   case VD1943_RS_SDR_RGB_8:
1396:../Middlewares/stm32-mw-camera/sensors/vd1943/vd1943.c ****   case VD1943_RS_SDR_RGB_10:
1397:../Middlewares/stm32-mw-camera/sensors/vd1943/vd1943.c ****   case VD1943_RS_SDR_RGB_12:
1398:../Middlewares/stm32-mw-camera/sensors/vd1943/vd1943.c ****   case VD1943_RS_HDR_RGB_10:
1399:../Middlewares/stm32-mw-camera/sensors/vd1943/vd1943.c ****   case VD1943_RS_HDR_RGB_12:
1400:../Middlewares/stm32-mw-camera/sensors/vd1943/vd1943.c ****     // Unsupported modes for VD5943 (Mono) variant
1401:../Middlewares/stm32-mw-camera/sensors/vd1943/vd1943.c ****     if (drv_vd1943_ctx->is_mono)
1402:../Middlewares/stm32-mw-camera/sensors/vd1943/vd1943.c ****       return -1;
1403:../Middlewares/stm32-mw-camera/sensors/vd1943/vd1943.c ****     else
1404:../Middlewares/stm32-mw-camera/sensors/vd1943/vd1943.c ****       break;
1405:../Middlewares/stm32-mw-camera/sensors/vd1943/vd1943.c ****   default:
1406:../Middlewares/stm32-mw-camera/sensors/vd1943/vd1943.c ****     return -1;
1407:../Middlewares/stm32-mw-camera/sensors/vd1943/vd1943.c ****   }
1408:../Middlewares/stm32-mw-camera/sensors/vd1943/vd1943.c **** 
1409:../Middlewares/stm32-mw-camera/sensors/vd1943/vd1943.c ****   return 0;
1410:../Middlewares/stm32-mw-camera/sensors/vd1943/vd1943.c **** }
1411:../Middlewares/stm32-mw-camera/sensors/vd1943/vd1943.c **** 
1412:../Middlewares/stm32-mw-camera/sensors/vd1943/vd1943.c **** static int VD1943_SetFctPtr(VD1943_Ctx_t *ctx)
1413:../Middlewares/stm32-mw-camera/sensors/vd1943/vd1943.c **** {
1414:../Middlewares/stm32-mw-camera/sensors/vd1943/vd1943.c ****   switch (ctx->ctx.config_save.image_processing_mode) {
1415:../Middlewares/stm32-mw-camera/sensors/vd1943/vd1943.c ****   case VD1943_GS_SS1_NATIVE_8:
1416:../Middlewares/stm32-mw-camera/sensors/vd1943/vd1943.c ****   case VD1943_GS_SS1_NATIVE_10:
1417:../Middlewares/stm32-mw-camera/sensors/vd1943/vd1943.c ****     ctx->ctx.set_digital_gain = VD1943_SetDigitalGain_RGBNIR;
1418:../Middlewares/stm32-mw-camera/sensors/vd1943/vd1943.c ****     ctx->ctx.set_expo = VD1943_SetExpo_GS;
1419:../Middlewares/stm32-mw-camera/sensors/vd1943/vd1943.c ****     ctx->ctx.get_expo = VD1943_GetExpo_GS;
1420:../Middlewares/stm32-mw-camera/sensors/vd1943/vd1943.c ****     break;
1421:../Middlewares/stm32-mw-camera/sensors/vd1943/vd1943.c ****   case VD1943_GS_SS1_SPLIT_NATIVE_8:
1422:../Middlewares/stm32-mw-camera/sensors/vd1943/vd1943.c ****   case VD1943_GS_SS1_SPLIT_NATIVE_10:
1423:../Middlewares/stm32-mw-camera/sensors/vd1943/vd1943.c ****   case VD1943_GS_SS1_SPLIT_IR_8:
1424:../Middlewares/stm32-mw-camera/sensors/vd1943/vd1943.c ****   case VD1943_GS_SS1_SPLIT_IR_10:
1425:../Middlewares/stm32-mw-camera/sensors/vd1943/vd1943.c ****     ctx->ctx.set_digital_gain = VD1943_SetDigitalGain_RGBNIR;
1426:../Middlewares/stm32-mw-camera/sensors/vd1943/vd1943.c ****     ctx->ctx.set_expo = VD1943_SetExpoSplit_GS;
1427:../Middlewares/stm32-mw-camera/sensors/vd1943/vd1943.c ****     ctx->ctx.get_expo = VD1943_GetExpo_GS;
1428:../Middlewares/stm32-mw-camera/sensors/vd1943/vd1943.c ****     break;
1429:../Middlewares/stm32-mw-camera/sensors/vd1943/vd1943.c ****   case VD1943_GS_SS1_RGB_8:
1430:../Middlewares/stm32-mw-camera/sensors/vd1943/vd1943.c ****   case VD1943_GS_SS1_RGB_10:
1431:../Middlewares/stm32-mw-camera/sensors/vd1943/vd1943.c ****     ctx->ctx.set_digital_gain = VD1943_SetDigitalGain_RGB;
1432:../Middlewares/stm32-mw-camera/sensors/vd1943/vd1943.c ****     ctx->ctx.set_expo = VD1943_SetExpo_GS;
1433:../Middlewares/stm32-mw-camera/sensors/vd1943/vd1943.c ****     ctx->ctx.get_expo = VD1943_GetExpo_GS;
1434:../Middlewares/stm32-mw-camera/sensors/vd1943/vd1943.c ****     break;
1435:../Middlewares/stm32-mw-camera/sensors/vd1943/vd1943.c ****   case VD1943_GS_SS1_IR_8:
1436:../Middlewares/stm32-mw-camera/sensors/vd1943/vd1943.c ****   case VD1943_GS_SS1_IR_10:
1437:../Middlewares/stm32-mw-camera/sensors/vd1943/vd1943.c ****   case VD1943_GS_SS2_MONO_8:
1438:../Middlewares/stm32-mw-camera/sensors/vd1943/vd1943.c ****   case VD1943_GS_SS2_MONO_10:
1439:../Middlewares/stm32-mw-camera/sensors/vd1943/vd1943.c ****   case VD1943_GS_SS4_MONO_8:
1440:../Middlewares/stm32-mw-camera/sensors/vd1943/vd1943.c ****   case VD1943_GS_SS4_MONO_10:
1441:../Middlewares/stm32-mw-camera/sensors/vd1943/vd1943.c ****   case VD1943_GS_SS32_MONO_8:
1442:../Middlewares/stm32-mw-camera/sensors/vd1943/vd1943.c ****   case VD1943_GS_SS32_MONO_10:
1443:../Middlewares/stm32-mw-camera/sensors/vd1943/vd1943.c ****     ctx->ctx.set_digital_gain = VD1943_SetDigitalGain_IR;
1444:../Middlewares/stm32-mw-camera/sensors/vd1943/vd1943.c ****     ctx->ctx.set_expo = VD1943_SetExpo_GS;
ARM GAS  /tmp/ccydMd0r.s 			page 63


1445:../Middlewares/stm32-mw-camera/sensors/vd1943/vd1943.c ****     ctx->ctx.get_expo = VD1943_GetExpo_GS;
1446:../Middlewares/stm32-mw-camera/sensors/vd1943/vd1943.c ****     break;
1447:../Middlewares/stm32-mw-camera/sensors/vd1943/vd1943.c ****   case VD1943_RS_SDR_NATIVE_8:
1448:../Middlewares/stm32-mw-camera/sensors/vd1943/vd1943.c ****   case VD1943_RS_SDR_NATIVE_10:
1449:../Middlewares/stm32-mw-camera/sensors/vd1943/vd1943.c ****   case VD1943_RS_SDR_NATIVE_12:
1450:../Middlewares/stm32-mw-camera/sensors/vd1943/vd1943.c ****     ctx->ctx.set_digital_gain = VD1943_SetDigitalGain_RGBNIR;
1451:../Middlewares/stm32-mw-camera/sensors/vd1943/vd1943.c ****     ctx->ctx.set_expo = VD1943_SetExpo_RS;
1452:../Middlewares/stm32-mw-camera/sensors/vd1943/vd1943.c ****     ctx->ctx.get_expo = VD1943_GetExpo_RS;
1453:../Middlewares/stm32-mw-camera/sensors/vd1943/vd1943.c ****     break;
1454:../Middlewares/stm32-mw-camera/sensors/vd1943/vd1943.c ****   case VD1943_RS_SDR_RGB_8:
1455:../Middlewares/stm32-mw-camera/sensors/vd1943/vd1943.c ****   case VD1943_RS_SDR_RGB_10:
1456:../Middlewares/stm32-mw-camera/sensors/vd1943/vd1943.c ****   case VD1943_RS_SDR_RGB_12:
1457:../Middlewares/stm32-mw-camera/sensors/vd1943/vd1943.c ****     ctx->ctx.set_digital_gain = VD1943_SetDigitalGain_RGB;
1458:../Middlewares/stm32-mw-camera/sensors/vd1943/vd1943.c ****     ctx->ctx.set_expo = VD1943_SetExpo_RS;
1459:../Middlewares/stm32-mw-camera/sensors/vd1943/vd1943.c ****     ctx->ctx.get_expo = VD1943_GetExpo_RS;
1460:../Middlewares/stm32-mw-camera/sensors/vd1943/vd1943.c ****     break;
1461:../Middlewares/stm32-mw-camera/sensors/vd1943/vd1943.c ****   case VD1943_RS_HDR_NATIVE_10:
1462:../Middlewares/stm32-mw-camera/sensors/vd1943/vd1943.c ****   case VD1943_RS_HDR_NATIVE_12:
1463:../Middlewares/stm32-mw-camera/sensors/vd1943/vd1943.c ****   case VD1943_RS_HDR_RGB_10:
1464:../Middlewares/stm32-mw-camera/sensors/vd1943/vd1943.c ****   case VD1943_RS_HDR_RGB_12:
1465:../Middlewares/stm32-mw-camera/sensors/vd1943/vd1943.c ****     ctx->ctx.set_digital_gain = VD1943_SetDigitalGain_RGB;
1466:../Middlewares/stm32-mw-camera/sensors/vd1943/vd1943.c ****     ctx->ctx.set_expo = VD1943_SetExpo_RS_HDR;
1467:../Middlewares/stm32-mw-camera/sensors/vd1943/vd1943.c ****     ctx->ctx.get_expo = VD1943_GetExpo_RS;
1468:../Middlewares/stm32-mw-camera/sensors/vd1943/vd1943.c ****     break;
1469:../Middlewares/stm32-mw-camera/sensors/vd1943/vd1943.c ****   default:
1470:../Middlewares/stm32-mw-camera/sensors/vd1943/vd1943.c ****     assert(0);
1471:../Middlewares/stm32-mw-camera/sensors/vd1943/vd1943.c ****     return -1;
1472:../Middlewares/stm32-mw-camera/sensors/vd1943/vd1943.c ****   }
1473:../Middlewares/stm32-mw-camera/sensors/vd1943/vd1943.c **** 
1474:../Middlewares/stm32-mw-camera/sensors/vd1943/vd1943.c ****   return 0;
1475:../Middlewares/stm32-mw-camera/sensors/vd1943/vd1943.c **** }
1476:../Middlewares/stm32-mw-camera/sensors/vd1943/vd1943.c **** 
1477:../Middlewares/stm32-mw-camera/sensors/vd1943/vd1943.c **** int VD1943_Init(VD1943_Ctx_t *ctx, VD1943_Config_t *config)
1478:../Middlewares/stm32-mw-camera/sensors/vd1943/vd1943.c **** {
 1690              		.loc 1 1478 1 is_stmt 1 view -0
 1691              		.cfi_startproc
 1692              		@ args = 0, pretend = 0, frame = 8
 1693              		@ frame_needed = 0, uses_anonymous_args = 0
1479:../Middlewares/stm32-mw-camera/sensors/vd1943/vd1943.c ****   struct drv_vd1943_ctx *drv_vd1943_ctx = &ctx->ctx;
 1694              		.loc 1 1479 3 view .LVU451
1480:../Middlewares/stm32-mw-camera/sensors/vd1943/vd1943.c ****   int ret;
 1695              		.loc 1 1480 3 view .LVU452
1481:../Middlewares/stm32-mw-camera/sensors/vd1943/vd1943.c **** 
1482:../Middlewares/stm32-mw-camera/sensors/vd1943/vd1943.c ****   drv_vd1943_ctx->config_save = *config;
 1696              		.loc 1 1482 3 view .LVU453
1478:../Middlewares/stm32-mw-camera/sensors/vd1943/vd1943.c ****   struct drv_vd1943_ctx *drv_vd1943_ctx = &ctx->ctx;
 1697              		.loc 1 1478 1 is_stmt 0 view .LVU454
 1698 0000 F0B5     		push	{r4, r5, r6, r7, lr}
 1699              		.cfi_def_cfa_offset 20
 1700              		.cfi_offset 4, -20
 1701              		.cfi_offset 5, -16
 1702              		.cfi_offset 6, -12
 1703              		.cfi_offset 7, -8
 1704              		.cfi_offset 14, -4
 1705              		.loc 1 1482 31 view .LVU455
 1706 0002 4822     		movs	r2, #72
1478:../Middlewares/stm32-mw-camera/sensors/vd1943/vd1943.c ****   struct drv_vd1943_ctx *drv_vd1943_ctx = &ctx->ctx;
ARM GAS  /tmp/ccydMd0r.s 			page 64


 1707              		.loc 1 1478 1 view .LVU456
 1708 0004 0446     		mov	r4, r0
 1709 0006 87B0     		sub	sp, sp, #28
 1710              		.cfi_def_cfa_offset 48
 1711              		.loc 1 1482 31 view .LVU457
 1712 0008 3830     		adds	r0, r0, #56
 1713              	.LVL147:
1478:../Middlewares/stm32-mw-camera/sensors/vd1943/vd1943.c ****   struct drv_vd1943_ctx *drv_vd1943_ctx = &ctx->ctx;
 1714              		.loc 1 1478 1 view .LVU458
 1715 000a 0D46     		mov	r5, r1
 1716              		.loc 1 1482 31 view .LVU459
 1717 000c FFF7FEFF 		bl	memcpy
 1718              	.LVL148:
1483:../Middlewares/stm32-mw-camera/sensors/vd1943/vd1943.c ****   drv_vd1943_ctx->digital_gain = 0x100;
 1719              		.loc 1 1483 3 is_stmt 1 view .LVU460
 1720              		.loc 1 1483 32 is_stmt 0 view .LVU461
 1721 0010 4FF48073 		mov	r3, #256
1484:../Middlewares/stm32-mw-camera/sensors/vd1943/vd1943.c **** 
1485:../Middlewares/stm32-mw-camera/sensors/vd1943/vd1943.c ****   ctx->shutdown_pin(ctx, 0);
 1722              		.loc 1 1485 3 view .LVU462
 1723 0014 0021     		movs	r1, #0
 1724 0016 2046     		mov	r0, r4
1483:../Middlewares/stm32-mw-camera/sensors/vd1943/vd1943.c ****   drv_vd1943_ctx->digital_gain = 0x100;
 1725              		.loc 1 1483 32 view .LVU463
 1726 0018 6363     		str	r3, [r4, #52]
 1727              		.loc 1 1485 3 is_stmt 1 view .LVU464
 1728 001a 2368     		ldr	r3, [r4]
 1729 001c 9847     		blx	r3
 1730              	.LVL149:
1486:../Middlewares/stm32-mw-camera/sensors/vd1943/vd1943.c ****   ctx->delay(ctx, 10);
 1731              		.loc 1 1486 3 view .LVU465
 1732 001e 0A21     		movs	r1, #10
 1733 0020 2046     		mov	r0, r4
 1734 0022 236A     		ldr	r3, [r4, #32]
 1735 0024 9847     		blx	r3
 1736              	.LVL150:
1487:../Middlewares/stm32-mw-camera/sensors/vd1943/vd1943.c ****   ctx->shutdown_pin(ctx, 1);
 1737              		.loc 1 1487 3 view .LVU466
 1738 0026 0121     		movs	r1, #1
 1739 0028 2046     		mov	r0, r4
 1740 002a 2368     		ldr	r3, [r4]
 1741 002c 9847     		blx	r3
 1742              	.LVL151:
1488:../Middlewares/stm32-mw-camera/sensors/vd1943/vd1943.c ****   ctx->delay(ctx, 10);
 1743              		.loc 1 1488 3 view .LVU467
 1744 002e 236A     		ldr	r3, [r4, #32]
 1745 0030 0A21     		movs	r1, #10
 1746 0032 2046     		mov	r0, r4
 1747 0034 9847     		blx	r3
 1748              	.LVL152:
1489:../Middlewares/stm32-mw-camera/sensors/vd1943/vd1943.c **** 
1490:../Middlewares/stm32-mw-camera/sensors/vd1943/vd1943.c ****   ret = VD1943_CheckConfig(ctx, config);
 1749              		.loc 1 1490 3 view .LVU468
 1750              	.LBB34:
 1751              	.LBI34:
1347:../Middlewares/stm32-mw-camera/sensors/vd1943/vd1943.c **** {
 1752              		.loc 1 1347 12 view .LVU469
ARM GAS  /tmp/ccydMd0r.s 			page 65


 1753              	.LBB35:
1349:../Middlewares/stm32-mw-camera/sensors/vd1943/vd1943.c **** 
 1754              		.loc 1 1349 3 view .LVU470
1351:../Middlewares/stm32-mw-camera/sensors/vd1943/vd1943.c ****     VD1943_error(ctx, "ext_clock_freq_in_hz out of range");
 1755              		.loc 1 1351 3 view .LVU471
1351:../Middlewares/stm32-mw-camera/sensors/vd1943/vd1943.c ****     VD1943_error(ctx, "ext_clock_freq_in_hz out of range");
 1756              		.loc 1 1351 60 is_stmt 0 view .LVU472
 1757 0036 2B68     		ldr	r3, [r5]
1351:../Middlewares/stm32-mw-camera/sensors/vd1943/vd1943.c ****     VD1943_error(ctx, "ext_clock_freq_in_hz out of range");
 1758              		.loc 1 1351 6 view .LVU473
 1759 0038 964A     		ldr	r2, .L222
1351:../Middlewares/stm32-mw-camera/sensors/vd1943/vd1943.c ****     VD1943_error(ctx, "ext_clock_freq_in_hz out of range");
 1760              		.loc 1 1351 60 view .LVU474
 1761 003a A3F53703 		sub	r3, r3, #11993088
 1762 003e A3F5D853 		sub	r3, r3, #6912
1351:../Middlewares/stm32-mw-camera/sensors/vd1943/vd1943.c ****     VD1943_error(ctx, "ext_clock_freq_in_hz out of range");
 1763              		.loc 1 1351 6 view .LVU475
 1764 0042 9342     		cmp	r3, r2
 1765 0044 0BD9     		bls	.L121
1352:../Middlewares/stm32-mw-camera/sensors/vd1943/vd1943.c ****     return -1;
 1766              		.loc 1 1352 5 is_stmt 1 view .LVU476
1352:../Middlewares/stm32-mw-camera/sensors/vd1943/vd1943.c ****     return -1;
 1767              		.loc 1 1352 5 view .LVU477
 1768 0046 4FF4A963 		mov	r3, #1352
 1769 004a 934A     		ldr	r2, .L222+4
 1770              	.L207:
 1771 004c 0021     		movs	r1, #0
 1772 004e 2046     		mov	r0, r4
 1773 0050 FFF7FEFF 		bl	VD1943_log_impl
 1774              	.LVL153:
1352:../Middlewares/stm32-mw-camera/sensors/vd1943/vd1943.c ****     return -1;
 1775              		.loc 1 1352 5 discriminator 1 view .LVU478
1353:../Middlewares/stm32-mw-camera/sensors/vd1943/vd1943.c ****   }
 1776              		.loc 1 1353 5 view .LVU479
1353:../Middlewares/stm32-mw-camera/sensors/vd1943/vd1943.c ****   }
 1777              		.loc 1 1353 5 is_stmt 0 view .LVU480
 1778              	.LBE35:
 1779              	.LBE34:
1491:../Middlewares/stm32-mw-camera/sensors/vd1943/vd1943.c ****   if (ret)
 1780              		.loc 1 1491 3 is_stmt 1 view .LVU481
 1781              	.L124:
1492:../Middlewares/stm32-mw-camera/sensors/vd1943/vd1943.c ****     return ret;
 1782              		.loc 1 1492 12 is_stmt 0 view .LVU482
 1783 0054 4FF0FF35 		mov	r5, #-1
 1784              	.L120:
1493:../Middlewares/stm32-mw-camera/sensors/vd1943/vd1943.c **** 
1494:../Middlewares/stm32-mw-camera/sensors/vd1943/vd1943.c ****   ret = VD1943_SetFctPtr(ctx);
1495:../Middlewares/stm32-mw-camera/sensors/vd1943/vd1943.c ****   if (ret)
1496:../Middlewares/stm32-mw-camera/sensors/vd1943/vd1943.c ****     return ret;
1497:../Middlewares/stm32-mw-camera/sensors/vd1943/vd1943.c **** 
1498:../Middlewares/stm32-mw-camera/sensors/vd1943/vd1943.c ****   ret = VD1943_Boot(ctx);
1499:../Middlewares/stm32-mw-camera/sensors/vd1943/vd1943.c ****   if (ret)
1500:../Middlewares/stm32-mw-camera/sensors/vd1943/vd1943.c ****     return ret;
1501:../Middlewares/stm32-mw-camera/sensors/vd1943/vd1943.c **** 
1502:../Middlewares/stm32-mw-camera/sensors/vd1943/vd1943.c ****   drv_vd1943_ctx->state = VD1943_ST_IDLE;
1503:../Middlewares/stm32-mw-camera/sensors/vd1943/vd1943.c **** 
1504:../Middlewares/stm32-mw-camera/sensors/vd1943/vd1943.c ****   return 0;
ARM GAS  /tmp/ccydMd0r.s 			page 66


1505:../Middlewares/stm32-mw-camera/sensors/vd1943/vd1943.c **** }
 1785              		.loc 1 1505 1 view .LVU483
 1786 0058 2846     		mov	r0, r5
 1787 005a 07B0     		add	sp, sp, #28
 1788              		.cfi_remember_state
 1789              		.cfi_def_cfa_offset 20
 1790              		@ sp needed
 1791 005c F0BD     		pop	{r4, r5, r6, r7, pc}
 1792              	.LVL154:
 1793              	.L121:
 1794              		.cfi_restore_state
 1795              	.LBB38:
 1796              	.LBB36:
1356:../Middlewares/stm32-mw-camera/sensors/vd1943/vd1943.c ****     VD1943_error(ctx, "data_rate_in_mps out of range");
 1797              		.loc 1 1356 3 is_stmt 1 view .LVU484
1356:../Middlewares/stm32-mw-camera/sensors/vd1943/vd1943.c ****     VD1943_error(ctx, "data_rate_in_mps out of range");
 1798              		.loc 1 1356 62 is_stmt 0 view .LVU485
 1799 005e 2A69     		ldr	r2, [r5, #16]
 1800 0060 8E4B     		ldr	r3, .L222+8
 1801 0062 1344     		add	r3, r3, r2
1356:../Middlewares/stm32-mw-camera/sensors/vd1943/vd1943.c ****     VD1943_error(ctx, "data_rate_in_mps out of range");
 1802              		.loc 1 1356 6 view .LVU486
 1803 0064 8E4A     		ldr	r2, .L222+12
 1804 0066 9342     		cmp	r3, r2
 1805 0068 03D9     		bls	.L123
1357:../Middlewares/stm32-mw-camera/sensors/vd1943/vd1943.c ****     return -1;
 1806              		.loc 1 1357 5 is_stmt 1 view .LVU487
1357:../Middlewares/stm32-mw-camera/sensors/vd1943/vd1943.c ****     return -1;
 1807              		.loc 1 1357 5 view .LVU488
 1808 006a 40F24D53 		movw	r3, #1357
 1809 006e 8D4A     		ldr	r2, .L222+16
 1810 0070 ECE7     		b	.L207
 1811              	.L123:
1361:../Middlewares/stm32-mw-camera/sensors/vd1943/vd1943.c ****     VD1943_error(ctx, "datalane_nb out of range");
 1812              		.loc 1 1361 3 view .LVU489
1361:../Middlewares/stm32-mw-camera/sensors/vd1943/vd1943.c ****     VD1943_error(ctx, "datalane_nb out of range");
 1813              		.loc 1 1361 22 is_stmt 0 view .LVU490
 1814 0072 6B69     		ldr	r3, [r5, #20]
1361:../Middlewares/stm32-mw-camera/sensors/vd1943/vd1943.c ****     VD1943_error(ctx, "datalane_nb out of range");
 1815              		.loc 1 1361 6 view .LVU491
 1816 0074 022B     		cmp	r3, #2
 1817 0076 05D0     		beq	.L125
1361:../Middlewares/stm32-mw-camera/sensors/vd1943/vd1943.c ****     VD1943_error(ctx, "datalane_nb out of range");
 1818              		.loc 1 1361 40 discriminator 1 view .LVU492
 1819 0078 042B     		cmp	r3, #4
 1820 007a 03D0     		beq	.L125
1362:../Middlewares/stm32-mw-camera/sensors/vd1943/vd1943.c ****     return -1;
 1821              		.loc 1 1362 5 is_stmt 1 view .LVU493
1362:../Middlewares/stm32-mw-camera/sensors/vd1943/vd1943.c ****     return -1;
 1822              		.loc 1 1362 5 view .LVU494
 1823 007c 40F25253 		movw	r3, #1362
 1824 0080 894A     		ldr	r2, .L222+20
 1825 0082 E3E7     		b	.L207
 1826              	.L125:
1366:../Middlewares/stm32-mw-camera/sensors/vd1943/vd1943.c ****       config->resolution > VD1943_RES_FULL_2560_1984) {
 1827              		.loc 1 1366 3 view .LVU495
1366:../Middlewares/stm32-mw-camera/sensors/vd1943/vd1943.c ****       config->resolution > VD1943_RES_FULL_2560_1984) {
ARM GAS  /tmp/ccydMd0r.s 			page 67


 1828              		.loc 1 1366 6 is_stmt 0 view .LVU496
 1829 0084 2B79     		ldrb	r3, [r5, #4]	@ zero_extendqisi2
 1830 0086 092B     		cmp	r3, #9
 1831 0088 03D9     		bls	.L126
1368:../Middlewares/stm32-mw-camera/sensors/vd1943/vd1943.c ****     return -1;
 1832              		.loc 1 1368 5 is_stmt 1 view .LVU497
1368:../Middlewares/stm32-mw-camera/sensors/vd1943/vd1943.c ****     return -1;
 1833              		.loc 1 1368 5 view .LVU498
 1834 008a 4FF4AB63 		mov	r3, #1368
 1835 008e 874A     		ldr	r2, .L222+24
 1836 0090 DCE7     		b	.L207
 1837              	.L126:
1372:../Middlewares/stm32-mw-camera/sensors/vd1943/vd1943.c ****   case VD1943_GS_SS1_NATIVE_8:
 1838              		.loc 1 1372 3 view .LVU499
1372:../Middlewares/stm32-mw-camera/sensors/vd1943/vd1943.c ****   case VD1943_GS_SS1_NATIVE_8:
 1839              		.loc 1 1372 17 is_stmt 0 view .LVU500
 1840 0092 2B7B     		ldrb	r3, [r5, #12]	@ zero_extendqisi2
1372:../Middlewares/stm32-mw-camera/sensors/vd1943/vd1943.c ****   case VD1943_GS_SS1_NATIVE_8:
 1841              		.loc 1 1372 3 view .LVU501
 1842 0094 042B     		cmp	r3, #4
 1843 0096 1AD8     		bhi	.L127
 1844 0098 002B     		cmp	r3, #0
 1845 009a DBD0     		beq	.L124
 1846              	.L128:
 1847              	.LVL155:
1372:../Middlewares/stm32-mw-camera/sensors/vd1943/vd1943.c ****   case VD1943_GS_SS1_NATIVE_8:
 1848              		.loc 1 1372 3 view .LVU502
 1849              	.LBE36:
 1850              	.LBE38:
1494:../Middlewares/stm32-mw-camera/sensors/vd1943/vd1943.c ****   if (ret)
 1851              		.loc 1 1494 3 is_stmt 1 view .LVU503
 1852              	.LBB39:
 1853              	.LBI39:
1412:../Middlewares/stm32-mw-camera/sensors/vd1943/vd1943.c **** {
 1854              		.loc 1 1412 12 view .LVU504
 1855              	.LBB40:
1414:../Middlewares/stm32-mw-camera/sensors/vd1943/vd1943.c ****   case VD1943_GS_SS1_NATIVE_8:
 1856              		.loc 1 1414 3 view .LVU505
 1857 009c 94F84430 		ldrb	r3, [r4, #68]	@ zero_extendqisi2
 1858 00a0 013B     		subs	r3, r3, #1
 1859 00a2 222B     		cmp	r3, #34
 1860 00a4 56D8     		bhi	.L131
 1861 00a6 DFE803F0 		tbb	[pc, r3]
 1862              	.L133:
 1863 00aa 5C       		.byte	(.L139-.L133)/2
 1864 00ab 5C       		.byte	(.L139-.L133)/2
 1865 00ac 25       		.byte	(.L136-.L133)/2
 1866 00ad 25       		.byte	(.L136-.L133)/2
 1867 00ae 5E       		.byte	(.L189-.L133)/2
 1868 00af 5E       		.byte	(.L189-.L133)/2
 1869 00b0 55       		.byte	(.L131-.L133)/2
 1870 00b1 55       		.byte	(.L131-.L133)/2
 1871 00b2 29       		.byte	(.L137-.L133)/2
 1872 00b3 29       		.byte	(.L137-.L133)/2
 1873 00b4 29       		.byte	(.L137-.L133)/2
 1874 00b5 29       		.byte	(.L137-.L133)/2
 1875 00b6 29       		.byte	(.L137-.L133)/2
ARM GAS  /tmp/ccydMd0r.s 			page 68


 1876 00b7 29       		.byte	(.L137-.L133)/2
 1877 00b8 29       		.byte	(.L137-.L133)/2
 1878 00b9 29       		.byte	(.L137-.L133)/2
 1879 00ba 25       		.byte	(.L136-.L133)/2
 1880 00bb 25       		.byte	(.L136-.L133)/2
 1881 00bc 55       		.byte	(.L131-.L133)/2
 1882 00bd 55       		.byte	(.L131-.L133)/2
 1883 00be 55       		.byte	(.L131-.L133)/2
 1884 00bf 55       		.byte	(.L131-.L133)/2
 1885 00c0 55       		.byte	(.L131-.L133)/2
 1886 00c1 55       		.byte	(.L131-.L133)/2
 1887 00c2 55       		.byte	(.L131-.L133)/2
 1888 00c3 2C       		.byte	(.L135-.L133)/2
 1889 00c4 2C       		.byte	(.L135-.L133)/2
 1890 00c5 2C       		.byte	(.L135-.L133)/2
 1891 00c6 50       		.byte	(.L134-.L133)/2
 1892 00c7 50       		.byte	(.L134-.L133)/2
 1893 00c8 50       		.byte	(.L134-.L133)/2
 1894 00c9 52       		.byte	(.L132-.L133)/2
 1895 00ca 52       		.byte	(.L132-.L133)/2
 1896 00cb 52       		.byte	(.L132-.L133)/2
 1897 00cc 52       		.byte	(.L132-.L133)/2
 1898              	.LVL156:
 1899 00cd 00       		.p2align 1
 1900              	.L127:
1414:../Middlewares/stm32-mw-camera/sensors/vd1943/vd1943.c ****   case VD1943_GS_SS1_NATIVE_8:
 1901              		.loc 1 1414 3 is_stmt 0 view .LVU506
 1902              	.LBE40:
 1903              	.LBE39:
 1904              	.LBB45:
 1905              	.LBB37:
1372:../Middlewares/stm32-mw-camera/sensors/vd1943/vd1943.c ****   case VD1943_GS_SS1_NATIVE_8:
 1906              		.loc 1 1372 3 view .LVU507
 1907 00ce 053B     		subs	r3, r3, #5
 1908 00d0 DBB2     		uxtb	r3, r3
 1909 00d2 1E2B     		cmp	r3, #30
 1910 00d4 BED8     		bhi	.L124
 1911 00d6 0122     		movs	r2, #1
 1912 00d8 02FA03F3 		lsl	r3, r2, r3
 1913 00dc 744A     		ldr	r2, .L222+28
 1914 00de 1342     		tst	r3, r2
 1915 00e0 DCD1     		bne	.L128
 1916 00e2 744A     		ldr	r2, .L222+32
 1917 00e4 1A40     		ands	r2, r2, r3
 1918 00e6 002A     		cmp	r2, #0
 1919 00e8 B4D0     		beq	.L124
1401:../Middlewares/stm32-mw-camera/sensors/vd1943/vd1943.c ****       return -1;
 1920              		.loc 1 1401 5 is_stmt 1 view .LVU508
1401:../Middlewares/stm32-mw-camera/sensors/vd1943/vd1943.c ****       return -1;
 1921              		.loc 1 1401 8 is_stmt 0 view .LVU509
 1922 00ea 94F83030 		ldrb	r3, [r4, #48]	@ zero_extendqisi2
 1923 00ee 002B     		cmp	r3, #0
 1924 00f0 D4D0     		beq	.L128
 1925 00f2 AFE7     		b	.L124
 1926              	.LVL157:
 1927              	.L136:
1401:../Middlewares/stm32-mw-camera/sensors/vd1943/vd1943.c ****       return -1;
ARM GAS  /tmp/ccydMd0r.s 			page 69


 1928              		.loc 1 1401 8 view .LVU510
 1929              	.LBE37:
 1930              	.LBE45:
 1931              	.LBB46:
 1932              	.LBB41:
1414:../Middlewares/stm32-mw-camera/sensors/vd1943/vd1943.c ****   case VD1943_GS_SS1_NATIVE_8:
 1933              		.loc 1 1414 3 view .LVU511
 1934 00f4 7049     		ldr	r1, .L222+36
 1935 00f6 714A     		ldr	r2, .L222+40
 1936              	.L211:
1414:../Middlewares/stm32-mw-camera/sensors/vd1943/vd1943.c ****   case VD1943_GS_SS1_NATIVE_8:
 1937              		.loc 1 1414 3 view .LVU512
 1938 00f8 714B     		ldr	r3, .L222+44
 1939 00fa 05E0     		b	.L138
 1940              	.L137:
1443:../Middlewares/stm32-mw-camera/sensors/vd1943/vd1943.c ****     ctx->ctx.set_expo = VD1943_SetExpo_GS;
 1941              		.loc 1 1443 5 is_stmt 1 view .LVU513
1444:../Middlewares/stm32-mw-camera/sensors/vd1943/vd1943.c ****     ctx->ctx.get_expo = VD1943_GetExpo_GS;
 1942              		.loc 1 1444 5 view .LVU514
1445:../Middlewares/stm32-mw-camera/sensors/vd1943/vd1943.c ****     break;
 1943              		.loc 1 1445 5 view .LVU515
1446:../Middlewares/stm32-mw-camera/sensors/vd1943/vd1943.c ****   case VD1943_RS_SDR_NATIVE_8:
 1944              		.loc 1 1446 5 view .LVU516
 1945 00fc 7149     		ldr	r1, .L222+48
 1946              	.L210:
1414:../Middlewares/stm32-mw-camera/sensors/vd1943/vd1943.c ****   case VD1943_GS_SS1_NATIVE_8:
 1947              		.loc 1 1414 3 is_stmt 0 view .LVU517
 1948 00fe 724A     		ldr	r2, .L222+52
 1949 0100 FAE7     		b	.L211
 1950              	.L135:
1450:../Middlewares/stm32-mw-camera/sensors/vd1943/vd1943.c ****     ctx->ctx.set_expo = VD1943_SetExpo_RS;
 1951              		.loc 1 1450 5 is_stmt 1 view .LVU518
1451:../Middlewares/stm32-mw-camera/sensors/vd1943/vd1943.c ****     ctx->ctx.get_expo = VD1943_GetExpo_RS;
 1952              		.loc 1 1451 5 view .LVU519
1452:../Middlewares/stm32-mw-camera/sensors/vd1943/vd1943.c ****     break;
 1953              		.loc 1 1452 5 view .LVU520
1453:../Middlewares/stm32-mw-camera/sensors/vd1943/vd1943.c ****   case VD1943_RS_SDR_RGB_8:
 1954              		.loc 1 1453 5 view .LVU521
 1955 0102 6D49     		ldr	r1, .L222+36
 1956              	.L220:
1460:../Middlewares/stm32-mw-camera/sensors/vd1943/vd1943.c ****   case VD1943_RS_HDR_NATIVE_10:
 1957              		.loc 1 1460 5 is_stmt 0 view .LVU522
 1958 0104 714A     		ldr	r2, .L222+56
 1959              	.L209:
1468:../Middlewares/stm32-mw-camera/sensors/vd1943/vd1943.c ****   default:
 1960              		.loc 1 1468 5 view .LVU523
 1961 0106 724B     		ldr	r3, .L222+60
 1962              	.L138:
1418:../Middlewares/stm32-mw-camera/sensors/vd1943/vd1943.c ****     ctx->ctx.get_expo = VD1943_GetExpo_GS;
 1963              		.loc 1 1418 23 view .LVU524
 1964 0108 C4E92012 		strd	r1, r2, [r4, #128]
 1965              	.LBE41:
 1966              	.LBE46:
 1967              	.LBB47:
 1968              	.LBB48:
 730:../Middlewares/stm32-mw-camera/sensors/vd1943/vd1943.c ****   if (ret)
 1969              		.loc 1 730 9 view .LVU525
ARM GAS  /tmp/ccydMd0r.s 			page 70


 1970 010c 2046     		mov	r0, r4
 1971 010e 0121     		movs	r1, #1
 1972              	.LBE48:
 1973              	.LBE47:
 1974              	.LBB99:
 1975              	.LBB42:
1419:../Middlewares/stm32-mw-camera/sensors/vd1943/vd1943.c ****     break;
 1976              		.loc 1 1419 23 view .LVU526
 1977 0110 C4F88830 		str	r3, [r4, #136]
1474:../Middlewares/stm32-mw-camera/sensors/vd1943/vd1943.c **** }
 1978              		.loc 1 1474 3 is_stmt 1 view .LVU527
 1979              	.LVL158:
1474:../Middlewares/stm32-mw-camera/sensors/vd1943/vd1943.c **** }
 1980              		.loc 1 1474 3 is_stmt 0 view .LVU528
 1981              	.LBE42:
 1982              	.LBE99:
1495:../Middlewares/stm32-mw-camera/sensors/vd1943/vd1943.c ****     return ret;
 1983              		.loc 1 1495 3 is_stmt 1 view .LVU529
1498:../Middlewares/stm32-mw-camera/sensors/vd1943/vd1943.c ****   if (ret)
 1984              		.loc 1 1498 3 view .LVU530
 1985              	.LBB100:
 1986              	.LBI47:
 726:../Middlewares/stm32-mw-camera/sensors/vd1943/vd1943.c **** {
 1987              		.loc 1 726 12 view .LVU531
 1988              	.LBB95:
 728:../Middlewares/stm32-mw-camera/sensors/vd1943/vd1943.c **** 
 1989              		.loc 1 728 3 view .LVU532
 730:../Middlewares/stm32-mw-camera/sensors/vd1943/vd1943.c ****   if (ret)
 1990              		.loc 1 730 3 view .LVU533
 730:../Middlewares/stm32-mw-camera/sensors/vd1943/vd1943.c ****   if (ret)
 1991              		.loc 1 730 9 is_stmt 0 view .LVU534
 1992 0114 FFF7FEFF 		bl	VD1943_WaitState
 1993              	.LVL159:
 731:../Middlewares/stm32-mw-camera/sensors/vd1943/vd1943.c ****     return ret;
 1994              		.loc 1 731 3 is_stmt 1 view .LVU535
 731:../Middlewares/stm32-mw-camera/sensors/vd1943/vd1943.c ****     return ret;
 1995              		.loc 1 731 6 is_stmt 0 view .LVU536
 1996 0118 0546     		mov	r5, r0
 1997              	.LVL160:
 731:../Middlewares/stm32-mw-camera/sensors/vd1943/vd1943.c ****     return ret;
 1998              		.loc 1 731 6 view .LVU537
 1999 011a 0028     		cmp	r0, #0
 2000 011c 9CD1     		bne	.L120
 734:../Middlewares/stm32-mw-camera/sensors/vd1943/vd1943.c ****   if (ret)
 2001              		.loc 1 734 3 is_stmt 1 view .LVU538
 2002              	.LVL161:
 2003              	.LBB49:
 2004              	.LBI49:
 324:../Middlewares/stm32-mw-camera/sensors/vd1943/vd1943.c **** {
 2005              		.loc 1 324 12 view .LVU539
 2006              	.LBB50:
 326:../Middlewares/stm32-mw-camera/sensors/vd1943/vd1943.c ****   uint16_t reg16;
 2007              		.loc 1 326 3 view .LVU540
 327:../Middlewares/stm32-mw-camera/sensors/vd1943/vd1943.c ****   int ret;
 2008              		.loc 1 327 3 view .LVU541
 328:../Middlewares/stm32-mw-camera/sensors/vd1943/vd1943.c **** 
 2009              		.loc 1 328 3 view .LVU542
ARM GAS  /tmp/ccydMd0r.s 			page 71


 330:../Middlewares/stm32-mw-camera/sensors/vd1943/vd1943.c ****   VD1943_TraceError(ctx, ret);
 2010              		.loc 1 330 3 view .LVU543
 330:../Middlewares/stm32-mw-camera/sensors/vd1943/vd1943.c ****   VD1943_TraceError(ctx, ret);
 2011              		.loc 1 330 9 is_stmt 0 view .LVU544
 2012 011e 0146     		mov	r1, r0
 2013 0120 E368     		ldr	r3, [r4, #12]
 2014 0122 2046     		mov	r0, r4
 2015              	.LVL162:
 330:../Middlewares/stm32-mw-camera/sensors/vd1943/vd1943.c ****   VD1943_TraceError(ctx, ret);
 2016              		.loc 1 330 9 view .LVU545
 2017 0124 05AA     		add	r2, sp, #20
 2018 0126 9847     		blx	r3
 2019              	.LVL163:
 331:../Middlewares/stm32-mw-camera/sensors/vd1943/vd1943.c ****   VD1943_dbg(ctx, 0, "model_id = 0x%08x\n", reg32);
 2020              		.loc 1 331 3 is_stmt 1 view .LVU546
 331:../Middlewares/stm32-mw-camera/sensors/vd1943/vd1943.c ****   VD1943_dbg(ctx, 0, "model_id = 0x%08x\n", reg32);
 2021              		.loc 1 331 3 view .LVU547
 2022 0128 0546     		mov	r5, r0
 2023              	.LVL164:
 331:../Middlewares/stm32-mw-camera/sensors/vd1943/vd1943.c ****   VD1943_dbg(ctx, 0, "model_id = 0x%08x\n", reg32);
 2024              		.loc 1 331 3 is_stmt 0 view .LVU548
 2025 012a F0B1     		cbz	r0, .L140
 331:../Middlewares/stm32-mw-camera/sensors/vd1943/vd1943.c ****   VD1943_dbg(ctx, 0, "model_id = 0x%08x\n", reg32);
 2026              		.loc 1 331 3 is_stmt 1 discriminator 1 view .LVU549
 331:../Middlewares/stm32-mw-camera/sensors/vd1943/vd1943.c ****   VD1943_dbg(ctx, 0, "model_id = 0x%08x\n", reg32);
 2027              		.loc 1 331 3 discriminator 1 view .LVU550
 2028 012c 40F24B13 		movw	r3, #331
 2029 0130 0290     		str	r0, [sp, #8]
 2030              	.L216:
 339:../Middlewares/stm32-mw-camera/sensors/vd1943/vd1943.c ****   VD1943_dbg(ctx, 0, "rom revision = 0x%08x\n", reg16);
 2031              		.loc 1 339 3 is_stmt 0 discriminator 1 view .LVU551
 2032 0132 684A     		ldr	r2, .L222+64
 2033 0134 0193     		str	r3, [sp, #4]
 2034              	.LVL165:
 2035              	.L217:
 339:../Middlewares/stm32-mw-camera/sensors/vd1943/vd1943.c ****   VD1943_dbg(ctx, 0, "rom revision = 0x%08x\n", reg16);
 2036              		.loc 1 339 3 discriminator 1 view .LVU552
 2037 0136 2046     		mov	r0, r4
 2038 0138 0092     		str	r2, [sp]
 2039 013a 0021     		movs	r1, #0
 2040 013c 664A     		ldr	r2, .L222+68
 2041 013e FFF7FEFF 		bl	VD1943_log_impl
 2042              	.LVL166:
 339:../Middlewares/stm32-mw-camera/sensors/vd1943/vd1943.c ****   VD1943_dbg(ctx, 0, "rom revision = 0x%08x\n", reg16);
 2043              		.loc 1 339 3 is_stmt 1 discriminator 3 view .LVU553
 339:../Middlewares/stm32-mw-camera/sensors/vd1943/vd1943.c ****   VD1943_dbg(ctx, 0, "rom revision = 0x%08x\n", reg16);
 2044              		.loc 1 339 3 discriminator 3 view .LVU554
 339:../Middlewares/stm32-mw-camera/sensors/vd1943/vd1943.c ****   VD1943_dbg(ctx, 0, "rom revision = 0x%08x\n", reg16);
 2045              		.loc 1 339 3 discriminator 4 view .LVU555
 2046 0142 2046     		mov	r0, r4
 2047 0144 FFF7FEFF 		bl	display_error
 2048              	.LVL167:
 339:../Middlewares/stm32-mw-camera/sensors/vd1943/vd1943.c ****   VD1943_dbg(ctx, 0, "rom revision = 0x%08x\n", reg16);
 2049              		.loc 1 339 3 discriminator 6 view .LVU556
 339:../Middlewares/stm32-mw-camera/sensors/vd1943/vd1943.c ****   VD1943_dbg(ctx, 0, "rom revision = 0x%08x\n", reg16);
 2050              		.loc 1 339 3 discriminator 7 view .LVU557
 339:../Middlewares/stm32-mw-camera/sensors/vd1943/vd1943.c ****   VD1943_dbg(ctx, 0, "rom revision = 0x%08x\n", reg16);
ARM GAS  /tmp/ccydMd0r.s 			page 72


 2051              		.loc 1 339 3 is_stmt 0 discriminator 7 view .LVU558
 2052              	.LBE50:
 2053              	.LBE49:
 735:../Middlewares/stm32-mw-camera/sensors/vd1943/vd1943.c ****     return ret;
 2054              		.loc 1 735 3 is_stmt 1 view .LVU559
 2055 0148 86E7     		b	.L120
 2056              	.LVL168:
 2057              	.L134:
 735:../Middlewares/stm32-mw-camera/sensors/vd1943/vd1943.c ****     return ret;
 2058              		.loc 1 735 3 is_stmt 0 view .LVU560
 2059              	.LBE95:
 2060              	.LBE100:
 2061              	.LBB101:
 2062              	.LBB43:
1457:../Middlewares/stm32-mw-camera/sensors/vd1943/vd1943.c ****     ctx->ctx.set_expo = VD1943_SetExpo_RS;
 2063              		.loc 1 1457 5 is_stmt 1 view .LVU561
1458:../Middlewares/stm32-mw-camera/sensors/vd1943/vd1943.c ****     ctx->ctx.get_expo = VD1943_GetExpo_RS;
 2064              		.loc 1 1458 5 view .LVU562
1459:../Middlewares/stm32-mw-camera/sensors/vd1943/vd1943.c ****     break;
 2065              		.loc 1 1459 5 view .LVU563
1460:../Middlewares/stm32-mw-camera/sensors/vd1943/vd1943.c ****   case VD1943_RS_HDR_NATIVE_10:
 2066              		.loc 1 1460 5 view .LVU564
 2067 014a 6449     		ldr	r1, .L222+72
 2068 014c DAE7     		b	.L220
 2069              	.L132:
1465:../Middlewares/stm32-mw-camera/sensors/vd1943/vd1943.c ****     ctx->ctx.set_expo = VD1943_SetExpo_RS_HDR;
 2070              		.loc 1 1465 5 view .LVU565
1466:../Middlewares/stm32-mw-camera/sensors/vd1943/vd1943.c ****     ctx->ctx.get_expo = VD1943_GetExpo_RS;
 2071              		.loc 1 1466 5 view .LVU566
1467:../Middlewares/stm32-mw-camera/sensors/vd1943/vd1943.c ****     break;
 2072              		.loc 1 1467 5 view .LVU567
1468:../Middlewares/stm32-mw-camera/sensors/vd1943/vd1943.c ****   default:
 2073              		.loc 1 1468 5 view .LVU568
 2074 014e 6349     		ldr	r1, .L222+72
 2075 0150 634A     		ldr	r2, .L222+76
 2076 0152 D8E7     		b	.L209
 2077              	.L131:
1470:../Middlewares/stm32-mw-camera/sensors/vd1943/vd1943.c ****     return -1;
 2078              		.loc 1 1470 5 view .LVU569
 2079 0154 40F2BE51 		movw	r1, #1470
 2080 0158 624B     		ldr	r3, .L222+80
 2081 015a 634A     		ldr	r2, .L222+84
 2082              	.LVL169:
 2083              	.L219:
1470:../Middlewares/stm32-mw-camera/sensors/vd1943/vd1943.c ****     return -1;
 2084              		.loc 1 1470 5 is_stmt 0 view .LVU570
 2085              	.LBE43:
 2086              	.LBE101:
 2087              	.LBB102:
 2088              	.LBB96:
 2089              	.LBB55:
 2090              	.LBB56:
 2091              	.LBB57:
 2092              	.LBB58:
 625:../Middlewares/stm32-mw-camera/sensors/vd1943/vd1943.c ****   }
 2093              		.loc 1 625 5 view .LVU571
 2094 015c 6348     		ldr	r0, .L222+88
ARM GAS  /tmp/ccydMd0r.s 			page 73


 2095 015e FFF7FEFF 		bl	__assert_func
 2096              	.LVL170:
 2097              	.L139:
 625:../Middlewares/stm32-mw-camera/sensors/vd1943/vd1943.c ****   }
 2098              		.loc 1 625 5 view .LVU572
 2099              	.LBE58:
 2100              	.LBE57:
 2101              	.LBE56:
 2102              	.LBE55:
 2103              	.LBE96:
 2104              	.LBE102:
 2105              	.LBB103:
 2106              	.LBB44:
1414:../Middlewares/stm32-mw-camera/sensors/vd1943/vd1943.c ****   case VD1943_GS_SS1_NATIVE_8:
 2107              		.loc 1 1414 3 view .LVU573
 2108 0162 5549     		ldr	r1, .L222+36
 2109 0164 CBE7     		b	.L210
 2110              	.L189:
 2111 0166 5D49     		ldr	r1, .L222+72
 2112 0168 C9E7     		b	.L210
 2113              	.LVL171:
 2114              	.L140:
1414:../Middlewares/stm32-mw-camera/sensors/vd1943/vd1943.c ****   case VD1943_GS_SS1_NATIVE_8:
 2115              		.loc 1 1414 3 view .LVU574
 2116              	.LBE44:
 2117              	.LBE103:
 2118              	.LBB104:
 2119              	.LBB97:
 2120              	.LBB69:
 2121              	.LBB51:
 331:../Middlewares/stm32-mw-camera/sensors/vd1943/vd1943.c ****   VD1943_dbg(ctx, 0, "model_id = 0x%08x\n", reg32);
 2122              		.loc 1 331 3 is_stmt 1 discriminator 6 view .LVU575
 331:../Middlewares/stm32-mw-camera/sensors/vd1943/vd1943.c ****   VD1943_dbg(ctx, 0, "model_id = 0x%08x\n", reg32);
 2123              		.loc 1 331 3 view .LVU576
 332:../Middlewares/stm32-mw-camera/sensors/vd1943/vd1943.c ****   if (reg32 != VD1943_MODEL_ID_1_3 && reg32 != VD1943_MODEL_ID_1_4) {
 2124              		.loc 1 332 3 view .LVU577
 332:../Middlewares/stm32-mw-camera/sensors/vd1943/vd1943.c ****   if (reg32 != VD1943_MODEL_ID_1_3 && reg32 != VD1943_MODEL_ID_1_4) {
 2125              		.loc 1 332 3 view .LVU578
 2126 016a 059B     		ldr	r3, [sp, #20]
 2127 016c 604A     		ldr	r2, .L222+92
 2128 016e 0193     		str	r3, [sp, #4]
 2129 0170 4FF4A673 		mov	r3, #332
 2130 0174 0321     		movs	r1, #3
 2131 0176 0093     		str	r3, [sp]
 2132 0178 0346     		mov	r3, r0
 2133 017a 2046     		mov	r0, r4
 2134              	.LVL172:
 332:../Middlewares/stm32-mw-camera/sensors/vd1943/vd1943.c ****   if (reg32 != VD1943_MODEL_ID_1_3 && reg32 != VD1943_MODEL_ID_1_4) {
 2135              		.loc 1 332 3 is_stmt 0 view .LVU579
 2136 017c FFF7FEFF 		bl	VD1943_log_impl
 2137              	.LVL173:
 332:../Middlewares/stm32-mw-camera/sensors/vd1943/vd1943.c ****   if (reg32 != VD1943_MODEL_ID_1_3 && reg32 != VD1943_MODEL_ID_1_4) {
 2138              		.loc 1 332 3 is_stmt 1 discriminator 1 view .LVU580
 333:../Middlewares/stm32-mw-camera/sensors/vd1943/vd1943.c ****     VD1943_error(ctx, "Unsupported model id: 0x%08x\n", reg32);
 2139              		.loc 1 333 3 view .LVU581
 333:../Middlewares/stm32-mw-camera/sensors/vd1943/vd1943.c ****     VD1943_error(ctx, "Unsupported model id: 0x%08x\n", reg32);
 2140              		.loc 1 333 36 is_stmt 0 view .LVU582
ARM GAS  /tmp/ccydMd0r.s 			page 74


 2141 0180 059A     		ldr	r2, [sp, #20]
 2142 0182 5C4B     		ldr	r3, .L222+96
 2143 0184 1344     		add	r3, r3, r2
 333:../Middlewares/stm32-mw-camera/sensors/vd1943/vd1943.c ****     VD1943_error(ctx, "Unsupported model id: 0x%08x\n", reg32);
 2144              		.loc 1 333 6 view .LVU583
 2145 0186 012B     		cmp	r3, #1
 2146 0188 08D9     		bls	.L141
 334:../Middlewares/stm32-mw-camera/sensors/vd1943/vd1943.c ****     return -1;
 2147              		.loc 1 334 5 is_stmt 1 view .LVU584
 334:../Middlewares/stm32-mw-camera/sensors/vd1943/vd1943.c ****     return -1;
 2148              		.loc 1 334 5 view .LVU585
 2149 018a 4FF4A773 		mov	r3, #334
 2150 018e 0092     		str	r2, [sp]
 2151 0190 594A     		ldr	r2, .L222+100
 2152              	.L208:
 346:../Middlewares/stm32-mw-camera/sensors/vd1943/vd1943.c ****     return -1;
 2153              		.loc 1 346 5 is_stmt 0 view .LVU586
 2154 0192 2946     		mov	r1, r5
 2155 0194 2046     		mov	r0, r4
 2156 0196 FFF7FEFF 		bl	VD1943_log_impl
 2157              	.LVL174:
 346:../Middlewares/stm32-mw-camera/sensors/vd1943/vd1943.c ****     return -1;
 2158              		.loc 1 346 5 is_stmt 1 discriminator 1 view .LVU587
 347:../Middlewares/stm32-mw-camera/sensors/vd1943/vd1943.c ****   }
 2159              		.loc 1 347 5 view .LVU588
 347:../Middlewares/stm32-mw-camera/sensors/vd1943/vd1943.c ****   }
 2160              		.loc 1 347 5 is_stmt 0 view .LVU589
 2161              	.LBE51:
 2162              	.LBE69:
 735:../Middlewares/stm32-mw-camera/sensors/vd1943/vd1943.c ****     return ret;
 2163              		.loc 1 735 3 is_stmt 1 view .LVU590
 2164 019a 5BE7     		b	.L124
 2165              	.LVL175:
 2166              	.L141:
 2167              	.LBB70:
 2168              	.LBB52:
 338:../Middlewares/stm32-mw-camera/sensors/vd1943/vd1943.c ****   VD1943_TraceError(ctx, ret);
 2169              		.loc 1 338 3 view .LVU591
 338:../Middlewares/stm32-mw-camera/sensors/vd1943/vd1943.c ****   VD1943_TraceError(ctx, ret);
 2170              		.loc 1 338 9 is_stmt 0 view .LVU592
 2171 019c 0C21     		movs	r1, #12
 2172 019e 2046     		mov	r0, r4
 2173 01a0 A368     		ldr	r3, [r4, #8]
 2174 01a2 0DF11202 		add	r2, sp, #18
 2175 01a6 9847     		blx	r3
 2176              	.LVL176:
 339:../Middlewares/stm32-mw-camera/sensors/vd1943/vd1943.c ****   VD1943_dbg(ctx, 0, "rom revision = 0x%08x\n", reg16);
 2177              		.loc 1 339 3 is_stmt 1 view .LVU593
 339:../Middlewares/stm32-mw-camera/sensors/vd1943/vd1943.c ****   VD1943_dbg(ctx, 0, "rom revision = 0x%08x\n", reg16);
 2178              		.loc 1 339 3 view .LVU594
 2179 01a8 0546     		mov	r5, r0
 2180 01aa 0028     		cmp	r0, #0
 2181 01ac 40D1     		bne	.L142
 339:../Middlewares/stm32-mw-camera/sensors/vd1943/vd1943.c ****   VD1943_dbg(ctx, 0, "rom revision = 0x%08x\n", reg16);
 2182              		.loc 1 339 3 discriminator 3 view .LVU595
 339:../Middlewares/stm32-mw-camera/sensors/vd1943/vd1943.c ****   VD1943_dbg(ctx, 0, "rom revision = 0x%08x\n", reg16);
 2183              		.loc 1 339 3 discriminator 3 view .LVU596
ARM GAS  /tmp/ccydMd0r.s 			page 75


 339:../Middlewares/stm32-mw-camera/sensors/vd1943/vd1943.c ****   VD1943_dbg(ctx, 0, "rom revision = 0x%08x\n", reg16);
 2184              		.loc 1 339 3 discriminator 6 view .LVU597
 339:../Middlewares/stm32-mw-camera/sensors/vd1943/vd1943.c ****   VD1943_dbg(ctx, 0, "rom revision = 0x%08x\n", reg16);
 2185              		.loc 1 339 3 view .LVU598
 340:../Middlewares/stm32-mw-camera/sensors/vd1943/vd1943.c ****   if (reg16 == VD1943_ROM_REVISION_13) {
 2186              		.loc 1 340 3 view .LVU599
 340:../Middlewares/stm32-mw-camera/sensors/vd1943/vd1943.c ****   if (reg16 == VD1943_ROM_REVISION_13) {
 2187              		.loc 1 340 3 view .LVU600
 2188 01ae BDF81230 		ldrh	r3, [sp, #18]
 2189 01b2 0321     		movs	r1, #3
 2190 01b4 0193     		str	r3, [sp, #4]
 2191 01b6 4FF4AA73 		mov	r3, #340
 2192 01ba 504A     		ldr	r2, .L222+104
 2193 01bc 0093     		str	r3, [sp]
 2194 01be 0346     		mov	r3, r0
 2195 01c0 2046     		mov	r0, r4
 2196              	.LVL177:
 340:../Middlewares/stm32-mw-camera/sensors/vd1943/vd1943.c ****   if (reg16 == VD1943_ROM_REVISION_13) {
 2197              		.loc 1 340 3 is_stmt 0 view .LVU601
 2198 01c2 FFF7FEFF 		bl	VD1943_log_impl
 2199              	.LVL178:
 340:../Middlewares/stm32-mw-camera/sensors/vd1943/vd1943.c ****   if (reg16 == VD1943_ROM_REVISION_13) {
 2200              		.loc 1 340 3 is_stmt 1 discriminator 1 view .LVU602
 341:../Middlewares/stm32-mw-camera/sensors/vd1943/vd1943.c ****     ctx->ctx.is_fastboot = 0;
 2201              		.loc 1 341 3 view .LVU603
 341:../Middlewares/stm32-mw-camera/sensors/vd1943/vd1943.c ****     ctx->ctx.is_fastboot = 0;
 2202              		.loc 1 341 13 is_stmt 0 view .LVU604
 2203 01c6 BDF81230 		ldrh	r3, [sp, #18]
 341:../Middlewares/stm32-mw-camera/sensors/vd1943/vd1943.c ****     ctx->ctx.is_fastboot = 0;
 2204              		.loc 1 341 6 view .LVU605
 2205 01ca B3F5806F 		cmp	r3, #1024
 2206 01ce 33D1     		bne	.L199
 342:../Middlewares/stm32-mw-camera/sensors/vd1943/vd1943.c ****   } else if (reg16 == VD1943_ROM_REVISION_14) {
 2207              		.loc 1 342 5 is_stmt 1 view .LVU606
 342:../Middlewares/stm32-mw-camera/sensors/vd1943/vd1943.c ****   } else if (reg16 == VD1943_ROM_REVISION_14) {
 2208              		.loc 1 342 26 is_stmt 0 view .LVU607
 2209 01d0 84F83150 		strb	r5, [r4, #49]
 350:../Middlewares/stm32-mw-camera/sensors/vd1943/vd1943.c ****     ret = ctx->read16(ctx, VD1943_REG_CFA_SELECTION, &reg16);
 2210              		.loc 1 350 3 is_stmt 1 view .LVU608
 360:../Middlewares/stm32-mw-camera/sensors/vd1943/vd1943.c **** #endif
 2211              		.loc 1 360 5 view .LVU609
 2212              	.LVL179:
 360:../Middlewares/stm32-mw-camera/sensors/vd1943/vd1943.c **** #endif
 2213              		.loc 1 360 5 is_stmt 0 view .LVU610
 2214              	.LBE52:
 2215              	.LBE70:
 735:../Middlewares/stm32-mw-camera/sensors/vd1943/vd1943.c ****     return ret;
 2216              		.loc 1 735 3 is_stmt 1 view .LVU611
 2217              	.L145:
 2218              	.LBB71:
 2219              	.LBB53:
 360:../Middlewares/stm32-mw-camera/sensors/vd1943/vd1943.c **** #endif
 2220              		.loc 1 360 22 is_stmt 0 view .LVU612
 2221 01d4 84F83050 		strb	r5, [r4, #48]
 2222              	.LBE53:
 2223              	.LBE71:
 738:../Middlewares/stm32-mw-camera/sensors/vd1943/vd1943.c ****   if (ret)
ARM GAS  /tmp/ccydMd0r.s 			page 76


 2224              		.loc 1 738 3 is_stmt 1 view .LVU613
 2225              	.LVL180:
 2226              	.LBB72:
 2227              	.LBI72:
 367:../Middlewares/stm32-mw-camera/sensors/vd1943/vd1943.c **** {
 2228              		.loc 1 367 12 view .LVU614
 2229              	.LBB73:
 369:../Middlewares/stm32-mw-camera/sensors/vd1943/vd1943.c **** 
 2230              		.loc 1 369 3 view .LVU615
 371:../Middlewares/stm32-mw-camera/sensors/vd1943/vd1943.c ****   if (ret)
 2231              		.loc 1 371 3 view .LVU616
 371:../Middlewares/stm32-mw-camera/sensors/vd1943/vd1943.c ****   if (ret)
 2232              		.loc 1 371 9 is_stmt 0 view .LVU617
 2233 01d8 0122     		movs	r2, #1
 2234 01da 40F21451 		movw	r1, #1300
 2235 01de 2046     		mov	r0, r4
 2236 01e0 FFF7FEFF 		bl	VD1943_ApplyCmdAndWait
 2237              	.LVL181:
 372:../Middlewares/stm32-mw-camera/sensors/vd1943/vd1943.c ****     return ret;
 2238              		.loc 1 372 3 is_stmt 1 view .LVU618
 372:../Middlewares/stm32-mw-camera/sensors/vd1943/vd1943.c ****     return ret;
 2239              		.loc 1 372 6 is_stmt 0 view .LVU619
 2240 01e4 0546     		mov	r5, r0
 2241 01e6 0028     		cmp	r0, #0
 2242 01e8 7FF436AF 		bne	.L120
 375:../Middlewares/stm32-mw-camera/sensors/vd1943/vd1943.c ****   if (ret)
 2243              		.loc 1 375 3 is_stmt 1 view .LVU620
 375:../Middlewares/stm32-mw-camera/sensors/vd1943/vd1943.c ****   if (ret)
 2244              		.loc 1 375 9 is_stmt 0 view .LVU621
 2245 01ec 0221     		movs	r1, #2
 2246 01ee 2046     		mov	r0, r4
 2247              	.LVL182:
 375:../Middlewares/stm32-mw-camera/sensors/vd1943/vd1943.c ****   if (ret)
 2248              		.loc 1 375 9 view .LVU622
 2249 01f0 FFF7FEFF 		bl	VD1943_WaitState
 2250              	.LVL183:
 376:../Middlewares/stm32-mw-camera/sensors/vd1943/vd1943.c ****     return ret;
 2251              		.loc 1 376 3 is_stmt 1 view .LVU623
 376:../Middlewares/stm32-mw-camera/sensors/vd1943/vd1943.c ****     return ret;
 2252              		.loc 1 376 3 is_stmt 0 view .LVU624
 2253              	.LBE73:
 2254              	.LBE72:
 739:../Middlewares/stm32-mw-camera/sensors/vd1943/vd1943.c ****     return ret;
 2255              		.loc 1 739 3 is_stmt 1 view .LVU625
 739:../Middlewares/stm32-mw-camera/sensors/vd1943/vd1943.c ****     return ret;
 2256              		.loc 1 739 6 is_stmt 0 view .LVU626
 2257 01f4 0546     		mov	r5, r0
 2258 01f6 0028     		cmp	r0, #0
 2259 01f8 7FF42EAF 		bne	.L120
 742:../Middlewares/stm32-mw-camera/sensors/vd1943/vd1943.c ****     ret = VD1943_ApplyCertificate(ctx);
 2260              		.loc 1 742 3 is_stmt 1 view .LVU627
 742:../Middlewares/stm32-mw-camera/sensors/vd1943/vd1943.c ****     ret = VD1943_ApplyCertificate(ctx);
 2261              		.loc 1 742 6 is_stmt 0 view .LVU628
 2262 01fc 94F83130 		ldrb	r3, [r4, #49]	@ zero_extendqisi2
 2263 0200 002B     		cmp	r3, #0
 2264 0202 40F0C780 		bne	.L149
 743:../Middlewares/stm32-mw-camera/sensors/vd1943/vd1943.c ****     if (ret)
ARM GAS  /tmp/ccydMd0r.s 			page 77


 2265              		.loc 1 743 5 is_stmt 1 view .LVU629
 2266              	.LVL184:
 2267              	.LBB74:
 2268              	.LBI74:
 382:../Middlewares/stm32-mw-camera/sensors/vd1943/vd1943.c **** {
 2269              		.loc 1 382 12 view .LVU630
 2270              	.LBB75:
 384:../Middlewares/stm32-mw-camera/sensors/vd1943/vd1943.c ****   int ret;
 2271              		.loc 1 384 3 view .LVU631
 385:../Middlewares/stm32-mw-camera/sensors/vd1943/vd1943.c **** 
 2272              		.loc 1 385 3 view .LVU632
 387:../Middlewares/stm32-mw-camera/sensors/vd1943/vd1943.c ****       ret = ctx->write_array(ctx, VD1943_REG_CERTIFICATE_AREA_START_ADDR, (uint8_t *)fw_patch_13_mo
 2273              		.loc 1 387 3 view .LVU633
 387:../Middlewares/stm32-mw-camera/sensors/vd1943/vd1943.c ****       ret = ctx->write_array(ctx, VD1943_REG_CERTIFICATE_AREA_START_ADDR, (uint8_t *)fw_patch_13_mo
 2274              		.loc 1 387 6 is_stmt 0 view .LVU634
 2275 0206 94F83030 		ldrb	r3, [r4, #48]	@ zero_extendqisi2
 388:../Middlewares/stm32-mw-camera/sensors/vd1943/vd1943.c ****                              sizeof(fw_patch_13_mono_cert));
 2276              		.loc 1 388 16 view .LVU635
 2277 020a E569     		ldr	r5, [r4, #28]
 387:../Middlewares/stm32-mw-camera/sensors/vd1943/vd1943.c ****       ret = ctx->write_array(ctx, VD1943_REG_CERTIFICATE_AREA_START_ADDR, (uint8_t *)fw_patch_13_mo
 2278              		.loc 1 387 6 view .LVU636
 2279 020c 002B     		cmp	r3, #0
 2280 020e 3CD0     		beq	.L150
 388:../Middlewares/stm32-mw-camera/sensors/vd1943/vd1943.c ****                              sizeof(fw_patch_13_mono_cert));
 2281              		.loc 1 388 7 is_stmt 1 view .LVU637
 388:../Middlewares/stm32-mw-camera/sensors/vd1943/vd1943.c ****                              sizeof(fw_patch_13_mono_cert));
 2282              		.loc 1 388 13 is_stmt 0 view .LVU638
 2283 0210 40F2FF13 		movw	r3, #511
 2284 0214 3A4A     		ldr	r2, .L222+108
 2285              	.L212:
 391:../Middlewares/stm32-mw-camera/sensors/vd1943/vd1943.c ****                              sizeof(fw_patch_13_rgbnir_cert));
 2286              		.loc 1 391 13 view .LVU639
 2287 0216 41F6A821 		movw	r1, #6824
 2288 021a 2046     		mov	r0, r4
 2289              	.LVL185:
 391:../Middlewares/stm32-mw-camera/sensors/vd1943/vd1943.c ****                              sizeof(fw_patch_13_rgbnir_cert));
 2290              		.loc 1 391 13 view .LVU640
 2291 021c A847     		blx	r5
 2292              	.LVL186:
 2293 021e 0546     		mov	r5, r0
 2294              	.LVL187:
 394:../Middlewares/stm32-mw-camera/sensors/vd1943/vd1943.c **** 
 2295              		.loc 1 394 3 is_stmt 1 view .LVU641
 394:../Middlewares/stm32-mw-camera/sensors/vd1943/vd1943.c **** 
 2296              		.loc 1 394 3 view .LVU642
 2297 0220 0028     		cmp	r0, #0
 2298 0222 77D0     		beq	.L152
 394:../Middlewares/stm32-mw-camera/sensors/vd1943/vd1943.c **** 
 2299              		.loc 1 394 3 discriminator 1 view .LVU643
 394:../Middlewares/stm32-mw-camera/sensors/vd1943/vd1943.c **** 
 2300              		.loc 1 394 3 discriminator 1 view .LVU644
 2301 0224 4FF4C573 		mov	r3, #394
 2302 0228 364A     		ldr	r2, .L222+112
 2303 022a 0290     		str	r0, [sp, #8]
 2304 022c 0193     		str	r3, [sp, #4]
 2305 022e 82E7     		b	.L217
 2306              	.LVL188:
ARM GAS  /tmp/ccydMd0r.s 			page 78


 2307              	.L142:
 394:../Middlewares/stm32-mw-camera/sensors/vd1943/vd1943.c **** 
 2308              		.loc 1 394 3 is_stmt 0 discriminator 1 view .LVU645
 2309              	.LBE75:
 2310              	.LBE74:
 2311              	.LBB77:
 2312              	.LBB54:
 339:../Middlewares/stm32-mw-camera/sensors/vd1943/vd1943.c ****   VD1943_dbg(ctx, 0, "rom revision = 0x%08x\n", reg16);
 2313              		.loc 1 339 3 is_stmt 1 discriminator 1 view .LVU646
 339:../Middlewares/stm32-mw-camera/sensors/vd1943/vd1943.c ****   VD1943_dbg(ctx, 0, "rom revision = 0x%08x\n", reg16);
 2314              		.loc 1 339 3 discriminator 1 view .LVU647
 2315 0230 40F25313 		movw	r3, #339
 2316 0234 0290     		str	r0, [sp, #8]
 2317 0236 7CE7     		b	.L216
 2318              	.LVL189:
 2319              	.L199:
 343:../Middlewares/stm32-mw-camera/sensors/vd1943/vd1943.c ****     ctx->ctx.is_fastboot = 1;
 2320              		.loc 1 343 10 view .LVU648
 343:../Middlewares/stm32-mw-camera/sensors/vd1943/vd1943.c ****     ctx->ctx.is_fastboot = 1;
 2321              		.loc 1 343 13 is_stmt 0 view .LVU649
 2322 0238 B3F5A86F 		cmp	r3, #1344
 2323 023c 0ED1     		bne	.L146
 344:../Middlewares/stm32-mw-camera/sensors/vd1943/vd1943.c ****   } else {
 2324              		.loc 1 344 5 is_stmt 1 view .LVU650
 344:../Middlewares/stm32-mw-camera/sensors/vd1943/vd1943.c ****   } else {
 2325              		.loc 1 344 26 is_stmt 0 view .LVU651
 2326 023e 0123     		movs	r3, #1
 351:../Middlewares/stm32-mw-camera/sensors/vd1943/vd1943.c ****     VD1943_TraceError(ctx, ret);
 2327              		.loc 1 351 11 view .LVU652
 2328 0240 0E21     		movs	r1, #14
 344:../Middlewares/stm32-mw-camera/sensors/vd1943/vd1943.c ****   } else {
 2329              		.loc 1 344 26 view .LVU653
 2330 0242 84F83130 		strb	r3, [r4, #49]
 350:../Middlewares/stm32-mw-camera/sensors/vd1943/vd1943.c ****     ret = ctx->read16(ctx, VD1943_REG_CFA_SELECTION, &reg16);
 2331              		.loc 1 350 3 is_stmt 1 view .LVU654
 351:../Middlewares/stm32-mw-camera/sensors/vd1943/vd1943.c ****     VD1943_TraceError(ctx, ret);
 2332              		.loc 1 351 5 view .LVU655
 351:../Middlewares/stm32-mw-camera/sensors/vd1943/vd1943.c ****     VD1943_TraceError(ctx, ret);
 2333              		.loc 1 351 11 is_stmt 0 view .LVU656
 2334 0246 2046     		mov	r0, r4
 2335 0248 A368     		ldr	r3, [r4, #8]
 2336 024a 0DF11202 		add	r2, sp, #18
 2337 024e 9847     		blx	r3
 2338              	.LVL190:
 352:../Middlewares/stm32-mw-camera/sensors/vd1943/vd1943.c ****     VD1943_dbg(ctx, 0, "optical revision = 0x%04x\n", reg16);
 2339              		.loc 1 352 5 is_stmt 1 view .LVU657
 352:../Middlewares/stm32-mw-camera/sensors/vd1943/vd1943.c ****     VD1943_dbg(ctx, 0, "optical revision = 0x%04x\n", reg16);
 2340              		.loc 1 352 5 view .LVU658
 2341 0250 0546     		mov	r5, r0
 2342 0252 40B1     		cbz	r0, .L200
 352:../Middlewares/stm32-mw-camera/sensors/vd1943/vd1943.c ****     VD1943_dbg(ctx, 0, "optical revision = 0x%04x\n", reg16);
 2343              		.loc 1 352 5 discriminator 1 view .LVU659
 352:../Middlewares/stm32-mw-camera/sensors/vd1943/vd1943.c ****     VD1943_dbg(ctx, 0, "optical revision = 0x%04x\n", reg16);
 2344              		.loc 1 352 5 discriminator 1 view .LVU660
 2345 0254 4FF4B073 		mov	r3, #352
 2346 0258 0290     		str	r0, [sp, #8]
 2347 025a 6AE7     		b	.L216
ARM GAS  /tmp/ccydMd0r.s 			page 79


 2348              	.LVL191:
 2349              	.L146:
 346:../Middlewares/stm32-mw-camera/sensors/vd1943/vd1943.c ****     return -1;
 2350              		.loc 1 346 5 view .LVU661
 346:../Middlewares/stm32-mw-camera/sensors/vd1943/vd1943.c ****     return -1;
 2351              		.loc 1 346 5 view .LVU662
 2352 025c 0093     		str	r3, [sp]
 2353 025e 2A4A     		ldr	r2, .L222+116
 2354 0260 4FF4AD73 		mov	r3, #346
 2355 0264 95E7     		b	.L208
 2356              	.LVL192:
 2357              	.L200:
 352:../Middlewares/stm32-mw-camera/sensors/vd1943/vd1943.c ****     VD1943_dbg(ctx, 0, "optical revision = 0x%04x\n", reg16);
 2358              		.loc 1 352 5 discriminator 3 view .LVU663
 352:../Middlewares/stm32-mw-camera/sensors/vd1943/vd1943.c ****     VD1943_dbg(ctx, 0, "optical revision = 0x%04x\n", reg16);
 2359              		.loc 1 352 5 discriminator 3 view .LVU664
 352:../Middlewares/stm32-mw-camera/sensors/vd1943/vd1943.c ****     VD1943_dbg(ctx, 0, "optical revision = 0x%04x\n", reg16);
 2360              		.loc 1 352 5 discriminator 6 view .LVU665
 352:../Middlewares/stm32-mw-camera/sensors/vd1943/vd1943.c ****     VD1943_dbg(ctx, 0, "optical revision = 0x%04x\n", reg16);
 2361              		.loc 1 352 5 view .LVU666
 353:../Middlewares/stm32-mw-camera/sensors/vd1943/vd1943.c ****     ctx->ctx.is_mono = (reg16 == VD1943_OPTICAL_MONO);
 2362              		.loc 1 353 5 view .LVU667
 353:../Middlewares/stm32-mw-camera/sensors/vd1943/vd1943.c ****     ctx->ctx.is_mono = (reg16 == VD1943_OPTICAL_MONO);
 2363              		.loc 1 353 5 view .LVU668
 2364 0266 BDF81230 		ldrh	r3, [sp, #18]
 2365 026a 0321     		movs	r1, #3
 2366 026c 0193     		str	r3, [sp, #4]
 2367 026e 40F26113 		movw	r3, #353
 2368 0272 264A     		ldr	r2, .L222+120
 2369 0274 0093     		str	r3, [sp]
 2370 0276 0346     		mov	r3, r0
 2371 0278 2046     		mov	r0, r4
 2372              	.LVL193:
 353:../Middlewares/stm32-mw-camera/sensors/vd1943/vd1943.c ****     ctx->ctx.is_mono = (reg16 == VD1943_OPTICAL_MONO);
 2373              		.loc 1 353 5 is_stmt 0 view .LVU669
 2374 027a FFF7FEFF 		bl	VD1943_log_impl
 2375              	.LVL194:
 353:../Middlewares/stm32-mw-camera/sensors/vd1943/vd1943.c ****     ctx->ctx.is_mono = (reg16 == VD1943_OPTICAL_MONO);
 2376              		.loc 1 353 5 is_stmt 1 discriminator 1 view .LVU670
 354:../Middlewares/stm32-mw-camera/sensors/vd1943/vd1943.c ****   } else {
 2377              		.loc 1 354 5 view .LVU671
 354:../Middlewares/stm32-mw-camera/sensors/vd1943/vd1943.c ****   } else {
 2378              		.loc 1 354 31 is_stmt 0 view .LVU672
 2379 027e BDF81250 		ldrh	r5, [sp, #18]
 2380              	.LVL195:
 354:../Middlewares/stm32-mw-camera/sensors/vd1943/vd1943.c ****   } else {
 2381              		.loc 1 354 31 view .LVU673
 2382 0282 6B1E     		subs	r3, r5, #1
 2383 0284 5D42     		rsbs	r5, r3, #0
 2384 0286 5D41     		adcs	r5, r5, r3
 2385              	.LVL196:
 354:../Middlewares/stm32-mw-camera/sensors/vd1943/vd1943.c ****   } else {
 2386              		.loc 1 354 31 view .LVU674
 2387              	.LBE54:
 2388              	.LBE77:
 735:../Middlewares/stm32-mw-camera/sensors/vd1943/vd1943.c ****     return ret;
 2389              		.loc 1 735 3 is_stmt 1 view .LVU675
ARM GAS  /tmp/ccydMd0r.s 			page 80


 2390 0288 A4E7     		b	.L145
 2391              	.LVL197:
 2392              	.L150:
 2393              	.LBB78:
 2394              	.LBB76:
 391:../Middlewares/stm32-mw-camera/sensors/vd1943/vd1943.c ****                              sizeof(fw_patch_13_rgbnir_cert));
 2395              		.loc 1 391 7 view .LVU676
 391:../Middlewares/stm32-mw-camera/sensors/vd1943/vd1943.c ****                              sizeof(fw_patch_13_rgbnir_cert));
 2396              		.loc 1 391 13 is_stmt 0 view .LVU677
 2397 028a 40F2F513 		movw	r3, #501
 2398 028e 204A     		ldr	r2, .L222+124
 2399 0290 C1E7     		b	.L212
 2400              	.L223:
 2401 0292 00BF     		.align	2
 2402              	.L222:
 2403 0294 80D54302 		.word	38000000
 2404 0298 00000000 		.word	.LC9
 2405 029c 804D19F1 		.word	-250000000
 2406 02a0 807C814A 		.word	1250000000
 2407 02a4 32000000 		.word	.LC10
 2408 02a8 60000000 		.word	.LC11
 2409 02ac 89000000 		.word	.LC12
 2410 02b0 F003E018 		.word	417334256
 2411 02b4 033C0067 		.word	1728068611
 2412 02b8 00000000 		.word	VD1943_SetDigitalGain_RGBNIR
 2413 02bc 00000000 		.word	VD1943_SetExpoSplit_GS
 2414 02c0 00000000 		.word	VD1943_GetExpo_GS
 2415 02c4 00000000 		.word	VD1943_SetDigitalGain_IR
 2416 02c8 00000000 		.word	VD1943_SetExpo_GS
 2417 02cc 00000000 		.word	VD1943_SetExpo_RS
 2418 02d0 00000000 		.word	VD1943_GetExpo_RS
 2419 02d4 00000000 		.word	__func__.25
 2420 02d8 00000000 		.word	.LC4
 2421 02dc 00000000 		.word	VD1943_SetDigitalGain_RGB
 2422 02e0 00000000 		.word	VD1943_SetExpo_RS_HDR
 2423 02e4 B1000000 		.word	.LC13
 2424 02e8 00000000 		.word	__func__.33
 2425 02ec 09000000 		.word	.LC2
 2426 02f0 B3000000 		.word	.LC14
 2427 02f4 D0CBC6AC 		.word	-1396257840
 2428 02f8 D7000000 		.word	.LC15
 2429 02fc 05010000 		.word	.LC16
 2430 0300 00000000 		.word	fw_patch_13_mono_cert
 2431 0304 00000000 		.word	__func__.23
 2432 0308 2D010000 		.word	.LC17
 2433 030c 5F010000 		.word	.LC18
 2434 0310 00000000 		.word	fw_patch_13_rgbnir_cert
 2435              	.LVL198:
 2436              	.L152:
 394:../Middlewares/stm32-mw-camera/sensors/vd1943/vd1943.c **** 
 2437              		.loc 1 394 3 is_stmt 1 discriminator 6 view .LVU678
 394:../Middlewares/stm32-mw-camera/sensors/vd1943/vd1943.c **** 
 2438              		.loc 1 394 3 view .LVU679
 396:../Middlewares/stm32-mw-camera/sensors/vd1943/vd1943.c ****   if (ret)
 2439              		.loc 1 396 3 view .LVU680
 396:../Middlewares/stm32-mw-camera/sensors/vd1943/vd1943.c ****   if (ret)
 2440              		.loc 1 396 9 is_stmt 0 view .LVU681
ARM GAS  /tmp/ccydMd0r.s 			page 81


 2441 0314 0122     		movs	r2, #1
 2442 0316 40F21551 		movw	r1, #1301
 2443 031a 2046     		mov	r0, r4
 2444              	.LVL199:
 396:../Middlewares/stm32-mw-camera/sensors/vd1943/vd1943.c ****   if (ret)
 2445              		.loc 1 396 9 view .LVU682
 2446 031c FFF7FEFF 		bl	VD1943_ApplyCmdAndWait
 2447              	.LVL200:
 397:../Middlewares/stm32-mw-camera/sensors/vd1943/vd1943.c ****     return ret;
 2448              		.loc 1 397 3 is_stmt 1 view .LVU683
 397:../Middlewares/stm32-mw-camera/sensors/vd1943/vd1943.c ****     return ret;
 2449              		.loc 1 397 3 is_stmt 0 view .LVU684
 2450              	.LBE76:
 2451              	.LBE78:
 744:../Middlewares/stm32-mw-camera/sensors/vd1943/vd1943.c ****       return ret;
 2452              		.loc 1 744 5 is_stmt 1 view .LVU685
 744:../Middlewares/stm32-mw-camera/sensors/vd1943/vd1943.c ****       return ret;
 2453              		.loc 1 744 8 is_stmt 0 view .LVU686
 2454 0320 0546     		mov	r5, r0
 2455 0322 0028     		cmp	r0, #0
 2456 0324 7FF498AE 		bne	.L120
 747:../Middlewares/stm32-mw-camera/sensors/vd1943/vd1943.c ****     if (ret)
 2457              		.loc 1 747 5 is_stmt 1 view .LVU687
 2458              	.LVL201:
 2459              	.LBB79:
 2460              	.LBI79:
 403:../Middlewares/stm32-mw-camera/sensors/vd1943/vd1943.c **** {
 2461              		.loc 1 403 12 view .LVU688
 2462              	.LBB80:
 405:../Middlewares/stm32-mw-camera/sensors/vd1943/vd1943.c ****   uint16_t reg16;
 2463              		.loc 1 405 3 view .LVU689
 406:../Middlewares/stm32-mw-camera/sensors/vd1943/vd1943.c ****   int ret;
 2464              		.loc 1 406 3 view .LVU690
 407:../Middlewares/stm32-mw-camera/sensors/vd1943/vd1943.c **** 
 2465              		.loc 1 407 3 view .LVU691
 409:../Middlewares/stm32-mw-camera/sensors/vd1943/vd1943.c ****       ret = ctx->write_array(ctx, VD1943_REG_FWPATCH_START_ADDR, (uint8_t *)fw_patch_13_mono_array,
 2466              		.loc 1 409 3 view .LVU692
 409:../Middlewares/stm32-mw-camera/sensors/vd1943/vd1943.c ****       ret = ctx->write_array(ctx, VD1943_REG_FWPATCH_START_ADDR, (uint8_t *)fw_patch_13_mono_array,
 2467              		.loc 1 409 6 is_stmt 0 view .LVU693
 2468 0328 94F83030 		ldrb	r3, [r4, #48]	@ zero_extendqisi2
 410:../Middlewares/stm32-mw-camera/sensors/vd1943/vd1943.c ****                              sizeof(fw_patch_13_mono_array));
 2469              		.loc 1 410 16 view .LVU694
 2470 032c E569     		ldr	r5, [r4, #28]
 409:../Middlewares/stm32-mw-camera/sensors/vd1943/vd1943.c ****       ret = ctx->write_array(ctx, VD1943_REG_FWPATCH_START_ADDR, (uint8_t *)fw_patch_13_mono_array,
 2471              		.loc 1 409 6 view .LVU695
 2472 032e 73B1     		cbz	r3, .L153
 410:../Middlewares/stm32-mw-camera/sensors/vd1943/vd1943.c ****                              sizeof(fw_patch_13_mono_array));
 2473              		.loc 1 410 7 is_stmt 1 view .LVU696
 410:../Middlewares/stm32-mw-camera/sensors/vd1943/vd1943.c ****                              sizeof(fw_patch_13_mono_array));
 2474              		.loc 1 410 13 is_stmt 0 view .LVU697
 2475 0330 44F28413 		movw	r3, #16772
 2476 0334 954A     		ldr	r2, .L224
 2477              	.L213:
 413:../Middlewares/stm32-mw-camera/sensors/vd1943/vd1943.c ****                              sizeof(fw_patch_13_rgbnir_array));
 2478              		.loc 1 413 13 view .LVU698
 2479 0336 4FF40051 		mov	r1, #8192
 2480 033a 2046     		mov	r0, r4
ARM GAS  /tmp/ccydMd0r.s 			page 82


 2481              	.LVL202:
 413:../Middlewares/stm32-mw-camera/sensors/vd1943/vd1943.c ****                              sizeof(fw_patch_13_rgbnir_array));
 2482              		.loc 1 413 13 view .LVU699
 2483 033c A847     		blx	r5
 2484              	.LVL203:
 2485 033e 0546     		mov	r5, r0
 2486              	.LVL204:
 416:../Middlewares/stm32-mw-camera/sensors/vd1943/vd1943.c **** 
 2487              		.loc 1 416 3 is_stmt 1 view .LVU700
 416:../Middlewares/stm32-mw-camera/sensors/vd1943/vd1943.c **** 
 2488              		.loc 1 416 3 view .LVU701
 2489 0340 48B1     		cbz	r0, .L155
 416:../Middlewares/stm32-mw-camera/sensors/vd1943/vd1943.c **** 
 2490              		.loc 1 416 3 discriminator 1 view .LVU702
 416:../Middlewares/stm32-mw-camera/sensors/vd1943/vd1943.c **** 
 2491              		.loc 1 416 3 discriminator 1 view .LVU703
 2492 0342 4FF4D073 		mov	r3, #416
 2493 0346 0290     		str	r0, [sp, #8]
 2494              	.L221:
 423:../Middlewares/stm32-mw-camera/sensors/vd1943/vd1943.c ****   VD1943_notice(ctx, "patch = %d.%d\n", reg16 >> 8, reg16 & 0xff);
 2495              		.loc 1 423 3 is_stmt 0 discriminator 1 view .LVU704
 2496 0348 914A     		ldr	r2, .L224+4
 2497 034a 0193     		str	r3, [sp, #4]
 2498 034c F3E6     		b	.L217
 2499              	.LVL205:
 2500              	.L153:
 413:../Middlewares/stm32-mw-camera/sensors/vd1943/vd1943.c ****                              sizeof(fw_patch_13_rgbnir_array));
 2501              		.loc 1 413 7 is_stmt 1 view .LVU705
 413:../Middlewares/stm32-mw-camera/sensors/vd1943/vd1943.c ****                              sizeof(fw_patch_13_rgbnir_array));
 2502              		.loc 1 413 13 is_stmt 0 view .LVU706
 2503 034e 43F67463 		movw	r3, #15988
 2504 0352 904A     		ldr	r2, .L224+8
 2505 0354 EFE7     		b	.L213
 2506              	.LVL206:
 2507              	.L155:
 416:../Middlewares/stm32-mw-camera/sensors/vd1943/vd1943.c **** 
 2508              		.loc 1 416 3 is_stmt 1 discriminator 6 view .LVU707
 416:../Middlewares/stm32-mw-camera/sensors/vd1943/vd1943.c **** 
 2509              		.loc 1 416 3 view .LVU708
 418:../Middlewares/stm32-mw-camera/sensors/vd1943/vd1943.c ****   if (ret)
 2510              		.loc 1 418 3 view .LVU709
 418:../Middlewares/stm32-mw-camera/sensors/vd1943/vd1943.c ****   if (ret)
 2511              		.loc 1 418 9 is_stmt 0 view .LVU710
 2512 0356 0222     		movs	r2, #2
 2513 0358 40F21551 		movw	r1, #1301
 2514 035c 2046     		mov	r0, r4
 2515              	.LVL207:
 418:../Middlewares/stm32-mw-camera/sensors/vd1943/vd1943.c ****   if (ret)
 2516              		.loc 1 418 9 view .LVU711
 2517 035e FFF7FEFF 		bl	VD1943_ApplyCmdAndWait
 2518              	.LVL208:
 419:../Middlewares/stm32-mw-camera/sensors/vd1943/vd1943.c ****     return ret;
 2519              		.loc 1 419 3 is_stmt 1 view .LVU712
 419:../Middlewares/stm32-mw-camera/sensors/vd1943/vd1943.c ****     return ret;
 2520              		.loc 1 419 6 is_stmt 0 view .LVU713
 2521 0362 0546     		mov	r5, r0
 2522 0364 0028     		cmp	r0, #0
ARM GAS  /tmp/ccydMd0r.s 			page 83


 2523 0366 7FF477AE 		bne	.L120
 422:../Middlewares/stm32-mw-camera/sensors/vd1943/vd1943.c ****   VD1943_TraceError(ctx, ret);
 2524              		.loc 1 422 3 is_stmt 1 view .LVU714
 422:../Middlewares/stm32-mw-camera/sensors/vd1943/vd1943.c ****   VD1943_TraceError(ctx, ret);
 2525              		.loc 1 422 9 is_stmt 0 view .LVU715
 2526 036a 4A21     		movs	r1, #74
 2527 036c 2046     		mov	r0, r4
 2528              	.LVL209:
 422:../Middlewares/stm32-mw-camera/sensors/vd1943/vd1943.c ****   VD1943_TraceError(ctx, ret);
 2529              		.loc 1 422 9 view .LVU716
 2530 036e A368     		ldr	r3, [r4, #8]
 2531 0370 05AA     		add	r2, sp, #20
 2532 0372 9847     		blx	r3
 2533              	.LVL210:
 423:../Middlewares/stm32-mw-camera/sensors/vd1943/vd1943.c ****   VD1943_notice(ctx, "patch = %d.%d\n", reg16 >> 8, reg16 & 0xff);
 2534              		.loc 1 423 3 is_stmt 1 view .LVU717
 423:../Middlewares/stm32-mw-camera/sensors/vd1943/vd1943.c ****   VD1943_notice(ctx, "patch = %d.%d\n", reg16 >> 8, reg16 & 0xff);
 2535              		.loc 1 423 3 view .LVU718
 2536 0374 0546     		mov	r5, r0
 2537 0376 D8B9     		cbnz	r0, .L157
 423:../Middlewares/stm32-mw-camera/sensors/vd1943/vd1943.c ****   VD1943_notice(ctx, "patch = %d.%d\n", reg16 >> 8, reg16 & 0xff);
 2538              		.loc 1 423 3 discriminator 3 view .LVU719
 423:../Middlewares/stm32-mw-camera/sensors/vd1943/vd1943.c ****   VD1943_notice(ctx, "patch = %d.%d\n", reg16 >> 8, reg16 & 0xff);
 2539              		.loc 1 423 3 discriminator 3 view .LVU720
 423:../Middlewares/stm32-mw-camera/sensors/vd1943/vd1943.c ****   VD1943_notice(ctx, "patch = %d.%d\n", reg16 >> 8, reg16 & 0xff);
 2540              		.loc 1 423 3 discriminator 6 view .LVU721
 423:../Middlewares/stm32-mw-camera/sensors/vd1943/vd1943.c ****   VD1943_notice(ctx, "patch = %d.%d\n", reg16 >> 8, reg16 & 0xff);
 2541              		.loc 1 423 3 view .LVU722
 424:../Middlewares/stm32-mw-camera/sensors/vd1943/vd1943.c **** 
 2542              		.loc 1 424 3 view .LVU723
 424:../Middlewares/stm32-mw-camera/sensors/vd1943/vd1943.c **** 
 2543              		.loc 1 424 3 view .LVU724
 2544 0378 BDF81430 		ldrh	r3, [sp, #20]
 2545 037c 9DF81420 		ldrb	r2, [sp, #20]	@ zero_extendqisi2
 2546 0380 1B0A     		lsrs	r3, r3, #8
 2547 0382 0192     		str	r2, [sp, #4]
 2548 0384 0093     		str	r3, [sp]
 2549 0386 0221     		movs	r1, #2
 2550 0388 4FF4D473 		mov	r3, #424
 2551 038c 2046     		mov	r0, r4
 2552              	.LVL211:
 424:../Middlewares/stm32-mw-camera/sensors/vd1943/vd1943.c **** 
 2553              		.loc 1 424 3 is_stmt 0 view .LVU725
 2554 038e 824A     		ldr	r2, .L224+12
 2555 0390 FFF7FEFF 		bl	VD1943_log_impl
 2556              	.LVL212:
 424:../Middlewares/stm32-mw-camera/sensors/vd1943/vd1943.c **** 
 2557              		.loc 1 424 3 is_stmt 1 discriminator 1 view .LVU726
 426:../Middlewares/stm32-mw-camera/sensors/vd1943/vd1943.c **** }
 2558              		.loc 1 426 3 view .LVU727
 426:../Middlewares/stm32-mw-camera/sensors/vd1943/vd1943.c **** }
 2559              		.loc 1 426 3 is_stmt 0 view .LVU728
 2560              	.LBE80:
 2561              	.LBE79:
 748:../Middlewares/stm32-mw-camera/sensors/vd1943/vd1943.c ****       return ret;
 2562              		.loc 1 748 5 is_stmt 1 view .LVU729
 2563              	.L149:
ARM GAS  /tmp/ccydMd0r.s 			page 84


 752:../Middlewares/stm32-mw-camera/sensors/vd1943/vd1943.c ****   if (ret)
 2564              		.loc 1 752 3 view .LVU730
 2565              	.LBB82:
 2566              	.LBI82:
 429:../Middlewares/stm32-mw-camera/sensors/vd1943/vd1943.c **** {
 2567              		.loc 1 429 12 view .LVU731
 2568              	.LBB83:
 431:../Middlewares/stm32-mw-camera/sensors/vd1943/vd1943.c ****   int ret;
 2569              		.loc 1 431 3 view .LVU732
 432:../Middlewares/stm32-mw-camera/sensors/vd1943/vd1943.c **** 
 2570              		.loc 1 432 3 view .LVU733
 435:../Middlewares/stm32-mw-camera/sensors/vd1943/vd1943.c ****   VD1943_TraceError(ctx, ret);
 2571              		.loc 1 435 3 view .LVU734
 435:../Middlewares/stm32-mw-camera/sensors/vd1943/vd1943.c ****   VD1943_TraceError(ctx, ret);
 2572              		.loc 1 435 9 is_stmt 0 view .LVU735
 2573 0394 40F23471 		movw	r1, #1844
 2574 0398 2046     		mov	r0, r4
 2575 039a A369     		ldr	r3, [r4, #24]
 2576 039c A26B     		ldr	r2, [r4, #56]
 2577 039e 9847     		blx	r3
 2578              	.LVL213:
 436:../Middlewares/stm32-mw-camera/sensors/vd1943/vd1943.c **** 
 2579              		.loc 1 436 3 is_stmt 1 view .LVU736
 436:../Middlewares/stm32-mw-camera/sensors/vd1943/vd1943.c **** 
 2580              		.loc 1 436 3 view .LVU737
 2581 03a0 0546     		mov	r5, r0
 2582 03a2 48B1     		cbz	r0, .L158
 436:../Middlewares/stm32-mw-camera/sensors/vd1943/vd1943.c **** 
 2583              		.loc 1 436 3 discriminator 1 view .LVU738
 436:../Middlewares/stm32-mw-camera/sensors/vd1943/vd1943.c **** 
 2584              		.loc 1 436 3 discriminator 1 view .LVU739
 2585 03a4 4FF4DA73 		mov	r3, #436
 2586 03a8 7C4A     		ldr	r2, .L224+16
 2587 03aa 0290     		str	r0, [sp, #8]
 2588 03ac 0193     		str	r3, [sp, #4]
 2589 03ae C2E6     		b	.L217
 2590              	.LVL214:
 2591              	.L157:
 436:../Middlewares/stm32-mw-camera/sensors/vd1943/vd1943.c **** 
 2592              		.loc 1 436 3 is_stmt 0 discriminator 1 view .LVU740
 2593              	.LBE83:
 2594              	.LBE82:
 2595              	.LBB85:
 2596              	.LBB81:
 423:../Middlewares/stm32-mw-camera/sensors/vd1943/vd1943.c ****   VD1943_notice(ctx, "patch = %d.%d\n", reg16 >> 8, reg16 & 0xff);
 2597              		.loc 1 423 3 is_stmt 1 discriminator 1 view .LVU741
 423:../Middlewares/stm32-mw-camera/sensors/vd1943/vd1943.c ****   VD1943_notice(ctx, "patch = %d.%d\n", reg16 >> 8, reg16 & 0xff);
 2598              		.loc 1 423 3 discriminator 1 view .LVU742
 2599 03b0 40F2A713 		movw	r3, #423
 2600 03b4 0290     		str	r0, [sp, #8]
 2601 03b6 C7E7     		b	.L221
 2602              	.LVL215:
 2603              	.L158:
 423:../Middlewares/stm32-mw-camera/sensors/vd1943/vd1943.c ****   VD1943_notice(ctx, "patch = %d.%d\n", reg16 >> 8, reg16 & 0xff);
 2604              		.loc 1 423 3 is_stmt 0 discriminator 1 view .LVU743
 2605              	.LBE81:
 2606              	.LBE85:
ARM GAS  /tmp/ccydMd0r.s 			page 85


 2607              	.LBB86:
 2608              	.LBB84:
 436:../Middlewares/stm32-mw-camera/sensors/vd1943/vd1943.c **** 
 2609              		.loc 1 436 3 is_stmt 1 discriminator 6 view .LVU744
 436:../Middlewares/stm32-mw-camera/sensors/vd1943/vd1943.c **** 
 2610              		.loc 1 436 3 view .LVU745
 438:../Middlewares/stm32-mw-camera/sensors/vd1943/vd1943.c ****   if (ret)
 2611              		.loc 1 438 3 view .LVU746
 438:../Middlewares/stm32-mw-camera/sensors/vd1943/vd1943.c ****   if (ret)
 2612              		.loc 1 438 9 is_stmt 0 view .LVU747
 2613 03b8 1022     		movs	r2, #16
 2614 03ba 40F21551 		movw	r1, #1301
 2615 03be 2046     		mov	r0, r4
 2616              	.LVL216:
 438:../Middlewares/stm32-mw-camera/sensors/vd1943/vd1943.c ****   if (ret)
 2617              		.loc 1 438 9 view .LVU748
 2618 03c0 FFF7FEFF 		bl	VD1943_ApplyCmdAndWait
 2619              	.LVL217:
 439:../Middlewares/stm32-mw-camera/sensors/vd1943/vd1943.c ****     return ret;
 2620              		.loc 1 439 3 is_stmt 1 view .LVU749
 439:../Middlewares/stm32-mw-camera/sensors/vd1943/vd1943.c ****     return ret;
 2621              		.loc 1 439 6 is_stmt 0 view .LVU750
 2622 03c4 0546     		mov	r5, r0
 2623 03c6 0028     		cmp	r0, #0
 2624 03c8 7FF446AE 		bne	.L120
 442:../Middlewares/stm32-mw-camera/sensors/vd1943/vd1943.c ****   if (ret)
 2625              		.loc 1 442 3 is_stmt 1 view .LVU751
 442:../Middlewares/stm32-mw-camera/sensors/vd1943/vd1943.c ****   if (ret)
 2626              		.loc 1 442 9 is_stmt 0 view .LVU752
 2627 03cc 0321     		movs	r1, #3
 2628 03ce 2046     		mov	r0, r4
 2629              	.LVL218:
 442:../Middlewares/stm32-mw-camera/sensors/vd1943/vd1943.c ****   if (ret)
 2630              		.loc 1 442 9 view .LVU753
 2631 03d0 FFF7FEFF 		bl	VD1943_WaitState
 2632              	.LVL219:
 443:../Middlewares/stm32-mw-camera/sensors/vd1943/vd1943.c ****     return ret;
 2633              		.loc 1 443 3 is_stmt 1 view .LVU754
 443:../Middlewares/stm32-mw-camera/sensors/vd1943/vd1943.c ****     return ret;
 2634              		.loc 1 443 3 is_stmt 0 view .LVU755
 2635              	.LBE84:
 2636              	.LBE86:
 753:../Middlewares/stm32-mw-camera/sensors/vd1943/vd1943.c ****     return ret;
 2637              		.loc 1 753 3 is_stmt 1 view .LVU756
 753:../Middlewares/stm32-mw-camera/sensors/vd1943/vd1943.c ****     return ret;
 2638              		.loc 1 753 6 is_stmt 0 view .LVU757
 2639 03d4 0546     		mov	r5, r0
 2640 03d6 0028     		cmp	r0, #0
 2641 03d8 7FF43EAE 		bne	.L120
 756:../Middlewares/stm32-mw-camera/sensors/vd1943/vd1943.c ****     ret = VD1943_ApplyVTPatch(ctx);
 2642              		.loc 1 756 3 is_stmt 1 view .LVU758
 756:../Middlewares/stm32-mw-camera/sensors/vd1943/vd1943.c ****     ret = VD1943_ApplyVTPatch(ctx);
 2643              		.loc 1 756 6 is_stmt 0 view .LVU759
 2644 03dc 94F83130 		ldrb	r3, [r4, #49]	@ zero_extendqisi2
 2645 03e0 002B     		cmp	r3, #0
 2646 03e2 40F08880 		bne	.L159
 757:../Middlewares/stm32-mw-camera/sensors/vd1943/vd1943.c ****     if (ret)
ARM GAS  /tmp/ccydMd0r.s 			page 86


 2647              		.loc 1 757 5 is_stmt 1 view .LVU760
 2648              	.LVL220:
 2649              	.LBB87:
 2650              	.LBI87:
 449:../Middlewares/stm32-mw-camera/sensors/vd1943/vd1943.c **** {
 2651              		.loc 1 449 12 view .LVU761
 2652              	.LBB88:
 451:../Middlewares/stm32-mw-camera/sensors/vd1943/vd1943.c **** 
 2653              		.loc 1 451 3 view .LVU762
 453:../Middlewares/stm32-mw-camera/sensors/vd1943/vd1943.c ****   if (ret)
 2654              		.loc 1 453 3 view .LVU763
 453:../Middlewares/stm32-mw-camera/sensors/vd1943/vd1943.c ****   if (ret)
 2655              		.loc 1 453 9 is_stmt 0 view .LVU764
 2656 03e6 0322     		movs	r2, #3
 2657 03e8 40F21651 		movw	r1, #1302
 2658 03ec 2046     		mov	r0, r4
 2659              	.LVL221:
 453:../Middlewares/stm32-mw-camera/sensors/vd1943/vd1943.c ****   if (ret)
 2660              		.loc 1 453 9 view .LVU765
 2661 03ee FFF7FEFF 		bl	VD1943_ApplyCmdAndWait
 2662              	.LVL222:
 454:../Middlewares/stm32-mw-camera/sensors/vd1943/vd1943.c ****     return ret;
 2663              		.loc 1 454 3 is_stmt 1 view .LVU766
 454:../Middlewares/stm32-mw-camera/sensors/vd1943/vd1943.c ****     return ret;
 2664              		.loc 1 454 6 is_stmt 0 view .LVU767
 2665 03f2 0028     		cmp	r0, #0
 2666 03f4 7DD1     		bne	.L191
 457:../Middlewares/stm32-mw-camera/sensors/vd1943/vd1943.c ****   VD1943_TraceError(ctx, ret);
 2667              		.loc 1 457 3 is_stmt 1 view .LVU768
 457:../Middlewares/stm32-mw-camera/sensors/vd1943/vd1943.c ****   VD1943_TraceError(ctx, ret);
 2668              		.loc 1 457 9 is_stmt 0 view .LVU769
 2669 03f6 E669     		ldr	r6, [r4, #28]
 2670 03f8 4FF41873 		mov	r3, #608
 2671 03fc 45F6C031 		movw	r1, #23488
 2672 0400 2046     		mov	r0, r4
 2673              	.LVL223:
 457:../Middlewares/stm32-mw-camera/sensors/vd1943/vd1943.c ****   VD1943_TraceError(ctx, ret);
 2674              		.loc 1 457 9 view .LVU770
 2675 0402 674A     		ldr	r2, .L224+20
 2676 0404 B047     		blx	r6
 2677              	.LVL224:
 458:../Middlewares/stm32-mw-camera/sensors/vd1943/vd1943.c **** 
 2678              		.loc 1 458 3 is_stmt 1 view .LVU771
 458:../Middlewares/stm32-mw-camera/sensors/vd1943/vd1943.c **** 
 2679              		.loc 1 458 3 view .LVU772
 2680 0406 0646     		mov	r6, r0
 2681 0408 78B1     		cbz	r0, .L160
 458:../Middlewares/stm32-mw-camera/sensors/vd1943/vd1943.c **** 
 2682              		.loc 1 458 3 discriminator 1 view .LVU773
 458:../Middlewares/stm32-mw-camera/sensors/vd1943/vd1943.c **** 
 2683              		.loc 1 458 3 discriminator 1 view .LVU774
 2684 040a 4FF4E573 		mov	r3, #458
 2685 040e 0290     		str	r0, [sp, #8]
 2686              	.L218:
 473:../Middlewares/stm32-mw-camera/sensors/vd1943/vd1943.c **** 
 2687              		.loc 1 473 3 is_stmt 0 discriminator 1 view .LVU775
 2688 0410 644A     		ldr	r2, .L224+24
ARM GAS  /tmp/ccydMd0r.s 			page 87


 2689 0412 0021     		movs	r1, #0
 2690 0414 2046     		mov	r0, r4
 2691              	.LVL225:
 473:../Middlewares/stm32-mw-camera/sensors/vd1943/vd1943.c **** 
 2692              		.loc 1 473 3 discriminator 1 view .LVU776
 2693 0416 0193     		str	r3, [sp, #4]
 2694 0418 0092     		str	r2, [sp]
 2695 041a 634A     		ldr	r2, .L224+28
 2696 041c FFF7FEFF 		bl	VD1943_log_impl
 2697              	.LVL226:
 473:../Middlewares/stm32-mw-camera/sensors/vd1943/vd1943.c **** 
 2698              		.loc 1 473 3 is_stmt 1 discriminator 3 view .LVU777
 473:../Middlewares/stm32-mw-camera/sensors/vd1943/vd1943.c **** 
 2699              		.loc 1 473 3 discriminator 3 view .LVU778
 473:../Middlewares/stm32-mw-camera/sensors/vd1943/vd1943.c **** 
 2700              		.loc 1 473 3 discriminator 4 view .LVU779
 2701 0420 2046     		mov	r0, r4
 2702 0422 FFF7FEFF 		bl	display_error
 2703              	.LVL227:
 473:../Middlewares/stm32-mw-camera/sensors/vd1943/vd1943.c **** 
 2704              		.loc 1 473 3 discriminator 6 view .LVU780
 473:../Middlewares/stm32-mw-camera/sensors/vd1943/vd1943.c **** 
 2705              		.loc 1 473 3 discriminator 7 view .LVU781
 473:../Middlewares/stm32-mw-camera/sensors/vd1943/vd1943.c **** 
 2706              		.loc 1 473 3 is_stmt 0 discriminator 7 view .LVU782
 2707              	.LBE88:
 2708              	.LBE87:
 758:../Middlewares/stm32-mw-camera/sensors/vd1943/vd1943.c ****       return ret;
 2709              		.loc 1 758 5 is_stmt 1 view .LVU783
 759:../Middlewares/stm32-mw-camera/sensors/vd1943/vd1943.c ****   }
 2710              		.loc 1 759 14 is_stmt 0 view .LVU784
 2711 0426 3546     		mov	r5, r6
 2712 0428 16E6     		b	.L120
 2713              	.LVL228:
 2714              	.L160:
 2715              	.LBB91:
 2716              	.LBB89:
 458:../Middlewares/stm32-mw-camera/sensors/vd1943/vd1943.c **** 
 2717              		.loc 1 458 3 is_stmt 1 discriminator 6 view .LVU785
 458:../Middlewares/stm32-mw-camera/sensors/vd1943/vd1943.c **** 
 2718              		.loc 1 458 3 view .LVU786
 460:../Middlewares/stm32-mw-camera/sensors/vd1943/vd1943.c ****   VD1943_TraceError(ctx, ret);
 2719              		.loc 1 460 3 view .LVU787
 460:../Middlewares/stm32-mw-camera/sensors/vd1943/vd1943.c ****   VD1943_TraceError(ctx, ret);
 2720              		.loc 1 460 9 is_stmt 0 view .LVU788
 2721 042a E669     		ldr	r6, [r4, #28]
 2722 042c 4FF49673 		mov	r3, #300
 2723 0430 45F64061 		movw	r1, #24128
 2724 0434 2046     		mov	r0, r4
 2725              	.LVL229:
 460:../Middlewares/stm32-mw-camera/sensors/vd1943/vd1943.c ****   VD1943_TraceError(ctx, ret);
 2726              		.loc 1 460 9 view .LVU789
 2727 0436 5D4A     		ldr	r2, .L224+32
 2728 0438 B047     		blx	r6
 2729              	.LVL230:
 461:../Middlewares/stm32-mw-camera/sensors/vd1943/vd1943.c **** 
 2730              		.loc 1 461 3 is_stmt 1 view .LVU790
ARM GAS  /tmp/ccydMd0r.s 			page 88


 461:../Middlewares/stm32-mw-camera/sensors/vd1943/vd1943.c **** 
 2731              		.loc 1 461 3 view .LVU791
 2732 043a 0646     		mov	r6, r0
 2733 043c 60B9     		cbnz	r0, .L161
 461:../Middlewares/stm32-mw-camera/sensors/vd1943/vd1943.c **** 
 2734              		.loc 1 461 3 discriminator 3 view .LVU792
 461:../Middlewares/stm32-mw-camera/sensors/vd1943/vd1943.c **** 
 2735              		.loc 1 461 3 discriminator 3 view .LVU793
 461:../Middlewares/stm32-mw-camera/sensors/vd1943/vd1943.c **** 
 2736              		.loc 1 461 3 discriminator 6 view .LVU794
 461:../Middlewares/stm32-mw-camera/sensors/vd1943/vd1943.c **** 
 2737              		.loc 1 461 3 view .LVU795
 463:../Middlewares/stm32-mw-camera/sensors/vd1943/vd1943.c ****   VD1943_TraceError(ctx, ret);
 2738              		.loc 1 463 3 view .LVU796
 463:../Middlewares/stm32-mw-camera/sensors/vd1943/vd1943.c ****   VD1943_TraceError(ctx, ret);
 2739              		.loc 1 463 9 is_stmt 0 view .LVU797
 2740 043e E669     		ldr	r6, [r4, #28]
 2741 0440 D823     		movs	r3, #216
 2742 0442 4FF4BF41 		mov	r1, #24448
 2743 0446 2046     		mov	r0, r4
 2744              	.LVL231:
 463:../Middlewares/stm32-mw-camera/sensors/vd1943/vd1943.c ****   VD1943_TraceError(ctx, ret);
 2745              		.loc 1 463 9 view .LVU798
 2746 0448 594A     		ldr	r2, .L224+36
 2747 044a B047     		blx	r6
 2748              	.LVL232:
 464:../Middlewares/stm32-mw-camera/sensors/vd1943/vd1943.c **** 
 2749              		.loc 1 464 3 is_stmt 1 view .LVU799
 464:../Middlewares/stm32-mw-camera/sensors/vd1943/vd1943.c **** 
 2750              		.loc 1 464 3 view .LVU800
 2751 044c 0646     		mov	r6, r0
 2752 044e 38B1     		cbz	r0, .L201
 464:../Middlewares/stm32-mw-camera/sensors/vd1943/vd1943.c **** 
 2753              		.loc 1 464 3 discriminator 1 view .LVU801
 464:../Middlewares/stm32-mw-camera/sensors/vd1943/vd1943.c **** 
 2754              		.loc 1 464 3 discriminator 1 view .LVU802
 2755 0450 4FF4E873 		mov	r3, #464
 2756 0454 0290     		str	r0, [sp, #8]
 2757 0456 DBE7     		b	.L218
 2758              	.L161:
 461:../Middlewares/stm32-mw-camera/sensors/vd1943/vd1943.c **** 
 2759              		.loc 1 461 3 discriminator 1 view .LVU803
 461:../Middlewares/stm32-mw-camera/sensors/vd1943/vd1943.c **** 
 2760              		.loc 1 461 3 discriminator 1 view .LVU804
 2761 0458 40F2CD13 		movw	r3, #461
 2762 045c 0290     		str	r0, [sp, #8]
 2763 045e D7E7     		b	.L218
 2764              	.L201:
 464:../Middlewares/stm32-mw-camera/sensors/vd1943/vd1943.c **** 
 2765              		.loc 1 464 3 discriminator 3 view .LVU805
 464:../Middlewares/stm32-mw-camera/sensors/vd1943/vd1943.c **** 
 2766              		.loc 1 464 3 discriminator 3 view .LVU806
 464:../Middlewares/stm32-mw-camera/sensors/vd1943/vd1943.c **** 
 2767              		.loc 1 464 3 discriminator 6 view .LVU807
 464:../Middlewares/stm32-mw-camera/sensors/vd1943/vd1943.c **** 
 2768              		.loc 1 464 3 view .LVU808
 466:../Middlewares/stm32-mw-camera/sensors/vd1943/vd1943.c ****   VD1943_TraceError(ctx, ret);
ARM GAS  /tmp/ccydMd0r.s 			page 89


 2769              		.loc 1 466 3 view .LVU809
 466:../Middlewares/stm32-mw-camera/sensors/vd1943/vd1943.c ****   VD1943_TraceError(ctx, ret);
 2770              		.loc 1 466 9 is_stmt 0 view .LVU810
 2771 0460 E669     		ldr	r6, [r4, #28]
 2772 0462 A023     		movs	r3, #160
 2773 0464 46F2C001 		movw	r1, #24768
 2774 0468 2046     		mov	r0, r4
 2775              	.LVL233:
 466:../Middlewares/stm32-mw-camera/sensors/vd1943/vd1943.c ****   VD1943_TraceError(ctx, ret);
 2776              		.loc 1 466 9 view .LVU811
 2777 046a 524A     		ldr	r2, .L224+40
 2778 046c B047     		blx	r6
 2779              	.LVL234:
 467:../Middlewares/stm32-mw-camera/sensors/vd1943/vd1943.c **** 
 2780              		.loc 1 467 3 is_stmt 1 view .LVU812
 467:../Middlewares/stm32-mw-camera/sensors/vd1943/vd1943.c **** 
 2781              		.loc 1 467 3 view .LVU813
 2782 046e 0646     		mov	r6, r0
 2783 0470 18B1     		cbz	r0, .L202
 467:../Middlewares/stm32-mw-camera/sensors/vd1943/vd1943.c **** 
 2784              		.loc 1 467 3 discriminator 1 view .LVU814
 467:../Middlewares/stm32-mw-camera/sensors/vd1943/vd1943.c **** 
 2785              		.loc 1 467 3 discriminator 1 view .LVU815
 2786 0472 40F2D313 		movw	r3, #467
 2787 0476 0290     		str	r0, [sp, #8]
 2788 0478 CAE7     		b	.L218
 2789              	.L202:
 467:../Middlewares/stm32-mw-camera/sensors/vd1943/vd1943.c **** 
 2790              		.loc 1 467 3 discriminator 3 view .LVU816
 467:../Middlewares/stm32-mw-camera/sensors/vd1943/vd1943.c **** 
 2791              		.loc 1 467 3 discriminator 3 view .LVU817
 467:../Middlewares/stm32-mw-camera/sensors/vd1943/vd1943.c **** 
 2792              		.loc 1 467 3 discriminator 6 view .LVU818
 467:../Middlewares/stm32-mw-camera/sensors/vd1943/vd1943.c **** 
 2793              		.loc 1 467 3 view .LVU819
 469:../Middlewares/stm32-mw-camera/sensors/vd1943/vd1943.c ****   VD1943_TraceError(ctx, ret);
 2794              		.loc 1 469 3 view .LVU820
 469:../Middlewares/stm32-mw-camera/sensors/vd1943/vd1943.c ****   VD1943_TraceError(ctx, ret);
 2795              		.loc 1 469 9 is_stmt 0 view .LVU821
 2796 047a E669     		ldr	r6, [r4, #28]
 2797 047c A423     		movs	r3, #164
 2798 047e 46F26011 		movw	r1, #24928
 2799 0482 2046     		mov	r0, r4
 2800              	.LVL235:
 469:../Middlewares/stm32-mw-camera/sensors/vd1943/vd1943.c ****   VD1943_TraceError(ctx, ret);
 2801              		.loc 1 469 9 view .LVU822
 2802 0484 4C4A     		ldr	r2, .L224+44
 2803 0486 B047     		blx	r6
 2804              	.LVL236:
 470:../Middlewares/stm32-mw-camera/sensors/vd1943/vd1943.c **** 
 2805              		.loc 1 470 3 is_stmt 1 view .LVU823
 470:../Middlewares/stm32-mw-camera/sensors/vd1943/vd1943.c **** 
 2806              		.loc 1 470 3 view .LVU824
 2807 0488 0646     		mov	r6, r0
 2808 048a 18B1     		cbz	r0, .L203
 470:../Middlewares/stm32-mw-camera/sensors/vd1943/vd1943.c **** 
 2809              		.loc 1 470 3 discriminator 1 view .LVU825
ARM GAS  /tmp/ccydMd0r.s 			page 90


 470:../Middlewares/stm32-mw-camera/sensors/vd1943/vd1943.c **** 
 2810              		.loc 1 470 3 discriminator 1 view .LVU826
 2811 048c 4FF4EB73 		mov	r3, #470
 2812 0490 0290     		str	r0, [sp, #8]
 2813 0492 BDE7     		b	.L218
 2814              	.L203:
 470:../Middlewares/stm32-mw-camera/sensors/vd1943/vd1943.c **** 
 2815              		.loc 1 470 3 discriminator 3 view .LVU827
 470:../Middlewares/stm32-mw-camera/sensors/vd1943/vd1943.c **** 
 2816              		.loc 1 470 3 discriminator 3 view .LVU828
 470:../Middlewares/stm32-mw-camera/sensors/vd1943/vd1943.c **** 
 2817              		.loc 1 470 3 discriminator 6 view .LVU829
 470:../Middlewares/stm32-mw-camera/sensors/vd1943/vd1943.c **** 
 2818              		.loc 1 470 3 view .LVU830
 472:../Middlewares/stm32-mw-camera/sensors/vd1943/vd1943.c ****   VD1943_TraceError(ctx, ret);
 2819              		.loc 1 472 3 view .LVU831
 472:../Middlewares/stm32-mw-camera/sensors/vd1943/vd1943.c ****   VD1943_TraceError(ctx, ret);
 2820              		.loc 1 472 9 is_stmt 0 view .LVU832
 2821 0494 E669     		ldr	r6, [r4, #28]
 2822 0496 4FF4C363 		mov	r3, #1560
 2823 049a 46F6C021 		movw	r1, #27328
 2824 049e 2046     		mov	r0, r4
 2825              	.LVL237:
 472:../Middlewares/stm32-mw-camera/sensors/vd1943/vd1943.c ****   VD1943_TraceError(ctx, ret);
 2826              		.loc 1 472 9 view .LVU833
 2827 04a0 464A     		ldr	r2, .L224+48
 2828 04a2 B047     		blx	r6
 2829              	.LVL238:
 473:../Middlewares/stm32-mw-camera/sensors/vd1943/vd1943.c **** 
 2830              		.loc 1 473 3 is_stmt 1 view .LVU834
 473:../Middlewares/stm32-mw-camera/sensors/vd1943/vd1943.c **** 
 2831              		.loc 1 473 3 view .LVU835
 2832 04a4 0646     		mov	r6, r0
 2833 04a6 18B1     		cbz	r0, .L204
 473:../Middlewares/stm32-mw-camera/sensors/vd1943/vd1943.c **** 
 2834              		.loc 1 473 3 discriminator 1 view .LVU836
 473:../Middlewares/stm32-mw-camera/sensors/vd1943/vd1943.c **** 
 2835              		.loc 1 473 3 discriminator 1 view .LVU837
 2836 04a8 40F2D913 		movw	r3, #473
 2837 04ac 0290     		str	r0, [sp, #8]
 2838 04ae AFE7     		b	.L218
 2839              	.L204:
 473:../Middlewares/stm32-mw-camera/sensors/vd1943/vd1943.c **** 
 2840              		.loc 1 473 3 discriminator 3 view .LVU838
 473:../Middlewares/stm32-mw-camera/sensors/vd1943/vd1943.c **** 
 2841              		.loc 1 473 3 discriminator 3 view .LVU839
 473:../Middlewares/stm32-mw-camera/sensors/vd1943/vd1943.c **** 
 2842              		.loc 1 473 3 discriminator 6 view .LVU840
 473:../Middlewares/stm32-mw-camera/sensors/vd1943/vd1943.c **** 
 2843              		.loc 1 473 3 view .LVU841
 475:../Middlewares/stm32-mw-camera/sensors/vd1943/vd1943.c ****   VD1943_TraceError(ctx, ret);
 2844              		.loc 1 475 3 view .LVU842
 475:../Middlewares/stm32-mw-camera/sensors/vd1943/vd1943.c ****   VD1943_TraceError(ctx, ret);
 2845              		.loc 1 475 9 is_stmt 0 view .LVU843
 2846 04b0 E769     		ldr	r7, [r4, #28]
 2847 04b2 4FF41C73 		mov	r3, #624
 2848 04b6 4FF4A041 		mov	r1, #20480
ARM GAS  /tmp/ccydMd0r.s 			page 91


 2849 04ba 2046     		mov	r0, r4
 2850              	.LVL239:
 475:../Middlewares/stm32-mw-camera/sensors/vd1943/vd1943.c ****   VD1943_TraceError(ctx, ret);
 2851              		.loc 1 475 9 view .LVU844
 2852 04bc 404A     		ldr	r2, .L224+52
 2853 04be B847     		blx	r7
 2854              	.LVL240:
 476:../Middlewares/stm32-mw-camera/sensors/vd1943/vd1943.c **** 
 2855              		.loc 1 476 3 is_stmt 1 view .LVU845
 476:../Middlewares/stm32-mw-camera/sensors/vd1943/vd1943.c **** 
 2856              		.loc 1 476 3 view .LVU846
 2857 04c0 0746     		mov	r7, r0
 2858 04c2 78B1     		cbz	r0, .L205
 476:../Middlewares/stm32-mw-camera/sensors/vd1943/vd1943.c **** 
 2859              		.loc 1 476 3 discriminator 1 view .LVU847
 476:../Middlewares/stm32-mw-camera/sensors/vd1943/vd1943.c **** 
 2860              		.loc 1 476 3 discriminator 1 view .LVU848
 2861 04c4 4FF4EE73 		mov	r3, #476
 2862 04c8 364A     		ldr	r2, .L224+24
 2863 04ca 3146     		mov	r1, r6
 2864 04cc 0290     		str	r0, [sp, #8]
 2865 04ce 0193     		str	r3, [sp, #4]
 2866 04d0 2046     		mov	r0, r4
 2867              	.LVL241:
 476:../Middlewares/stm32-mw-camera/sensors/vd1943/vd1943.c **** 
 2868              		.loc 1 476 3 is_stmt 0 discriminator 1 view .LVU849
 2869 04d2 0092     		str	r2, [sp]
 2870 04d4 344A     		ldr	r2, .L224+28
 2871 04d6 FFF7FEFF 		bl	VD1943_log_impl
 2872              	.LVL242:
 476:../Middlewares/stm32-mw-camera/sensors/vd1943/vd1943.c **** 
 2873              		.loc 1 476 3 is_stmt 1 discriminator 3 view .LVU850
 476:../Middlewares/stm32-mw-camera/sensors/vd1943/vd1943.c **** 
 2874              		.loc 1 476 3 discriminator 3 view .LVU851
 476:../Middlewares/stm32-mw-camera/sensors/vd1943/vd1943.c **** 
 2875              		.loc 1 476 3 discriminator 4 view .LVU852
 2876 04da 2046     		mov	r0, r4
 2877 04dc FFF7FEFF 		bl	display_error
 2878              	.LVL243:
 476:../Middlewares/stm32-mw-camera/sensors/vd1943/vd1943.c **** 
 2879              		.loc 1 476 3 discriminator 6 view .LVU853
 476:../Middlewares/stm32-mw-camera/sensors/vd1943/vd1943.c **** 
 2880              		.loc 1 476 3 discriminator 7 view .LVU854
 476:../Middlewares/stm32-mw-camera/sensors/vd1943/vd1943.c **** 
 2881              		.loc 1 476 3 is_stmt 0 discriminator 7 view .LVU855
 2882              	.LBE89:
 2883              	.LBE91:
 758:../Middlewares/stm32-mw-camera/sensors/vd1943/vd1943.c ****       return ret;
 2884              		.loc 1 758 5 is_stmt 1 view .LVU856
 759:../Middlewares/stm32-mw-camera/sensors/vd1943/vd1943.c ****   }
 2885              		.loc 1 759 14 is_stmt 0 view .LVU857
 2886 04e0 3D46     		mov	r5, r7
 2887 04e2 B9E5     		b	.L120
 2888              	.LVL244:
 2889              	.L205:
 2890              	.LBB92:
 2891              	.LBB90:
ARM GAS  /tmp/ccydMd0r.s 			page 92


 476:../Middlewares/stm32-mw-camera/sensors/vd1943/vd1943.c **** 
 2892              		.loc 1 476 3 is_stmt 1 discriminator 3 view .LVU858
 476:../Middlewares/stm32-mw-camera/sensors/vd1943/vd1943.c **** 
 2893              		.loc 1 476 3 discriminator 3 view .LVU859
 476:../Middlewares/stm32-mw-camera/sensors/vd1943/vd1943.c **** 
 2894              		.loc 1 476 3 discriminator 6 view .LVU860
 476:../Middlewares/stm32-mw-camera/sensors/vd1943/vd1943.c **** 
 2895              		.loc 1 476 3 view .LVU861
 478:../Middlewares/stm32-mw-camera/sensors/vd1943/vd1943.c ****   if (ret)
 2896              		.loc 1 478 3 view .LVU862
 478:../Middlewares/stm32-mw-camera/sensors/vd1943/vd1943.c ****   if (ret)
 2897              		.loc 1 478 9 is_stmt 0 view .LVU863
 2898 04e4 0422     		movs	r2, #4
 2899 04e6 40F21651 		movw	r1, #1302
 2900 04ea 2046     		mov	r0, r4
 2901              	.LVL245:
 478:../Middlewares/stm32-mw-camera/sensors/vd1943/vd1943.c ****   if (ret)
 2902              		.loc 1 478 9 view .LVU864
 2903 04ec FFF7FEFF 		bl	VD1943_ApplyCmdAndWait
 2904              	.LVL246:
 479:../Middlewares/stm32-mw-camera/sensors/vd1943/vd1943.c ****     return ret;
 2905              		.loc 1 479 3 is_stmt 1 view .LVU865
 479:../Middlewares/stm32-mw-camera/sensors/vd1943/vd1943.c ****     return ret;
 2906              		.loc 1 479 3 is_stmt 0 view .LVU866
 2907              	.LBE90:
 2908              	.LBE92:
 758:../Middlewares/stm32-mw-camera/sensors/vd1943/vd1943.c ****       return ret;
 2909              		.loc 1 758 5 is_stmt 1 view .LVU867
 758:../Middlewares/stm32-mw-camera/sensors/vd1943/vd1943.c ****       return ret;
 2910              		.loc 1 758 8 is_stmt 0 view .LVU868
 2911 04f0 08B1     		cbz	r0, .L159
 2912              	.LVL247:
 2913              	.L191:
 759:../Middlewares/stm32-mw-camera/sensors/vd1943/vd1943.c ****   }
 2914              		.loc 1 759 14 view .LVU869
 2915 04f2 0546     		mov	r5, r0
 2916              	.LVL248:
 759:../Middlewares/stm32-mw-camera/sensors/vd1943/vd1943.c ****   }
 2917              		.loc 1 759 14 view .LVU870
 2918 04f4 B0E5     		b	.L120
 2919              	.LVL249:
 2920              	.L159:
 762:../Middlewares/stm32-mw-camera/sensors/vd1943/vd1943.c ****   if (ret)
 2921              		.loc 1 762 3 is_stmt 1 view .LVU871
 2922              	.LBB93:
 2923              	.LBI55:
 655:../Middlewares/stm32-mw-camera/sensors/vd1943/vd1943.c **** {
 2924              		.loc 1 655 12 view .LVU872
 2925              	.LBB67:
 657:../Middlewares/stm32-mw-camera/sensors/vd1943/vd1943.c **** 
 2926              		.loc 1 657 3 view .LVU873
 659:../Middlewares/stm32-mw-camera/sensors/vd1943/vd1943.c ****     // Monochrom variant, force Bayer None (= Mono)  
 2927              		.loc 1 659 3 view .LVU874
 659:../Middlewares/stm32-mw-camera/sensors/vd1943/vd1943.c ****     // Monochrom variant, force Bayer None (= Mono)  
 2928              		.loc 1 659 6 is_stmt 0 view .LVU875
 2929 04f6 94F83030 		ldrb	r3, [r4, #48]	@ zero_extendqisi2
 2930 04fa 6BBB     		cbnz	r3, .L172
ARM GAS  /tmp/ccydMd0r.s 			page 93


 663:../Middlewares/stm32-mw-camera/sensors/vd1943/vd1943.c ****   case VD1943_GS_SS1_RGB_8:
 2931              		.loc 1 663 3 is_stmt 1 view .LVU876
 663:../Middlewares/stm32-mw-camera/sensors/vd1943/vd1943.c ****   case VD1943_GS_SS1_RGB_8:
 2932              		.loc 1 663 38 is_stmt 0 view .LVU877
 2933 04fc 94F84430 		ldrb	r3, [r4, #68]	@ zero_extendqisi2
 663:../Middlewares/stm32-mw-camera/sensors/vd1943/vd1943.c ****   case VD1943_GS_SS1_RGB_8:
 2934              		.loc 1 663 3 view .LVU878
 2935 0500 042B     		cmp	r3, #4
 2936 0502 05D8     		bhi	.L173
 2937 0504 ABB9     		cbnz	r3, .L174
 2938              	.L175:
 696:../Middlewares/stm32-mw-camera/sensors/vd1943/vd1943.c ****   }
 2939              		.loc 1 696 5 is_stmt 1 view .LVU879
 2940 0506 4FF42E71 		mov	r1, #696
 2941 050a 2E4B     		ldr	r3, .L224+56
 2942 050c 2E4A     		ldr	r2, .L224+60
 2943 050e 25E6     		b	.L219
 2944              	.L173:
 663:../Middlewares/stm32-mw-camera/sensors/vd1943/vd1943.c ****   case VD1943_GS_SS1_RGB_8:
 2945              		.loc 1 663 3 is_stmt 0 view .LVU880
 2946 0510 053B     		subs	r3, r3, #5
 2947 0512 DBB2     		uxtb	r3, r3
 2948 0514 1E2B     		cmp	r3, #30
 2949 0516 F6D8     		bhi	.L175
 2950 0518 0122     		movs	r2, #1
 2951 051a 02FA03F3 		lsl	r3, r2, r3
 2952 051e 43F6F072 		movw	r2, #16368
 2953 0522 1342     		tst	r3, r2
 2954 0524 18D1     		bne	.L172
 2955 0526 294A     		ldr	r2, .L224+64
 2956 0528 1342     		tst	r3, r2
 2957 052a 0AD1     		bne	.L176
 2958 052c 13F0C75F 		tst	r3, #417333248
 2959 0530 E9D0     		beq	.L175
 2960              	.L174:
 672:../Middlewares/stm32-mw-camera/sensors/vd1943/vd1943.c ****   case VD1943_GS_SS1_NATIVE_8:
 2961              		.loc 1 672 5 is_stmt 1 view .LVU881
 682:../Middlewares/stm32-mw-camera/sensors/vd1943/vd1943.c ****     break;
 2962              		.loc 1 682 5 view .LVU882
 2963              	.LVL250:
 2964              	.LBB61:
 2965              	.LBI61:
 631:../Middlewares/stm32-mw-camera/sensors/vd1943/vd1943.c **** {
 2966              		.loc 1 631 12 view .LVU883
 2967              	.LBB62:
 633:../Middlewares/stm32-mw-camera/sensors/vd1943/vd1943.c **** 
 2968              		.loc 1 633 3 view .LVU884
 635:../Middlewares/stm32-mw-camera/sensors/vd1943/vd1943.c ****   case VD1943_MIRROR_FLIP_NONE:
 2969              		.loc 1 635 3 view .LVU885
 2970 0532 94F84530 		ldrb	r3, [r4, #69]	@ zero_extendqisi2
 2971 0536 032B     		cmp	r3, #3
 2972 0538 22D8     		bhi	.L183
 2973 053a DFE803F0 		tbb	[pc, r3]
 2974              	.L185:
 2975 053e 19       		.byte	(.L188-.L185)/2
 2976 053f 1B       		.byte	(.L187-.L185)/2
 2977 0540 1D       		.byte	(.L186-.L185)/2
ARM GAS  /tmp/ccydMd0r.s 			page 94


 2978 0541 1F       		.byte	(.L184-.L185)/2
 2979              	.LVL251:
 2980              		.p2align 1
 2981              	.L176:
 635:../Middlewares/stm32-mw-camera/sensors/vd1943/vd1943.c ****   case VD1943_MIRROR_FLIP_NONE:
 2982              		.loc 1 635 3 is_stmt 0 view .LVU886
 2983              	.LBE62:
 2984              	.LBE61:
 671:../Middlewares/stm32-mw-camera/sensors/vd1943/vd1943.c ****     break;
 2985              		.loc 1 671 5 is_stmt 1 view .LVU887
 2986              	.LBB64:
 2987              	.LBI57:
 607:../Middlewares/stm32-mw-camera/sensors/vd1943/vd1943.c **** {
 2988              		.loc 1 607 12 view .LVU888
 2989              	.LBB59:
 609:../Middlewares/stm32-mw-camera/sensors/vd1943/vd1943.c **** 
 2990              		.loc 1 609 3 view .LVU889
 611:../Middlewares/stm32-mw-camera/sensors/vd1943/vd1943.c ****   case VD1943_MIRROR_FLIP_NONE:
 2991              		.loc 1 611 3 view .LVU890
 2992 0542 94F84530 		ldrb	r3, [r4, #69]	@ zero_extendqisi2
 2993 0546 032B     		cmp	r3, #3
 2994 0548 0DD8     		bhi	.L178
 2995 054a DFE803F0 		tbb	[pc, r3]
 2996              	.L180:
 2997 054e 02       		.byte	(.L179-.L180)/2
 2998 054f 08       		.byte	(.L182-.L180)/2
 2999 0550 0A       		.byte	(.L181-.L180)/2
 3000 0551 02       		.byte	(.L179-.L180)/2
 3001              		.p2align 1
 3002              	.L179:
 613:../Middlewares/stm32-mw-camera/sensors/vd1943/vd1943.c ****     break;
 3003              		.loc 1 613 5 view .LVU891
 613:../Middlewares/stm32-mw-camera/sensors/vd1943/vd1943.c ****     break;
 3004              		.loc 1 613 16 is_stmt 0 view .LVU892
 3005 0552 0323     		movs	r3, #3
 3006              	.LVL252:
 3007              	.L215:
 616:../Middlewares/stm32-mw-camera/sensors/vd1943/vd1943.c ****     break;
 3008              		.loc 1 616 16 view .LVU893
 3009 0554 84F82830 		strb	r3, [r4, #40]
 617:../Middlewares/stm32-mw-camera/sensors/vd1943/vd1943.c ****   case VD1943_MIRROR:
 3010              		.loc 1 617 5 is_stmt 1 view .LVU894
 3011              	.LVL253:
 617:../Middlewares/stm32-mw-camera/sensors/vd1943/vd1943.c ****   case VD1943_MIRROR:
 3012              		.loc 1 617 5 is_stmt 0 view .LVU895
 3013              	.LBE59:
 3014              	.LBE64:
 3015              	.LBE67:
 3016              	.LBE93:
 3017              	.LBE97:
 3018              	.LBE104:
1499:../Middlewares/stm32-mw-camera/sensors/vd1943/vd1943.c ****     return ret;
 3019              		.loc 1 1499 3 is_stmt 1 view .LVU896
 3020              	.L172:
1502:../Middlewares/stm32-mw-camera/sensors/vd1943/vd1943.c **** 
 3021              		.loc 1 1502 3 view .LVU897
1502:../Middlewares/stm32-mw-camera/sensors/vd1943/vd1943.c **** 
ARM GAS  /tmp/ccydMd0r.s 			page 95


 3022              		.loc 1 1502 25 is_stmt 0 view .LVU898
 3023 0558 0023     		movs	r3, #0
 3024 055a E362     		str	r3, [r4, #44]
1504:../Middlewares/stm32-mw-camera/sensors/vd1943/vd1943.c **** }
 3025              		.loc 1 1504 3 is_stmt 1 view .LVU899
1504:../Middlewares/stm32-mw-camera/sensors/vd1943/vd1943.c **** }
 3026              		.loc 1 1504 10 is_stmt 0 view .LVU900
 3027 055c 7CE5     		b	.L120
 3028              	.LVL254:
 3029              	.L182:
 3030              	.LBB105:
 3031              	.LBB98:
 3032              	.LBB94:
 3033              	.LBB68:
 3034              	.LBB65:
 3035              	.LBB60:
 616:../Middlewares/stm32-mw-camera/sensors/vd1943/vd1943.c ****     break;
 3036              		.loc 1 616 5 is_stmt 1 view .LVU901
 616:../Middlewares/stm32-mw-camera/sensors/vd1943/vd1943.c ****     break;
 3037              		.loc 1 616 16 is_stmt 0 view .LVU902
 3038 055e 0123     		movs	r3, #1
 3039 0560 F8E7     		b	.L215
 3040              	.L181:
 619:../Middlewares/stm32-mw-camera/sensors/vd1943/vd1943.c ****     break;
 3041              		.loc 1 619 5 is_stmt 1 view .LVU903
 619:../Middlewares/stm32-mw-camera/sensors/vd1943/vd1943.c ****     break;
 3042              		.loc 1 619 16 is_stmt 0 view .LVU904
 3043 0562 0423     		movs	r3, #4
 3044 0564 F6E7     		b	.L215
 3045              	.L178:
 625:../Middlewares/stm32-mw-camera/sensors/vd1943/vd1943.c ****   }
 3046              		.loc 1 625 5 is_stmt 1 view .LVU905
 3047 0566 40F27121 		movw	r1, #625
 3048 056a 164B     		ldr	r3, .L224+56
 3049 056c 184A     		ldr	r2, .L224+68
 3050 056e F5E5     		b	.L219
 3051              	.LVL255:
 3052              	.L188:
 625:../Middlewares/stm32-mw-camera/sensors/vd1943/vd1943.c ****   }
 3053              		.loc 1 625 5 is_stmt 0 view .LVU906
 3054              	.LBE60:
 3055              	.LBE65:
 3056              	.LBB66:
 3057              	.LBB63:
 637:../Middlewares/stm32-mw-camera/sensors/vd1943/vd1943.c ****     break;
 3058              		.loc 1 637 5 is_stmt 1 view .LVU907
 637:../Middlewares/stm32-mw-camera/sensors/vd1943/vd1943.c ****     break;
 3059              		.loc 1 637 16 is_stmt 0 view .LVU908
 3060 0570 0523     		movs	r3, #5
 3061 0572 EFE7     		b	.L215
 3062              	.L187:
 640:../Middlewares/stm32-mw-camera/sensors/vd1943/vd1943.c ****     break;
 3063              		.loc 1 640 5 is_stmt 1 view .LVU909
 640:../Middlewares/stm32-mw-camera/sensors/vd1943/vd1943.c ****     break;
 3064              		.loc 1 640 16 is_stmt 0 view .LVU910
 3065 0574 0723     		movs	r3, #7
 3066 0576 EDE7     		b	.L215
ARM GAS  /tmp/ccydMd0r.s 			page 96


 3067              	.L186:
 643:../Middlewares/stm32-mw-camera/sensors/vd1943/vd1943.c ****     break;
 3068              		.loc 1 643 5 is_stmt 1 view .LVU911
 643:../Middlewares/stm32-mw-camera/sensors/vd1943/vd1943.c ****     break;
 3069              		.loc 1 643 16 is_stmt 0 view .LVU912
 3070 0578 0623     		movs	r3, #6
 3071 057a EBE7     		b	.L215
 3072              	.L184:
 646:../Middlewares/stm32-mw-camera/sensors/vd1943/vd1943.c ****     break;
 3073              		.loc 1 646 5 is_stmt 1 view .LVU913
 646:../Middlewares/stm32-mw-camera/sensors/vd1943/vd1943.c ****     break;
 3074              		.loc 1 646 16 is_stmt 0 view .LVU914
 3075 057c 0823     		movs	r3, #8
 3076 057e E9E7     		b	.L215
 3077              	.L183:
 649:../Middlewares/stm32-mw-camera/sensors/vd1943/vd1943.c ****   }
 3078              		.loc 1 649 5 is_stmt 1 view .LVU915
 3079 0580 40F28921 		movw	r1, #649
 3080 0584 0F4B     		ldr	r3, .L224+56
 3081 0586 134A     		ldr	r2, .L224+72
 3082 0588 E8E5     		b	.L219
 3083              	.L225:
 3084 058a 00BF     		.align	2
 3085              	.L224:
 3086 058c 00000000 		.word	fw_patch_13_mono_array
 3087 0590 00000000 		.word	__func__.22
 3088 0594 00000000 		.word	fw_patch_13_rgbnir_array
 3089 0598 8B010000 		.word	.LC19
 3090 059c 00000000 		.word	__func__.21
 3091 05a0 00000000 		.word	gt_ram_pat_content
 3092 05a4 00000000 		.word	__func__.20
 3093 05a8 00000000 		.word	.LC4
 3094 05ac 00000000 		.word	gt_ram_seq1_content
 3095 05b0 00000000 		.word	gt_ram_seq2_content
 3096 05b4 00000000 		.word	gt_ram_seq3_content
 3097 05b8 00000000 		.word	gt_ram_seq4_content
 3098 05bc 00000000 		.word	rd_ram_pat_content
 3099 05c0 00000000 		.word	rd_ram_seq1_content
 3100 05c4 B1000000 		.word	.LC13
 3101 05c8 00000000 		.word	__func__.19
 3102 05cc 03000067 		.word	1728053251
 3103 05d0 00000000 		.word	__func__.18
 3104 05d4 00000000 		.word	__func__.17
 3105              	.LBE63:
 3106              	.LBE66:
 3107              	.LBE68:
 3108              	.LBE94:
 3109              	.LBE98:
 3110              	.LBE105:
 3111              		.cfi_endproc
 3112              	.LFE46:
 3114              		.section	.text.VD1943_DeInit,"ax",%progbits
 3115              		.align	1
 3116              		.global	VD1943_DeInit
 3117              		.syntax unified
 3118              		.thumb
 3119              		.thumb_func
ARM GAS  /tmp/ccydMd0r.s 			page 97


 3121              	VD1943_DeInit:
 3122              	.LVL256:
 3123              	.LFB47:
1506:../Middlewares/stm32-mw-camera/sensors/vd1943/vd1943.c **** 
1507:../Middlewares/stm32-mw-camera/sensors/vd1943/vd1943.c **** int VD1943_DeInit(VD1943_Ctx_t *ctx)
1508:../Middlewares/stm32-mw-camera/sensors/vd1943/vd1943.c **** {
 3124              		.loc 1 1508 1 view -0
 3125              		.cfi_startproc
 3126              		@ args = 0, pretend = 0, frame = 0
 3127              		@ frame_needed = 0, uses_anonymous_args = 0
1509:../Middlewares/stm32-mw-camera/sensors/vd1943/vd1943.c ****   struct drv_vd1943_ctx *drv_vd1943_ctx = &ctx->ctx;
 3128              		.loc 1 1509 3 view .LVU917
1510:../Middlewares/stm32-mw-camera/sensors/vd1943/vd1943.c **** 
1511:../Middlewares/stm32-mw-camera/sensors/vd1943/vd1943.c ****   if (drv_vd1943_ctx->state == VD1943_ST_STREAMING)
 3129              		.loc 1 1511 3 view .LVU918
 3130              		.loc 1 1511 6 is_stmt 0 view .LVU919
 3131 0000 C36A     		ldr	r3, [r0, #44]
1508:../Middlewares/stm32-mw-camera/sensors/vd1943/vd1943.c ****   struct drv_vd1943_ctx *drv_vd1943_ctx = &ctx->ctx;
 3132              		.loc 1 1508 1 view .LVU920
 3133 0002 10B5     		push	{r4, lr}
 3134              		.cfi_def_cfa_offset 8
 3135              		.cfi_offset 4, -8
 3136              		.cfi_offset 14, -4
 3137              		.loc 1 1511 6 view .LVU921
 3138 0004 012B     		cmp	r3, #1
1508:../Middlewares/stm32-mw-camera/sensors/vd1943/vd1943.c ****   struct drv_vd1943_ctx *drv_vd1943_ctx = &ctx->ctx;
 3139              		.loc 1 1508 1 view .LVU922
 3140 0006 0446     		mov	r4, r0
 3141              		.loc 1 1511 6 view .LVU923
 3142 0008 08D0     		beq	.L228
1512:../Middlewares/stm32-mw-camera/sensors/vd1943/vd1943.c ****     return -1;
1513:../Middlewares/stm32-mw-camera/sensors/vd1943/vd1943.c **** 
1514:../Middlewares/stm32-mw-camera/sensors/vd1943/vd1943.c ****   ctx->shutdown_pin(ctx, 0);
 3143              		.loc 1 1514 3 is_stmt 1 view .LVU924
 3144 000a 0368     		ldr	r3, [r0]
 3145 000c 0021     		movs	r1, #0
 3146 000e 9847     		blx	r3
 3147              	.LVL257:
1515:../Middlewares/stm32-mw-camera/sensors/vd1943/vd1943.c ****   ctx->delay(ctx, 10);
 3148              		.loc 1 1515 3 view .LVU925
 3149 0010 2046     		mov	r0, r4
 3150 0012 0A21     		movs	r1, #10
 3151 0014 236A     		ldr	r3, [r4, #32]
 3152 0016 9847     		blx	r3
 3153              	.LVL258:
1516:../Middlewares/stm32-mw-camera/sensors/vd1943/vd1943.c **** 
1517:../Middlewares/stm32-mw-camera/sensors/vd1943/vd1943.c ****   return 0;
 3154              		.loc 1 1517 3 view .LVU926
 3155              		.loc 1 1517 10 is_stmt 0 view .LVU927
 3156 0018 0020     		movs	r0, #0
 3157              	.L226:
1518:../Middlewares/stm32-mw-camera/sensors/vd1943/vd1943.c **** }
 3158              		.loc 1 1518 1 view .LVU928
 3159 001a 10BD     		pop	{r4, pc}
 3160              	.LVL259:
 3161              	.L228:
1512:../Middlewares/stm32-mw-camera/sensors/vd1943/vd1943.c **** 
ARM GAS  /tmp/ccydMd0r.s 			page 98


 3162              		.loc 1 1512 12 view .LVU929
 3163 001c 4FF0FF30 		mov	r0, #-1
 3164              	.LVL260:
1512:../Middlewares/stm32-mw-camera/sensors/vd1943/vd1943.c **** 
 3165              		.loc 1 1512 12 view .LVU930
 3166 0020 FBE7     		b	.L226
 3167              		.cfi_endproc
 3168              	.LFE47:
 3170              		.section	.rodata.VD1943_Stop.str1.1,"aMS",%progbits,1
 3171              	.LC20:
 3172 0000 56443139 		.ascii	"VD1943_NOT-%d : Streaming is on\012\000"
 3172      34335F4E 
 3172      4F542D25 
 3172      64203A20 
 3172      53747265 
 3173              		.section	.text.VD1943_Stop,"ax",%progbits
 3174              		.align	1
 3175              		.global	VD1943_Stop
 3176              		.syntax unified
 3177              		.thumb
 3178              		.thumb_func
 3180              	VD1943_Stop:
 3181              	.LVL261:
 3182              	.LFB49:
1519:../Middlewares/stm32-mw-camera/sensors/vd1943/vd1943.c **** 
1520:../Middlewares/stm32-mw-camera/sensors/vd1943/vd1943.c **** //#define DUMP_REG
1521:../Middlewares/stm32-mw-camera/sensors/vd1943/vd1943.c **** #ifdef DUMP_REG
1522:../Middlewares/stm32-mw-camera/sensors/vd1943/vd1943.c **** static void dump_reg8(VD1943_Ctx_t *ctx, char *name, int addr)
1523:../Middlewares/stm32-mw-camera/sensors/vd1943/vd1943.c **** {
1524:../Middlewares/stm32-mw-camera/sensors/vd1943/vd1943.c ****   uint8_t reg;
1525:../Middlewares/stm32-mw-camera/sensors/vd1943/vd1943.c ****   int ret;
1526:../Middlewares/stm32-mw-camera/sensors/vd1943/vd1943.c **** 
1527:../Middlewares/stm32-mw-camera/sensors/vd1943/vd1943.c ****   ret = ctx->read8(ctx, addr, &reg);
1528:../Middlewares/stm32-mw-camera/sensors/vd1943/vd1943.c ****   assert(ret == 0);
1529:../Middlewares/stm32-mw-camera/sensors/vd1943/vd1943.c **** 
1530:../Middlewares/stm32-mw-camera/sensors/vd1943/vd1943.c ****   VD1943_notice(ctx, "Read %s - 0x%04x => 0x%02x (%d)\n", name, addr, reg, reg);
1531:../Middlewares/stm32-mw-camera/sensors/vd1943/vd1943.c **** }
1532:../Middlewares/stm32-mw-camera/sensors/vd1943/vd1943.c **** 
1533:../Middlewares/stm32-mw-camera/sensors/vd1943/vd1943.c **** static void dump_reg16(VD1943_Ctx_t *ctx, char *name, int addr)
1534:../Middlewares/stm32-mw-camera/sensors/vd1943/vd1943.c **** {
1535:../Middlewares/stm32-mw-camera/sensors/vd1943/vd1943.c ****   uint16_t reg;
1536:../Middlewares/stm32-mw-camera/sensors/vd1943/vd1943.c ****   int ret;
1537:../Middlewares/stm32-mw-camera/sensors/vd1943/vd1943.c **** 
1538:../Middlewares/stm32-mw-camera/sensors/vd1943/vd1943.c ****   ret = ctx->read16(ctx, addr, &reg);
1539:../Middlewares/stm32-mw-camera/sensors/vd1943/vd1943.c ****   assert(ret == 0);
1540:../Middlewares/stm32-mw-camera/sensors/vd1943/vd1943.c **** 
1541:../Middlewares/stm32-mw-camera/sensors/vd1943/vd1943.c ****   VD1943_notice(ctx, "Read %s - 0x%04x => 0x%04x (%d)\n", name, addr, reg, reg);
1542:../Middlewares/stm32-mw-camera/sensors/vd1943/vd1943.c **** }
1543:../Middlewares/stm32-mw-camera/sensors/vd1943/vd1943.c **** 
1544:../Middlewares/stm32-mw-camera/sensors/vd1943/vd1943.c **** static void dump_reg32(VD1943_Ctx_t *ctx, char *name, int addr)
1545:../Middlewares/stm32-mw-camera/sensors/vd1943/vd1943.c **** {
1546:../Middlewares/stm32-mw-camera/sensors/vd1943/vd1943.c ****   uint32_t reg;
1547:../Middlewares/stm32-mw-camera/sensors/vd1943/vd1943.c ****   int ret;
1548:../Middlewares/stm32-mw-camera/sensors/vd1943/vd1943.c **** 
1549:../Middlewares/stm32-mw-camera/sensors/vd1943/vd1943.c ****   ret = ctx->read32(ctx, addr, &reg);
1550:../Middlewares/stm32-mw-camera/sensors/vd1943/vd1943.c ****   assert(ret == 0);
1551:../Middlewares/stm32-mw-camera/sensors/vd1943/vd1943.c **** 
ARM GAS  /tmp/ccydMd0r.s 			page 99


1552:../Middlewares/stm32-mw-camera/sensors/vd1943/vd1943.c ****   VD1943_notice(ctx, "Read %s - 0x%04x => 0x%08x (%d)\n", name, addr, reg, reg);
1553:../Middlewares/stm32-mw-camera/sensors/vd1943/vd1943.c **** }
1554:../Middlewares/stm32-mw-camera/sensors/vd1943/vd1943.c **** 
1555:../Middlewares/stm32-mw-camera/sensors/vd1943/vd1943.c **** static void dump_reg(VD1943_Ctx_t *ctx, char *name, int addr, int bit_nb)
1556:../Middlewares/stm32-mw-camera/sensors/vd1943/vd1943.c **** {
1557:../Middlewares/stm32-mw-camera/sensors/vd1943/vd1943.c ****   if (bit_nb == 8)
1558:../Middlewares/stm32-mw-camera/sensors/vd1943/vd1943.c ****     dump_reg8(ctx, name, addr);
1559:../Middlewares/stm32-mw-camera/sensors/vd1943/vd1943.c ****   else if (bit_nb == 16)
1560:../Middlewares/stm32-mw-camera/sensors/vd1943/vd1943.c ****     dump_reg16(ctx, name, addr);
1561:../Middlewares/stm32-mw-camera/sensors/vd1943/vd1943.c ****   else if (bit_nb == 32)
1562:../Middlewares/stm32-mw-camera/sensors/vd1943/vd1943.c ****     dump_reg32(ctx, name, addr);
1563:../Middlewares/stm32-mw-camera/sensors/vd1943/vd1943.c ****   else
1564:../Middlewares/stm32-mw-camera/sensors/vd1943/vd1943.c ****     assert(0);
1565:../Middlewares/stm32-mw-camera/sensors/vd1943/vd1943.c **** }
1566:../Middlewares/stm32-mw-camera/sensors/vd1943/vd1943.c **** 
1567:../Middlewares/stm32-mw-camera/sensors/vd1943/vd1943.c **** static void VD1943_Dbg(VD1943_Ctx_t *ctx)
1568:../Middlewares/stm32-mw-camera/sensors/vd1943/vd1943.c **** {
1569:../Middlewares/stm32-mw-camera/sensors/vd1943/vd1943.c ****   ctx->delay(ctx, 100);
1570:../Middlewares/stm32-mw-camera/sensors/vd1943/vd1943.c ****   dump_reg(ctx, "SYSTEM_FSM_STATE", 0x44, 8);
1571:../Middlewares/stm32-mw-camera/sensors/vd1943/vd1943.c ****   dump_reg(ctx, "MIPI_LANE_NB", 0x45, 8);
1572:../Middlewares/stm32-mw-camera/sensors/vd1943/vd1943.c ****   dump_reg(ctx, "SYSTEM_WARNING", 0x46, 16);
1573:../Middlewares/stm32-mw-camera/sensors/vd1943/vd1943.c ****   dump_reg(ctx, "SYSTEM_ERROR", 0x48, 16);
1574:../Middlewares/stm32-mw-camera/sensors/vd1943/vd1943.c ****   dump_reg(ctx, "FRAME_COUNTER", 0x6e, 16);
1575:../Middlewares/stm32-mw-camera/sensors/vd1943/vd1943.c ****   dump_reg(ctx, "OUTPUT_FORMAT", 0x79, 8);
1576:../Middlewares/stm32-mw-camera/sensors/vd1943/vd1943.c ****   dump_reg(ctx, "VIRTUAL_CHANNEL", 0x7a, 8);
1577:../Middlewares/stm32-mw-camera/sensors/vd1943/vd1943.c ****   dump_reg(ctx, "ROI_SELECTION", 0x7b, 8);
1578:../Middlewares/stm32-mw-camera/sensors/vd1943/vd1943.c ****   dump_reg(ctx, "ROI_A_OFFSET", 0x7c, 32);
1579:../Middlewares/stm32-mw-camera/sensors/vd1943/vd1943.c ****   dump_reg(ctx, "ROI_A_SIZE", 0x80, 32);
1580:../Middlewares/stm32-mw-camera/sensors/vd1943/vd1943.c ****   dump_reg(ctx, "ROI_A_DT", 0x9c, 8);
1581:../Middlewares/stm32-mw-camera/sensors/vd1943/vd1943.c ****   dump_reg(ctx, "LINE_LENGTH", 0xb2, 16);
1582:../Middlewares/stm32-mw-camera/sensors/vd1943/vd1943.c ****   dump_reg(ctx, "FRAME_LENGTH", 0xb4, 32);
1583:../Middlewares/stm32-mw-camera/sensors/vd1943/vd1943.c ****   dump_reg(ctx, "READOUT_CTRL", 0xb8, 8);
1584:../Middlewares/stm32-mw-camera/sensors/vd1943/vd1943.c ****   dump_reg(ctx, "IMAGE_CONFIG", 0xbc, 8);
1585:../Middlewares/stm32-mw-camera/sensors/vd1943/vd1943.c ****   dump_reg(ctx, "SHUTTER_MODE", 0xbd, 8);
1586:../Middlewares/stm32-mw-camera/sensors/vd1943/vd1943.c ****   dump_reg(ctx, "X_START", 0xc8, 16);
1587:../Middlewares/stm32-mw-camera/sensors/vd1943/vd1943.c ****   dump_reg(ctx, "X_END", 0xca, 16);
1588:../Middlewares/stm32-mw-camera/sensors/vd1943/vd1943.c ****   dump_reg(ctx, "Y_START", 0xcc, 16);
1589:../Middlewares/stm32-mw-camera/sensors/vd1943/vd1943.c ****   dump_reg(ctx, "Y_END", 0xce, 16);
1590:../Middlewares/stm32-mw-camera/sensors/vd1943/vd1943.c ****   dump_reg(ctx, "X_SIZE", 0xd0, 16);
1591:../Middlewares/stm32-mw-camera/sensors/vd1943/vd1943.c ****   dump_reg(ctx, "Y_SIZE", 0xd2, 16);
1592:../Middlewares/stm32-mw-camera/sensors/vd1943/vd1943.c ****   dump_reg(ctx, "OIF_LANE_PHY_MAP", 0x16c, 8);
1593:../Middlewares/stm32-mw-camera/sensors/vd1943/vd1943.c ****   dump_reg(ctx, "OIF_LANE_PHY_SWAP", 0x16d, 8);
1594:../Middlewares/stm32-mw-camera/sensors/vd1943/vd1943.c ****   dump_reg(ctx, "STREAMING_FSM", 0x201, 8);
1595:../Middlewares/stm32-mw-camera/sensors/vd1943/vd1943.c ****   dump_reg(ctx, "SYSTEM_PLL_CLK", 0x228, 32);
1596:../Middlewares/stm32-mw-camera/sensors/vd1943/vd1943.c ****   dump_reg(ctx, "PIXEL_CLK", 0x22c, 32);
1597:../Middlewares/stm32-mw-camera/sensors/vd1943/vd1943.c ****   dump_reg(ctx, "MCU_CLK", 0x230, 32);
1598:../Middlewares/stm32-mw-camera/sensors/vd1943/vd1943.c ****   dump_reg(ctx, "FRAME_RATE", 0x236, 16);
1599:../Middlewares/stm32-mw-camera/sensors/vd1943/vd1943.c ****   dump_reg(ctx, "WAIT_DELAY", 0x2be, 16);
1600:../Middlewares/stm32-mw-camera/sensors/vd1943/vd1943.c **** }
1601:../Middlewares/stm32-mw-camera/sensors/vd1943/vd1943.c **** #endif
1602:../Middlewares/stm32-mw-camera/sensors/vd1943/vd1943.c **** 
1603:../Middlewares/stm32-mw-camera/sensors/vd1943/vd1943.c **** int VD1943_Start(VD1943_Ctx_t *ctx)
1604:../Middlewares/stm32-mw-camera/sensors/vd1943/vd1943.c **** {
1605:../Middlewares/stm32-mw-camera/sensors/vd1943/vd1943.c ****   struct drv_vd1943_ctx *drv_vd1943_ctx = &ctx->ctx;
1606:../Middlewares/stm32-mw-camera/sensors/vd1943/vd1943.c ****   int ret;
1607:../Middlewares/stm32-mw-camera/sensors/vd1943/vd1943.c **** 
1608:../Middlewares/stm32-mw-camera/sensors/vd1943/vd1943.c ****   if (drv_vd1943_ctx->state != VD1943_ST_IDLE)
ARM GAS  /tmp/ccydMd0r.s 			page 100


1609:../Middlewares/stm32-mw-camera/sensors/vd1943/vd1943.c ****     return -1;
1610:../Middlewares/stm32-mw-camera/sensors/vd1943/vd1943.c **** 
1611:../Middlewares/stm32-mw-camera/sensors/vd1943/vd1943.c ****   ret = VD1943_Setup(ctx);
1612:../Middlewares/stm32-mw-camera/sensors/vd1943/vd1943.c ****   if (ret)
1613:../Middlewares/stm32-mw-camera/sensors/vd1943/vd1943.c ****     return ret;
1614:../Middlewares/stm32-mw-camera/sensors/vd1943/vd1943.c **** 
1615:../Middlewares/stm32-mw-camera/sensors/vd1943/vd1943.c ****   ret = VD1943_StartStreaming(ctx);
1616:../Middlewares/stm32-mw-camera/sensors/vd1943/vd1943.c ****   if (ret)
1617:../Middlewares/stm32-mw-camera/sensors/vd1943/vd1943.c ****     return ret;
1618:../Middlewares/stm32-mw-camera/sensors/vd1943/vd1943.c ****   drv_vd1943_ctx->state = VD1943_ST_STREAMING;
1619:../Middlewares/stm32-mw-camera/sensors/vd1943/vd1943.c **** 
1620:../Middlewares/stm32-mw-camera/sensors/vd1943/vd1943.c **** #ifdef DUMP_REG
1621:../Middlewares/stm32-mw-camera/sensors/vd1943/vd1943.c ****   VD1943_Dbg(ctx);
1622:../Middlewares/stm32-mw-camera/sensors/vd1943/vd1943.c **** #endif
1623:../Middlewares/stm32-mw-camera/sensors/vd1943/vd1943.c **** 
1624:../Middlewares/stm32-mw-camera/sensors/vd1943/vd1943.c ****   return 0;
1625:../Middlewares/stm32-mw-camera/sensors/vd1943/vd1943.c **** }
1626:../Middlewares/stm32-mw-camera/sensors/vd1943/vd1943.c **** 
1627:../Middlewares/stm32-mw-camera/sensors/vd1943/vd1943.c **** int VD1943_Stop(VD1943_Ctx_t *ctx)
1628:../Middlewares/stm32-mw-camera/sensors/vd1943/vd1943.c **** {
 3183              		.loc 1 1628 1 is_stmt 1 view -0
 3184              		.cfi_startproc
 3185              		@ args = 0, pretend = 0, frame = 0
 3186              		@ frame_needed = 0, uses_anonymous_args = 0
1629:../Middlewares/stm32-mw-camera/sensors/vd1943/vd1943.c ****   struct drv_vd1943_ctx *drv_vd1943_ctx = &ctx->ctx;
 3187              		.loc 1 1629 3 view .LVU932
1630:../Middlewares/stm32-mw-camera/sensors/vd1943/vd1943.c ****   int ret;
 3188              		.loc 1 1630 3 view .LVU933
1631:../Middlewares/stm32-mw-camera/sensors/vd1943/vd1943.c **** 
1632:../Middlewares/stm32-mw-camera/sensors/vd1943/vd1943.c ****   if (drv_vd1943_ctx->state != VD1943_ST_STREAMING)
 3189              		.loc 1 1632 3 view .LVU934
 3190              		.loc 1 1632 6 is_stmt 0 view .LVU935
 3191 0000 C26A     		ldr	r2, [r0, #44]
1628:../Middlewares/stm32-mw-camera/sensors/vd1943/vd1943.c ****   struct drv_vd1943_ctx *drv_vd1943_ctx = &ctx->ctx;
 3192              		.loc 1 1628 1 view .LVU936
 3193 0002 38B5     		push	{r3, r4, r5, lr}
 3194              		.cfi_def_cfa_offset 16
 3195              		.cfi_offset 3, -16
 3196              		.cfi_offset 4, -12
 3197              		.cfi_offset 5, -8
 3198              		.cfi_offset 14, -4
 3199              		.loc 1 1632 6 view .LVU937
 3200 0004 012A     		cmp	r2, #1
1628:../Middlewares/stm32-mw-camera/sensors/vd1943/vd1943.c ****   struct drv_vd1943_ctx *drv_vd1943_ctx = &ctx->ctx;
 3201              		.loc 1 1628 1 view .LVU938
 3202 0006 0546     		mov	r5, r0
 3203              		.loc 1 1632 6 view .LVU939
 3204 0008 15D1     		bne	.L233
1633:../Middlewares/stm32-mw-camera/sensors/vd1943/vd1943.c ****     return -1;
1634:../Middlewares/stm32-mw-camera/sensors/vd1943/vd1943.c **** 
1635:../Middlewares/stm32-mw-camera/sensors/vd1943/vd1943.c ****   ret = VD1943_StopStreaming(ctx);
 3205              		.loc 1 1635 3 is_stmt 1 view .LVU940
 3206              	.LVL262:
 3207              	.LBB108:
 3208              	.LBI108:
1330:../Middlewares/stm32-mw-camera/sensors/vd1943/vd1943.c **** {
 3209              		.loc 1 1330 12 view .LVU941
ARM GAS  /tmp/ccydMd0r.s 			page 101


 3210              	.LBB109:
1332:../Middlewares/stm32-mw-camera/sensors/vd1943/vd1943.c **** 
 3211              		.loc 1 1332 3 view .LVU942
1334:../Middlewares/stm32-mw-camera/sensors/vd1943/vd1943.c ****   if (ret)
 3212              		.loc 1 1334 3 view .LVU943
1334:../Middlewares/stm32-mw-camera/sensors/vd1943/vd1943.c ****   if (ret)
 3213              		.loc 1 1334 9 is_stmt 0 view .LVU944
 3214 000a 40F21751 		movw	r1, #1303
 3215 000e FFF7FEFF 		bl	VD1943_ApplyCmdAndWait
 3216              	.LVL263:
1335:../Middlewares/stm32-mw-camera/sensors/vd1943/vd1943.c ****     return ret;
 3217              		.loc 1 1335 3 is_stmt 1 view .LVU945
1335:../Middlewares/stm32-mw-camera/sensors/vd1943/vd1943.c ****     return ret;
 3218              		.loc 1 1335 6 is_stmt 0 view .LVU946
 3219 0012 0446     		mov	r4, r0
 3220 0014 68B9     		cbnz	r0, .L229
1338:../Middlewares/stm32-mw-camera/sensors/vd1943/vd1943.c ****   if (ret)
 3221              		.loc 1 1338 3 is_stmt 1 view .LVU947
1338:../Middlewares/stm32-mw-camera/sensors/vd1943/vd1943.c ****   if (ret)
 3222              		.loc 1 1338 9 is_stmt 0 view .LVU948
 3223 0016 0321     		movs	r1, #3
 3224 0018 2846     		mov	r0, r5
 3225              	.LVL264:
1338:../Middlewares/stm32-mw-camera/sensors/vd1943/vd1943.c ****   if (ret)
 3226              		.loc 1 1338 9 view .LVU949
 3227 001a FFF7FEFF 		bl	VD1943_WaitState
 3228              	.LVL265:
1339:../Middlewares/stm32-mw-camera/sensors/vd1943/vd1943.c ****     return ret;
 3229              		.loc 1 1339 3 is_stmt 1 view .LVU950
1339:../Middlewares/stm32-mw-camera/sensors/vd1943/vd1943.c ****     return ret;
 3230              		.loc 1 1339 6 is_stmt 0 view .LVU951
 3231 001e 0446     		mov	r4, r0
 3232 0020 38B9     		cbnz	r0, .L229
1342:../Middlewares/stm32-mw-camera/sensors/vd1943/vd1943.c **** 
 3233              		.loc 1 1342 3 is_stmt 1 view .LVU952
1342:../Middlewares/stm32-mw-camera/sensors/vd1943/vd1943.c **** 
 3234              		.loc 1 1342 3 view .LVU953
 3235 0022 40F23E53 		movw	r3, #1342
 3236 0026 0221     		movs	r1, #2
 3237 0028 2846     		mov	r0, r5
 3238              	.LVL266:
1342:../Middlewares/stm32-mw-camera/sensors/vd1943/vd1943.c **** 
 3239              		.loc 1 1342 3 is_stmt 0 view .LVU954
 3240 002a 044A     		ldr	r2, .L234
 3241 002c FFF7FEFF 		bl	VD1943_log_impl
 3242              	.LVL267:
1342:../Middlewares/stm32-mw-camera/sensors/vd1943/vd1943.c **** 
 3243              		.loc 1 1342 3 is_stmt 1 discriminator 1 view .LVU955
1344:../Middlewares/stm32-mw-camera/sensors/vd1943/vd1943.c **** }
 3244              		.loc 1 1344 3 view .LVU956
1344:../Middlewares/stm32-mw-camera/sensors/vd1943/vd1943.c **** }
 3245              		.loc 1 1344 3 is_stmt 0 view .LVU957
 3246              	.LBE109:
 3247              	.LBE108:
1636:../Middlewares/stm32-mw-camera/sensors/vd1943/vd1943.c ****   if (ret)
 3248              		.loc 1 1636 3 is_stmt 1 view .LVU958
1637:../Middlewares/stm32-mw-camera/sensors/vd1943/vd1943.c ****     return ret;
ARM GAS  /tmp/ccydMd0r.s 			page 102


1638:../Middlewares/stm32-mw-camera/sensors/vd1943/vd1943.c ****   drv_vd1943_ctx->state = VD1943_ST_IDLE;
 3249              		.loc 1 1638 3 view .LVU959
 3250              		.loc 1 1638 25 is_stmt 0 view .LVU960
 3251 0030 EC62     		str	r4, [r5, #44]
1639:../Middlewares/stm32-mw-camera/sensors/vd1943/vd1943.c **** 
1640:../Middlewares/stm32-mw-camera/sensors/vd1943/vd1943.c ****   return 0;
 3252              		.loc 1 1640 3 is_stmt 1 view .LVU961
 3253              	.LVL268:
 3254              	.L229:
1641:../Middlewares/stm32-mw-camera/sensors/vd1943/vd1943.c **** }
 3255              		.loc 1 1641 1 is_stmt 0 view .LVU962
 3256 0032 2046     		mov	r0, r4
 3257 0034 38BD     		pop	{r3, r4, r5, pc}
 3258              	.LVL269:
 3259              	.L233:
1633:../Middlewares/stm32-mw-camera/sensors/vd1943/vd1943.c **** 
 3260              		.loc 1 1633 12 view .LVU963
 3261 0036 4FF0FF34 		mov	r4, #-1
 3262 003a FAE7     		b	.L229
 3263              	.L235:
 3264              		.align	2
 3265              	.L234:
 3266 003c 00000000 		.word	.LC20
 3267              		.cfi_endproc
 3268              	.LFE49:
 3270              		.section	.text.VD1943_Hold,"ax",%progbits
 3271              		.align	1
 3272              		.global	VD1943_Hold
 3273              		.syntax unified
 3274              		.thumb
 3275              		.thumb_func
 3277              	VD1943_Hold:
 3278              	.LVL270:
 3279              	.LFB50:
1642:../Middlewares/stm32-mw-camera/sensors/vd1943/vd1943.c **** 
1643:../Middlewares/stm32-mw-camera/sensors/vd1943/vd1943.c **** int VD1943_Hold(VD1943_Ctx_t *ctx, int is_enable)
1644:../Middlewares/stm32-mw-camera/sensors/vd1943/vd1943.c **** {
 3280              		.loc 1 1644 1 is_stmt 1 view -0
 3281              		.cfi_startproc
 3282              		@ args = 0, pretend = 0, frame = 0
 3283              		@ frame_needed = 0, uses_anonymous_args = 0
1645:../Middlewares/stm32-mw-camera/sensors/vd1943/vd1943.c ****   int ret;
 3284              		.loc 1 1645 3 view .LVU965
1646:../Middlewares/stm32-mw-camera/sensors/vd1943/vd1943.c **** 
1647:../Middlewares/stm32-mw-camera/sensors/vd1943/vd1943.c ****   ret = ctx->write8(ctx, VD1943_REG_GROUP_PARAMETER_HOLD(0),
 3285              		.loc 1 1647 3 view .LVU966
1644:../Middlewares/stm32-mw-camera/sensors/vd1943/vd1943.c ****   int ret;
 3286              		.loc 1 1644 1 is_stmt 0 view .LVU967
 3287 0000 30B5     		push	{r4, r5, lr}
 3288              		.cfi_def_cfa_offset 12
 3289              		.cfi_offset 4, -12
 3290              		.cfi_offset 5, -8
 3291              		.cfi_offset 14, -4
 3292              		.loc 1 1647 9 view .LVU968
 3293 0002 0A1E     		subs	r2, r1, #0
 3294 0004 18BF     		it	ne
 3295 0006 0122     		movne	r2, #1
ARM GAS  /tmp/ccydMd0r.s 			page 103


 3296 0008 40F67841 		movw	r1, #3192
 3297              	.LVL271:
 3298              		.loc 1 1647 9 view .LVU969
 3299 000c 0369     		ldr	r3, [r0, #16]
1644:../Middlewares/stm32-mw-camera/sensors/vd1943/vd1943.c ****   int ret;
 3300              		.loc 1 1644 1 view .LVU970
 3301 000e 85B0     		sub	sp, sp, #20
 3302              		.cfi_def_cfa_offset 32
1644:../Middlewares/stm32-mw-camera/sensors/vd1943/vd1943.c ****   int ret;
 3303              		.loc 1 1644 1 view .LVU971
 3304 0010 0546     		mov	r5, r0
 3305              		.loc 1 1647 9 view .LVU972
 3306 0012 9847     		blx	r3
 3307              	.LVL272:
1648:../Middlewares/stm32-mw-camera/sensors/vd1943/vd1943.c ****                     is_enable ? VD1943_GROUP_PARAMETER_HOLD_ENABLE : VD1943_GROUP_PARAMETER_HOLD_DI
1649:../Middlewares/stm32-mw-camera/sensors/vd1943/vd1943.c ****   VD1943_TraceError(ctx, ret);
 3308              		.loc 1 1649 3 is_stmt 1 view .LVU973
 3309              		.loc 1 1649 3 view .LVU974
 3310 0014 0446     		mov	r4, r0
 3311 0016 68B1     		cbz	r0, .L236
 3312              		.loc 1 1649 3 discriminator 1 view .LVU975
 3313              		.loc 1 1649 3 discriminator 1 view .LVU976
 3314 0018 40F27163 		movw	r3, #1649
 3315 001c 074A     		ldr	r2, .L241
 3316 001e 0290     		str	r0, [sp, #8]
 3317 0020 0092     		str	r2, [sp]
 3318 0022 2846     		mov	r0, r5
 3319              	.LVL273:
 3320              		.loc 1 1649 3 is_stmt 0 discriminator 1 view .LVU977
 3321 0024 0021     		movs	r1, #0
 3322 0026 064A     		ldr	r2, .L241+4
 3323 0028 0193     		str	r3, [sp, #4]
 3324 002a FFF7FEFF 		bl	VD1943_log_impl
 3325              	.LVL274:
 3326              		.loc 1 1649 3 is_stmt 1 discriminator 3 view .LVU978
 3327              		.loc 1 1649 3 discriminator 3 view .LVU979
 3328              		.loc 1 1649 3 discriminator 4 view .LVU980
 3329 002e 2846     		mov	r0, r5
 3330 0030 FFF7FEFF 		bl	display_error
 3331              	.LVL275:
 3332              		.loc 1 1649 3 discriminator 6 view .LVU981
 3333              	.L236:
1650:../Middlewares/stm32-mw-camera/sensors/vd1943/vd1943.c **** 
1651:../Middlewares/stm32-mw-camera/sensors/vd1943/vd1943.c ****   return 0;
1652:../Middlewares/stm32-mw-camera/sensors/vd1943/vd1943.c **** }
 3334              		.loc 1 1652 1 is_stmt 0 view .LVU982
 3335 0034 2046     		mov	r0, r4
 3336 0036 05B0     		add	sp, sp, #20
 3337              		.cfi_def_cfa_offset 12
 3338              		@ sp needed
 3339 0038 30BD     		pop	{r4, r5, pc}
 3340              	.LVL276:
 3341              	.L242:
 3342              		.loc 1 1652 1 view .LVU983
 3343 003a 00BF     		.align	2
 3344              	.L241:
 3345 003c 00000000 		.word	__func__.5
ARM GAS  /tmp/ccydMd0r.s 			page 104


 3346 0040 00000000 		.word	.LC4
 3347              		.cfi_endproc
 3348              	.LFE50:
 3350              		.section	.text.VD1943_SetAnalogGain,"ax",%progbits
 3351              		.align	1
 3352              		.global	VD1943_SetAnalogGain
 3353              		.syntax unified
 3354              		.thumb
 3355              		.thumb_func
 3357              	VD1943_SetAnalogGain:
 3358              	.LVL277:
 3359              	.LFB51:
1653:../Middlewares/stm32-mw-camera/sensors/vd1943/vd1943.c **** 
1654:../Middlewares/stm32-mw-camera/sensors/vd1943/vd1943.c **** int VD1943_SetAnalogGain(VD1943_Ctx_t *ctx, unsigned int gain)
1655:../Middlewares/stm32-mw-camera/sensors/vd1943/vd1943.c **** {
 3360              		.loc 1 1655 1 is_stmt 1 view -0
 3361              		.cfi_startproc
 3362              		@ args = 0, pretend = 0, frame = 0
 3363              		@ frame_needed = 0, uses_anonymous_args = 0
1656:../Middlewares/stm32-mw-camera/sensors/vd1943/vd1943.c ****   int ret;
 3364              		.loc 1 1656 3 view .LVU985
1657:../Middlewares/stm32-mw-camera/sensors/vd1943/vd1943.c **** 
1658:../Middlewares/stm32-mw-camera/sensors/vd1943/vd1943.c ****   if (gain > VD1943_ANALOG_GAIN_MAX)
 3365              		.loc 1 1658 3 view .LVU986
1655:../Middlewares/stm32-mw-camera/sensors/vd1943/vd1943.c ****   int ret;
 3366              		.loc 1 1655 1 is_stmt 0 view .LVU987
 3367 0000 30B5     		push	{r4, r5, lr}
 3368              		.cfi_def_cfa_offset 12
 3369              		.cfi_offset 4, -12
 3370              		.cfi_offset 5, -8
 3371              		.cfi_offset 14, -4
 3372              		.loc 1 1658 6 view .LVU988
 3373 0002 0C29     		cmp	r1, #12
1655:../Middlewares/stm32-mw-camera/sensors/vd1943/vd1943.c ****   int ret;
 3374              		.loc 1 1655 1 view .LVU989
 3375 0004 0546     		mov	r5, r0
 3376 0006 85B0     		sub	sp, sp, #20
 3377              		.cfi_def_cfa_offset 32
 3378              		.loc 1 1658 6 view .LVU990
 3379 0008 17D8     		bhi	.L246
1659:../Middlewares/stm32-mw-camera/sensors/vd1943/vd1943.c ****     return -1;
1660:../Middlewares/stm32-mw-camera/sensors/vd1943/vd1943.c **** 
1661:../Middlewares/stm32-mw-camera/sensors/vd1943/vd1943.c ****   ret = ctx->write8(ctx, VD1943_REG_ANALOG_GAIN(0), gain);
 3380              		.loc 1 1661 3 is_stmt 1 view .LVU991
 3381              		.loc 1 1661 9 is_stmt 0 view .LVU992
 3382 000a CAB2     		uxtb	r2, r1
 3383 000c 0369     		ldr	r3, [r0, #16]
 3384 000e 40F67941 		movw	r1, #3193
 3385              	.LVL278:
 3386              		.loc 1 1661 9 view .LVU993
 3387 0012 9847     		blx	r3
 3388              	.LVL279:
1662:../Middlewares/stm32-mw-camera/sensors/vd1943/vd1943.c ****   VD1943_TraceError(ctx, ret);
 3389              		.loc 1 1662 3 is_stmt 1 view .LVU994
 3390              		.loc 1 1662 3 view .LVU995
 3391 0014 0446     		mov	r4, r0
 3392 0016 68B1     		cbz	r0, .L243
ARM GAS  /tmp/ccydMd0r.s 			page 105


 3393              		.loc 1 1662 3 discriminator 1 view .LVU996
 3394              		.loc 1 1662 3 discriminator 1 view .LVU997
 3395 0018 40F27E63 		movw	r3, #1662
 3396 001c 084A     		ldr	r2, .L250
 3397 001e 0290     		str	r0, [sp, #8]
 3398 0020 0092     		str	r2, [sp]
 3399 0022 2846     		mov	r0, r5
 3400              	.LVL280:
 3401              		.loc 1 1662 3 is_stmt 0 discriminator 1 view .LVU998
 3402 0024 0021     		movs	r1, #0
 3403 0026 074A     		ldr	r2, .L250+4
 3404 0028 0193     		str	r3, [sp, #4]
 3405 002a FFF7FEFF 		bl	VD1943_log_impl
 3406              	.LVL281:
 3407              		.loc 1 1662 3 is_stmt 1 discriminator 3 view .LVU999
 3408              		.loc 1 1662 3 discriminator 3 view .LVU1000
 3409              		.loc 1 1662 3 discriminator 4 view .LVU1001
 3410 002e 2846     		mov	r0, r5
 3411 0030 FFF7FEFF 		bl	display_error
 3412              	.LVL282:
 3413              	.L243:
1663:../Middlewares/stm32-mw-camera/sensors/vd1943/vd1943.c **** 
1664:../Middlewares/stm32-mw-camera/sensors/vd1943/vd1943.c ****   return 0;
1665:../Middlewares/stm32-mw-camera/sensors/vd1943/vd1943.c **** }
 3414              		.loc 1 1665 1 is_stmt 0 view .LVU1002
 3415 0034 2046     		mov	r0, r4
 3416 0036 05B0     		add	sp, sp, #20
 3417              		.cfi_remember_state
 3418              		.cfi_def_cfa_offset 12
 3419              		@ sp needed
 3420 0038 30BD     		pop	{r4, r5, pc}
 3421              	.LVL283:
 3422              	.L246:
 3423              		.cfi_restore_state
1659:../Middlewares/stm32-mw-camera/sensors/vd1943/vd1943.c **** 
 3424              		.loc 1 1659 12 view .LVU1003
 3425 003a 4FF0FF34 		mov	r4, #-1
 3426 003e F9E7     		b	.L243
 3427              	.L251:
 3428              		.align	2
 3429              	.L250:
 3430 0040 00000000 		.word	__func__.4
 3431 0044 00000000 		.word	.LC4
 3432              		.cfi_endproc
 3433              	.LFE51:
 3435              		.section	.text.VD1943_GetAnalogGain,"ax",%progbits
 3436              		.align	1
 3437              		.global	VD1943_GetAnalogGain
 3438              		.syntax unified
 3439              		.thumb
 3440              		.thumb_func
 3442              	VD1943_GetAnalogGain:
 3443              	.LVL284:
 3444              	.LFB52:
1666:../Middlewares/stm32-mw-camera/sensors/vd1943/vd1943.c **** 
1667:../Middlewares/stm32-mw-camera/sensors/vd1943/vd1943.c **** int VD1943_GetAnalogGain(VD1943_Ctx_t *ctx, unsigned int *gain)
1668:../Middlewares/stm32-mw-camera/sensors/vd1943/vd1943.c **** {
ARM GAS  /tmp/ccydMd0r.s 			page 106


 3445              		.loc 1 1668 1 is_stmt 1 view -0
 3446              		.cfi_startproc
 3447              		@ args = 0, pretend = 0, frame = 8
 3448              		@ frame_needed = 0, uses_anonymous_args = 0
1669:../Middlewares/stm32-mw-camera/sensors/vd1943/vd1943.c ****   uint8_t reg8;
 3449              		.loc 1 1669 3 view .LVU1005
1670:../Middlewares/stm32-mw-camera/sensors/vd1943/vd1943.c ****   int ret;
 3450              		.loc 1 1670 3 view .LVU1006
1671:../Middlewares/stm32-mw-camera/sensors/vd1943/vd1943.c **** 
1672:../Middlewares/stm32-mw-camera/sensors/vd1943/vd1943.c ****   ret = ctx->read8(ctx, VD1943_REG_ANALOG_GAIN(0), &reg8);
 3451              		.loc 1 1672 3 view .LVU1007
1668:../Middlewares/stm32-mw-camera/sensors/vd1943/vd1943.c ****   uint8_t reg8;
 3452              		.loc 1 1668 1 is_stmt 0 view .LVU1008
 3453 0000 70B5     		push	{r4, r5, r6, lr}
 3454              		.cfi_def_cfa_offset 16
 3455              		.cfi_offset 4, -16
 3456              		.cfi_offset 5, -12
 3457              		.cfi_offset 6, -8
 3458              		.cfi_offset 14, -4
 3459 0002 86B0     		sub	sp, sp, #24
 3460              		.cfi_def_cfa_offset 40
1668:../Middlewares/stm32-mw-camera/sensors/vd1943/vd1943.c ****   uint8_t reg8;
 3461              		.loc 1 1668 1 view .LVU1009
 3462 0004 0E46     		mov	r6, r1
 3463              		.loc 1 1672 9 view .LVU1010
 3464 0006 4368     		ldr	r3, [r0, #4]
 3465 0008 40F67941 		movw	r1, #3193
 3466              	.LVL285:
 3467              		.loc 1 1672 9 view .LVU1011
 3468 000c 0DF11702 		add	r2, sp, #23
1668:../Middlewares/stm32-mw-camera/sensors/vd1943/vd1943.c ****   uint8_t reg8;
 3469              		.loc 1 1668 1 view .LVU1012
 3470 0010 0546     		mov	r5, r0
 3471              		.loc 1 1672 9 view .LVU1013
 3472 0012 9847     		blx	r3
 3473              	.LVL286:
1673:../Middlewares/stm32-mw-camera/sensors/vd1943/vd1943.c ****   VD1943_TraceError(ctx, ret);
 3474              		.loc 1 1673 3 is_stmt 1 view .LVU1014
 3475              		.loc 1 1673 3 view .LVU1015
 3476 0014 0446     		mov	r4, r0
 3477 0016 28B9     		cbnz	r0, .L253
 3478              		.loc 1 1673 3 discriminator 6 view .LVU1016
 3479              		.loc 1 1673 3 view .LVU1017
1674:../Middlewares/stm32-mw-camera/sensors/vd1943/vd1943.c ****   *gain = reg8;
 3480              		.loc 1 1674 3 view .LVU1018
 3481              		.loc 1 1674 9 is_stmt 0 view .LVU1019
 3482 0018 9DF81730 		ldrb	r3, [sp, #23]	@ zero_extendqisi2
 3483 001c 3360     		str	r3, [r6]
1675:../Middlewares/stm32-mw-camera/sensors/vd1943/vd1943.c **** 
1676:../Middlewares/stm32-mw-camera/sensors/vd1943/vd1943.c ****   return 0;
 3484              		.loc 1 1676 3 is_stmt 1 view .LVU1020
 3485              	.LVL287:
 3486              	.L252:
1677:../Middlewares/stm32-mw-camera/sensors/vd1943/vd1943.c **** }
 3487              		.loc 1 1677 1 is_stmt 0 view .LVU1021
 3488 001e 2046     		mov	r0, r4
 3489 0020 06B0     		add	sp, sp, #24
ARM GAS  /tmp/ccydMd0r.s 			page 107


 3490              		.cfi_remember_state
 3491              		.cfi_def_cfa_offset 16
 3492              		@ sp needed
 3493 0022 70BD     		pop	{r4, r5, r6, pc}
 3494              	.LVL288:
 3495              	.L253:
 3496              		.cfi_restore_state
1673:../Middlewares/stm32-mw-camera/sensors/vd1943/vd1943.c ****   *gain = reg8;
 3497              		.loc 1 1673 3 is_stmt 1 discriminator 1 view .LVU1022
1673:../Middlewares/stm32-mw-camera/sensors/vd1943/vd1943.c ****   *gain = reg8;
 3498              		.loc 1 1673 3 discriminator 1 view .LVU1023
 3499 0024 40F28963 		movw	r3, #1673
 3500 0028 064A     		ldr	r2, .L255
 3501 002a 0290     		str	r0, [sp, #8]
 3502 002c 0092     		str	r2, [sp]
 3503 002e 2846     		mov	r0, r5
 3504              	.LVL289:
1673:../Middlewares/stm32-mw-camera/sensors/vd1943/vd1943.c ****   *gain = reg8;
 3505              		.loc 1 1673 3 is_stmt 0 discriminator 1 view .LVU1024
 3506 0030 0021     		movs	r1, #0
 3507 0032 054A     		ldr	r2, .L255+4
 3508 0034 0193     		str	r3, [sp, #4]
 3509 0036 FFF7FEFF 		bl	VD1943_log_impl
 3510              	.LVL290:
1673:../Middlewares/stm32-mw-camera/sensors/vd1943/vd1943.c ****   *gain = reg8;
 3511              		.loc 1 1673 3 is_stmt 1 discriminator 3 view .LVU1025
1673:../Middlewares/stm32-mw-camera/sensors/vd1943/vd1943.c ****   *gain = reg8;
 3512              		.loc 1 1673 3 discriminator 3 view .LVU1026
1673:../Middlewares/stm32-mw-camera/sensors/vd1943/vd1943.c ****   *gain = reg8;
 3513              		.loc 1 1673 3 discriminator 4 view .LVU1027
 3514 003a 2846     		mov	r0, r5
 3515 003c FFF7FEFF 		bl	display_error
 3516              	.LVL291:
1673:../Middlewares/stm32-mw-camera/sensors/vd1943/vd1943.c ****   *gain = reg8;
 3517              		.loc 1 1673 3 discriminator 6 view .LVU1028
 3518 0040 EDE7     		b	.L252
 3519              	.L256:
 3520 0042 00BF     		.align	2
 3521              	.L255:
 3522 0044 00000000 		.word	__func__.3
 3523 0048 00000000 		.word	.LC4
 3524              		.cfi_endproc
 3525              	.LFE52:
 3527              		.section	.rodata.VD1943_SetDigitalGain.str1.1,"aMS",%progbits,1
 3528              	.LC21:
 3529 0000 6472765F 		.ascii	"drv_vd1943_ctx->set_digital_gain\000"
 3529      76643139 
 3529      34335F63 
 3529      74782D3E 
 3529      7365745F 
 3530              		.section	.text.VD1943_SetDigitalGain,"ax",%progbits
 3531              		.align	1
 3532              		.global	VD1943_SetDigitalGain
 3533              		.syntax unified
 3534              		.thumb
 3535              		.thumb_func
 3537              	VD1943_SetDigitalGain:
ARM GAS  /tmp/ccydMd0r.s 			page 108


 3538              	.LVL292:
 3539              	.LFB53:
1678:../Middlewares/stm32-mw-camera/sensors/vd1943/vd1943.c **** 
1679:../Middlewares/stm32-mw-camera/sensors/vd1943/vd1943.c **** int VD1943_SetDigitalGain(VD1943_Ctx_t *ctx, unsigned int gain)
1680:../Middlewares/stm32-mw-camera/sensors/vd1943/vd1943.c **** {
 3540              		.loc 1 1680 1 view -0
 3541              		.cfi_startproc
 3542              		@ args = 0, pretend = 0, frame = 0
 3543              		@ frame_needed = 0, uses_anonymous_args = 0
1681:../Middlewares/stm32-mw-camera/sensors/vd1943/vd1943.c ****   struct drv_vd1943_ctx *drv_vd1943_ctx = &ctx->ctx;
 3544              		.loc 1 1681 3 view .LVU1030
1682:../Middlewares/stm32-mw-camera/sensors/vd1943/vd1943.c ****   int ret;
 3545              		.loc 1 1682 3 view .LVU1031
1683:../Middlewares/stm32-mw-camera/sensors/vd1943/vd1943.c **** 
1684:../Middlewares/stm32-mw-camera/sensors/vd1943/vd1943.c ****   if (gain > VD1943_DIGITAL_GAIN_MAX)
 3546              		.loc 1 1684 3 view .LVU1032
 3547              		.loc 1 1684 6 is_stmt 0 view .LVU1033
 3548 0000 B1F5005F 		cmp	r1, #8192
1680:../Middlewares/stm32-mw-camera/sensors/vd1943/vd1943.c ****   struct drv_vd1943_ctx *drv_vd1943_ctx = &ctx->ctx;
 3549              		.loc 1 1680 1 view .LVU1034
 3550 0004 38B5     		push	{r3, r4, r5, lr}
 3551              		.cfi_def_cfa_offset 16
 3552              		.cfi_offset 3, -16
 3553              		.cfi_offset 4, -12
 3554              		.cfi_offset 5, -8
 3555              		.cfi_offset 14, -4
1680:../Middlewares/stm32-mw-camera/sensors/vd1943/vd1943.c ****   struct drv_vd1943_ctx *drv_vd1943_ctx = &ctx->ctx;
 3556              		.loc 1 1680 1 view .LVU1035
 3557 0006 0446     		mov	r4, r0
 3558 0008 0D46     		mov	r5, r1
 3559              		.loc 1 1684 6 view .LVU1036
 3560 000a 0DD8     		bhi	.L262
1685:../Middlewares/stm32-mw-camera/sensors/vd1943/vd1943.c ****     return -1;
1686:../Middlewares/stm32-mw-camera/sensors/vd1943/vd1943.c **** 
1687:../Middlewares/stm32-mw-camera/sensors/vd1943/vd1943.c ****   assert(drv_vd1943_ctx->set_digital_gain);
 3561              		.loc 1 1687 3 is_stmt 1 view .LVU1037
 3562 000c D0F88030 		ldr	r3, [r0, #128]
 3563 0010 33B9     		cbnz	r3, .L259
 3564              		.loc 1 1687 3 is_stmt 0 discriminator 1 view .LVU1038
 3565 0012 40F29761 		movw	r1, #1687
 3566              	.LVL293:
 3567              		.loc 1 1687 3 discriminator 1 view .LVU1039
 3568 0016 064B     		ldr	r3, .L263
 3569 0018 064A     		ldr	r2, .L263+4
 3570 001a 0748     		ldr	r0, .L263+8
 3571              	.LVL294:
 3572              		.loc 1 1687 3 discriminator 1 view .LVU1040
 3573 001c FFF7FEFF 		bl	__assert_func
 3574              	.LVL295:
 3575              	.L259:
1688:../Middlewares/stm32-mw-camera/sensors/vd1943/vd1943.c ****   ret = drv_vd1943_ctx->set_digital_gain(ctx, gain);
 3576              		.loc 1 1688 3 is_stmt 1 view .LVU1041
 3577              		.loc 1 1688 9 is_stmt 0 view .LVU1042
 3578 0020 9847     		blx	r3
 3579              	.LVL296:
1689:../Middlewares/stm32-mw-camera/sensors/vd1943/vd1943.c ****   if (ret)
 3580              		.loc 1 1689 3 is_stmt 1 view .LVU1043
ARM GAS  /tmp/ccydMd0r.s 			page 109


 3581              		.loc 1 1689 6 is_stmt 0 view .LVU1044
 3582 0022 00B9     		cbnz	r0, .L257
1690:../Middlewares/stm32-mw-camera/sensors/vd1943/vd1943.c ****     return ret;
1691:../Middlewares/stm32-mw-camera/sensors/vd1943/vd1943.c ****   ctx->ctx.digital_gain = gain;
 3583              		.loc 1 1691 3 is_stmt 1 view .LVU1045
 3584              		.loc 1 1691 25 is_stmt 0 view .LVU1046
 3585 0024 6563     		str	r5, [r4, #52]
1692:../Middlewares/stm32-mw-camera/sensors/vd1943/vd1943.c **** 
1693:../Middlewares/stm32-mw-camera/sensors/vd1943/vd1943.c ****   return 0;
 3586              		.loc 1 1693 3 is_stmt 1 view .LVU1047
 3587              	.LVL297:
 3588              	.L257:
1694:../Middlewares/stm32-mw-camera/sensors/vd1943/vd1943.c **** }
 3589              		.loc 1 1694 1 is_stmt 0 view .LVU1048
 3590 0026 38BD     		pop	{r3, r4, r5, pc}
 3591              	.LVL298:
 3592              	.L262:
1685:../Middlewares/stm32-mw-camera/sensors/vd1943/vd1943.c **** 
 3593              		.loc 1 1685 12 view .LVU1049
 3594 0028 4FF0FF30 		mov	r0, #-1
 3595              	.LVL299:
1685:../Middlewares/stm32-mw-camera/sensors/vd1943/vd1943.c **** 
 3596              		.loc 1 1685 12 view .LVU1050
 3597 002c FBE7     		b	.L257
 3598              	.L264:
 3599 002e 00BF     		.align	2
 3600              	.L263:
 3601 0030 00000000 		.word	.LC21
 3602 0034 00000000 		.word	__func__.2
 3603 0038 09000000 		.word	.LC2
 3604              		.cfi_endproc
 3605              	.LFE53:
 3607              		.section	.text.VD1943_GetDigitalGain,"ax",%progbits
 3608              		.align	1
 3609              		.global	VD1943_GetDigitalGain
 3610              		.syntax unified
 3611              		.thumb
 3612              		.thumb_func
 3614              	VD1943_GetDigitalGain:
 3615              	.LVL300:
 3616              	.LFB54:
1695:../Middlewares/stm32-mw-camera/sensors/vd1943/vd1943.c **** 
1696:../Middlewares/stm32-mw-camera/sensors/vd1943/vd1943.c **** int VD1943_GetDigitalGain(VD1943_Ctx_t *ctx, unsigned int *gain)
1697:../Middlewares/stm32-mw-camera/sensors/vd1943/vd1943.c **** {
 3617              		.loc 1 1697 1 is_stmt 1 view -0
 3618              		.cfi_startproc
 3619              		@ args = 0, pretend = 0, frame = 0
 3620              		@ frame_needed = 0, uses_anonymous_args = 0
 3621              		@ link register save eliminated.
1698:../Middlewares/stm32-mw-camera/sensors/vd1943/vd1943.c ****   return ctx->ctx.digital_gain;
 3622              		.loc 1 1698 3 view .LVU1052
1699:../Middlewares/stm32-mw-camera/sensors/vd1943/vd1943.c **** }
 3623              		.loc 1 1699 1 is_stmt 0 view .LVU1053
 3624 0000 406B     		ldr	r0, [r0, #52]
 3625              	.LVL301:
 3626              		.loc 1 1699 1 view .LVU1054
 3627 0002 7047     		bx	lr
ARM GAS  /tmp/ccydMd0r.s 			page 110


 3628              		.cfi_endproc
 3629              	.LFE54:
 3631              		.section	.rodata.VD1943_SetExpo.str1.1,"aMS",%progbits,1
 3632              	.LC22:
 3633 0000 6472765F 		.ascii	"drv_vd1943_ctx->set_expo\000"
 3633      76643139 
 3633      34335F63 
 3633      74782D3E 
 3633      7365745F 
 3634              		.section	.text.VD1943_SetExpo,"ax",%progbits
 3635              		.align	1
 3636              		.global	VD1943_SetExpo
 3637              		.syntax unified
 3638              		.thumb
 3639              		.thumb_func
 3641              	VD1943_SetExpo:
 3642              	.LVL302:
 3643              	.LFB55:
1700:../Middlewares/stm32-mw-camera/sensors/vd1943/vd1943.c **** 
1701:../Middlewares/stm32-mw-camera/sensors/vd1943/vd1943.c **** int VD1943_SetExpo(VD1943_Ctx_t *ctx, unsigned int expo_in_us)
1702:../Middlewares/stm32-mw-camera/sensors/vd1943/vd1943.c **** {
 3644              		.loc 1 1702 1 is_stmt 1 view -0
 3645              		.cfi_startproc
 3646              		@ args = 0, pretend = 0, frame = 0
 3647              		@ frame_needed = 0, uses_anonymous_args = 0
1703:../Middlewares/stm32-mw-camera/sensors/vd1943/vd1943.c ****   struct drv_vd1943_ctx *drv_vd1943_ctx = &ctx->ctx;
 3648              		.loc 1 1703 3 view .LVU1056
1704:../Middlewares/stm32-mw-camera/sensors/vd1943/vd1943.c **** 
1705:../Middlewares/stm32-mw-camera/sensors/vd1943/vd1943.c ****   assert(drv_vd1943_ctx->set_expo);
 3649              		.loc 1 1705 3 view .LVU1057
 3650 0000 D0F88430 		ldr	r3, [r0, #132]
1702:../Middlewares/stm32-mw-camera/sensors/vd1943/vd1943.c ****   struct drv_vd1943_ctx *drv_vd1943_ctx = &ctx->ctx;
 3651              		.loc 1 1702 1 is_stmt 0 view .LVU1058
 3652 0004 10B5     		push	{r4, lr}
 3653              		.cfi_def_cfa_offset 8
 3654              		.cfi_offset 4, -8
 3655              		.cfi_offset 14, -4
 3656              		.loc 1 1705 3 view .LVU1059
 3657 0006 33B9     		cbnz	r3, .L267
 3658              		.loc 1 1705 3 discriminator 1 view .LVU1060
 3659 0008 40F2A961 		movw	r1, #1705
 3660              	.LVL303:
 3661              		.loc 1 1705 3 discriminator 1 view .LVU1061
 3662 000c 034B     		ldr	r3, .L268
 3663 000e 044A     		ldr	r2, .L268+4
 3664 0010 0448     		ldr	r0, .L268+8
 3665              	.LVL304:
 3666              		.loc 1 1705 3 discriminator 1 view .LVU1062
 3667 0012 FFF7FEFF 		bl	__assert_func
 3668              	.LVL305:
 3669              	.L267:
1706:../Middlewares/stm32-mw-camera/sensors/vd1943/vd1943.c ****   return drv_vd1943_ctx->set_expo(ctx, expo_in_us);
 3670              		.loc 1 1706 3 is_stmt 1 view .LVU1063
1707:../Middlewares/stm32-mw-camera/sensors/vd1943/vd1943.c **** }
 3671              		.loc 1 1707 1 is_stmt 0 view .LVU1064
 3672 0016 BDE81040 		pop	{r4, lr}
 3673              		.cfi_restore 14
ARM GAS  /tmp/ccydMd0r.s 			page 111


 3674              		.cfi_restore 4
 3675              		.cfi_def_cfa_offset 0
1706:../Middlewares/stm32-mw-camera/sensors/vd1943/vd1943.c ****   return drv_vd1943_ctx->set_expo(ctx, expo_in_us);
 3676              		.loc 1 1706 10 view .LVU1065
 3677 001a 1847     		bx	r3
 3678              	.LVL306:
 3679              	.L269:
1706:../Middlewares/stm32-mw-camera/sensors/vd1943/vd1943.c ****   return drv_vd1943_ctx->set_expo(ctx, expo_in_us);
 3680              		.loc 1 1706 10 view .LVU1066
 3681              		.align	2
 3682              	.L268:
 3683 001c 00000000 		.word	.LC22
 3684 0020 00000000 		.word	__func__.1
 3685 0024 09000000 		.word	.LC2
 3686              		.cfi_endproc
 3687              	.LFE55:
 3689              		.section	.rodata.VD1943_GetExpo.str1.1,"aMS",%progbits,1
 3690              	.LC23:
 3691 0000 6472765F 		.ascii	"drv_vd1943_ctx->get_expo\000"
 3691      76643139 
 3691      34335F63 
 3691      74782D3E 
 3691      6765745F 
 3692              		.section	.text.VD1943_GetExpo,"ax",%progbits
 3693              		.align	1
 3694              		.global	VD1943_GetExpo
 3695              		.syntax unified
 3696              		.thumb
 3697              		.thumb_func
 3699              	VD1943_GetExpo:
 3700              	.LVL307:
 3701              	.LFB56:
1708:../Middlewares/stm32-mw-camera/sensors/vd1943/vd1943.c **** 
1709:../Middlewares/stm32-mw-camera/sensors/vd1943/vd1943.c **** int VD1943_GetExpo(VD1943_Ctx_t *ctx, unsigned int *expo_in_us)
1710:../Middlewares/stm32-mw-camera/sensors/vd1943/vd1943.c **** {
 3702              		.loc 1 1710 1 is_stmt 1 view -0
 3703              		.cfi_startproc
 3704              		@ args = 0, pretend = 0, frame = 0
 3705              		@ frame_needed = 0, uses_anonymous_args = 0
1711:../Middlewares/stm32-mw-camera/sensors/vd1943/vd1943.c ****   struct drv_vd1943_ctx *drv_vd1943_ctx = &ctx->ctx;
 3706              		.loc 1 1711 3 view .LVU1068
1712:../Middlewares/stm32-mw-camera/sensors/vd1943/vd1943.c **** 
1713:../Middlewares/stm32-mw-camera/sensors/vd1943/vd1943.c ****   assert(drv_vd1943_ctx->get_expo);
 3707              		.loc 1 1713 3 view .LVU1069
 3708 0000 D0F88830 		ldr	r3, [r0, #136]
1710:../Middlewares/stm32-mw-camera/sensors/vd1943/vd1943.c ****   struct drv_vd1943_ctx *drv_vd1943_ctx = &ctx->ctx;
 3709              		.loc 1 1710 1 is_stmt 0 view .LVU1070
 3710 0004 10B5     		push	{r4, lr}
 3711              		.cfi_def_cfa_offset 8
 3712              		.cfi_offset 4, -8
 3713              		.cfi_offset 14, -4
 3714              		.loc 1 1713 3 view .LVU1071
 3715 0006 33B9     		cbnz	r3, .L271
 3716              		.loc 1 1713 3 discriminator 1 view .LVU1072
 3717 0008 40F2B161 		movw	r1, #1713
 3718              	.LVL308:
 3719              		.loc 1 1713 3 discriminator 1 view .LVU1073
ARM GAS  /tmp/ccydMd0r.s 			page 112


 3720 000c 034B     		ldr	r3, .L272
 3721 000e 044A     		ldr	r2, .L272+4
 3722 0010 0448     		ldr	r0, .L272+8
 3723              	.LVL309:
 3724              		.loc 1 1713 3 discriminator 1 view .LVU1074
 3725 0012 FFF7FEFF 		bl	__assert_func
 3726              	.LVL310:
 3727              	.L271:
1714:../Middlewares/stm32-mw-camera/sensors/vd1943/vd1943.c ****   return drv_vd1943_ctx->get_expo(ctx, expo_in_us);
 3728              		.loc 1 1714 3 is_stmt 1 view .LVU1075
1715:../Middlewares/stm32-mw-camera/sensors/vd1943/vd1943.c **** }
 3729              		.loc 1 1715 1 is_stmt 0 view .LVU1076
 3730 0016 BDE81040 		pop	{r4, lr}
 3731              		.cfi_restore 14
 3732              		.cfi_restore 4
 3733              		.cfi_def_cfa_offset 0
1714:../Middlewares/stm32-mw-camera/sensors/vd1943/vd1943.c ****   return drv_vd1943_ctx->get_expo(ctx, expo_in_us);
 3734              		.loc 1 1714 10 view .LVU1077
 3735 001a 1847     		bx	r3
 3736              	.LVL311:
 3737              	.L273:
1714:../Middlewares/stm32-mw-camera/sensors/vd1943/vd1943.c ****   return drv_vd1943_ctx->get_expo(ctx, expo_in_us);
 3738              		.loc 1 1714 10 view .LVU1078
 3739              		.align	2
 3740              	.L272:
 3741 001c 00000000 		.word	.LC23
 3742 0020 00000000 		.word	__func__.0
 3743 0024 09000000 		.word	.LC2
 3744              		.cfi_endproc
 3745              	.LFE56:
 3747              		.section	.text.VD1943_GetPixelDepth,"ax",%progbits
 3748              		.align	1
 3749              		.global	VD1943_GetPixelDepth
 3750              		.syntax unified
 3751              		.thumb
 3752              		.thumb_func
 3754              	VD1943_GetPixelDepth:
 3755              	.LVL312:
 3756              	.LFB57:
1716:../Middlewares/stm32-mw-camera/sensors/vd1943/vd1943.c **** 
1717:../Middlewares/stm32-mw-camera/sensors/vd1943/vd1943.c **** int VD1943_GetPixelDepth(VD1943_Ctx_t *ctx, unsigned int *pixel_depth)
1718:../Middlewares/stm32-mw-camera/sensors/vd1943/vd1943.c **** {
 3757              		.loc 1 1718 1 is_stmt 1 view -0
 3758              		.cfi_startproc
 3759              		@ args = 0, pretend = 0, frame = 0
 3760              		@ frame_needed = 0, uses_anonymous_args = 0
 3761              		@ link register save eliminated.
1719:../Middlewares/stm32-mw-camera/sensors/vd1943/vd1943.c ****   switch (ctx->ctx.config_save.image_processing_mode) {
 3762              		.loc 1 1719 3 view .LVU1080
 3763              		.loc 1 1719 31 is_stmt 0 view .LVU1081
 3764 0000 90F84430 		ldrb	r3, [r0, #68]	@ zero_extendqisi2
 3765              		.loc 1 1719 3 view .LVU1082
 3766 0004 042B     		cmp	r3, #4
 3767 0006 0AD8     		bhi	.L275
 3768 0008 13B9     		cbnz	r3, .L276
 3769              	.L284:
 3770 000a 4FF0FF30 		mov	r0, #-1
ARM GAS  /tmp/ccydMd0r.s 			page 113


 3771              	.LVL313:
1720:../Middlewares/stm32-mw-camera/sensors/vd1943/vd1943.c ****   case VD1943_GS_SS1_NATIVE_8:
1721:../Middlewares/stm32-mw-camera/sensors/vd1943/vd1943.c ****   case VD1943_GS_SS1_SPLIT_NATIVE_8:
1722:../Middlewares/stm32-mw-camera/sensors/vd1943/vd1943.c ****   case VD1943_GS_SS1_RGB_8:
1723:../Middlewares/stm32-mw-camera/sensors/vd1943/vd1943.c ****   case VD1943_GS_SS1_IR_8:
1724:../Middlewares/stm32-mw-camera/sensors/vd1943/vd1943.c ****   case VD1943_GS_SS1_SPLIT_IR_8:
1725:../Middlewares/stm32-mw-camera/sensors/vd1943/vd1943.c ****   case VD1943_GS_SS2_MONO_8:
1726:../Middlewares/stm32-mw-camera/sensors/vd1943/vd1943.c ****   case VD1943_GS_SS4_MONO_8:
1727:../Middlewares/stm32-mw-camera/sensors/vd1943/vd1943.c ****   case VD1943_GS_SS32_MONO_8:
1728:../Middlewares/stm32-mw-camera/sensors/vd1943/vd1943.c ****   case VD1943_RS_SDR_NATIVE_8:
1729:../Middlewares/stm32-mw-camera/sensors/vd1943/vd1943.c ****   case VD1943_RS_SDR_RGB_8:
1730:../Middlewares/stm32-mw-camera/sensors/vd1943/vd1943.c ****     *pixel_depth = 8;
1731:../Middlewares/stm32-mw-camera/sensors/vd1943/vd1943.c ****     break;
1732:../Middlewares/stm32-mw-camera/sensors/vd1943/vd1943.c ****   case VD1943_GS_SS1_NATIVE_10:
1733:../Middlewares/stm32-mw-camera/sensors/vd1943/vd1943.c ****   case VD1943_GS_SS1_SPLIT_NATIVE_10:
1734:../Middlewares/stm32-mw-camera/sensors/vd1943/vd1943.c ****   case VD1943_GS_SS1_RGB_10:
1735:../Middlewares/stm32-mw-camera/sensors/vd1943/vd1943.c ****   case VD1943_GS_SS1_IR_10:
1736:../Middlewares/stm32-mw-camera/sensors/vd1943/vd1943.c ****   case VD1943_GS_SS1_SPLIT_IR_10:
1737:../Middlewares/stm32-mw-camera/sensors/vd1943/vd1943.c ****   case VD1943_GS_SS2_MONO_10:
1738:../Middlewares/stm32-mw-camera/sensors/vd1943/vd1943.c ****   case VD1943_GS_SS4_MONO_10:
1739:../Middlewares/stm32-mw-camera/sensors/vd1943/vd1943.c ****   case VD1943_GS_SS32_MONO_10:
1740:../Middlewares/stm32-mw-camera/sensors/vd1943/vd1943.c ****   case VD1943_RS_SDR_NATIVE_10:
1741:../Middlewares/stm32-mw-camera/sensors/vd1943/vd1943.c ****   case VD1943_RS_SDR_RGB_10:
1742:../Middlewares/stm32-mw-camera/sensors/vd1943/vd1943.c ****   case VD1943_RS_HDR_NATIVE_10:
1743:../Middlewares/stm32-mw-camera/sensors/vd1943/vd1943.c ****   case VD1943_RS_HDR_RGB_10:
1744:../Middlewares/stm32-mw-camera/sensors/vd1943/vd1943.c ****     *pixel_depth = 10;
1745:../Middlewares/stm32-mw-camera/sensors/vd1943/vd1943.c ****     break;
1746:../Middlewares/stm32-mw-camera/sensors/vd1943/vd1943.c ****   case VD1943_RS_SDR_NATIVE_12:
1747:../Middlewares/stm32-mw-camera/sensors/vd1943/vd1943.c ****   case VD1943_RS_SDR_RGB_12:
1748:../Middlewares/stm32-mw-camera/sensors/vd1943/vd1943.c ****   case VD1943_RS_HDR_NATIVE_12:
1749:../Middlewares/stm32-mw-camera/sensors/vd1943/vd1943.c ****   case VD1943_RS_HDR_RGB_12:
1750:../Middlewares/stm32-mw-camera/sensors/vd1943/vd1943.c ****     *pixel_depth = 12;
1751:../Middlewares/stm32-mw-camera/sensors/vd1943/vd1943.c ****     break;
1752:../Middlewares/stm32-mw-camera/sensors/vd1943/vd1943.c ****   default:
1753:../Middlewares/stm32-mw-camera/sensors/vd1943/vd1943.c ****     return -1;
1754:../Middlewares/stm32-mw-camera/sensors/vd1943/vd1943.c ****   }
1755:../Middlewares/stm32-mw-camera/sensors/vd1943/vd1943.c **** 
1756:../Middlewares/stm32-mw-camera/sensors/vd1943/vd1943.c ****   return 0;
1757:../Middlewares/stm32-mw-camera/sensors/vd1943/vd1943.c **** }
 3772              		.loc 1 1757 1 view .LVU1083
 3773 000e 7047     		bx	lr
 3774              	.LVL314:
 3775              	.L276:
1719:../Middlewares/stm32-mw-camera/sensors/vd1943/vd1943.c ****   switch (ctx->ctx.config_save.image_processing_mode) {
 3776              		.loc 1 1719 3 view .LVU1084
 3777 0010 023B     		subs	r3, r3, #2
 3778 0012 022B     		cmp	r3, #2
 3779 0014 15D8     		bhi	.L279
 3780 0016 DFE803F0 		tbb	[pc, r3]
 3781              	.L281:
 3782 001a 18       		.byte	(.L278-.L281)/2
 3783 001b 14       		.byte	(.L279-.L281)/2
 3784 001c 18       		.byte	(.L278-.L281)/2
 3785 001d 00       		.p2align 1
 3786              	.L275:
 3787 001e 053B     		subs	r3, r3, #5
 3788 0020 DBB2     		uxtb	r3, r3
ARM GAS  /tmp/ccydMd0r.s 			page 114


 3789 0022 1E2B     		cmp	r3, #30
 3790 0024 F1D8     		bhi	.L284
 3791 0026 0122     		movs	r2, #1
 3792 0028 02FA03F3 		lsl	r3, r2, r3
 3793 002c 084A     		ldr	r2, .L289
 3794 002e 1A40     		ands	r2, r2, r3
 3795 0030 5AB9     		cbnz	r2, .L278
 3796 0032 084A     		ldr	r2, .L289+4
 3797 0034 1A40     		ands	r2, r2, r3
 3798 0036 22B9     		cbnz	r2, .L279
 3799 0038 13F0A94F 		tst	r3, #1417674752
 3800 003c E5D0     		beq	.L284
1750:../Middlewares/stm32-mw-camera/sensors/vd1943/vd1943.c ****     break;
 3801              		.loc 1 1750 5 is_stmt 1 view .LVU1085
1750:../Middlewares/stm32-mw-camera/sensors/vd1943/vd1943.c ****     break;
 3802              		.loc 1 1750 18 is_stmt 0 view .LVU1086
 3803 003e 0C23     		movs	r3, #12
 3804 0040 00E0     		b	.L288
 3805              	.L279:
1730:../Middlewares/stm32-mw-camera/sensors/vd1943/vd1943.c ****     break;
 3806              		.loc 1 1730 5 is_stmt 1 view .LVU1087
1730:../Middlewares/stm32-mw-camera/sensors/vd1943/vd1943.c ****     break;
 3807              		.loc 1 1730 18 is_stmt 0 view .LVU1088
 3808 0042 0823     		movs	r3, #8
 3809              	.L288:
1756:../Middlewares/stm32-mw-camera/sensors/vd1943/vd1943.c **** }
 3810              		.loc 1 1756 10 view .LVU1089
 3811 0044 0020     		movs	r0, #0
 3812              	.LVL315:
1730:../Middlewares/stm32-mw-camera/sensors/vd1943/vd1943.c ****     break;
 3813              		.loc 1 1730 18 view .LVU1090
 3814 0046 0B60     		str	r3, [r1]
1731:../Middlewares/stm32-mw-camera/sensors/vd1943/vd1943.c ****   case VD1943_GS_SS1_NATIVE_10:
 3815              		.loc 1 1731 5 is_stmt 1 view .LVU1091
 3816 0048 7047     		bx	lr
 3817              	.LVL316:
 3818              	.L278:
1744:../Middlewares/stm32-mw-camera/sensors/vd1943/vd1943.c ****     break;
 3819              		.loc 1 1744 5 view .LVU1092
1744:../Middlewares/stm32-mw-camera/sensors/vd1943/vd1943.c ****     break;
 3820              		.loc 1 1744 18 is_stmt 0 view .LVU1093
 3821 004a 0A23     		movs	r3, #10
 3822 004c FAE7     		b	.L288
 3823              	.L290:
 3824 004e 00BF     		.align	2
 3825              	.L289:
 3826 0050 A22A402A 		.word	708848290
 3827 0054 51152001 		.word	18879825
 3828              		.cfi_endproc
 3829              	.LFE57:
 3831              		.section	.rodata.VD1943_Start.str1.1,"aMS",%progbits,1
 3832              	.LC24:
 3833 0000 72656374 		.ascii	"rect->left % 4 == 0\000"
 3833      2D3E6C65 
 3833      66742025 
 3833      2034203D 
 3833      3D203000 
ARM GAS  /tmp/ccydMd0r.s 			page 115


 3834              	.LC25:
 3835 0014 72656374 		.ascii	"rect->top % 4 == 0\000"
 3835      2D3E746F 
 3835      70202520 
 3835      34203D3D 
 3835      203000
 3836              	.LC26:
 3837 0027 72656374 		.ascii	"rect->width % 4 == 0\000"
 3837      2D3E7769 
 3837      64746820 
 3837      25203420 
 3837      3D3D2030 
 3838              	.LC27:
 3839 003c 72656374 		.ascii	"rect->height % 4 == 0\000"
 3839      2D3E6865 
 3839      69676874 
 3839      20252034 
 3839      203D3D20 
 3840              	.LC28:
 3841 0052 56443139 		.ascii	"VD1943_DG%d-%d : system pll clock = %d hz\012\000"
 3841      34335F44 
 3841      4725642D 
 3841      2564203A 
 3841      20737973 
 3842              	.LC29:
 3843 007d 56443139 		.ascii	"VD1943_DG%d-%d : line_length = %d\012\000"
 3843      34335F44 
 3843      4725642D 
 3843      2564203A 
 3843      206C696E 
 3844              	.LC30:
 3845 00a0 56443139 		.ascii	"VD1943_DG%d-%d : Set frame_length to %d to reach %d"
 3845      34335F44 
 3845      4725642D 
 3845      2564203A 
 3845      20536574 
 3846 00d3 20667073 		.ascii	" fps\012\000"
 3846      0A00
 3847              		.section	.text.VD1943_Start,"ax",%progbits
 3848              		.align	1
 3849              		.global	VD1943_Start
 3850              		.syntax unified
 3851              		.thumb
 3852              		.thumb_func
 3854              	VD1943_Start:
 3855              	.LVL317:
 3856              	.LFB48:
1604:../Middlewares/stm32-mw-camera/sensors/vd1943/vd1943.c ****   struct drv_vd1943_ctx *drv_vd1943_ctx = &ctx->ctx;
 3857              		.loc 1 1604 1 is_stmt 1 view -0
 3858              		.cfi_startproc
 3859              		@ args = 0, pretend = 0, frame = 8
 3860              		@ frame_needed = 0, uses_anonymous_args = 0
1605:../Middlewares/stm32-mw-camera/sensors/vd1943/vd1943.c ****   int ret;
 3861              		.loc 1 1605 3 view .LVU1095
1606:../Middlewares/stm32-mw-camera/sensors/vd1943/vd1943.c **** 
 3862              		.loc 1 1606 3 view .LVU1096
1608:../Middlewares/stm32-mw-camera/sensors/vd1943/vd1943.c ****     return -1;
ARM GAS  /tmp/ccydMd0r.s 			page 116


 3863              		.loc 1 1608 3 view .LVU1097
1604:../Middlewares/stm32-mw-camera/sensors/vd1943/vd1943.c ****   struct drv_vd1943_ctx *drv_vd1943_ctx = &ctx->ctx;
 3864              		.loc 1 1604 1 is_stmt 0 view .LVU1098
 3865 0000 2DE9F047 		push	{r4, r5, r6, r7, r8, r9, r10, lr}
 3866              		.cfi_def_cfa_offset 32
 3867              		.cfi_offset 4, -32
 3868              		.cfi_offset 5, -28
 3869              		.cfi_offset 6, -24
 3870              		.cfi_offset 7, -20
 3871              		.cfi_offset 8, -16
 3872              		.cfi_offset 9, -12
 3873              		.cfi_offset 10, -8
 3874              		.cfi_offset 14, -4
1608:../Middlewares/stm32-mw-camera/sensors/vd1943/vd1943.c ****     return -1;
 3875              		.loc 1 1608 6 view .LVU1099
 3876 0004 C66A     		ldr	r6, [r0, #44]
1604:../Middlewares/stm32-mw-camera/sensors/vd1943/vd1943.c ****   struct drv_vd1943_ctx *drv_vd1943_ctx = &ctx->ctx;
 3877              		.loc 1 1604 1 view .LVU1100
 3878 0006 0546     		mov	r5, r0
 3879 0008 86B0     		sub	sp, sp, #24
 3880              		.cfi_def_cfa_offset 56
1608:../Middlewares/stm32-mw-camera/sensors/vd1943/vd1943.c ****     return -1;
 3881              		.loc 1 1608 6 view .LVU1101
 3882 000a 2EB1     		cbz	r6, .L292
 3883              	.LVL318:
 3884              	.L333:
 3885              	.LBB142:
 3886              	.LBB143:
 3887              	.LBB144:
 3888              	.LBB145:
1098:../Middlewares/stm32-mw-camera/sensors/vd1943/vd1943.c **** 
 3889              		.loc 1 1098 12 view .LVU1102
 3890 000c 4FF0FF34 		mov	r4, #-1
 3891              	.LVL319:
1098:../Middlewares/stm32-mw-camera/sensors/vd1943/vd1943.c **** 
 3892              		.loc 1 1098 12 view .LVU1103
 3893              	.LBE145:
 3894              	.LBE144:
1287:../Middlewares/stm32-mw-camera/sensors/vd1943/vd1943.c ****     return ret;
 3895              		.loc 1 1287 3 is_stmt 1 view .LVU1104
 3896              	.L291:
1287:../Middlewares/stm32-mw-camera/sensors/vd1943/vd1943.c ****     return ret;
 3897              		.loc 1 1287 3 is_stmt 0 view .LVU1105
 3898              	.LBE143:
 3899              	.LBE142:
1625:../Middlewares/stm32-mw-camera/sensors/vd1943/vd1943.c **** 
 3900              		.loc 1 1625 1 view .LVU1106
 3901 0010 2046     		mov	r0, r4
 3902 0012 06B0     		add	sp, sp, #24
 3903              		.cfi_remember_state
 3904              		.cfi_def_cfa_offset 32
 3905              		@ sp needed
 3906 0014 BDE8F087 		pop	{r4, r5, r6, r7, r8, r9, r10, pc}
 3907              	.LVL320:
 3908              	.L292:
 3909              		.cfi_restore_state
1611:../Middlewares/stm32-mw-camera/sensors/vd1943/vd1943.c ****   if (ret)
ARM GAS  /tmp/ccydMd0r.s 			page 117


 3910              		.loc 1 1611 3 is_stmt 1 view .LVU1107
 3911              	.LBB208:
 3912              	.LBI142:
1274:../Middlewares/stm32-mw-camera/sensors/vd1943/vd1943.c **** {
 3913              		.loc 1 1274 12 view .LVU1108
 3914              	.LBB206:
1276:../Middlewares/stm32-mw-camera/sensors/vd1943/vd1943.c **** 
 3915              		.loc 1 1276 3 view .LVU1109
1278:../Middlewares/stm32-mw-camera/sensors/vd1943/vd1943.c ****   if (ret)
 3916              		.loc 1 1278 3 view .LVU1110
 3917              	.LBB150:
 3918              	.LBI150:
 851:../Middlewares/stm32-mw-camera/sensors/vd1943/vd1943.c **** {
 3919              		.loc 1 851 12 view .LVU1111
 3920              	.LBB151:
 853:../Middlewares/stm32-mw-camera/sensors/vd1943/vd1943.c ****   int ret;
 3921              		.loc 1 853 3 view .LVU1112
 854:../Middlewares/stm32-mw-camera/sensors/vd1943/vd1943.c **** 
 3922              		.loc 1 854 3 view .LVU1113
 857:../Middlewares/stm32-mw-camera/sensors/vd1943/vd1943.c ****   VD1943_TraceError(ctx, ret);
 3923              		.loc 1 857 3 view .LVU1114
 857:../Middlewares/stm32-mw-camera/sensors/vd1943/vd1943.c ****   VD1943_TraceError(ctx, ret);
 3924              		.loc 1 857 9 is_stmt 0 view .LVU1115
 3925 0018 4FF43461 		mov	r1, #2880
 3926 001c 8369     		ldr	r3, [r0, #24]
 3927 001e 90F84420 		ldrb	r2, [r0, #68]	@ zero_extendqisi2
 3928 0022 9847     		blx	r3
 3929              	.LVL321:
 858:../Middlewares/stm32-mw-camera/sensors/vd1943/vd1943.c **** 
 3930              		.loc 1 858 3 is_stmt 1 view .LVU1116
 858:../Middlewares/stm32-mw-camera/sensors/vd1943/vd1943.c **** 
 3931              		.loc 1 858 3 view .LVU1117
 3932 0024 0446     		mov	r4, r0
 3933 0026 D0B9     		cbnz	r0, .L294
 858:../Middlewares/stm32-mw-camera/sensors/vd1943/vd1943.c **** 
 3934              		.loc 1 858 3 discriminator 6 view .LVU1118
 858:../Middlewares/stm32-mw-camera/sensors/vd1943/vd1943.c **** 
 3935              		.loc 1 858 3 view .LVU1119
 863:../Middlewares/stm32-mw-camera/sensors/vd1943/vd1943.c ****       ctx->bayer == VD1943_BAYER_BGGR || ctx->bayer == VD1943_BAYER_GBRG)
 3936              		.loc 1 863 3 view .LVU1120
 863:../Middlewares/stm32-mw-camera/sensors/vd1943/vd1943.c ****       ctx->bayer == VD1943_BAYER_BGGR || ctx->bayer == VD1943_BAYER_GBRG)
 3937              		.loc 1 863 10 is_stmt 0 view .LVU1121
 3938 0028 95F82820 		ldrb	r2, [r5, #40]	@ zero_extendqisi2
 868:../Middlewares/stm32-mw-camera/sensors/vd1943/vd1943.c ****   }
 3939              		.loc 1 868 14 view .LVU1122
 3940 002c 2B69     		ldr	r3, [r5, #16]
 863:../Middlewares/stm32-mw-camera/sensors/vd1943/vd1943.c ****       ctx->bayer == VD1943_BAYER_BGGR || ctx->bayer == VD1943_BAYER_GBRG)
 3941              		.loc 1 863 6 view .LVU1123
 3942 002e D11E     		subs	r1, r2, #3
 3943 0030 0129     		cmp	r1, #1
 3944 0032 23D8     		bhi	.L378
 3945              	.L295:
 866:../Middlewares/stm32-mw-camera/sensors/vd1943/vd1943.c ****   } else {
 3946              		.loc 1 866 5 is_stmt 1 view .LVU1124
 866:../Middlewares/stm32-mw-camera/sensors/vd1943/vd1943.c ****   } else {
 3947              		.loc 1 866 11 is_stmt 0 view .LVU1125
 3948 0034 0222     		movs	r2, #2
ARM GAS  /tmp/ccydMd0r.s 			page 118


 3949              	.L389:
 868:../Middlewares/stm32-mw-camera/sensors/vd1943/vd1943.c ****   }
 3950              		.loc 1 868 11 view .LVU1126
 3951 0036 40F6ED21 		movw	r1, #2797
 3952 003a 2846     		mov	r0, r5
 3953              	.LVL322:
 868:../Middlewares/stm32-mw-camera/sensors/vd1943/vd1943.c ****   }
 3954              		.loc 1 868 11 view .LVU1127
 3955 003c 9847     		blx	r3
 3956              	.LVL323:
 3957 003e 0446     		mov	r4, r0
 3958              	.LVL324:
 870:../Middlewares/stm32-mw-camera/sensors/vd1943/vd1943.c **** 
 3959              		.loc 1 870 3 is_stmt 1 view .LVU1128
 870:../Middlewares/stm32-mw-camera/sensors/vd1943/vd1943.c **** 
 3960              		.loc 1 870 3 view .LVU1129
 3961 0040 58BB     		cbnz	r0, .L299
 870:../Middlewares/stm32-mw-camera/sensors/vd1943/vd1943.c **** 
 3962              		.loc 1 870 3 discriminator 3 view .LVU1130
 870:../Middlewares/stm32-mw-camera/sensors/vd1943/vd1943.c **** 
 3963              		.loc 1 870 3 discriminator 3 view .LVU1131
 870:../Middlewares/stm32-mw-camera/sensors/vd1943/vd1943.c **** 
 3964              		.loc 1 870 3 discriminator 6 view .LVU1132
 870:../Middlewares/stm32-mw-camera/sensors/vd1943/vd1943.c **** 
 3965              		.loc 1 870 3 view .LVU1133
 874:../Middlewares/stm32-mw-camera/sensors/vd1943/vd1943.c ****   VD1943_TraceError(ctx, ret);
 3966              		.loc 1 874 3 view .LVU1134
 3967 0042 EB6C     		ldr	r3, [r5, #76]
 3968              	.LBB152:
 3969              	.LBI152:
 769:../Middlewares/stm32-mw-camera/sensors/vd1943/vd1943.c **** {
 3970              		.loc 1 769 16 view .LVU1135
 3971              	.LVL325:
 3972              	.LBB153:
 771:../Middlewares/stm32-mw-camera/sensors/vd1943/vd1943.c ****   case 2:
 3973              		.loc 1 771 3 view .LVU1136
 3974              	.LBE153:
 3975              	.LBE152:
 874:../Middlewares/stm32-mw-camera/sensors/vd1943/vd1943.c ****   VD1943_TraceError(ctx, ret);
 3976              		.loc 1 874 12 is_stmt 0 view .LVU1137
 3977 0044 2E69     		ldr	r6, [r5, #16]
 3978              	.LBB156:
 3979              	.LBB154:
 771:../Middlewares/stm32-mw-camera/sensors/vd1943/vd1943.c ****   case 2:
 3980              		.loc 1 771 3 view .LVU1138
 3981 0046 022B     		cmp	r3, #2
 3982 0048 1CD0     		beq	.L361
 3983 004a 042B     		cmp	r3, #4
 3984 004c 0246     		mov	r2, r0
 3985 004e 1AD0     		beq	.L300
 777:../Middlewares/stm32-mw-camera/sensors/vd1943/vd1943.c ****   default:
 3986              		.loc 1 777 5 is_stmt 1 view .LVU1139
 779:../Middlewares/stm32-mw-camera/sensors/vd1943/vd1943.c ****   }
 3987              		.loc 1 779 5 view .LVU1140
 3988 0050 40F20B31 		movw	r1, #779
 3989 0054 9C4B     		ldr	r3, .L398
 3990 0056 9D4A     		ldr	r2, .L398+4
ARM GAS  /tmp/ccydMd0r.s 			page 119


 3991              	.LVL326:
 3992              	.L393:
 779:../Middlewares/stm32-mw-camera/sensors/vd1943/vd1943.c ****   }
 3993              		.loc 1 779 5 is_stmt 0 view .LVU1141
 3994              	.LBE154:
 3995              	.LBE156:
 3996              	.LBB157:
 3997              	.LBB158:
 841:../Middlewares/stm32-mw-camera/sensors/vd1943/vd1943.c ****     return -1;
 3998              		.loc 1 841 5 view .LVU1142
 3999 0058 9D48     		ldr	r0, .L398+8
 4000 005a FFF7FEFF 		bl	__assert_func
 4001              	.LVL327:
 4002              	.L294:
 841:../Middlewares/stm32-mw-camera/sensors/vd1943/vd1943.c ****     return -1;
 4003              		.loc 1 841 5 view .LVU1143
 4004              	.LBE158:
 4005              	.LBE157:
 858:../Middlewares/stm32-mw-camera/sensors/vd1943/vd1943.c **** 
 4006              		.loc 1 858 3 is_stmt 1 discriminator 1 view .LVU1144
 858:../Middlewares/stm32-mw-camera/sensors/vd1943/vd1943.c **** 
 4007              		.loc 1 858 3 discriminator 1 view .LVU1145
 4008 005e 40F25A33 		movw	r3, #858
 4009 0062 0290     		str	r0, [sp, #8]
 4010              	.L394:
 870:../Middlewares/stm32-mw-camera/sensors/vd1943/vd1943.c **** 
 4011              		.loc 1 870 3 is_stmt 0 discriminator 1 view .LVU1146
 4012 0064 9B4A     		ldr	r2, .L398+12
 4013 0066 0193     		str	r3, [sp, #4]
 4014              	.LVL328:
 4015              	.L391:
 870:../Middlewares/stm32-mw-camera/sensors/vd1943/vd1943.c **** 
 4016              		.loc 1 870 3 discriminator 1 view .LVU1147
 4017              	.LBE151:
 4018              	.LBE150:
 4019              	.LBB173:
 4020              	.LBB174:
1269:../Middlewares/stm32-mw-camera/sensors/vd1943/vd1943.c **** 
 4021              		.loc 1 1269 3 discriminator 1 view .LVU1148
 4022 0068 2846     		mov	r0, r5
 4023 006a 0092     		str	r2, [sp]
 4024 006c 0021     		movs	r1, #0
 4025 006e 9A4A     		ldr	r2, .L398+16
 4026 0070 FFF7FEFF 		bl	VD1943_log_impl
 4027              	.LVL329:
1269:../Middlewares/stm32-mw-camera/sensors/vd1943/vd1943.c **** 
 4028              		.loc 1 1269 3 is_stmt 1 discriminator 3 view .LVU1149
1269:../Middlewares/stm32-mw-camera/sensors/vd1943/vd1943.c **** 
 4029              		.loc 1 1269 3 discriminator 3 view .LVU1150
1269:../Middlewares/stm32-mw-camera/sensors/vd1943/vd1943.c **** 
 4030              		.loc 1 1269 3 discriminator 4 view .LVU1151
 4031 0074 2846     		mov	r0, r5
 4032 0076 FFF7FEFF 		bl	display_error
 4033              	.LVL330:
1269:../Middlewares/stm32-mw-camera/sensors/vd1943/vd1943.c **** 
 4034              		.loc 1 1269 3 discriminator 6 view .LVU1152
1269:../Middlewares/stm32-mw-camera/sensors/vd1943/vd1943.c **** 
ARM GAS  /tmp/ccydMd0r.s 			page 120


 4035              		.loc 1 1269 3 discriminator 7 view .LVU1153
1269:../Middlewares/stm32-mw-camera/sensors/vd1943/vd1943.c **** 
 4036              		.loc 1 1269 3 is_stmt 0 discriminator 7 view .LVU1154
 4037              	.LBE174:
 4038              	.LBE173:
 4039              	.LBE206:
 4040              	.LBE208:
1612:../Middlewares/stm32-mw-camera/sensors/vd1943/vd1943.c ****     return ret;
 4041              		.loc 1 1612 3 is_stmt 1 view .LVU1155
 4042 007a C9E7     		b	.L291
 4043              	.LVL331:
 4044              	.L378:
 4045              	.LBB209:
 4046              	.LBB207:
 4047              	.LBB177:
 4048              	.LBB172:
 863:../Middlewares/stm32-mw-camera/sensors/vd1943/vd1943.c ****       ctx->bayer == VD1943_BAYER_BGGR || ctx->bayer == VD1943_BAYER_GBRG)
 4049              		.loc 1 863 39 is_stmt 0 discriminator 1 view .LVU1156
 4050 007c 012A     		cmp	r2, #1
 4051 007e D9D0     		beq	.L295
 868:../Middlewares/stm32-mw-camera/sensors/vd1943/vd1943.c ****   }
 4052              		.loc 1 868 5 is_stmt 1 view .LVU1157
 868:../Middlewares/stm32-mw-camera/sensors/vd1943/vd1943.c ****   }
 4053              		.loc 1 868 11 is_stmt 0 view .LVU1158
 4054 0080 0246     		mov	r2, r0
 4055 0082 D8E7     		b	.L389
 4056              	.LVL332:
 4057              	.L361:
 4058              	.LBB160:
 4059              	.LBB155:
 773:../Middlewares/stm32-mw-camera/sensors/vd1943/vd1943.c ****     break;
 4060              		.loc 1 773 12 view .LVU1159
 4061 0084 0122     		movs	r2, #1
 4062              	.L300:
 4063              	.LVL333:
 773:../Middlewares/stm32-mw-camera/sensors/vd1943/vd1943.c ****     break;
 4064              		.loc 1 773 12 view .LVU1160
 4065              	.LBE155:
 4066              	.LBE160:
 874:../Middlewares/stm32-mw-camera/sensors/vd1943/vd1943.c ****   VD1943_TraceError(ctx, ret);
 4067              		.loc 1 874 9 discriminator 1 view .LVU1161
 4068 0086 40F24371 		movw	r1, #1859
 4069 008a 2846     		mov	r0, r5
 4070              	.LVL334:
 874:../Middlewares/stm32-mw-camera/sensors/vd1943/vd1943.c ****   VD1943_TraceError(ctx, ret);
 4071              		.loc 1 874 9 discriminator 1 view .LVU1162
 4072 008c B047     		blx	r6
 4073              	.LVL335:
 875:../Middlewares/stm32-mw-camera/sensors/vd1943/vd1943.c ****   /* logical / physical mapping */
 4074              		.loc 1 875 3 is_stmt 1 view .LVU1163
 875:../Middlewares/stm32-mw-camera/sensors/vd1943/vd1943.c ****   /* logical / physical mapping */
 4075              		.loc 1 875 3 view .LVU1164
 4076 008e 0446     		mov	r4, r0
 4077 0090 38B1     		cbz	r0, .L379
 875:../Middlewares/stm32-mw-camera/sensors/vd1943/vd1943.c ****   /* logical / physical mapping */
 4078              		.loc 1 875 3 discriminator 1 view .LVU1165
 875:../Middlewares/stm32-mw-camera/sensors/vd1943/vd1943.c ****   /* logical / physical mapping */
ARM GAS  /tmp/ccydMd0r.s 			page 121


 4079              		.loc 1 875 3 discriminator 1 view .LVU1166
 4080 0092 40F26B33 		movw	r3, #875
 4081 0096 0290     		str	r0, [sp, #8]
 4082 0098 E4E7     		b	.L394
 4083              	.L299:
 870:../Middlewares/stm32-mw-camera/sensors/vd1943/vd1943.c **** 
 4084              		.loc 1 870 3 discriminator 1 view .LVU1167
 870:../Middlewares/stm32-mw-camera/sensors/vd1943/vd1943.c **** 
 4085              		.loc 1 870 3 discriminator 1 view .LVU1168
 4086 009a 40F26633 		movw	r3, #870
 4087 009e 0290     		str	r0, [sp, #8]
 4088 00a0 E0E7     		b	.L394
 4089              	.L379:
 875:../Middlewares/stm32-mw-camera/sensors/vd1943/vd1943.c ****   /* logical / physical mapping */
 4090              		.loc 1 875 3 discriminator 3 view .LVU1169
 875:../Middlewares/stm32-mw-camera/sensors/vd1943/vd1943.c ****   /* logical / physical mapping */
 4091              		.loc 1 875 3 discriminator 3 view .LVU1170
 875:../Middlewares/stm32-mw-camera/sensors/vd1943/vd1943.c ****   /* logical / physical mapping */
 4092              		.loc 1 875 3 discriminator 6 view .LVU1171
 875:../Middlewares/stm32-mw-camera/sensors/vd1943/vd1943.c ****   /* logical / physical mapping */
 4093              		.loc 1 875 3 view .LVU1172
 877:../Middlewares/stm32-mw-camera/sensors/vd1943/vd1943.c ****   VD1943_TraceError(ctx, ret);
 4094              		.loc 1 877 3 view .LVU1173
 4095              	.LVL336:
 4096              	.LBB161:
 4097              	.LBI161:
 785:../Middlewares/stm32-mw-camera/sensors/vd1943/vd1943.c **** {
 4098              		.loc 1 785 16 view .LVU1174
 4099              	.LBB162:
 787:../Middlewares/stm32-mw-camera/sensors/vd1943/vd1943.c ****          (out_itf->logic_lane_mapping[1] << 2) |
 4100              		.loc 1 787 3 view .LVU1175
 788:../Middlewares/stm32-mw-camera/sensors/vd1943/vd1943.c ****          (out_itf->logic_lane_mapping[2] << 4) |
 4101              		.loc 1 788 48 is_stmt 0 view .LVU1176
 4102 00a2 D5E91513 		ldrd	r1, r3, [r5, #84]
 4103 00a6 1A01     		lsls	r2, r3, #4
 787:../Middlewares/stm32-mw-camera/sensors/vd1943/vd1943.c ****          (out_itf->logic_lane_mapping[1] << 2) |
 4104              		.loc 1 787 48 view .LVU1177
 4105 00a8 2B6D     		ldr	r3, [r5, #80]
 788:../Middlewares/stm32-mw-camera/sensors/vd1943/vd1943.c ****          (out_itf->logic_lane_mapping[2] << 4) |
 4106              		.loc 1 788 48 view .LVU1178
 4107 00aa 42EA8102 		orr	r2, r2, r1, lsl #2
 4108 00ae 1A43     		orrs	r2, r2, r3
 789:../Middlewares/stm32-mw-camera/sensors/vd1943/vd1943.c ****          (out_itf->logic_lane_mapping[3] << 6);
 4109              		.loc 1 789 48 view .LVU1179
 4110 00b0 EB6D     		ldr	r3, [r5, #92]
 4111              	.LBE162:
 4112              	.LBE161:
 877:../Middlewares/stm32-mw-camera/sensors/vd1943/vd1943.c ****   VD1943_TraceError(ctx, ret);
 4113              		.loc 1 877 9 discriminator 1 view .LVU1180
 4114 00b2 40F63A11 		movw	r1, #2362
 4115              	.LBB164:
 4116              	.LBB163:
 789:../Middlewares/stm32-mw-camera/sensors/vd1943/vd1943.c ****          (out_itf->logic_lane_mapping[3] << 6);
 4117              		.loc 1 789 48 view .LVU1181
 4118 00b6 42EA8312 		orr	r2, r2, r3, lsl #6
 4119              	.LBE163:
 4120              	.LBE164:
ARM GAS  /tmp/ccydMd0r.s 			page 122


 877:../Middlewares/stm32-mw-camera/sensors/vd1943/vd1943.c ****   VD1943_TraceError(ctx, ret);
 4121              		.loc 1 877 9 discriminator 1 view .LVU1182
 4122 00ba 2846     		mov	r0, r5
 4123              	.LVL337:
 877:../Middlewares/stm32-mw-camera/sensors/vd1943/vd1943.c ****   VD1943_TraceError(ctx, ret);
 4124              		.loc 1 877 9 discriminator 1 view .LVU1183
 4125 00bc 2B69     		ldr	r3, [r5, #16]
 4126 00be D2B2     		uxtb	r2, r2
 4127 00c0 9847     		blx	r3
 4128              	.LVL338:
 878:../Middlewares/stm32-mw-camera/sensors/vd1943/vd1943.c ****   /* lane swap */
 4129              		.loc 1 878 3 is_stmt 1 view .LVU1184
 878:../Middlewares/stm32-mw-camera/sensors/vd1943/vd1943.c ****   /* lane swap */
 4130              		.loc 1 878 3 view .LVU1185
 4131 00c2 0446     		mov	r4, r0
 4132 00c4 18B1     		cbz	r0, .L380
 878:../Middlewares/stm32-mw-camera/sensors/vd1943/vd1943.c ****   /* lane swap */
 4133              		.loc 1 878 3 discriminator 1 view .LVU1186
 878:../Middlewares/stm32-mw-camera/sensors/vd1943/vd1943.c ****   /* lane swap */
 4134              		.loc 1 878 3 discriminator 1 view .LVU1187
 4135 00c6 40F26E33 		movw	r3, #878
 4136 00ca 0290     		str	r0, [sp, #8]
 4137 00cc CAE7     		b	.L394
 4138              	.L380:
 878:../Middlewares/stm32-mw-camera/sensors/vd1943/vd1943.c ****   /* lane swap */
 4139              		.loc 1 878 3 discriminator 3 view .LVU1188
 878:../Middlewares/stm32-mw-camera/sensors/vd1943/vd1943.c ****   /* lane swap */
 4140              		.loc 1 878 3 discriminator 3 view .LVU1189
 878:../Middlewares/stm32-mw-camera/sensors/vd1943/vd1943.c ****   /* lane swap */
 4141              		.loc 1 878 3 discriminator 6 view .LVU1190
 878:../Middlewares/stm32-mw-camera/sensors/vd1943/vd1943.c ****   /* lane swap */
 4142              		.loc 1 878 3 view .LVU1191
 880:../Middlewares/stm32-mw-camera/sensors/vd1943/vd1943.c ****   VD1943_TraceError(ctx, ret);
 4143              		.loc 1 880 3 view .LVU1192
 4144              	.LVL339:
 4145              	.LBB165:
 4146              	.LBI165:
 793:../Middlewares/stm32-mw-camera/sensors/vd1943/vd1943.c **** {
 4147              		.loc 1 793 16 view .LVU1193
 4148              	.LBB166:
 795:../Middlewares/stm32-mw-camera/sensors/vd1943/vd1943.c ****          (out_itf->physical_lane_swap_enable[1] << 1) |
 4149              		.loc 1 795 3 view .LVU1194
 796:../Middlewares/stm32-mw-camera/sensors/vd1943/vd1943.c ****          (out_itf->physical_lane_swap_enable[2] << 2) |
 4150              		.loc 1 796 55 is_stmt 0 view .LVU1195
 4151 00ce D5E91A13 		ldrd	r1, r3, [r5, #104]
 4152 00d2 9A00     		lsls	r2, r3, #2
 795:../Middlewares/stm32-mw-camera/sensors/vd1943/vd1943.c ****          (out_itf->physical_lane_swap_enable[1] << 1) |
 4153              		.loc 1 795 55 view .LVU1196
 4154 00d4 6B6E     		ldr	r3, [r5, #100]
 796:../Middlewares/stm32-mw-camera/sensors/vd1943/vd1943.c ****          (out_itf->physical_lane_swap_enable[2] << 2) |
 4155              		.loc 1 796 55 view .LVU1197
 4156 00d6 42EA4102 		orr	r2, r2, r1, lsl #1
 4157 00da 1A43     		orrs	r2, r2, r3
 797:../Middlewares/stm32-mw-camera/sensors/vd1943/vd1943.c ****          (out_itf->physical_lane_swap_enable[3] << 3) |
 4158              		.loc 1 797 55 view .LVU1198
 4159 00dc 2B6F     		ldr	r3, [r5, #112]
 4160              	.LBE166:
ARM GAS  /tmp/ccydMd0r.s 			page 123


 4161              	.LBE165:
 880:../Middlewares/stm32-mw-camera/sensors/vd1943/vd1943.c ****   VD1943_TraceError(ctx, ret);
 4162              		.loc 1 880 9 discriminator 1 view .LVU1199
 4163 00de 40F63B11 		movw	r1, #2363
 4164              	.LBB169:
 4165              	.LBB167:
 797:../Middlewares/stm32-mw-camera/sensors/vd1943/vd1943.c ****          (out_itf->physical_lane_swap_enable[3] << 3) |
 4166              		.loc 1 797 55 view .LVU1200
 4167 00e2 42EAC302 		orr	r2, r2, r3, lsl #3
 798:../Middlewares/stm32-mw-camera/sensors/vd1943/vd1943.c ****          (out_itf->clock_lane_swap_enable << 4);
 4168              		.loc 1 798 55 view .LVU1201
 4169 00e6 2B6E     		ldr	r3, [r5, #96]
 4170              	.LBE167:
 4171              	.LBE169:
 880:../Middlewares/stm32-mw-camera/sensors/vd1943/vd1943.c ****   VD1943_TraceError(ctx, ret);
 4172              		.loc 1 880 9 discriminator 1 view .LVU1202
 4173 00e8 2846     		mov	r0, r5
 4174              	.LVL340:
 4175              	.LBB170:
 4176              	.LBB168:
 798:../Middlewares/stm32-mw-camera/sensors/vd1943/vd1943.c ****          (out_itf->clock_lane_swap_enable << 4);
 4177              		.loc 1 798 55 view .LVU1203
 4178 00ea 42EA0312 		orr	r2, r2, r3, lsl #4
 4179              	.LBE168:
 4180              	.LBE170:
 880:../Middlewares/stm32-mw-camera/sensors/vd1943/vd1943.c ****   VD1943_TraceError(ctx, ret);
 4181              		.loc 1 880 9 discriminator 1 view .LVU1204
 4182 00ee D2B2     		uxtb	r2, r2
 4183 00f0 2B69     		ldr	r3, [r5, #16]
 4184 00f2 9847     		blx	r3
 4185              	.LVL341:
 881:../Middlewares/stm32-mw-camera/sensors/vd1943/vd1943.c ****    /* data rate */
 4186              		.loc 1 881 3 is_stmt 1 view .LVU1205
 881:../Middlewares/stm32-mw-camera/sensors/vd1943/vd1943.c ****    /* data rate */
 4187              		.loc 1 881 3 view .LVU1206
 4188 00f4 0446     		mov	r4, r0
 4189 00f6 18B1     		cbz	r0, .L381
 881:../Middlewares/stm32-mw-camera/sensors/vd1943/vd1943.c ****    /* data rate */
 4190              		.loc 1 881 3 discriminator 1 view .LVU1207
 881:../Middlewares/stm32-mw-camera/sensors/vd1943/vd1943.c ****    /* data rate */
 4191              		.loc 1 881 3 discriminator 1 view .LVU1208
 4192 00f8 40F27133 		movw	r3, #881
 4193 00fc 0290     		str	r0, [sp, #8]
 4194 00fe B1E7     		b	.L394
 4195              	.L381:
 881:../Middlewares/stm32-mw-camera/sensors/vd1943/vd1943.c ****    /* data rate */
 4196              		.loc 1 881 3 discriminator 3 view .LVU1209
 881:../Middlewares/stm32-mw-camera/sensors/vd1943/vd1943.c ****    /* data rate */
 4197              		.loc 1 881 3 discriminator 3 view .LVU1210
 881:../Middlewares/stm32-mw-camera/sensors/vd1943/vd1943.c ****    /* data rate */
 4198              		.loc 1 881 3 discriminator 6 view .LVU1211
 881:../Middlewares/stm32-mw-camera/sensors/vd1943/vd1943.c ****    /* data rate */
 4199              		.loc 1 881 3 view .LVU1212
 883:../Middlewares/stm32-mw-camera/sensors/vd1943/vd1943.c ****   VD1943_TraceError(ctx, ret);
 4200              		.loc 1 883 3 view .LVU1213
 883:../Middlewares/stm32-mw-camera/sensors/vd1943/vd1943.c ****   VD1943_TraceError(ctx, ret);
 4201              		.loc 1 883 9 is_stmt 0 view .LVU1214
ARM GAS  /tmp/ccydMd0r.s 			page 124


 4202 0100 4FF4E761 		mov	r1, #1848
 4203 0104 2846     		mov	r0, r5
 4204              	.LVL342:
 883:../Middlewares/stm32-mw-camera/sensors/vd1943/vd1943.c ****   VD1943_TraceError(ctx, ret);
 4205              		.loc 1 883 9 view .LVU1215
 4206 0106 AB69     		ldr	r3, [r5, #24]
 4207 0108 AA6C     		ldr	r2, [r5, #72]
 4208 010a 9847     		blx	r3
 4209              	.LVL343:
 884:../Middlewares/stm32-mw-camera/sensors/vd1943/vd1943.c ****    /* data type / RAW8*/
 4210              		.loc 1 884 3 is_stmt 1 view .LVU1216
 884:../Middlewares/stm32-mw-camera/sensors/vd1943/vd1943.c ****    /* data type / RAW8*/
 4211              		.loc 1 884 3 view .LVU1217
 4212 010c 0446     		mov	r4, r0
 4213 010e 18B1     		cbz	r0, .L382
 884:../Middlewares/stm32-mw-camera/sensors/vd1943/vd1943.c ****    /* data type / RAW8*/
 4214              		.loc 1 884 3 discriminator 1 view .LVU1218
 884:../Middlewares/stm32-mw-camera/sensors/vd1943/vd1943.c ****    /* data type / RAW8*/
 4215              		.loc 1 884 3 discriminator 1 view .LVU1219
 4216 0110 4FF45D73 		mov	r3, #884
 4217 0114 0290     		str	r0, [sp, #8]
 4218 0116 A5E7     		b	.L394
 4219              	.L382:
 884:../Middlewares/stm32-mw-camera/sensors/vd1943/vd1943.c ****    /* data type / RAW8*/
 4220              		.loc 1 884 3 discriminator 3 view .LVU1220
 884:../Middlewares/stm32-mw-camera/sensors/vd1943/vd1943.c ****    /* data type / RAW8*/
 4221              		.loc 1 884 3 discriminator 3 view .LVU1221
 884:../Middlewares/stm32-mw-camera/sensors/vd1943/vd1943.c ****    /* data type / RAW8*/
 4222              		.loc 1 884 3 discriminator 6 view .LVU1222
 884:../Middlewares/stm32-mw-camera/sensors/vd1943/vd1943.c ****    /* data type / RAW8*/
 4223              		.loc 1 884 3 view .LVU1223
 886:../Middlewares/stm32-mw-camera/sensors/vd1943/vd1943.c ****   if (ret)
 4224              		.loc 1 886 3 view .LVU1224
 4225              	.LVL344:
 4226              	.LBB171:
 4227              	.LBI157:
 802:../Middlewares/stm32-mw-camera/sensors/vd1943/vd1943.c **** {
 4228              		.loc 1 802 12 view .LVU1225
 4229              	.LBB159:
 804:../Middlewares/stm32-mw-camera/sensors/vd1943/vd1943.c ****   int ret;
 4230              		.loc 1 804 3 view .LVU1226
 805:../Middlewares/stm32-mw-camera/sensors/vd1943/vd1943.c **** 
 4231              		.loc 1 805 3 view .LVU1227
 807:../Middlewares/stm32-mw-camera/sensors/vd1943/vd1943.c ****   case VD1943_GS_SS1_NATIVE_8:
 4232              		.loc 1 807 3 view .LVU1228
 807:../Middlewares/stm32-mw-camera/sensors/vd1943/vd1943.c ****   case VD1943_GS_SS1_NATIVE_8:
 4233              		.loc 1 807 31 is_stmt 0 view .LVU1229
 4234 0118 95F84430 		ldrb	r3, [r5, #68]	@ zero_extendqisi2
 807:../Middlewares/stm32-mw-camera/sensors/vd1943/vd1943.c ****   case VD1943_GS_SS1_NATIVE_8:
 4235              		.loc 1 807 3 view .LVU1230
 4236 011c 042B     		cmp	r3, #4
 4237 011e 0CD8     		bhi	.L309
 4238 0120 23B9     		cbnz	r3, .L310
 4239              	.L311:
 841:../Middlewares/stm32-mw-camera/sensors/vd1943/vd1943.c ****     return -1;
 4240              		.loc 1 841 5 is_stmt 1 view .LVU1231
 4241 0122 40F24931 		movw	r1, #841
ARM GAS  /tmp/ccydMd0r.s 			page 125


 4242 0126 684B     		ldr	r3, .L398
 4243 0128 6C4A     		ldr	r2, .L398+20
 4244 012a 95E7     		b	.L393
 4245              	.L310:
 807:../Middlewares/stm32-mw-camera/sensors/vd1943/vd1943.c ****   case VD1943_GS_SS1_NATIVE_8:
 4246              		.loc 1 807 3 is_stmt 0 view .LVU1232
 4247 012c 023B     		subs	r3, r3, #2
 4248 012e 022B     		cmp	r3, #2
 4249 0130 22D8     		bhi	.L364
 4250 0132 DFE803F0 		tbb	[pc, r3]
 4251              	.L314:
 4252 0136 23       		.byte	(.L366-.L314)/2
 4253 0137 21       		.byte	(.L364-.L314)/2
 4254 0138 23       		.byte	(.L366-.L314)/2
 4255 0139 00       		.p2align 1
 4256              	.L309:
 4257 013a 053B     		subs	r3, r3, #5
 4258 013c DBB2     		uxtb	r3, r3
 4259 013e 1E2B     		cmp	r3, #30
 4260 0140 EFD8     		bhi	.L311
 4261 0142 0122     		movs	r2, #1
 4262 0144 02FA03F3 		lsl	r3, r2, r3
 4263 0148 654A     		ldr	r2, .L398+24
 4264 014a 1A40     		ands	r2, r2, r3
 4265 014c B2B9     		cbnz	r2, .L366
 4266 014e 654A     		ldr	r2, .L398+28
 4267 0150 1A40     		ands	r2, r2, r3
 4268 0152 8AB9     		cbnz	r2, .L364
 4269 0154 13F0A94F 		tst	r3, #1417674752
 838:../Middlewares/stm32-mw-camera/sensors/vd1943/vd1943.c ****     break;
 4270              		.loc 1 838 8 view .LVU1233
 4271 0158 4FF02C02 		mov	r2, #44
 807:../Middlewares/stm32-mw-camera/sensors/vd1943/vd1943.c ****   case VD1943_GS_SS1_NATIVE_8:
 4272              		.loc 1 807 3 view .LVU1234
 4273 015c E1D0     		beq	.L311
 4274              	.L312:
 4275              	.LVL345:
 845:../Middlewares/stm32-mw-camera/sensors/vd1943/vd1943.c ****   VD1943_TraceError(ctx, ret);
 4276              		.loc 1 845 3 is_stmt 1 view .LVU1235
 845:../Middlewares/stm32-mw-camera/sensors/vd1943/vd1943.c ****   VD1943_TraceError(ctx, ret);
 4277              		.loc 1 845 9 is_stmt 0 view .LVU1236
 4278 015e 40F61411 		movw	r1, #2324
 4279 0162 2846     		mov	r0, r5
 4280              	.LVL346:
 845:../Middlewares/stm32-mw-camera/sensors/vd1943/vd1943.c ****   VD1943_TraceError(ctx, ret);
 4281              		.loc 1 845 9 view .LVU1237
 4282 0164 2B69     		ldr	r3, [r5, #16]
 4283 0166 9847     		blx	r3
 4284              	.LVL347:
 846:../Middlewares/stm32-mw-camera/sensors/vd1943/vd1943.c **** 
 4285              		.loc 1 846 3 is_stmt 1 view .LVU1238
 846:../Middlewares/stm32-mw-camera/sensors/vd1943/vd1943.c **** 
 4286              		.loc 1 846 3 view .LVU1239
 4287 0168 0446     		mov	r4, r0
 4288              	.LVL348:
 846:../Middlewares/stm32-mw-camera/sensors/vd1943/vd1943.c **** 
 4289              		.loc 1 846 3 is_stmt 0 view .LVU1240
ARM GAS  /tmp/ccydMd0r.s 			page 126


 4290 016a 48B1     		cbz	r0, .L316
 846:../Middlewares/stm32-mw-camera/sensors/vd1943/vd1943.c **** 
 4291              		.loc 1 846 3 is_stmt 1 discriminator 1 view .LVU1241
 846:../Middlewares/stm32-mw-camera/sensors/vd1943/vd1943.c **** 
 4292              		.loc 1 846 3 discriminator 1 view .LVU1242
 4293 016c 40F24E33 		movw	r3, #846
 4294 0170 5A4A     		ldr	r2, .L398+20
 4295 0172 0290     		str	r0, [sp, #8]
 4296 0174 0193     		str	r3, [sp, #4]
 4297 0176 77E7     		b	.L391
 4298              	.LVL349:
 4299              	.L364:
 818:../Middlewares/stm32-mw-camera/sensors/vd1943/vd1943.c ****     break;
 4300              		.loc 1 818 8 is_stmt 0 view .LVU1243
 4301 0178 2A22     		movs	r2, #42
 4302 017a F0E7     		b	.L312
 4303              	.L366:
 807:../Middlewares/stm32-mw-camera/sensors/vd1943/vd1943.c ****   case VD1943_GS_SS1_NATIVE_8:
 4304              		.loc 1 807 3 view .LVU1244
 4305 017c 2B22     		movs	r2, #43
 4306 017e EEE7     		b	.L312
 4307              	.LVL350:
 4308              	.L316:
 846:../Middlewares/stm32-mw-camera/sensors/vd1943/vd1943.c **** 
 4309              		.loc 1 846 3 is_stmt 1 discriminator 6 view .LVU1245
 846:../Middlewares/stm32-mw-camera/sensors/vd1943/vd1943.c **** 
 4310              		.loc 1 846 3 is_stmt 0 discriminator 6 view .LVU1246
 4311              	.LBE159:
 4312              	.LBE171:
 887:../Middlewares/stm32-mw-camera/sensors/vd1943/vd1943.c ****     return ret;
 4313              		.loc 1 887 3 is_stmt 1 view .LVU1247
 890:../Middlewares/stm32-mw-camera/sensors/vd1943/vd1943.c ****   VD1943_TraceError(ctx, ret);
 4314              		.loc 1 890 3 view .LVU1248
 890:../Middlewares/stm32-mw-camera/sensors/vd1943/vd1943.c ****   VD1943_TraceError(ctx, ret);
 4315              		.loc 1 890 9 is_stmt 0 view .LVU1249
 4316 0180 1222     		movs	r2, #18
 4317 0182 40F6FC21 		movw	r1, #2812
 4318 0186 2846     		mov	r0, r5
 4319 0188 2B69     		ldr	r3, [r5, #16]
 4320 018a 9847     		blx	r3
 4321              	.LVL351:
 891:../Middlewares/stm32-mw-camera/sensors/vd1943/vd1943.c **** 
 4322              		.loc 1 891 3 is_stmt 1 view .LVU1250
 891:../Middlewares/stm32-mw-camera/sensors/vd1943/vd1943.c **** 
 4323              		.loc 1 891 3 view .LVU1251
 4324 018c 0446     		mov	r4, r0
 4325 018e 18B1     		cbz	r0, .L383
 891:../Middlewares/stm32-mw-camera/sensors/vd1943/vd1943.c **** 
 4326              		.loc 1 891 3 discriminator 1 view .LVU1252
 891:../Middlewares/stm32-mw-camera/sensors/vd1943/vd1943.c **** 
 4327              		.loc 1 891 3 discriminator 1 view .LVU1253
 4328 0190 40F27B33 		movw	r3, #891
 4329 0194 0290     		str	r0, [sp, #8]
 4330 0196 65E7     		b	.L394
 4331              	.L383:
 4332              	.LVL352:
 891:../Middlewares/stm32-mw-camera/sensors/vd1943/vd1943.c **** 
ARM GAS  /tmp/ccydMd0r.s 			page 127


 4333              		.loc 1 891 3 is_stmt 0 discriminator 1 view .LVU1254
 4334              	.LBE172:
 4335              	.LBE177:
1279:../Middlewares/stm32-mw-camera/sensors/vd1943/vd1943.c ****     return ret;
 4336              		.loc 1 1279 3 is_stmt 1 view .LVU1255
1282:../Middlewares/stm32-mw-camera/sensors/vd1943/vd1943.c ****   if (ret)
 4337              		.loc 1 1282 3 view .LVU1256
 4338              	.LBB178:
 4339              	.LBI178:
 896:../Middlewares/stm32-mw-camera/sensors/vd1943/vd1943.c **** {
 4340              		.loc 1 896 12 view .LVU1257
 4341              	.LBB179:
 898:../Middlewares/stm32-mw-camera/sensors/vd1943/vd1943.c ****   int ss_factor;
 4342              		.loc 1 898 3 view .LVU1258
 898:../Middlewares/stm32-mw-camera/sensors/vd1943/vd1943.c ****   int ss_factor;
 4343              		.loc 1 898 80 is_stmt 0 view .LVU1259
 4344 0198 95F83C30 		ldrb	r3, [r5, #60]	@ zero_extendqisi2
 4345              	.LVL353:
 899:../Middlewares/stm32-mw-camera/sensors/vd1943/vd1943.c ****   int ret;
 4346              		.loc 1 899 3 is_stmt 1 view .LVU1260
 900:../Middlewares/stm32-mw-camera/sensors/vd1943/vd1943.c **** 
 4347              		.loc 1 900 3 view .LVU1261
 902:../Middlewares/stm32-mw-camera/sensors/vd1943/vd1943.c ****   assert(rect->top % 4 == 0);
 4348              		.loc 1 902 3 view .LVU1262
 4349 019c 524F     		ldr	r7, .L398+32
 4350 019e 1A01     		lsls	r2, r3, #4
 4351 01a0 BA58     		ldr	r2, [r7, r2]
 4352 01a2 07EB0313 		add	r3, r7, r3, lsl #4
 4353              	.LVL354:
 902:../Middlewares/stm32-mw-camera/sensors/vd1943/vd1943.c ****   assert(rect->top % 4 == 0);
 4354              		.loc 1 902 3 is_stmt 0 view .LVU1263
 4355 01a6 9107     		lsls	r1, r2, #30
 4356 01a8 04D0     		beq	.L319
 902:../Middlewares/stm32-mw-camera/sensors/vd1943/vd1943.c ****   assert(rect->top % 4 == 0);
 4357              		.loc 1 902 3 discriminator 1 view .LVU1264
 4358 01aa 40F28631 		movw	r1, #902
 4359 01ae 4F4B     		ldr	r3, .L398+36
 4360              	.LVL355:
 902:../Middlewares/stm32-mw-camera/sensors/vd1943/vd1943.c ****   assert(rect->top % 4 == 0);
 4361              		.loc 1 902 3 discriminator 1 view .LVU1265
 4362 01b0 4F4A     		ldr	r2, .L398+40
 4363 01b2 51E7     		b	.L393
 4364              	.LVL356:
 4365              	.L319:
 903:../Middlewares/stm32-mw-camera/sensors/vd1943/vd1943.c ****   assert(rect->width % 4 == 0);
 4366              		.loc 1 903 3 is_stmt 1 view .LVU1266
 4367 01b4 D3F804A0 		ldr	r10, [r3, #4]
 4368 01b8 1AF0030F 		tst	r10, #3
 4369 01bc 04D0     		beq	.L320
 903:../Middlewares/stm32-mw-camera/sensors/vd1943/vd1943.c ****   assert(rect->width % 4 == 0);
 4370              		.loc 1 903 3 is_stmt 0 discriminator 1 view .LVU1267
 4371 01be 40F28731 		movw	r1, #903
 4372 01c2 4C4B     		ldr	r3, .L398+44
 4373              	.LVL357:
 903:../Middlewares/stm32-mw-camera/sensors/vd1943/vd1943.c ****   assert(rect->width % 4 == 0);
 4374              		.loc 1 903 3 discriminator 1 view .LVU1268
 4375 01c4 4A4A     		ldr	r2, .L398+40
ARM GAS  /tmp/ccydMd0r.s 			page 128


 4376 01c6 47E7     		b	.L393
 4377              	.LVL358:
 4378              	.L320:
 904:../Middlewares/stm32-mw-camera/sensors/vd1943/vd1943.c ****   assert(rect->height % 4 == 0);
 4379              		.loc 1 904 3 is_stmt 1 view .LVU1269
 4380 01c8 D3F80890 		ldr	r9, [r3, #8]
 4381 01cc 19F0030F 		tst	r9, #3
 4382 01d0 04D0     		beq	.L321
 904:../Middlewares/stm32-mw-camera/sensors/vd1943/vd1943.c ****   assert(rect->height % 4 == 0);
 4383              		.loc 1 904 3 is_stmt 0 discriminator 1 view .LVU1270
 4384 01d2 4FF46271 		mov	r1, #904
 4385 01d6 484B     		ldr	r3, .L398+48
 4386              	.LVL359:
 904:../Middlewares/stm32-mw-camera/sensors/vd1943/vd1943.c ****   assert(rect->height % 4 == 0);
 4387              		.loc 1 904 3 discriminator 1 view .LVU1271
 4388 01d8 454A     		ldr	r2, .L398+40
 4389 01da 3DE7     		b	.L393
 4390              	.LVL360:
 4391              	.L321:
 905:../Middlewares/stm32-mw-camera/sensors/vd1943/vd1943.c **** 
 4392              		.loc 1 905 3 is_stmt 1 view .LVU1272
 4393 01dc DE68     		ldr	r6, [r3, #12]
 4394 01de B307     		lsls	r3, r6, #30
 4395              	.LVL361:
 905:../Middlewares/stm32-mw-camera/sensors/vd1943/vd1943.c **** 
 4396              		.loc 1 905 3 is_stmt 0 view .LVU1273
 4397 01e0 04D0     		beq	.L322
 905:../Middlewares/stm32-mw-camera/sensors/vd1943/vd1943.c **** 
 4398              		.loc 1 905 3 discriminator 1 view .LVU1274
 4399 01e2 40F28931 		movw	r1, #905
 4400 01e6 454B     		ldr	r3, .L398+52
 4401 01e8 414A     		ldr	r2, .L398+40
 4402 01ea 35E7     		b	.L393
 4403              	.L322:
 907:../Middlewares/stm32-mw-camera/sensors/vd1943/vd1943.c ****   if (ret)
 4404              		.loc 1 907 3 is_stmt 1 view .LVU1275
 4405              	.LVL362:
 4406              	.LBB180:
 4407              	.LBI180:
 702:../Middlewares/stm32-mw-camera/sensors/vd1943/vd1943.c **** {
 4408              		.loc 1 702 12 view .LVU1276
 4409              	.LBB181:
 704:../Middlewares/stm32-mw-camera/sensors/vd1943/vd1943.c **** 
 4410              		.loc 1 704 3 view .LVU1277
 706:../Middlewares/stm32-mw-camera/sensors/vd1943/vd1943.c ****   case VD1943_GS_SS32_MONO_8:
 4411              		.loc 1 706 3 view .LVU1278
 706:../Middlewares/stm32-mw-camera/sensors/vd1943/vd1943.c ****   case VD1943_GS_SS32_MONO_8:
 4412              		.loc 1 706 38 is_stmt 0 view .LVU1279
 4413 01ec 95F84430 		ldrb	r3, [r5, #68]	@ zero_extendqisi2
 706:../Middlewares/stm32-mw-camera/sensors/vd1943/vd1943.c ****   case VD1943_GS_SS32_MONO_8:
 4414              		.loc 1 706 3 view .LVU1280
 4415 01f0 0C2B     		cmp	r3, #12
 4416 01f2 17D8     		bhi	.L323
 4417 01f4 0A2B     		cmp	r3, #10
 4418 01f6 1BD8     		bhi	.L367
 4419 01f8 093B     		subs	r3, r3, #9
 720:../Middlewares/stm32-mw-camera/sensors/vd1943/vd1943.c ****   }
ARM GAS  /tmp/ccydMd0r.s 			page 129


 4420              		.loc 1 720 16 view .LVU1281
 4421 01fa 012B     		cmp	r3, #1
 4422 01fc 98BF     		it	ls
 4423 01fe 4FF00208 		movls	r8, #2
 4424              	.L390:
 720:../Middlewares/stm32-mw-camera/sensors/vd1943/vd1943.c ****   }
 4425              		.loc 1 720 16 view .LVU1282
 4426 0202 88BF     		it	hi
 4427 0204 4FF00108 		movhi	r8, #1
 4428              	.L324:
 4429              	.LVL363:
 723:../Middlewares/stm32-mw-camera/sensors/vd1943/vd1943.c **** }
 4430              		.loc 1 723 3 is_stmt 1 view .LVU1283
 723:../Middlewares/stm32-mw-camera/sensors/vd1943/vd1943.c **** }
 4431              		.loc 1 723 3 is_stmt 0 view .LVU1284
 4432              	.LBE181:
 4433              	.LBE180:
 908:../Middlewares/stm32-mw-camera/sensors/vd1943/vd1943.c ****     return ret;
 4434              		.loc 1 908 3 is_stmt 1 view .LVU1285
 911:../Middlewares/stm32-mw-camera/sensors/vd1943/vd1943.c ****   VD1943_TraceError(ctx, ret);
 4435              		.loc 1 911 3 view .LVU1286
 911:../Middlewares/stm32-mw-camera/sensors/vd1943/vd1943.c ****   VD1943_TraceError(ctx, ret);
 4436              		.loc 1 911 9 is_stmt 0 view .LVU1287
 4437 0208 40F60C11 		movw	r1, #2316
 4438 020c 2846     		mov	r0, r5
 4439 020e 6B69     		ldr	r3, [r5, #20]
 4440 0210 92B2     		uxth	r2, r2
 4441 0212 9847     		blx	r3
 4442              	.LVL364:
 912:../Middlewares/stm32-mw-camera/sensors/vd1943/vd1943.c ****   ret = ctx->write16(ctx, VD1943_REG_ROI_A_HEIGHT_OFFSET, rect->top);
 4443              		.loc 1 912 3 is_stmt 1 view .LVU1288
 912:../Middlewares/stm32-mw-camera/sensors/vd1943/vd1943.c ****   ret = ctx->write16(ctx, VD1943_REG_ROI_A_HEIGHT_OFFSET, rect->top);
 4444              		.loc 1 912 3 view .LVU1289
 4445 0214 0446     		mov	r4, r0
 4446 0216 70B1     		cbz	r0, .L325
 912:../Middlewares/stm32-mw-camera/sensors/vd1943/vd1943.c ****   ret = ctx->write16(ctx, VD1943_REG_ROI_A_HEIGHT_OFFSET, rect->top);
 4447              		.loc 1 912 3 discriminator 1 view .LVU1290
 912:../Middlewares/stm32-mw-camera/sensors/vd1943/vd1943.c ****   ret = ctx->write16(ctx, VD1943_REG_ROI_A_HEIGHT_OFFSET, rect->top);
 4448              		.loc 1 912 3 discriminator 1 view .LVU1291
 4449 0218 4FF46473 		mov	r3, #912
 4450 021c 0290     		str	r0, [sp, #8]
 4451              	.L396:
 918:../Middlewares/stm32-mw-camera/sensors/vd1943/vd1943.c **** 
 4452              		.loc 1 918 3 is_stmt 0 discriminator 1 view .LVU1292
 4453 021e 344A     		ldr	r2, .L398+40
 4454 0220 0193     		str	r3, [sp, #4]
 4455 0222 21E7     		b	.L391
 4456              	.LVL365:
 4457              	.L323:
 4458              	.LBB183:
 4459              	.LBB182:
 706:../Middlewares/stm32-mw-camera/sensors/vd1943/vd1943.c ****   case VD1943_GS_SS32_MONO_8:
 4460              		.loc 1 706 3 view .LVU1293
 4461 0224 0D3B     		subs	r3, r3, #13
 720:../Middlewares/stm32-mw-camera/sensors/vd1943/vd1943.c ****   }
 4462              		.loc 1 720 16 view .LVU1294
 4463 0226 012B     		cmp	r3, #1
ARM GAS  /tmp/ccydMd0r.s 			page 130


 4464 0228 98BF     		it	ls
 4465 022a 4FF02008 		movls	r8, #32
 4466 022e E8E7     		b	.L390
 4467              	.L367:
 717:../Middlewares/stm32-mw-camera/sensors/vd1943/vd1943.c ****     break;
 4468              		.loc 1 717 16 view .LVU1295
 4469 0230 4FF00408 		mov	r8, #4
 4470 0234 E8E7     		b	.L324
 4471              	.LVL366:
 4472              	.L325:
 717:../Middlewares/stm32-mw-camera/sensors/vd1943/vd1943.c ****     break;
 4473              		.loc 1 717 16 view .LVU1296
 4474              	.LBE182:
 4475              	.LBE183:
 912:../Middlewares/stm32-mw-camera/sensors/vd1943/vd1943.c ****   ret = ctx->write16(ctx, VD1943_REG_ROI_A_HEIGHT_OFFSET, rect->top);
 4476              		.loc 1 912 3 is_stmt 1 discriminator 6 view .LVU1297
 912:../Middlewares/stm32-mw-camera/sensors/vd1943/vd1943.c ****   ret = ctx->write16(ctx, VD1943_REG_ROI_A_HEIGHT_OFFSET, rect->top);
 4477              		.loc 1 912 3 view .LVU1298
 913:../Middlewares/stm32-mw-camera/sensors/vd1943/vd1943.c ****   VD1943_TraceError(ctx, ret);
 4478              		.loc 1 913 3 view .LVU1299
 913:../Middlewares/stm32-mw-camera/sensors/vd1943/vd1943.c ****   VD1943_TraceError(ctx, ret);
 4479              		.loc 1 913 9 is_stmt 0 view .LVU1300
 4480 0236 40F60E11 		movw	r1, #2318
 4481 023a 2846     		mov	r0, r5
 4482              	.LVL367:
 913:../Middlewares/stm32-mw-camera/sensors/vd1943/vd1943.c ****   VD1943_TraceError(ctx, ret);
 4483              		.loc 1 913 9 view .LVU1301
 4484 023c 6B69     		ldr	r3, [r5, #20]
 4485 023e 1FFA8AF2 		uxth	r2, r10
 4486 0242 9847     		blx	r3
 4487              	.LVL368:
 914:../Middlewares/stm32-mw-camera/sensors/vd1943/vd1943.c ****   ret = ctx->write16(ctx, VD1943_REG_ROI_A_WIDTH, rect->width / ss_factor);
 4488              		.loc 1 914 3 is_stmt 1 view .LVU1302
 914:../Middlewares/stm32-mw-camera/sensors/vd1943/vd1943.c ****   ret = ctx->write16(ctx, VD1943_REG_ROI_A_WIDTH, rect->width / ss_factor);
 4489              		.loc 1 914 3 view .LVU1303
 4490 0244 0446     		mov	r4, r0
 4491 0246 68B9     		cbnz	r0, .L326
 914:../Middlewares/stm32-mw-camera/sensors/vd1943/vd1943.c ****   ret = ctx->write16(ctx, VD1943_REG_ROI_A_WIDTH, rect->width / ss_factor);
 4492              		.loc 1 914 3 discriminator 3 view .LVU1304
 914:../Middlewares/stm32-mw-camera/sensors/vd1943/vd1943.c ****   ret = ctx->write16(ctx, VD1943_REG_ROI_A_WIDTH, rect->width / ss_factor);
 4493              		.loc 1 914 3 discriminator 3 view .LVU1305
 914:../Middlewares/stm32-mw-camera/sensors/vd1943/vd1943.c ****   ret = ctx->write16(ctx, VD1943_REG_ROI_A_WIDTH, rect->width / ss_factor);
 4494              		.loc 1 914 3 discriminator 6 view .LVU1306
 914:../Middlewares/stm32-mw-camera/sensors/vd1943/vd1943.c ****   ret = ctx->write16(ctx, VD1943_REG_ROI_A_WIDTH, rect->width / ss_factor);
 4495              		.loc 1 914 3 view .LVU1307
 915:../Middlewares/stm32-mw-camera/sensors/vd1943/vd1943.c ****   VD1943_TraceError(ctx, ret);
 4496              		.loc 1 915 3 view .LVU1308
 915:../Middlewares/stm32-mw-camera/sensors/vd1943/vd1943.c ****   VD1943_TraceError(ctx, ret);
 4497              		.loc 1 915 63 is_stmt 0 view .LVU1309
 4498 0248 B9FBF8F2 		udiv	r2, r9, r8
 915:../Middlewares/stm32-mw-camera/sensors/vd1943/vd1943.c ****   VD1943_TraceError(ctx, ret);
 4499              		.loc 1 915 9 view .LVU1310
 4500 024c 4FF41161 		mov	r1, #2320
 4501 0250 2846     		mov	r0, r5
 4502              	.LVL369:
 915:../Middlewares/stm32-mw-camera/sensors/vd1943/vd1943.c ****   VD1943_TraceError(ctx, ret);
 4503              		.loc 1 915 9 view .LVU1311
ARM GAS  /tmp/ccydMd0r.s 			page 131


 4504 0252 6B69     		ldr	r3, [r5, #20]
 4505 0254 92B2     		uxth	r2, r2
 4506 0256 9847     		blx	r3
 4507              	.LVL370:
 916:../Middlewares/stm32-mw-camera/sensors/vd1943/vd1943.c ****   ret = ctx->write16(ctx, VD1943_REG_ROI_A_HEIGHT, rect->height / ss_factor);
 4508              		.loc 1 916 3 is_stmt 1 view .LVU1312
 916:../Middlewares/stm32-mw-camera/sensors/vd1943/vd1943.c ****   ret = ctx->write16(ctx, VD1943_REG_ROI_A_HEIGHT, rect->height / ss_factor);
 4509              		.loc 1 916 3 view .LVU1313
 4510 0258 0446     		mov	r4, r0
 4511 025a 38B1     		cbz	r0, .L384
 916:../Middlewares/stm32-mw-camera/sensors/vd1943/vd1943.c ****   ret = ctx->write16(ctx, VD1943_REG_ROI_A_HEIGHT, rect->height / ss_factor);
 4512              		.loc 1 916 3 discriminator 1 view .LVU1314
 916:../Middlewares/stm32-mw-camera/sensors/vd1943/vd1943.c ****   ret = ctx->write16(ctx, VD1943_REG_ROI_A_HEIGHT, rect->height / ss_factor);
 4513              		.loc 1 916 3 discriminator 1 view .LVU1315
 4514 025c 4FF46573 		mov	r3, #916
 4515 0260 0290     		str	r0, [sp, #8]
 4516 0262 DCE7     		b	.L396
 4517              	.L326:
 914:../Middlewares/stm32-mw-camera/sensors/vd1943/vd1943.c ****   ret = ctx->write16(ctx, VD1943_REG_ROI_A_WIDTH, rect->width / ss_factor);
 4518              		.loc 1 914 3 discriminator 1 view .LVU1316
 914:../Middlewares/stm32-mw-camera/sensors/vd1943/vd1943.c ****   ret = ctx->write16(ctx, VD1943_REG_ROI_A_WIDTH, rect->width / ss_factor);
 4519              		.loc 1 914 3 discriminator 1 view .LVU1317
 4520 0264 40F29233 		movw	r3, #914
 4521 0268 0290     		str	r0, [sp, #8]
 4522 026a D8E7     		b	.L396
 4523              	.L384:
 916:../Middlewares/stm32-mw-camera/sensors/vd1943/vd1943.c ****   ret = ctx->write16(ctx, VD1943_REG_ROI_A_HEIGHT, rect->height / ss_factor);
 4524              		.loc 1 916 3 discriminator 3 view .LVU1318
 916:../Middlewares/stm32-mw-camera/sensors/vd1943/vd1943.c ****   ret = ctx->write16(ctx, VD1943_REG_ROI_A_HEIGHT, rect->height / ss_factor);
 4525              		.loc 1 916 3 discriminator 3 view .LVU1319
 916:../Middlewares/stm32-mw-camera/sensors/vd1943/vd1943.c ****   ret = ctx->write16(ctx, VD1943_REG_ROI_A_HEIGHT, rect->height / ss_factor);
 4526              		.loc 1 916 3 discriminator 6 view .LVU1320
 916:../Middlewares/stm32-mw-camera/sensors/vd1943/vd1943.c ****   ret = ctx->write16(ctx, VD1943_REG_ROI_A_HEIGHT, rect->height / ss_factor);
 4527              		.loc 1 916 3 view .LVU1321
 917:../Middlewares/stm32-mw-camera/sensors/vd1943/vd1943.c ****   VD1943_TraceError(ctx, ret);
 4528              		.loc 1 917 3 view .LVU1322
 917:../Middlewares/stm32-mw-camera/sensors/vd1943/vd1943.c ****   VD1943_TraceError(ctx, ret);
 4529              		.loc 1 917 65 is_stmt 0 view .LVU1323
 4530 026c B6FBF8F2 		udiv	r2, r6, r8
 917:../Middlewares/stm32-mw-camera/sensors/vd1943/vd1943.c ****   VD1943_TraceError(ctx, ret);
 4531              		.loc 1 917 9 view .LVU1324
 4532 0270 40F61211 		movw	r1, #2322
 4533 0274 2846     		mov	r0, r5
 4534              	.LVL371:
 917:../Middlewares/stm32-mw-camera/sensors/vd1943/vd1943.c ****   VD1943_TraceError(ctx, ret);
 4535              		.loc 1 917 9 view .LVU1325
 4536 0276 6B69     		ldr	r3, [r5, #20]
 4537 0278 92B2     		uxth	r2, r2
 4538 027a 9847     		blx	r3
 4539              	.LVL372:
 918:../Middlewares/stm32-mw-camera/sensors/vd1943/vd1943.c **** 
 4540              		.loc 1 918 3 is_stmt 1 view .LVU1326
 918:../Middlewares/stm32-mw-camera/sensors/vd1943/vd1943.c **** 
 4541              		.loc 1 918 3 view .LVU1327
 4542 027c 0446     		mov	r4, r0
 4543 027e 18B1     		cbz	r0, .L385
 918:../Middlewares/stm32-mw-camera/sensors/vd1943/vd1943.c **** 
ARM GAS  /tmp/ccydMd0r.s 			page 132


 4544              		.loc 1 918 3 discriminator 1 view .LVU1328
 918:../Middlewares/stm32-mw-camera/sensors/vd1943/vd1943.c **** 
 4545              		.loc 1 918 3 discriminator 1 view .LVU1329
 4546 0280 40F29633 		movw	r3, #918
 4547 0284 0290     		str	r0, [sp, #8]
 4548 0286 CAE7     		b	.L396
 4549              	.L385:
 4550              	.LVL373:
 918:../Middlewares/stm32-mw-camera/sensors/vd1943/vd1943.c **** 
 4551              		.loc 1 918 3 is_stmt 0 discriminator 1 view .LVU1330
 4552              	.LBE179:
 4553              	.LBE178:
1283:../Middlewares/stm32-mw-camera/sensors/vd1943/vd1943.c ****     return ret;
 4554              		.loc 1 1283 3 is_stmt 1 view .LVU1331
1286:../Middlewares/stm32-mw-camera/sensors/vd1943/vd1943.c ****   if (ret)
 4555              		.loc 1 1286 3 view .LVU1332
 4556              	.LBB184:
 4557              	.LBI144:
1090:../Middlewares/stm32-mw-camera/sensors/vd1943/vd1943.c **** {
 4558              		.loc 1 1090 12 view .LVU1333
 4559              	.LBB148:
1092:../Middlewares/stm32-mw-camera/sensors/vd1943/vd1943.c ****   uint16_t frame_length;
 4560              		.loc 1 1092 3 view .LVU1334
1093:../Middlewares/stm32-mw-camera/sensors/vd1943/vd1943.c ****   int ret;
 4561              		.loc 1 1093 3 view .LVU1335
1094:../Middlewares/stm32-mw-camera/sensors/vd1943/vd1943.c **** 
 4562              		.loc 1 1094 3 view .LVU1336
1096:../Middlewares/stm32-mw-camera/sensors/vd1943/vd1943.c ****   if (ret)
 4563              		.loc 1 1096 3 view .LVU1337
 4564              	.LBB146:
 4565              	.LBI146:
 923:../Middlewares/stm32-mw-camera/sensors/vd1943/vd1943.c **** {
 4566              		.loc 1 923 12 view .LVU1338
 4567              	.LBB147:
 925:../Middlewares/stm32-mw-camera/sensors/vd1943/vd1943.c ****   uint32_t system_pll_clk;
 4568              		.loc 1 925 3 view .LVU1339
 926:../Middlewares/stm32-mw-camera/sensors/vd1943/vd1943.c ****   uint32_t vt_pixelrate;
 4569              		.loc 1 926 3 view .LVU1340
 927:../Middlewares/stm32-mw-camera/sensors/vd1943/vd1943.c ****   unsigned int bpp;
 4570              		.loc 1 927 3 view .LVU1341
 928:../Middlewares/stm32-mw-camera/sensors/vd1943/vd1943.c ****   uint32_t mipi_bandwidth;
 4571              		.loc 1 928 3 view .LVU1342
 929:../Middlewares/stm32-mw-camera/sensors/vd1943/vd1943.c ****   uint32_t mipi_pixelrate;
 4572              		.loc 1 929 3 view .LVU1343
 930:../Middlewares/stm32-mw-camera/sensors/vd1943/vd1943.c ****   uint16_t line_length;
 4573              		.loc 1 930 3 view .LVU1344
 931:../Middlewares/stm32-mw-camera/sensors/vd1943/vd1943.c ****   uint32_t mipi_transition_cst_in_px;
 4574              		.loc 1 931 3 view .LVU1345
 932:../Middlewares/stm32-mw-camera/sensors/vd1943/vd1943.c ****   uint32_t mipi_interpacket_delay_in_px;
 4575              		.loc 1 932 3 view .LVU1346
 933:../Middlewares/stm32-mw-camera/sensors/vd1943/vd1943.c ****   uint64_t mipi_virtual_linelength = 0;
 4576              		.loc 1 933 3 view .LVU1347
 934:../Middlewares/stm32-mw-camera/sensors/vd1943/vd1943.c ****   int ret;
 4577              		.loc 1 934 3 view .LVU1348
 935:../Middlewares/stm32-mw-camera/sensors/vd1943/vd1943.c **** 
 4578              		.loc 1 935 3 view .LVU1349
 938:../Middlewares/stm32-mw-camera/sensors/vd1943/vd1943.c ****   {
ARM GAS  /tmp/ccydMd0r.s 			page 133


 4579              		.loc 1 938 3 view .LVU1350
 938:../Middlewares/stm32-mw-camera/sensors/vd1943/vd1943.c ****   {
 4580              		.loc 1 938 31 is_stmt 0 view .LVU1351
 4581 0288 95F84430 		ldrb	r3, [r5, #68]	@ zero_extendqisi2
 938:../Middlewares/stm32-mw-camera/sensors/vd1943/vd1943.c ****   {
 4582              		.loc 1 938 3 view .LVU1352
 4583 028c 122B     		cmp	r3, #18
 4584 028e 07D8     		bhi	.L331
 4585 0290 082B     		cmp	r3, #8
 4586 0292 03D8     		bhi	.L370
 4587 0294 013B     		subs	r3, r3, #1
 4588 0296 052B     		cmp	r3, #5
 4589 0298 3FF6B8AE 		bhi	.L333
 4590              	.L370:
 956:../Middlewares/stm32-mw-camera/sensors/vd1943/vd1943.c ****     break;
 4591              		.loc 1 956 13 view .LVU1353
 4592 029c 0126     		movs	r6, #1
 4593 029e 04E0     		b	.L332
 4594              	.L331:
 938:../Middlewares/stm32-mw-camera/sensors/vd1943/vd1943.c ****   {
 4595              		.loc 1 938 3 view .LVU1354
 4596 02a0 1A3B     		subs	r3, r3, #26
 4597 02a2 092B     		cmp	r3, #9
 4598 02a4 3FF6B2AE 		bhi	.L333
 4599 02a8 0646     		mov	r6, r0
 4600              	.L332:
 4601              	.LVL374:
 974:../Middlewares/stm32-mw-camera/sensors/vd1943/vd1943.c ****   VD1943_TraceError(ctx, ret);
 4602              		.loc 1 974 3 is_stmt 1 view .LVU1355
 974:../Middlewares/stm32-mw-camera/sensors/vd1943/vd1943.c ****   VD1943_TraceError(ctx, ret);
 4603              		.loc 1 974 9 is_stmt 0 view .LVU1356
 4604 02aa 4FF40A71 		mov	r1, #552
 4605 02ae 2846     		mov	r0, r5
 4606 02b0 EB68     		ldr	r3, [r5, #12]
 4607 02b2 04AA     		add	r2, sp, #16
 4608 02b4 9847     		blx	r3
 4609              	.LVL375:
 975:../Middlewares/stm32-mw-camera/sensors/vd1943/vd1943.c ****   VD1943_dbg(ctx, 0, "system pll clock = %d hz\n", system_pll_clk);
 4610              		.loc 1 975 3 is_stmt 1 view .LVU1357
 975:../Middlewares/stm32-mw-camera/sensors/vd1943/vd1943.c ****   VD1943_dbg(ctx, 0, "system pll clock = %d hz\n", system_pll_clk);
 4611              		.loc 1 975 3 view .LVU1358
 4612 02b6 0446     		mov	r4, r0
 4613 02b8 20B3     		cbz	r0, .L334
 975:../Middlewares/stm32-mw-camera/sensors/vd1943/vd1943.c ****   VD1943_dbg(ctx, 0, "system pll clock = %d hz\n", system_pll_clk);
 4614              		.loc 1 975 3 discriminator 1 view .LVU1359
 975:../Middlewares/stm32-mw-camera/sensors/vd1943/vd1943.c ****   VD1943_dbg(ctx, 0, "system pll clock = %d hz\n", system_pll_clk);
 4615              		.loc 1 975 3 discriminator 1 view .LVU1360
 4616 02ba 40F2CF33 		movw	r3, #975
 4617 02be 0290     		str	r0, [sp, #8]
 4618              	.LVL376:
 4619              	.L397:
1018:../Middlewares/stm32-mw-camera/sensors/vd1943/vd1943.c **** 
 4620              		.loc 1 1018 3 is_stmt 0 discriminator 1 view .LVU1361
 4621 02c0 0F4A     		ldr	r2, .L398+56
 4622 02c2 0193     		str	r3, [sp, #4]
 4623 02c4 D0E6     		b	.L391
 4624              	.L399:
ARM GAS  /tmp/ccydMd0r.s 			page 134


 4625 02c6 00BF     		.align	2
 4626              	.L398:
 4627 02c8 B1000000 		.word	.LC13
 4628 02cc 00000000 		.word	__func__.15
 4629 02d0 09000000 		.word	.LC2
 4630 02d4 00000000 		.word	__func__.16
 4631 02d8 00000000 		.word	.LC4
 4632 02dc 00000000 		.word	__func__.14
 4633 02e0 A22A402A 		.word	708848290
 4634 02e4 51152001 		.word	18879825
 4635 02e8 00000000 		.word	vd1943_supported_modes
 4636 02ec 00000000 		.word	.LC24
 4637 02f0 00000000 		.word	__func__.13
 4638 02f4 14000000 		.word	.LC25
 4639 02f8 27000000 		.word	.LC26
 4640 02fc 3C000000 		.word	.LC27
 4641 0300 00000000 		.word	__func__.11
 4642              	.LVL377:
 4643              	.L334:
 975:../Middlewares/stm32-mw-camera/sensors/vd1943/vd1943.c ****   VD1943_dbg(ctx, 0, "system pll clock = %d hz\n", system_pll_clk);
 4644              		.loc 1 975 3 is_stmt 1 discriminator 6 view .LVU1362
 975:../Middlewares/stm32-mw-camera/sensors/vd1943/vd1943.c ****   VD1943_dbg(ctx, 0, "system pll clock = %d hz\n", system_pll_clk);
 4645              		.loc 1 975 3 view .LVU1363
 976:../Middlewares/stm32-mw-camera/sensors/vd1943/vd1943.c **** 
 4646              		.loc 1 976 3 view .LVU1364
 976:../Middlewares/stm32-mw-camera/sensors/vd1943/vd1943.c **** 
 4647              		.loc 1 976 3 view .LVU1365
 4648 0304 049B     		ldr	r3, [sp, #16]
 4649 0306 0321     		movs	r1, #3
 4650 0308 0193     		str	r3, [sp, #4]
 4651 030a 4FF47473 		mov	r3, #976
 4652 030e 934A     		ldr	r2, .L400
 4653 0310 0093     		str	r3, [sp]
 4654 0312 0346     		mov	r3, r0
 4655 0314 2846     		mov	r0, r5
 4656              	.LVL378:
 976:../Middlewares/stm32-mw-camera/sensors/vd1943/vd1943.c **** 
 4657              		.loc 1 976 3 is_stmt 0 view .LVU1366
 4658 0316 FFF7FEFF 		bl	VD1943_log_impl
 4659              	.LVL379:
 976:../Middlewares/stm32-mw-camera/sensors/vd1943/vd1943.c **** 
 4660              		.loc 1 976 3 is_stmt 1 discriminator 1 view .LVU1367
 979:../Middlewares/stm32-mw-camera/sensors/vd1943/vd1943.c ****   {
 4661              		.loc 1 979 3 view .LVU1368
 981:../Middlewares/stm32-mw-camera/sensors/vd1943/vd1943.c ****   }
 4662              		.loc 1 981 35 is_stmt 0 view .LVU1369
 4663 031a 049B     		ldr	r3, [sp, #16]
 979:../Middlewares/stm32-mw-camera/sensors/vd1943/vd1943.c ****   {
 4664              		.loc 1 979 6 view .LVU1370
 4665 031c 002E     		cmp	r6, #0
 4666 031e 43D0     		beq	.L336
 981:../Middlewares/stm32-mw-camera/sensors/vd1943/vd1943.c ****   }
 4667              		.loc 1 981 5 is_stmt 1 view .LVU1371
 981:../Middlewares/stm32-mw-camera/sensors/vd1943/vd1943.c ****   }
 4668              		.loc 1 981 18 is_stmt 0 view .LVU1372
 4669 0320 5E08     		lsrs	r6, r3, #1
 4670              	.LVL380:
ARM GAS  /tmp/ccydMd0r.s 			page 135


 4671              	.L337:
 989:../Middlewares/stm32-mw-camera/sensors/vd1943/vd1943.c ****   if (ret)
 4672              		.loc 1 989 3 is_stmt 1 view .LVU1373
 989:../Middlewares/stm32-mw-camera/sensors/vd1943/vd1943.c ****   if (ret)
 4673              		.loc 1 989 9 is_stmt 0 view .LVU1374
 4674 0322 2846     		mov	r0, r5
 4675 0324 05A9     		add	r1, sp, #20
 4676 0326 FFF7FEFF 		bl	VD1943_GetPixelDepth
 4677              	.LVL381:
 990:../Middlewares/stm32-mw-camera/sensors/vd1943/vd1943.c ****     return ret;
 4678              		.loc 1 990 3 is_stmt 1 view .LVU1375
 990:../Middlewares/stm32-mw-camera/sensors/vd1943/vd1943.c ****     return ret;
 4679              		.loc 1 990 6 is_stmt 0 view .LVU1376
 4680 032a 0346     		mov	r3, r0
 4681 032c 0028     		cmp	r0, #0
 4682 032e 7FF46DAE 		bne	.L333
 993:../Middlewares/stm32-mw-camera/sensors/vd1943/vd1943.c ****   mipi_pixelrate = mipi_bandwidth / bpp;
 4683              		.loc 1 993 3 is_stmt 1 view .LVU1377
 993:../Middlewares/stm32-mw-camera/sensors/vd1943/vd1943.c ****   mipi_pixelrate = mipi_bandwidth / bpp;
 4684              		.loc 1 993 96 is_stmt 0 view .LVU1378
 4685 0332 EC6C     		ldr	r4, [r5, #76]
 4686              	.LVL382:
 994:../Middlewares/stm32-mw-camera/sensors/vd1943/vd1943.c **** 
 4687              		.loc 1 994 3 is_stmt 1 view .LVU1379
 993:../Middlewares/stm32-mw-camera/sensors/vd1943/vd1943.c ****   mipi_pixelrate = mipi_bandwidth / bpp;
 4688              		.loc 1 993 66 is_stmt 0 view .LVU1380
 4689 0334 AA6C     		ldr	r2, [r5, #72]
 994:../Middlewares/stm32-mw-camera/sensors/vd1943/vd1943.c **** 
 4690              		.loc 1 994 35 view .LVU1381
 4691 0336 DDF814C0 		ldr	ip, [sp, #20]
 993:../Middlewares/stm32-mw-camera/sensors/vd1943/vd1943.c ****   mipi_pixelrate = mipi_bandwidth / bpp;
 4692              		.loc 1 993 66 view .LVU1382
 4693 033a 6243     		muls	r2, r4, r2
 4694              	.LVL383:
 994:../Middlewares/stm32-mw-camera/sensors/vd1943/vd1943.c **** 
 4695              		.loc 1 994 18 view .LVU1383
 4696 033c B2FBFCF2 		udiv	r2, r2, ip
 4697              	.LVL384:
 997:../Middlewares/stm32-mw-camera/sensors/vd1943/vd1943.c ****   {
 4698              		.loc 1 997 3 is_stmt 1 view .LVU1384
 997:../Middlewares/stm32-mw-camera/sensors/vd1943/vd1943.c ****   {
 4699              		.loc 1 997 6 is_stmt 0 view .LVU1385
 4700 0340 B242     		cmp	r2, r6
 4701 0342 11D2     		bcs	.L338
1003:../Middlewares/stm32-mw-camera/sensors/vd1943/vd1943.c ****     mipi_interpacket_delay_in_px = 30 * 8 * ctx->ctx.config_save.out_itf.datalane_nb / bpp;
 4702              		.loc 1 1003 5 is_stmt 1 view .LVU1386
 4703              	.LVL385:
1004:../Middlewares/stm32-mw-camera/sensors/vd1943/vd1943.c ****     mipi_virtual_linelength = mipi_transition_cst_in_px +
 4704              		.loc 1 1004 5 view .LVU1387
1005:../Middlewares/stm32-mw-camera/sensors/vd1943/vd1943.c ****                               vd1943_supported_modes[ctx->ctx.config_save.resolution].width +
 4705              		.loc 1 1005 5 view .LVU1388
1008:../Middlewares/stm32-mw-camera/sensors/vd1943/vd1943.c ****   }
 4706              		.loc 1 1008 5 view .LVU1389
1004:../Middlewares/stm32-mw-camera/sensors/vd1943/vd1943.c ****     mipi_virtual_linelength = mipi_transition_cst_in_px +
 4707              		.loc 1 1004 43 is_stmt 0 view .LVU1390
 4708 0344 F021     		movs	r1, #240
 4709 0346 6143     		muls	r1, r4, r1
ARM GAS  /tmp/ccydMd0r.s 			page 136


 4710              	.LVL386:
1004:../Middlewares/stm32-mw-camera/sensors/vd1943/vd1943.c ****     mipi_virtual_linelength = mipi_transition_cst_in_px +
 4711              		.loc 1 1004 34 view .LVU1391
 4712 0348 B1FBFCF1 		udiv	r1, r1, ip
 4713              	.LVL387:
1006:../Middlewares/stm32-mw-camera/sensors/vd1943/vd1943.c ****                               mipi_interpacket_delay_in_px;
 4714              		.loc 1 1006 74 view .LVU1392
 4715 034c 95F83C00 		ldrb	r0, [r5, #60]	@ zero_extendqisi2
 4716              	.LVL388:
1006:../Middlewares/stm32-mw-camera/sensors/vd1943/vd1943.c ****                               mipi_interpacket_delay_in_px;
 4717              		.loc 1 1006 86 view .LVU1393
 4718 0350 07EB0017 		add	r7, r7, r0, lsl #4
1006:../Middlewares/stm32-mw-camera/sensors/vd1943/vd1943.c ****                               mipi_interpacket_delay_in_px;
 4719              		.loc 1 1006 93 view .LVU1394
 4720 0354 B868     		ldr	r0, [r7, #8]
 4721 0356 0144     		add	r1, r1, r0
 4722              	.LVL389:
1003:../Middlewares/stm32-mw-camera/sensors/vd1943/vd1943.c ****     mipi_interpacket_delay_in_px = 30 * 8 * ctx->ctx.config_save.out_itf.datalane_nb / bpp;
 4723              		.loc 1 1003 31 view .LVU1395
 4724 0358 8148     		ldr	r0, .L400+4
 4725 035a B2FBF0F0 		udiv	r0, r2, r0
 4726              	.LVL390:
1006:../Middlewares/stm32-mw-camera/sensors/vd1943/vd1943.c ****                               mipi_interpacket_delay_in_px;
 4727              		.loc 1 1006 93 view .LVU1396
 4728 035e 0144     		add	r1, r1, r0
1008:../Middlewares/stm32-mw-camera/sensors/vd1943/vd1943.c ****   }
 4729              		.loc 1 1008 29 view .LVU1397
 4730 0360 A1FB0601 		umull	r0, r1, r1, r6
 4731              	.LVL391:
1008:../Middlewares/stm32-mw-camera/sensors/vd1943/vd1943.c ****   }
 4732              		.loc 1 1008 29 view .LVU1398
 4733 0364 FFF7FEFF 		bl	__aeabi_uldivmod
 4734              	.LVL392:
 4735              	.L338:
1010:../Middlewares/stm32-mw-camera/sensors/vd1943/vd1943.c **** 
 4736              		.loc 1 1010 3 is_stmt 1 view .LVU1399
1013:../Middlewares/stm32-mw-camera/sensors/vd1943/vd1943.c **** 
 4737              		.loc 1 1013 3 view .LVU1400
1013:../Middlewares/stm32-mw-camera/sensors/vd1943/vd1943.c **** 
 4738              		.loc 1 1013 31 is_stmt 0 view .LVU1401
 4739 0368 40F62F53 		movw	r3, #3375
1010:../Middlewares/stm32-mw-camera/sensors/vd1943/vd1943.c **** 
 4740              		.loc 1 1010 15 view .LVU1402
 4741 036c 80B2     		uxth	r0, r0
1013:../Middlewares/stm32-mw-camera/sensors/vd1943/vd1943.c **** 
 4742              		.loc 1 1013 31 view .LVU1403
 4743 036e 9842     		cmp	r0, r3
 4744 0370 38BF     		it	cc
 4745 0372 1846     		movcc	r0, r3
 4746              	.LVL393:
1013:../Middlewares/stm32-mw-camera/sensors/vd1943/vd1943.c **** 
 4747              		.loc 1 1013 15 view .LVU1404
 4748 0374 4FF6FC74 		movw	r4, #65532
1015:../Middlewares/stm32-mw-camera/sensors/vd1943/vd1943.c **** 
 4749              		.loc 1 1015 3 view .LVU1405
 4750 0378 40F2F733 		movw	r3, #1015
1013:../Middlewares/stm32-mw-camera/sensors/vd1943/vd1943.c **** 
ARM GAS  /tmp/ccydMd0r.s 			page 137


 4751              		.loc 1 1013 31 view .LVU1406
 4752 037c 0330     		adds	r0, r0, #3
1013:../Middlewares/stm32-mw-camera/sensors/vd1943/vd1943.c **** 
 4753              		.loc 1 1013 15 view .LVU1407
 4754 037e 0440     		ands	r4, r4, r0
 4755              	.LVL394:
1015:../Middlewares/stm32-mw-camera/sensors/vd1943/vd1943.c **** 
 4756              		.loc 1 1015 3 is_stmt 1 view .LVU1408
1015:../Middlewares/stm32-mw-camera/sensors/vd1943/vd1943.c **** 
 4757              		.loc 1 1015 3 view .LVU1409
 4758 0380 0321     		movs	r1, #3
 4759 0382 2846     		mov	r0, r5
 4760 0384 774A     		ldr	r2, .L400+8
 4761 0386 0194     		str	r4, [sp, #4]
 4762 0388 0093     		str	r3, [sp]
 4763 038a 0023     		movs	r3, #0
 4764 038c FFF7FEFF 		bl	VD1943_log_impl
 4765              	.LVL395:
1015:../Middlewares/stm32-mw-camera/sensors/vd1943/vd1943.c **** 
 4766              		.loc 1 1015 3 discriminator 1 view .LVU1410
1017:../Middlewares/stm32-mw-camera/sensors/vd1943/vd1943.c ****   VD1943_TraceError(ctx, ret);
 4767              		.loc 1 1017 3 view .LVU1411
1017:../Middlewares/stm32-mw-camera/sensors/vd1943/vd1943.c ****   VD1943_TraceError(ctx, ret);
 4768              		.loc 1 1017 9 is_stmt 0 view .LVU1412
 4769 0390 2246     		mov	r2, r4
 4770 0392 40F63411 		movw	r1, #2356
 4771 0396 2846     		mov	r0, r5
 4772 0398 6B69     		ldr	r3, [r5, #20]
 4773 039a 9847     		blx	r3
 4774              	.LVL396:
1018:../Middlewares/stm32-mw-camera/sensors/vd1943/vd1943.c **** 
 4775              		.loc 1 1018 3 is_stmt 1 view .LVU1413
1018:../Middlewares/stm32-mw-camera/sensors/vd1943/vd1943.c **** 
 4776              		.loc 1 1018 3 view .LVU1414
 4777 039c 0446     		mov	r4, r0
 4778              	.LVL397:
1018:../Middlewares/stm32-mw-camera/sensors/vd1943/vd1943.c **** 
 4779              		.loc 1 1018 3 is_stmt 0 view .LVU1415
 4780 039e 28B1     		cbz	r0, .L339
1018:../Middlewares/stm32-mw-camera/sensors/vd1943/vd1943.c **** 
 4781              		.loc 1 1018 3 is_stmt 1 discriminator 1 view .LVU1416
1018:../Middlewares/stm32-mw-camera/sensors/vd1943/vd1943.c **** 
 4782              		.loc 1 1018 3 discriminator 1 view .LVU1417
 4783 03a0 40F2FA33 		movw	r3, #1018
 4784 03a4 0290     		str	r0, [sp, #8]
 4785 03a6 8BE7     		b	.L397
 4786              	.LVL398:
 4787              	.L336:
 985:../Middlewares/stm32-mw-camera/sensors/vd1943/vd1943.c ****   }
 4788              		.loc 1 985 5 view .LVU1418
 985:../Middlewares/stm32-mw-camera/sensors/vd1943/vd1943.c ****   }
 4789              		.loc 1 985 18 is_stmt 0 view .LVU1419
 4790 03a8 9E08     		lsrs	r6, r3, #2
 4791              	.LVL399:
 985:../Middlewares/stm32-mw-camera/sensors/vd1943/vd1943.c ****   }
 4792              		.loc 1 985 18 view .LVU1420
 4793 03aa BAE7     		b	.L337
ARM GAS  /tmp/ccydMd0r.s 			page 138


 4794              	.LVL400:
 4795              	.L339:
 985:../Middlewares/stm32-mw-camera/sensors/vd1943/vd1943.c ****   }
 4796              		.loc 1 985 18 view .LVU1421
 4797              	.LBE147:
 4798              	.LBE146:
1097:../Middlewares/stm32-mw-camera/sensors/vd1943/vd1943.c ****     return ret;
 4799              		.loc 1 1097 3 is_stmt 1 view .LVU1422
1100:../Middlewares/stm32-mw-camera/sensors/vd1943/vd1943.c ****   if (ret)
 4800              		.loc 1 1100 3 view .LVU1423
1100:../Middlewares/stm32-mw-camera/sensors/vd1943/vd1943.c ****   if (ret)
 4801              		.loc 1 1100 9 is_stmt 0 view .LVU1424
 4802 03ac 2846     		mov	r0, r5
 4803 03ae 296C     		ldr	r1, [r5, #64]
 4804 03b0 05AA     		add	r2, sp, #20
 4805 03b2 FFF7FEFF 		bl	VD1943_ComputeFrameLength
 4806              	.LVL401:
1101:../Middlewares/stm32-mw-camera/sensors/vd1943/vd1943.c ****     return ret;
 4807              		.loc 1 1101 3 is_stmt 1 view .LVU1425
1101:../Middlewares/stm32-mw-camera/sensors/vd1943/vd1943.c ****     return ret;
 4808              		.loc 1 1101 6 is_stmt 0 view .LVU1426
 4809 03b6 0446     		mov	r4, r0
 4810 03b8 0028     		cmp	r0, #0
 4811 03ba 7FF429AE 		bne	.L291
1104:../Middlewares/stm32-mw-camera/sensors/vd1943/vd1943.c ****   ret = ctx->write16(ctx, VD1943_REG_FRAME_LENGTH(0), frame_length);
 4812              		.loc 1 1104 3 is_stmt 1 view .LVU1427
1104:../Middlewares/stm32-mw-camera/sensors/vd1943/vd1943.c ****   ret = ctx->write16(ctx, VD1943_REG_FRAME_LENGTH(0), frame_length);
 4813              		.loc 1 1104 3 view .LVU1428
 4814 03be 2B6C     		ldr	r3, [r5, #64]
 4815 03c0 BDF81460 		ldrh	r6, [sp, #20]
 4816 03c4 0321     		movs	r1, #3
 4817 03c6 CDE90163 		strd	r6, r3, [sp, #4]
 4818 03ca 4FF48A63 		mov	r3, #1104
 4819 03ce 664A     		ldr	r2, .L400+12
 4820 03d0 0093     		str	r3, [sp]
 4821 03d2 0346     		mov	r3, r0
 4822 03d4 2846     		mov	r0, r5
 4823              	.LVL402:
1104:../Middlewares/stm32-mw-camera/sensors/vd1943/vd1943.c ****   ret = ctx->write16(ctx, VD1943_REG_FRAME_LENGTH(0), frame_length);
 4824              		.loc 1 1104 3 is_stmt 0 view .LVU1429
 4825 03d6 FFF7FEFF 		bl	VD1943_log_impl
 4826              	.LVL403:
1104:../Middlewares/stm32-mw-camera/sensors/vd1943/vd1943.c ****   ret = ctx->write16(ctx, VD1943_REG_FRAME_LENGTH(0), frame_length);
 4827              		.loc 1 1104 3 is_stmt 1 discriminator 1 view .LVU1430
1105:../Middlewares/stm32-mw-camera/sensors/vd1943/vd1943.c ****   VD1943_TraceError(ctx, ret);
 4828              		.loc 1 1105 3 view .LVU1431
1105:../Middlewares/stm32-mw-camera/sensors/vd1943/vd1943.c ****   VD1943_TraceError(ctx, ret);
 4829              		.loc 1 1105 9 is_stmt 0 view .LVU1432
 4830 03da 3246     		mov	r2, r6
 4831 03dc 40F64631 		movw	r1, #2886
 4832 03e0 2846     		mov	r0, r5
 4833 03e2 6B69     		ldr	r3, [r5, #20]
 4834 03e4 9847     		blx	r3
 4835              	.LVL404:
1106:../Middlewares/stm32-mw-camera/sensors/vd1943/vd1943.c **** 
 4836              		.loc 1 1106 3 is_stmt 1 view .LVU1433
1106:../Middlewares/stm32-mw-camera/sensors/vd1943/vd1943.c **** 
ARM GAS  /tmp/ccydMd0r.s 			page 139


 4837              		.loc 1 1106 3 view .LVU1434
 4838 03e6 0446     		mov	r4, r0
 4839 03e8 10BB     		cbnz	r0, .L341
 4840              	.LVL405:
1106:../Middlewares/stm32-mw-camera/sensors/vd1943/vd1943.c **** 
 4841              		.loc 1 1106 3 is_stmt 0 view .LVU1435
 4842              	.LBE148:
 4843              	.LBE184:
1287:../Middlewares/stm32-mw-camera/sensors/vd1943/vd1943.c ****     return ret;
 4844              		.loc 1 1287 3 is_stmt 1 view .LVU1436
1290:../Middlewares/stm32-mw-camera/sensors/vd1943/vd1943.c ****   if (ret)
 4845              		.loc 1 1290 3 view .LVU1437
 4846              	.LBB185:
 4847              	.LBI185:
1162:../Middlewares/stm32-mw-camera/sensors/vd1943/vd1943.c **** {
 4848              		.loc 1 1162 12 view .LVU1438
 4849              	.LBB186:
1164:../Middlewares/stm32-mw-camera/sensors/vd1943/vd1943.c ****   uint8_t mode;
 4850              		.loc 1 1164 3 view .LVU1439
1165:../Middlewares/stm32-mw-camera/sensors/vd1943/vd1943.c ****   int ret;
 4851              		.loc 1 1165 3 view .LVU1440
1166:../Middlewares/stm32-mw-camera/sensors/vd1943/vd1943.c **** 
 4852              		.loc 1 1166 3 view .LVU1441
1168:../Middlewares/stm32-mw-camera/sensors/vd1943/vd1943.c ****   case VD1943_MIRROR_FLIP_NONE:
 4853              		.loc 1 1168 3 view .LVU1442
1168:../Middlewares/stm32-mw-camera/sensors/vd1943/vd1943.c ****   case VD1943_MIRROR_FLIP_NONE:
 4854              		.loc 1 1168 38 is_stmt 0 view .LVU1443
 4855 03ea 95F84530 		ldrb	r3, [r5, #69]	@ zero_extendqisi2
 4856 03ee 032B     		cmp	r3, #3
 4857 03f0 3FF60CAE 		bhi	.L333
 4858              	.LVL406:
1185:../Middlewares/stm32-mw-camera/sensors/vd1943/vd1943.c ****   VD1943_TraceError(ctx, ret);
 4859              		.loc 1 1185 3 is_stmt 1 view .LVU1444
1185:../Middlewares/stm32-mw-camera/sensors/vd1943/vd1943.c ****   VD1943_TraceError(ctx, ret);
 4860              		.loc 1 1185 9 is_stmt 0 view .LVU1445
 4861 03f4 5D4A     		ldr	r2, .L400+16
 4862 03f6 2C69     		ldr	r4, [r5, #16]
 4863 03f8 40F63711 		movw	r1, #2359
 4864 03fc 2846     		mov	r0, r5
 4865 03fe D25C     		ldrb	r2, [r2, r3]	@ zero_extendqisi2
 4866 0400 A047     		blx	r4
 4867              	.LVL407:
1186:../Middlewares/stm32-mw-camera/sensors/vd1943/vd1943.c **** 
 4868              		.loc 1 1186 3 is_stmt 1 view .LVU1446
1186:../Middlewares/stm32-mw-camera/sensors/vd1943/vd1943.c **** 
 4869              		.loc 1 1186 3 view .LVU1447
 4870 0402 0446     		mov	r4, r0
 4871 0404 D0B9     		cbnz	r0, .L344
 4872              	.LVL408:
1186:../Middlewares/stm32-mw-camera/sensors/vd1943/vd1943.c **** 
 4873              		.loc 1 1186 3 is_stmt 0 view .LVU1448
 4874              	.LBE186:
 4875              	.LBE185:
1291:../Middlewares/stm32-mw-camera/sensors/vd1943/vd1943.c ****     return ret;
 4876              		.loc 1 1291 3 is_stmt 1 view .LVU1449
1294:../Middlewares/stm32-mw-camera/sensors/vd1943/vd1943.c ****   if (ret)
 4877              		.loc 1 1294 3 view .LVU1450
ARM GAS  /tmp/ccydMd0r.s 			page 140


 4878              	.LBB188:
 4879              	.LBI188:
1191:../Middlewares/stm32-mw-camera/sensors/vd1943/vd1943.c **** {
 4880              		.loc 1 1191 12 view .LVU1451
 4881              	.LBB189:
1193:../Middlewares/stm32-mw-camera/sensors/vd1943/vd1943.c ****   uint16_t reg16;
 4882              		.loc 1 1193 3 view .LVU1452
1194:../Middlewares/stm32-mw-camera/sensors/vd1943/vd1943.c ****   int ret;
 4883              		.loc 1 1194 3 view .LVU1453
1195:../Middlewares/stm32-mw-camera/sensors/vd1943/vd1943.c **** 
 4884              		.loc 1 1195 3 view .LVU1454
1197:../Middlewares/stm32-mw-camera/sensors/vd1943/vd1943.c ****   case VD1943_PATGEN_DISABLE:
 4885              		.loc 1 1197 3 view .LVU1455
1197:../Middlewares/stm32-mw-camera/sensors/vd1943/vd1943.c ****   case VD1943_PATGEN_DISABLE:
 4886              		.loc 1 1197 38 is_stmt 0 view .LVU1456
 4887 0406 95F84630 		ldrb	r3, [r5, #70]	@ zero_extendqisi2
 4888 040a 022B     		cmp	r3, #2
 4889 040c 3FF6FEAD 		bhi	.L333
 4890              	.LVL409:
1211:../Middlewares/stm32-mw-camera/sensors/vd1943/vd1943.c ****   VD1943_TraceError(ctx, ret);
 4891              		.loc 1 1211 3 is_stmt 1 view .LVU1457
1211:../Middlewares/stm32-mw-camera/sensors/vd1943/vd1943.c ****   VD1943_TraceError(ctx, ret);
 4892              		.loc 1 1211 9 is_stmt 0 view .LVU1458
 4893 0410 574A     		ldr	r2, .L400+20
 4894 0412 6C69     		ldr	r4, [r5, #20]
 4895 0414 40F63811 		movw	r1, #2360
 4896 0418 2846     		mov	r0, r5
 4897 041a 32F81320 		ldrh	r2, [r2, r3, lsl #1]
 4898 041e A047     		blx	r4
 4899              	.LVL410:
1212:../Middlewares/stm32-mw-camera/sensors/vd1943/vd1943.c **** 
 4900              		.loc 1 1212 3 is_stmt 1 view .LVU1459
1212:../Middlewares/stm32-mw-camera/sensors/vd1943/vd1943.c **** 
 4901              		.loc 1 1212 3 view .LVU1460
 4902 0420 0446     		mov	r4, r0
 4903 0422 88B1     		cbz	r0, .L346
1212:../Middlewares/stm32-mw-camera/sensors/vd1943/vd1943.c **** 
 4904              		.loc 1 1212 3 discriminator 1 view .LVU1461
1212:../Middlewares/stm32-mw-camera/sensors/vd1943/vd1943.c **** 
 4905              		.loc 1 1212 3 discriminator 1 view .LVU1462
 4906 0424 40F2BC43 		movw	r3, #1212
 4907 0428 524A     		ldr	r2, .L400+24
 4908 042a 0290     		str	r0, [sp, #8]
 4909 042c 0193     		str	r3, [sp, #4]
 4910 042e 1BE6     		b	.L391
 4911              	.LVL411:
 4912              	.L341:
1212:../Middlewares/stm32-mw-camera/sensors/vd1943/vd1943.c **** 
 4913              		.loc 1 1212 3 is_stmt 0 discriminator 1 view .LVU1463
 4914              	.LBE189:
 4915              	.LBE188:
 4916              	.LBB191:
 4917              	.LBB149:
1106:../Middlewares/stm32-mw-camera/sensors/vd1943/vd1943.c **** 
 4918              		.loc 1 1106 3 is_stmt 1 discriminator 1 view .LVU1464
1106:../Middlewares/stm32-mw-camera/sensors/vd1943/vd1943.c **** 
 4919              		.loc 1 1106 3 discriminator 1 view .LVU1465
ARM GAS  /tmp/ccydMd0r.s 			page 141


 4920 0430 40F25243 		movw	r3, #1106
 4921 0434 504A     		ldr	r2, .L400+28
 4922 0436 0290     		str	r0, [sp, #8]
 4923 0438 0193     		str	r3, [sp, #4]
 4924 043a 15E6     		b	.L391
 4925              	.LVL412:
 4926              	.L344:
1106:../Middlewares/stm32-mw-camera/sensors/vd1943/vd1943.c **** 
 4927              		.loc 1 1106 3 is_stmt 0 discriminator 1 view .LVU1466
 4928              	.LBE149:
 4929              	.LBE191:
 4930              	.LBB192:
 4931              	.LBB187:
1186:../Middlewares/stm32-mw-camera/sensors/vd1943/vd1943.c **** 
 4932              		.loc 1 1186 3 is_stmt 1 discriminator 1 view .LVU1467
1186:../Middlewares/stm32-mw-camera/sensors/vd1943/vd1943.c **** 
 4933              		.loc 1 1186 3 discriminator 1 view .LVU1468
 4934 043c 40F2A243 		movw	r3, #1186
 4935 0440 4E4A     		ldr	r2, .L400+32
 4936 0442 0290     		str	r0, [sp, #8]
 4937 0444 0193     		str	r3, [sp, #4]
 4938 0446 0FE6     		b	.L391
 4939              	.LVL413:
 4940              	.L346:
1186:../Middlewares/stm32-mw-camera/sensors/vd1943/vd1943.c **** 
 4941              		.loc 1 1186 3 is_stmt 0 discriminator 1 view .LVU1469
 4942 0448 2F46     		mov	r7, r5
 4943              	.LBE187:
 4944              	.LBE192:
 4945              	.LBB193:
 4946              	.LBB190:
1212:../Middlewares/stm32-mw-camera/sensors/vd1943/vd1943.c **** 
 4947              		.loc 1 1212 3 view .LVU1470
 4948 044a A946     		mov	r9, r5
 4949 044c 40F6D426 		movw	r6, #2772
 4950              	.LBE190:
 4951              	.LBE193:
 4952              	.LBB194:
 4953              	.LBB195:
1223:../Middlewares/stm32-mw-camera/sensors/vd1943/vd1943.c ****     ret = ctx->write8(ctx, VD1943_REG_GPIO_x_CTRL(i), drv_vd1943_ctx->config_save.gpios[i].gpio_ctr
 4954              		.loc 1 1223 17 discriminator 1 view .LVU1471
 4955 0450 40F6D828 		movw	r8, #2776
 4956              	.LVL414:
 4957              	.L349:
1224:../Middlewares/stm32-mw-camera/sensors/vd1943/vd1943.c ****     VD1943_TraceError(ctx, ret);
 4958              		.loc 1 1224 5 is_stmt 1 view .LVU1472
1224:../Middlewares/stm32-mw-camera/sensors/vd1943/vd1943.c ****     VD1943_TraceError(ctx, ret);
 4959              		.loc 1 1224 11 is_stmt 0 view .LVU1473
 4960 0454 3146     		mov	r1, r6
 4961 0456 2846     		mov	r0, r5
 4962 0458 2B69     		ldr	r3, [r5, #16]
 4963 045a 99F87520 		ldrb	r2, [r9, #117]	@ zero_extendqisi2
 4964 045e 9847     		blx	r3
 4965              	.LVL415:
1225:../Middlewares/stm32-mw-camera/sensors/vd1943/vd1943.c ****     ret = ctx->write8(ctx, VD1943_REG_GPIO_CTRL(0), drv_vd1943_ctx->config_save.gpios[i].enable);
 4966              		.loc 1 1225 5 is_stmt 1 view .LVU1474
1225:../Middlewares/stm32-mw-camera/sensors/vd1943/vd1943.c ****     ret = ctx->write8(ctx, VD1943_REG_GPIO_CTRL(0), drv_vd1943_ctx->config_save.gpios[i].enable);
ARM GAS  /tmp/ccydMd0r.s 			page 142


 4967              		.loc 1 1225 5 view .LVU1475
 4968 0460 0446     		mov	r4, r0
 4969 0462 28B1     		cbz	r0, .L347
1225:../Middlewares/stm32-mw-camera/sensors/vd1943/vd1943.c ****     ret = ctx->write8(ctx, VD1943_REG_GPIO_CTRL(0), drv_vd1943_ctx->config_save.gpios[i].enable);
 4970              		.loc 1 1225 5 discriminator 1 view .LVU1476
1225:../Middlewares/stm32-mw-camera/sensors/vd1943/vd1943.c ****     ret = ctx->write8(ctx, VD1943_REG_GPIO_CTRL(0), drv_vd1943_ctx->config_save.gpios[i].enable);
 4971              		.loc 1 1225 5 discriminator 1 view .LVU1477
 4972 0464 40F2C943 		movw	r3, #1225
 4973 0468 0290     		str	r0, [sp, #8]
 4974              	.L395:
1227:../Middlewares/stm32-mw-camera/sensors/vd1943/vd1943.c ****   }
 4975              		.loc 1 1227 5 is_stmt 0 discriminator 1 view .LVU1478
 4976 046a 454A     		ldr	r2, .L400+36
 4977 046c 0193     		str	r3, [sp, #4]
 4978 046e FBE5     		b	.L391
 4979              	.L347:
1225:../Middlewares/stm32-mw-camera/sensors/vd1943/vd1943.c ****     ret = ctx->write8(ctx, VD1943_REG_GPIO_CTRL(0), drv_vd1943_ctx->config_save.gpios[i].enable);
 4980              		.loc 1 1225 5 is_stmt 1 discriminator 6 view .LVU1479
1225:../Middlewares/stm32-mw-camera/sensors/vd1943/vd1943.c ****     ret = ctx->write8(ctx, VD1943_REG_GPIO_CTRL(0), drv_vd1943_ctx->config_save.gpios[i].enable);
 4981              		.loc 1 1225 5 view .LVU1480
1226:../Middlewares/stm32-mw-camera/sensors/vd1943/vd1943.c ****     VD1943_TraceError(ctx, ret);
 4982              		.loc 1 1226 5 view .LVU1481
1226:../Middlewares/stm32-mw-camera/sensors/vd1943/vd1943.c ****     VD1943_TraceError(ctx, ret);
 4983              		.loc 1 1226 11 is_stmt 0 view .LVU1482
 4984 0470 40F64931 		movw	r1, #2889
 4985 0474 2846     		mov	r0, r5
 4986              	.LVL416:
1226:../Middlewares/stm32-mw-camera/sensors/vd1943/vd1943.c ****     VD1943_TraceError(ctx, ret);
 4987              		.loc 1 1226 11 view .LVU1483
 4988 0476 2B69     		ldr	r3, [r5, #16]
 4989 0478 99F87620 		ldrb	r2, [r9, #118]	@ zero_extendqisi2
 4990 047c 9847     		blx	r3
 4991              	.LVL417:
1227:../Middlewares/stm32-mw-camera/sensors/vd1943/vd1943.c ****   }
 4992              		.loc 1 1227 5 is_stmt 1 view .LVU1484
1227:../Middlewares/stm32-mw-camera/sensors/vd1943/vd1943.c ****   }
 4993              		.loc 1 1227 5 view .LVU1485
 4994 047e 0446     		mov	r4, r0
 4995 0480 C8B9     		cbnz	r0, .L348
1227:../Middlewares/stm32-mw-camera/sensors/vd1943/vd1943.c ****   }
 4996              		.loc 1 1227 5 discriminator 3 view .LVU1486
1227:../Middlewares/stm32-mw-camera/sensors/vd1943/vd1943.c ****   }
 4997              		.loc 1 1227 5 discriminator 3 view .LVU1487
1227:../Middlewares/stm32-mw-camera/sensors/vd1943/vd1943.c ****   }
 4998              		.loc 1 1227 5 discriminator 6 view .LVU1488
1227:../Middlewares/stm32-mw-camera/sensors/vd1943/vd1943.c ****   }
 4999              		.loc 1 1227 5 view .LVU1489
1223:../Middlewares/stm32-mw-camera/sensors/vd1943/vd1943.c ****     ret = ctx->write8(ctx, VD1943_REG_GPIO_x_CTRL(i), drv_vd1943_ctx->config_save.gpios[i].gpio_ctr
 5000              		.loc 1 1223 36 discriminator 2 view .LVU1490
1223:../Middlewares/stm32-mw-camera/sensors/vd1943/vd1943.c ****     ret = ctx->write8(ctx, VD1943_REG_GPIO_x_CTRL(i), drv_vd1943_ctx->config_save.gpios[i].gpio_ctr
 5001              		.loc 1 1223 17 discriminator 1 view .LVU1491
 5002 0482 0136     		adds	r6, r6, #1
 5003 0484 B6B2     		uxth	r6, r6
 5004 0486 4645     		cmp	r6, r8
 5005 0488 09F10209 		add	r9, r9, #2
 5006 048c E2D1     		bne	.L349
 5007              	.LVL418:
ARM GAS  /tmp/ccydMd0r.s 			page 143


1223:../Middlewares/stm32-mw-camera/sensors/vd1943/vd1943.c ****     ret = ctx->write8(ctx, VD1943_REG_GPIO_x_CTRL(i), drv_vd1943_ctx->config_save.gpios[i].gpio_ctr
 5008              		.loc 1 1223 17 is_stmt 0 discriminator 1 view .LVU1492
 5009              	.LBE195:
 5010              	.LBE194:
1299:../Middlewares/stm32-mw-camera/sensors/vd1943/vd1943.c ****     return ret;
 5011              		.loc 1 1299 3 is_stmt 1 view .LVU1493
1302:../Middlewares/stm32-mw-camera/sensors/vd1943/vd1943.c ****   if (ret)
 5012              		.loc 1 1302 3 view .LVU1494
 5013              	.LBB197:
 5014              	.LBI197:
1233:../Middlewares/stm32-mw-camera/sensors/vd1943/vd1943.c **** {
 5015              		.loc 1 1233 12 view .LVU1495
 5016              	.LBB198:
1235:../Middlewares/stm32-mw-camera/sensors/vd1943/vd1943.c ****   int i;
 5017              		.loc 1 1235 3 view .LVU1496
1236:../Middlewares/stm32-mw-camera/sensors/vd1943/vd1943.c ****   int ret;
 5018              		.loc 1 1236 3 view .LVU1497
1237:../Middlewares/stm32-mw-camera/sensors/vd1943/vd1943.c **** 
 5019              		.loc 1 1237 3 view .LVU1498
1240:../Middlewares/stm32-mw-camera/sensors/vd1943/vd1943.c ****     for (i = 0; i < VD1943_GPIO_NB; i++) {
 5020              		.loc 1 1240 3 view .LVU1499
1240:../Middlewares/stm32-mw-camera/sensors/vd1943/vd1943.c ****     for (i = 0; i < VD1943_GPIO_NB; i++) {
 5021              		.loc 1 1240 34 is_stmt 0 view .LVU1500
 5022 048e 95F87420 		ldrb	r2, [r5, #116]	@ zero_extendqisi2
1240:../Middlewares/stm32-mw-camera/sensors/vd1943/vd1943.c ****     for (i = 0; i < VD1943_GPIO_NB; i++) {
 5023              		.loc 1 1240 6 view .LVU1501
 5024 0492 012A     		cmp	r2, #1
 5025 0494 13D1     		bne	.L351
 5026 0496 0423     		movs	r3, #4
 5027              	.L353:
1242:../Middlewares/stm32-mw-camera/sensors/vd1943/vd1943.c ****         (drv_vd1943_ctx->config_save.gpios[i].enable == VD1943_GPIO_ENABLE)) {
 5028              		.loc 1 1242 7 is_stmt 1 view .LVU1502
1242:../Middlewares/stm32-mw-camera/sensors/vd1943/vd1943.c ****         (drv_vd1943_ctx->config_save.gpios[i].enable == VD1943_GPIO_ENABLE)) {
 5029              		.loc 1 1242 10 is_stmt 0 view .LVU1503
 5030 0498 97F87510 		ldrb	r1, [r7, #117]	@ zero_extendqisi2
 5031 049c 01F00501 		and	r1, r1, #5
 5032 04a0 0529     		cmp	r1, #5
 5033 04a2 03D1     		bne	.L352
1242:../Middlewares/stm32-mw-camera/sensors/vd1943/vd1943.c ****         (drv_vd1943_ctx->config_save.gpios[i].enable == VD1943_GPIO_ENABLE)) {
 5034              		.loc 1 1242 109 discriminator 1 view .LVU1504
 5035 04a4 97F87610 		ldrb	r1, [r7, #118]	@ zero_extendqisi2
 5036 04a8 0129     		cmp	r1, #1
 5037 04aa 08D0     		beq	.L351
 5038              	.L352:
1241:../Middlewares/stm32-mw-camera/sensors/vd1943/vd1943.c ****       if (((drv_vd1943_ctx->config_save.gpios[i].gpio_ctrl & VD1943_GPIO_FSYNC_IN) == VD1943_GPIO_F
 5039              		.loc 1 1241 38 is_stmt 1 discriminator 2 view .LVU1505
1241:../Middlewares/stm32-mw-camera/sensors/vd1943/vd1943.c ****       if (((drv_vd1943_ctx->config_save.gpios[i].gpio_ctrl & VD1943_GPIO_FSYNC_IN) == VD1943_GPIO_F
 5040              		.loc 1 1241 19 discriminator 1 view .LVU1506
 5041 04ac 013B     		subs	r3, r3, #1
 5042 04ae 07F10207 		add	r7, r7, #2
 5043 04b2 F1D1     		bne	.L353
 5044 04b4 AAE5     		b	.L333
 5045              	.LVL419:
 5046              	.L348:
1241:../Middlewares/stm32-mw-camera/sensors/vd1943/vd1943.c ****       if (((drv_vd1943_ctx->config_save.gpios[i].gpio_ctrl & VD1943_GPIO_FSYNC_IN) == VD1943_GPIO_F
 5047              		.loc 1 1241 19 is_stmt 0 discriminator 1 view .LVU1507
 5048              	.LBE198:
ARM GAS  /tmp/ccydMd0r.s 			page 144


 5049              	.LBE197:
 5050              	.LBB201:
 5051              	.LBB196:
1227:../Middlewares/stm32-mw-camera/sensors/vd1943/vd1943.c ****   }
 5052              		.loc 1 1227 5 is_stmt 1 discriminator 1 view .LVU1508
1227:../Middlewares/stm32-mw-camera/sensors/vd1943/vd1943.c ****   }
 5053              		.loc 1 1227 5 discriminator 1 view .LVU1509
 5054 04b6 40F2CB43 		movw	r3, #1227
 5055 04ba 0290     		str	r0, [sp, #8]
 5056 04bc D5E7     		b	.L395
 5057              	.LVL420:
 5058              	.L351:
1227:../Middlewares/stm32-mw-camera/sensors/vd1943/vd1943.c ****   }
 5059              		.loc 1 1227 5 is_stmt 0 discriminator 1 view .LVU1510
 5060              	.LBE196:
 5061              	.LBE201:
 5062              	.LBB202:
 5063              	.LBB199:
1254:../Middlewares/stm32-mw-camera/sensors/vd1943/vd1943.c ****   VD1943_TraceError(ctx, ret);
 5064              		.loc 1 1254 3 is_stmt 1 view .LVU1511
1254:../Middlewares/stm32-mw-camera/sensors/vd1943/vd1943.c ****   VD1943_TraceError(ctx, ret);
 5065              		.loc 1 1254 9 is_stmt 0 view .LVU1512
 5066 04be 40F6C621 		movw	r1, #2758
 5067 04c2 2846     		mov	r0, r5
 5068 04c4 2B69     		ldr	r3, [r5, #16]
 5069 04c6 9847     		blx	r3
 5070              	.LVL421:
1255:../Middlewares/stm32-mw-camera/sensors/vd1943/vd1943.c **** 
 5071              		.loc 1 1255 3 is_stmt 1 view .LVU1513
1255:../Middlewares/stm32-mw-camera/sensors/vd1943/vd1943.c **** 
 5072              		.loc 1 1255 3 view .LVU1514
 5073 04c8 0446     		mov	r4, r0
 5074 04ca 68B9     		cbnz	r0, .L354
 5075              	.LVL422:
1255:../Middlewares/stm32-mw-camera/sensors/vd1943/vd1943.c **** 
 5076              		.loc 1 1255 3 is_stmt 0 view .LVU1515
 5077              	.LBE199:
 5078              	.LBE202:
1303:../Middlewares/stm32-mw-camera/sensors/vd1943/vd1943.c ****     return ret;
 5079              		.loc 1 1303 3 is_stmt 1 view .LVU1516
1306:../Middlewares/stm32-mw-camera/sensors/vd1943/vd1943.c ****   if (ret)
 5080              		.loc 1 1306 3 view .LVU1517
 5081              	.LBB203:
 5082              	.LBI173:
1260:../Middlewares/stm32-mw-camera/sensors/vd1943/vd1943.c **** {
 5083              		.loc 1 1260 12 view .LVU1518
 5084              	.LBB175:
1262:../Middlewares/stm32-mw-camera/sensors/vd1943/vd1943.c **** 
 5085              		.loc 1 1262 3 view .LVU1519
1264:../Middlewares/stm32-mw-camera/sensors/vd1943/vd1943.c ****   VD1943_TraceError(ctx, ret);
 5086              		.loc 1 1264 3 view .LVU1520
1264:../Middlewares/stm32-mw-camera/sensors/vd1943/vd1943.c ****   VD1943_TraceError(ctx, ret);
 5087              		.loc 1 1264 9 is_stmt 0 view .LVU1521
 5088 04cc 0122     		movs	r2, #1
 5089 04ce 40F28D71 		movw	r1, #1933
 5090 04d2 2846     		mov	r0, r5
 5091 04d4 2B69     		ldr	r3, [r5, #16]
ARM GAS  /tmp/ccydMd0r.s 			page 145


 5092 04d6 9847     		blx	r3
 5093              	.LVL423:
1265:../Middlewares/stm32-mw-camera/sensors/vd1943/vd1943.c ****   ret = ctx->write8(ctx, VD1943_REG_DIAG_DISABLE_FW_1_ERR, VD1943_DIAG_DISABLE_FW_1_ERR_TASK_MONITO
 5094              		.loc 1 1265 3 is_stmt 1 view .LVU1522
1265:../Middlewares/stm32-mw-camera/sensors/vd1943/vd1943.c ****   ret = ctx->write8(ctx, VD1943_REG_DIAG_DISABLE_FW_1_ERR, VD1943_DIAG_DISABLE_FW_1_ERR_TASK_MONITO
 5095              		.loc 1 1265 3 view .LVU1523
 5096 04d8 0446     		mov	r4, r0
 5097 04da 58B1     		cbz	r0, .L387
1265:../Middlewares/stm32-mw-camera/sensors/vd1943/vd1943.c ****   ret = ctx->write8(ctx, VD1943_REG_DIAG_DISABLE_FW_1_ERR, VD1943_DIAG_DISABLE_FW_1_ERR_TASK_MONITO
 5098              		.loc 1 1265 3 discriminator 1 view .LVU1524
1265:../Middlewares/stm32-mw-camera/sensors/vd1943/vd1943.c ****   ret = ctx->write8(ctx, VD1943_REG_DIAG_DISABLE_FW_1_ERR, VD1943_DIAG_DISABLE_FW_1_ERR_TASK_MONITO
 5099              		.loc 1 1265 3 discriminator 1 view .LVU1525
 5100 04dc 40F2F143 		movw	r3, #1265
 5101 04e0 0290     		str	r0, [sp, #8]
 5102              	.L392:
1269:../Middlewares/stm32-mw-camera/sensors/vd1943/vd1943.c **** 
 5103              		.loc 1 1269 3 is_stmt 0 discriminator 1 view .LVU1526
 5104 04e2 284A     		ldr	r2, .L400+40
 5105 04e4 0193     		str	r3, [sp, #4]
 5106 04e6 BFE5     		b	.L391
 5107              	.LVL424:
 5108              	.L354:
1269:../Middlewares/stm32-mw-camera/sensors/vd1943/vd1943.c **** 
 5109              		.loc 1 1269 3 discriminator 1 view .LVU1527
 5110              	.LBE175:
 5111              	.LBE203:
 5112              	.LBB204:
 5113              	.LBB200:
1255:../Middlewares/stm32-mw-camera/sensors/vd1943/vd1943.c **** 
 5114              		.loc 1 1255 3 is_stmt 1 discriminator 1 view .LVU1528
1255:../Middlewares/stm32-mw-camera/sensors/vd1943/vd1943.c **** 
 5115              		.loc 1 1255 3 discriminator 1 view .LVU1529
 5116 04e8 40F2E743 		movw	r3, #1255
 5117 04ec 264A     		ldr	r2, .L400+44
 5118 04ee 0290     		str	r0, [sp, #8]
 5119 04f0 0193     		str	r3, [sp, #4]
 5120 04f2 B9E5     		b	.L391
 5121              	.LVL425:
 5122              	.L387:
1255:../Middlewares/stm32-mw-camera/sensors/vd1943/vd1943.c **** 
 5123              		.loc 1 1255 3 is_stmt 0 discriminator 1 view .LVU1530
 5124              	.LBE200:
 5125              	.LBE204:
 5126              	.LBB205:
 5127              	.LBB176:
1265:../Middlewares/stm32-mw-camera/sensors/vd1943/vd1943.c ****   ret = ctx->write8(ctx, VD1943_REG_DIAG_DISABLE_FW_1_ERR, VD1943_DIAG_DISABLE_FW_1_ERR_TASK_MONITO
 5128              		.loc 1 1265 3 is_stmt 1 discriminator 6 view .LVU1531
1265:../Middlewares/stm32-mw-camera/sensors/vd1943/vd1943.c ****   ret = ctx->write8(ctx, VD1943_REG_DIAG_DISABLE_FW_1_ERR, VD1943_DIAG_DISABLE_FW_1_ERR_TASK_MONITO
 5129              		.loc 1 1265 3 view .LVU1532
1266:../Middlewares/stm32-mw-camera/sensors/vd1943/vd1943.c ****   VD1943_TraceError(ctx, ret);
 5130              		.loc 1 1266 3 view .LVU1533
1266:../Middlewares/stm32-mw-camera/sensors/vd1943/vd1943.c ****   VD1943_TraceError(ctx, ret);
 5131              		.loc 1 1266 9 is_stmt 0 view .LVU1534
 5132 04f4 0422     		movs	r2, #4
 5133 04f6 40F28E71 		movw	r1, #1934
 5134 04fa 2846     		mov	r0, r5
 5135              	.LVL426:
ARM GAS  /tmp/ccydMd0r.s 			page 146


1266:../Middlewares/stm32-mw-camera/sensors/vd1943/vd1943.c ****   VD1943_TraceError(ctx, ret);
 5136              		.loc 1 1266 9 view .LVU1535
 5137 04fc 2B69     		ldr	r3, [r5, #16]
 5138 04fe 9847     		blx	r3
 5139              	.LVL427:
1267:../Middlewares/stm32-mw-camera/sensors/vd1943/vd1943.c ****   ret = ctx->write8(ctx, VD1943_REG_DIAG_DISABLE_STREAMING_ERR, VD1943_DIAG_DISABLE_STREAMING_ERR_A
 5140              		.loc 1 1267 3 is_stmt 1 view .LVU1536
1267:../Middlewares/stm32-mw-camera/sensors/vd1943/vd1943.c ****   ret = ctx->write8(ctx, VD1943_REG_DIAG_DISABLE_STREAMING_ERR, VD1943_DIAG_DISABLE_STREAMING_ERR_A
 5141              		.loc 1 1267 3 view .LVU1537
 5142 0500 0446     		mov	r4, r0
 5143 0502 58B9     		cbnz	r0, .L357
1267:../Middlewares/stm32-mw-camera/sensors/vd1943/vd1943.c ****   ret = ctx->write8(ctx, VD1943_REG_DIAG_DISABLE_STREAMING_ERR, VD1943_DIAG_DISABLE_STREAMING_ERR_A
 5144              		.loc 1 1267 3 discriminator 3 view .LVU1538
1267:../Middlewares/stm32-mw-camera/sensors/vd1943/vd1943.c ****   ret = ctx->write8(ctx, VD1943_REG_DIAG_DISABLE_STREAMING_ERR, VD1943_DIAG_DISABLE_STREAMING_ERR_A
 5145              		.loc 1 1267 3 discriminator 3 view .LVU1539
1267:../Middlewares/stm32-mw-camera/sensors/vd1943/vd1943.c ****   ret = ctx->write8(ctx, VD1943_REG_DIAG_DISABLE_STREAMING_ERR, VD1943_DIAG_DISABLE_STREAMING_ERR_A
 5146              		.loc 1 1267 3 discriminator 6 view .LVU1540
1267:../Middlewares/stm32-mw-camera/sensors/vd1943/vd1943.c ****   ret = ctx->write8(ctx, VD1943_REG_DIAG_DISABLE_STREAMING_ERR, VD1943_DIAG_DISABLE_STREAMING_ERR_A
 5147              		.loc 1 1267 3 view .LVU1541
1268:../Middlewares/stm32-mw-camera/sensors/vd1943/vd1943.c ****   VD1943_TraceError(ctx, ret);
 5148              		.loc 1 1268 3 view .LVU1542
1268:../Middlewares/stm32-mw-camera/sensors/vd1943/vd1943.c ****   VD1943_TraceError(ctx, ret);
 5149              		.loc 1 1268 9 is_stmt 0 view .LVU1543
 5150 0504 FF22     		movs	r2, #255
 5151 0506 40F28F71 		movw	r1, #1935
 5152 050a 2846     		mov	r0, r5
 5153              	.LVL428:
1268:../Middlewares/stm32-mw-camera/sensors/vd1943/vd1943.c ****   VD1943_TraceError(ctx, ret);
 5154              		.loc 1 1268 9 view .LVU1544
 5155 050c 2B69     		ldr	r3, [r5, #16]
 5156 050e 9847     		blx	r3
 5157              	.LVL429:
1269:../Middlewares/stm32-mw-camera/sensors/vd1943/vd1943.c **** 
 5158              		.loc 1 1269 3 is_stmt 1 view .LVU1545
1269:../Middlewares/stm32-mw-camera/sensors/vd1943/vd1943.c **** 
 5159              		.loc 1 1269 3 view .LVU1546
 5160 0510 0446     		mov	r4, r0
 5161 0512 38B1     		cbz	r0, .L388
1269:../Middlewares/stm32-mw-camera/sensors/vd1943/vd1943.c **** 
 5162              		.loc 1 1269 3 discriminator 1 view .LVU1547
1269:../Middlewares/stm32-mw-camera/sensors/vd1943/vd1943.c **** 
 5163              		.loc 1 1269 3 discriminator 1 view .LVU1548
 5164 0514 40F2F543 		movw	r3, #1269
 5165 0518 0290     		str	r0, [sp, #8]
 5166 051a E2E7     		b	.L392
 5167              	.L357:
1267:../Middlewares/stm32-mw-camera/sensors/vd1943/vd1943.c ****   ret = ctx->write8(ctx, VD1943_REG_DIAG_DISABLE_STREAMING_ERR, VD1943_DIAG_DISABLE_STREAMING_ERR_A
 5168              		.loc 1 1267 3 discriminator 1 view .LVU1549
1267:../Middlewares/stm32-mw-camera/sensors/vd1943/vd1943.c ****   ret = ctx->write8(ctx, VD1943_REG_DIAG_DISABLE_STREAMING_ERR, VD1943_DIAG_DISABLE_STREAMING_ERR_A
 5169              		.loc 1 1267 3 discriminator 1 view .LVU1550
 5170 051c 40F2F343 		movw	r3, #1267
 5171 0520 0290     		str	r0, [sp, #8]
 5172 0522 DEE7     		b	.L392
 5173              	.L388:
 5174              	.LVL430:
1267:../Middlewares/stm32-mw-camera/sensors/vd1943/vd1943.c ****   ret = ctx->write8(ctx, VD1943_REG_DIAG_DISABLE_STREAMING_ERR, VD1943_DIAG_DISABLE_STREAMING_ERR_A
 5175              		.loc 1 1267 3 is_stmt 0 discriminator 1 view .LVU1551
ARM GAS  /tmp/ccydMd0r.s 			page 147


 5176              	.LBE176:
 5177              	.LBE205:
 5178              	.LBE207:
 5179              	.LBE209:
1612:../Middlewares/stm32-mw-camera/sensors/vd1943/vd1943.c ****     return ret;
 5180              		.loc 1 1612 3 is_stmt 1 view .LVU1552
1615:../Middlewares/stm32-mw-camera/sensors/vd1943/vd1943.c ****   if (ret)
 5181              		.loc 1 1615 3 view .LVU1553
 5182              	.LBB210:
 5183              	.LBI210:
1313:../Middlewares/stm32-mw-camera/sensors/vd1943/vd1943.c **** {
 5184              		.loc 1 1313 12 view .LVU1554
 5185              	.LBB211:
1315:../Middlewares/stm32-mw-camera/sensors/vd1943/vd1943.c **** 
 5186              		.loc 1 1315 3 view .LVU1555
1317:../Middlewares/stm32-mw-camera/sensors/vd1943/vd1943.c ****   if (ret)
 5187              		.loc 1 1317 3 view .LVU1556
1317:../Middlewares/stm32-mw-camera/sensors/vd1943/vd1943.c ****   if (ret)
 5188              		.loc 1 1317 9 is_stmt 0 view .LVU1557
 5189 0524 0122     		movs	r2, #1
 5190 0526 40F21651 		movw	r1, #1302
 5191 052a 2846     		mov	r0, r5
 5192 052c FFF7FEFF 		bl	VD1943_ApplyCmdAndWait
 5193              	.LVL431:
1318:../Middlewares/stm32-mw-camera/sensors/vd1943/vd1943.c ****     return ret;
 5194              		.loc 1 1318 3 is_stmt 1 view .LVU1558
1318:../Middlewares/stm32-mw-camera/sensors/vd1943/vd1943.c ****     return ret;
 5195              		.loc 1 1318 6 is_stmt 0 view .LVU1559
 5196 0530 0446     		mov	r4, r0
 5197 0532 0028     		cmp	r0, #0
 5198 0534 7FF46CAD 		bne	.L291
1321:../Middlewares/stm32-mw-camera/sensors/vd1943/vd1943.c ****   if (ret)
 5199              		.loc 1 1321 3 is_stmt 1 view .LVU1560
1321:../Middlewares/stm32-mw-camera/sensors/vd1943/vd1943.c ****   if (ret)
 5200              		.loc 1 1321 9 is_stmt 0 view .LVU1561
 5201 0538 0421     		movs	r1, #4
 5202 053a 2846     		mov	r0, r5
 5203              	.LVL432:
1321:../Middlewares/stm32-mw-camera/sensors/vd1943/vd1943.c ****   if (ret)
 5204              		.loc 1 1321 9 view .LVU1562
 5205 053c FFF7FEFF 		bl	VD1943_WaitState
 5206              	.LVL433:
1322:../Middlewares/stm32-mw-camera/sensors/vd1943/vd1943.c ****     return ret;
 5207              		.loc 1 1322 3 is_stmt 1 view .LVU1563
1322:../Middlewares/stm32-mw-camera/sensors/vd1943/vd1943.c ****     return ret;
 5208              		.loc 1 1322 6 is_stmt 0 view .LVU1564
 5209 0540 0446     		mov	r4, r0
 5210 0542 0028     		cmp	r0, #0
 5211 0544 7FF464AD 		bne	.L291
1325:../Middlewares/stm32-mw-camera/sensors/vd1943/vd1943.c **** 
 5212              		.loc 1 1325 3 is_stmt 1 view .LVU1565
1325:../Middlewares/stm32-mw-camera/sensors/vd1943/vd1943.c **** 
 5213              		.loc 1 1325 3 view .LVU1566
 5214 0548 40F22D53 		movw	r3, #1325
 5215 054c 0221     		movs	r1, #2
 5216 054e 2846     		mov	r0, r5
 5217              	.LVL434:
ARM GAS  /tmp/ccydMd0r.s 			page 148


1325:../Middlewares/stm32-mw-camera/sensors/vd1943/vd1943.c **** 
 5218              		.loc 1 1325 3 is_stmt 0 view .LVU1567
 5219 0550 0E4A     		ldr	r2, .L400+48
 5220 0552 FFF7FEFF 		bl	VD1943_log_impl
 5221              	.LVL435:
1325:../Middlewares/stm32-mw-camera/sensors/vd1943/vd1943.c **** 
 5222              		.loc 1 1325 3 is_stmt 1 discriminator 1 view .LVU1568
1327:../Middlewares/stm32-mw-camera/sensors/vd1943/vd1943.c **** }
 5223              		.loc 1 1327 3 view .LVU1569
1327:../Middlewares/stm32-mw-camera/sensors/vd1943/vd1943.c **** }
 5224              		.loc 1 1327 3 is_stmt 0 view .LVU1570
 5225              	.LBE211:
 5226              	.LBE210:
1616:../Middlewares/stm32-mw-camera/sensors/vd1943/vd1943.c ****     return ret;
 5227              		.loc 1 1616 3 is_stmt 1 view .LVU1571
1618:../Middlewares/stm32-mw-camera/sensors/vd1943/vd1943.c **** 
 5228              		.loc 1 1618 3 view .LVU1572
1618:../Middlewares/stm32-mw-camera/sensors/vd1943/vd1943.c **** 
 5229              		.loc 1 1618 25 is_stmt 0 view .LVU1573
 5230 0556 0123     		movs	r3, #1
 5231 0558 EB62     		str	r3, [r5, #44]
1624:../Middlewares/stm32-mw-camera/sensors/vd1943/vd1943.c **** }
 5232              		.loc 1 1624 3 is_stmt 1 view .LVU1574
 5233              	.LVL436:
1624:../Middlewares/stm32-mw-camera/sensors/vd1943/vd1943.c **** }
 5234              		.loc 1 1624 10 is_stmt 0 view .LVU1575
 5235 055a 59E5     		b	.L291
 5236              	.L401:
 5237              		.align	2
 5238              	.L400:
 5239 055c 52000000 		.word	.LC28
 5240 0560 00093D00 		.word	4000000
 5241 0564 7D000000 		.word	.LC29
 5242 0568 A0000000 		.word	.LC30
 5243 056c 00000000 		.word	CSWTCH.67
 5244 0570 00000000 		.word	CSWTCH.69
 5245 0574 00000000 		.word	__func__.9
 5246 0578 00000000 		.word	__func__.12
 5247 057c 00000000 		.word	__func__.10
 5248 0580 00000000 		.word	__func__.8
 5249 0584 00000000 		.word	__func__.6
 5250 0588 00000000 		.word	__func__.7
 5251 058c 00000000 		.word	.LC20
 5252              		.cfi_endproc
 5253              	.LFE48:
 5255              		.section	.rodata.CSWTCH.69,"a"
 5256              		.align	1
 5259              	CSWTCH.69:
 5260 0000 0000     		.short	0
 5261 0002 0122     		.short	8705
 5262 0004 0128     		.short	10241
 5263              		.section	.rodata.CSWTCH.67,"a"
 5266              	CSWTCH.67:
 5267 0000 00       		.byte	0
 5268 0001 02       		.byte	2
 5269 0002 01       		.byte	1
 5270 0003 03       		.byte	3
ARM GAS  /tmp/ccydMd0r.s 			page 149


 5271              		.section	.rodata.__func__.0,"a"
 5274              	__func__.0:
 5275 0000 56443139 		.ascii	"VD1943_GetExpo\000"
 5275      34335F47 
 5275      65744578 
 5275      706F00
 5276              		.section	.rodata.__func__.1,"a"
 5279              	__func__.1:
 5280 0000 56443139 		.ascii	"VD1943_SetExpo\000"
 5280      34335F53 
 5280      65744578 
 5280      706F00
 5281              		.section	.rodata.__func__.2,"a"
 5284              	__func__.2:
 5285 0000 56443139 		.ascii	"VD1943_SetDigitalGain\000"
 5285      34335F53 
 5285      65744469 
 5285      67697461 
 5285      6C476169 
 5286              		.section	.rodata.__func__.3,"a"
 5289              	__func__.3:
 5290 0000 56443139 		.ascii	"VD1943_GetAnalogGain\000"
 5290      34335F47 
 5290      6574416E 
 5290      616C6F67 
 5290      4761696E 
 5291              		.section	.rodata.__func__.4,"a"
 5294              	__func__.4:
 5295 0000 56443139 		.ascii	"VD1943_SetAnalogGain\000"
 5295      34335F53 
 5295      6574416E 
 5295      616C6F67 
 5295      4761696E 
 5296              		.section	.rodata.__func__.5,"a"
 5299              	__func__.5:
 5300 0000 56443139 		.ascii	"VD1943_Hold\000"
 5300      34335F48 
 5300      6F6C6400 
 5301              		.section	.rodata.__func__.6,"a"
 5304              	__func__.6:
 5305 0000 56443139 		.ascii	"VD1943_SafetyDisable\000"
 5305      34335F53 
 5305      61666574 
 5305      79446973 
 5305      61626C65 
 5306              		.section	.rodata.__func__.7,"a"
 5309              	__func__.7:
 5310 0000 56443139 		.ascii	"VD1943_VT_Sync\000"
 5310      34335F56 
 5310      545F5379 
 5310      6E6300
 5311              		.section	.rodata.__func__.8,"a"
 5314              	__func__.8:
 5315 0000 56443139 		.ascii	"VD1943_Gpios\000"
 5315      34335F47 
 5315      70696F73 
 5315      00
ARM GAS  /tmp/ccydMd0r.s 			page 150


 5316              		.section	.rodata.__func__.9,"a"
 5319              	__func__.9:
 5320 0000 56443139 		.ascii	"VD1943_SetupPatGen\000"
 5320      34335F53 
 5320      65747570 
 5320      50617447 
 5320      656E00
 5321              		.section	.rodata.__func__.10,"a"
 5324              	__func__.10:
 5325 0000 56443139 		.ascii	"VD1943_SetupMirrorFlip\000"
 5325      34335F53 
 5325      65747570 
 5325      4D697272 
 5325      6F72466C 
 5326              		.section	.rodata.__func__.11,"a"
 5329              	__func__.11:
 5330 0000 56443139 		.ascii	"VD1943_SetupLineLen\000"
 5330      34335F53 
 5330      65747570 
 5330      4C696E65 
 5330      4C656E00 
 5331              		.section	.rodata.__func__.12,"a"
 5334              	__func__.12:
 5335 0000 56443139 		.ascii	"VD1943_SetupFrameRate\000"
 5335      34335F53 
 5335      65747570 
 5335      4672616D 
 5335      65526174 
 5336              		.section	.rodata.__func__.13,"a"
 5339              	__func__.13:
 5340 0000 56443139 		.ascii	"VD1943_SetupSize\000"
 5340      34335F53 
 5340      65747570 
 5340      53697A65 
 5340      00
 5341              		.section	.rodata.__func__.14,"a"
 5344              	__func__.14:
 5345 0000 56443139 		.ascii	"VD1943_SetupOutputDataType\000"
 5345      34335F53 
 5345      65747570 
 5345      4F757470 
 5345      75744461 
 5346              		.section	.rodata.__func__.15,"a"
 5349              	__func__.15:
 5350 0000 56443139 		.ascii	"VD1943_GetLaneNb\000"
 5350      34335F47 
 5350      65744C61 
 5350      6E654E62 
 5350      00
 5351              		.section	.rodata.__func__.16,"a"
 5354              	__func__.16:
 5355 0000 56443139 		.ascii	"VD1943_SetupOutput\000"
 5355      34335F53 
 5355      65747570 
 5355      4F757470 
 5355      757400
 5356              		.section	.rodata.__func__.17,"a"
ARM GAS  /tmp/ccydMd0r.s 			page 151


 5359              	__func__.17:
 5360 0000 56443139 		.ascii	"VD1943_SetBayerType_RGBNIR\000"
 5360      34335F53 
 5360      65744261 
 5360      79657254 
 5360      7970655F 
 5361              		.section	.rodata.__func__.18,"a"
 5364              	__func__.18:
 5365 0000 56443139 		.ascii	"VD1943_SetBayerType_RGB\000"
 5365      34335F53 
 5365      65744261 
 5365      79657254 
 5365      7970655F 
 5366              		.section	.rodata.__func__.19,"a"
 5369              	__func__.19:
 5370 0000 56443139 		.ascii	"VD1943_SetBayerType\000"
 5370      34335F53 
 5370      65744261 
 5370      79657254 
 5370      79706500 
 5371              		.section	.rodata.__func__.20,"a"
 5374              	__func__.20:
 5375 0000 56443139 		.ascii	"VD1943_ApplyVTPatch\000"
 5375      34335F41 
 5375      70706C79 
 5375      56545061 
 5375      74636800 
 5376              		.section	.rodata.__func__.21,"a"
 5379              	__func__.21:
 5380 0000 56443139 		.ascii	"VD1943_GoToStandbyState\000"
 5380      34335F47 
 5380      6F546F53 
 5380      74616E64 
 5380      62795374 
 5381              		.section	.rodata.__func__.22,"a"
 5384              	__func__.22:
 5385 0000 56443139 		.ascii	"VD1943_ApplyFwPatch\000"
 5385      34335F41 
 5385      70706C79 
 5385      46775061 
 5385      74636800 
 5386              		.section	.rodata.__func__.23,"a"
 5389              	__func__.23:
 5390 0000 56443139 		.ascii	"VD1943_ApplyCertificate\000"
 5390      34335F41 
 5390      70706C79 
 5390      43657274 
 5390      69666963 
 5391              		.section	.rodata.__func__.24,"a"
 5394              	__func__.24:
 5395 0000 56443139 		.ascii	"VD1943_ApplyCmdAndWait\000"
 5395      34335F41 
 5395      70706C79 
 5395      436D6441 
 5395      6E645761 
 5396              		.section	.rodata.__func__.25,"a"
 5399              	__func__.25:
ARM GAS  /tmp/ccydMd0r.s 			page 152


 5400 0000 56443139 		.ascii	"VD1943_CheckModelId\000"
 5400      34335F43 
 5400      6865636B 
 5400      4D6F6465 
 5400      6C496400 
 5401              		.section	.rodata.__func__.26,"a"
 5404              	__func__.26:
 5405 0000 56443139 		.ascii	"VD1943_SetExpo_GS\000"
 5405      34335F53 
 5405      65744578 
 5405      706F5F47 
 5405      5300
 5406              		.section	.rodata.__func__.27,"a"
 5409              	__func__.27:
 5410 0000 56443139 		.ascii	"VD1943_SetExpoSplit_GS\000"
 5410      34335F53 
 5410      65744578 
 5410      706F5370 
 5410      6C69745F 
 5411              		.section	.rodata.__func__.28,"a"
 5414              	__func__.28:
 5415 0000 56443139 		.ascii	"VD1943_SetDigitalGain_RGB\000"
 5415      34335F53 
 5415      65744469 
 5415      67697461 
 5415      6C476169 
 5416              		.section	.rodata.__func__.29,"a"
 5419              	__func__.29:
 5420 0000 56443139 		.ascii	"VD1943_SetDigitalGain_IR\000"
 5420      34335F53 
 5420      65744469 
 5420      67697461 
 5420      6C476169 
 5421              		.section	.rodata.__func__.30,"a"
 5424              	__func__.30:
 5425 0000 56443139 		.ascii	"VD1943_SetExpo_RS\000"
 5425      34335F53 
 5425      65744578 
 5425      706F5F52 
 5425      5300
 5426              		.section	.rodata.__func__.31,"a"
 5429              	__func__.31:
 5430 0000 56443139 		.ascii	"VD1943_GetExpoCommon\000"
 5430      34335F47 
 5430      65744578 
 5430      706F436F 
 5430      6D6D6F6E 
 5431              		.section	.rodata.__func__.32,"a"
 5434              	__func__.32:
 5435 0000 56443139 		.ascii	"VD1943_SetExpo_RS_HDR\000"
 5435      34335F53 
 5435      65744578 
 5435      706F5F52 
 5435      535F4844 
 5436              		.section	.rodata.__func__.33,"a"
 5439              	__func__.33:
 5440 0000 56443139 		.ascii	"VD1943_SetFctPtr\000"
ARM GAS  /tmp/ccydMd0r.s 			page 153


 5440      34335F53 
 5440      65744663 
 5440      74507472 
 5440      00
 5441              		.section	.rodata.__func__.34,"a"
 5444              	__func__.34:
 5445 0000 64697370 		.ascii	"display_error\000"
 5445      6C61795F 
 5445      6572726F 
 5445      7200
 5446              		.section	.rodata.__func__.35,"a"
 5449              	__func__.35:
 5450 0000 56443139 		.ascii	"VD1943_ComputeFrameLength\000"
 5450      34335F43 
 5450      6F6D7075 
 5450      74654672 
 5450      616D654C 
 5451              		.section	.rodata.vd1943_supported_modes,"a"
 5452              		.align	2
 5455              	vd1943_supported_modes:
 5456 0000 60040000 		.word	1120
 5457 0004 68030000 		.word	872
 5458 0008 40010000 		.word	320
 5459 000c F0000000 		.word	240
 5460 0010 C0030000 		.word	960
 5461 0014 F0020000 		.word	752
 5462 0018 80020000 		.word	640
 5463 001c E0010000 		.word	480
 5464 0020 70030000 		.word	880
 5465 0024 B4020000 		.word	692
 5466 0028 20030000 		.word	800
 5467 002c 58020000 		.word	600
 5468 0030 00030000 		.word	768
 5469 0034 60020000 		.word	608
 5470 0038 00040000 		.word	1024
 5471 003c 00030000 		.word	768
 5472 0040 80020000 		.word	640
 5473 0044 78020000 		.word	632
 5474 0048 00050000 		.word	1280
 5475 004c D0020000 		.word	720
 5476 0050 80020000 		.word	640
 5477 0054 E0010000 		.word	480
 5478 0058 00050000 		.word	1280
 5479 005c 00040000 		.word	1024
 5480 0060 40010000 		.word	320
 5481 0064 C4010000 		.word	452
 5482 0068 80070000 		.word	1920
 5483 006c 38040000 		.word	1080
 5484 0070 00010000 		.word	256
 5485 0074 E0000000 		.word	224
 5486 0078 00080000 		.word	2048
 5487 007c 00060000 		.word	1536
 5488 0080 00000000 		.word	0
 5489 0084 20000000 		.word	32
 5490 0088 000A0000 		.word	2560
 5491 008c 80070000 		.word	1920
 5492 0090 00000000 		.word	0
ARM GAS  /tmp/ccydMd0r.s 			page 154


 5493 0094 00000000 		.word	0
 5494 0098 000A0000 		.word	2560
 5495 009c C0070000 		.word	1984
 5496              		.section	.rodata.rd_ram_seq1_content,"a"
 5499              	rd_ram_seq1_content:
 5500 0000 DF990000 		.ascii	"\337\231\000\000E\003\322\000\000\000\000\000\000\000"
 5500      4503D200 
 5500      00000000 
 5500      0000
 5501 000e 00008000 		.ascii	"\000\000\200\000\000\000\002\001\000\000\200\001\000"
 5501      00000201 
 5501      00008001 
 5501      00
 5502 001b 00000200 		.ascii	"\000\000\002\000\000\200\002\000\000\001\003\000\000"
 5502      00800200 
 5502      00010300 
 5502      00
 5503 0028 80030000 		.ascii	"\200\003\000\000\000\004\000\000\202\004\000\000\000"
 5503      00040000 
 5503      82040000 
 5503      00
 5504 0035 04000000 		.ascii	"\004\000\000\000\005\000\000\202\005\000\000\012\005"
 5504      05000082 
 5504      0500000A 
 5504      05
 5505 0042 00000006 		.ascii	"\000\000\000\006\000\000\202\006\000\000\013\006\000"
 5505      00008206 
 5505      00000B06 
 5505      00
 5506 004f 00040700 		.ascii	"\000\004\007\000\000\202\007\000\000\002\010\000\000"
 5506      00820700 
 5506      00020800 
 5506      00
 5507 005c 82080000 		.ascii	"\202\010\000\000\004\011\000\000\202\011\000\000\212"
 5507      04090000 
 5507      82090000 
 5507      8A
 5508 0069 08000000 		.ascii	"\010\000\000\000\012\000\000\202\012\000\000\000\012"
 5508      0A000082 
 5508      0A000000 
 5508      0A
 5509 0076 00008008 		.ascii	"\000\000\200\010\000\000\002\013\000\000\200\010\000"
 5509      0000020B 
 5509      00008008 
 5509      00
 5510 0083 00800820 		.ascii	"\000\200\010 \000\201\010\000\000\212\013\000\000\000"
 5510      00810800 
 5510      008A0B00 
 5510      0000
 5511 0091 0C000082 		.ascii	"\014\000\000\202\014\000\000\013\014\000\000\002\015"
 5511      0C00000B 
 5511      0C000002 
 5511      0D
 5512 009e 0000000C 		.ascii	"\000\000\000\014\000\000\200\015\000\000\002\016\000"
 5512      0000800D 
 5512      0000020E 
 5512      00
ARM GAS  /tmp/ccydMd0r.s 			page 155


 5513 00ab 00A70D00 		.ascii	"\000\247\015\000\000\253\016\000\000\002\017\000\000"
 5513      00AB0E00 
 5513      00020F00 
 5513      00
 5514 00b8 890F0000 		.ascii	"\211\017\000\000\002\020\000\000\202\020\000\000\002"
 5514      02100000 
 5514      82100000 
 5514      02
 5515 00c5 10000082 		.ascii	"\020\000\000\202\020\000\000\002\020\000\000\202\020"
 5515      10000002 
 5515      10000082 
 5515      10
 5516 00d2 00000110 		.ascii	"\000\000\001\020\000\000\252\017\000\000\002\021\000"
 5516      0000AA0F 
 5516      00000211 
 5516      00
 5517 00df 00801100 		.ascii	"\000\200\021\000\000\201\021\021\000\001\021\021\000"
 5517      00811111 
 5517      00011111 
 5517      00
 5518 00ec 03111000 		.ascii	"\003\021\020\000\003\021\017\000\003\021\016\000\003"
 5518      03110F00 
 5518      03110E00 
 5518      03
 5519 00f9 110D0027 		.ascii	"\021\015\000'\021\014\000\000\022\014\000\200\022\014"
 5519      110C0000 
 5519      120C0080 
 5519      120C
 5520 0107 0000130C 		.ascii	"\000\000\023\014\000\200\023\014\000\000\024\014\000"
 5520      0080130C 
 5520      0000140C 
 5520      00
 5521 0114 80140C00 		.ascii	"\200\024\014\000\000\025\014\000\200\025\014\000\000"
 5521      00150C00 
 5521      80150C00 
 5521      00
 5522 0121 160C0082 		.ascii	"\026\014\000\202\026\014\000\001\026\014\000\000\027"
 5522      160C0001 
 5522      160C0000 
 5522      17
 5523 012e 0C008117 		.ascii	"\014\000\201\027\014\000\000\030\014\000\200\030\014"
 5523      0C000018 
 5523      0C008018 
 5523      0C
 5524 013b 0000190C 		.ascii	"\000\000\031\014\000\201\031\014\000\035\032\014\000"
 5524      0081190C 
 5524      001D1A0C 
 5524      00
 5525 0148 801A0C00 		.ascii	"\200\032\014\000\002\033\014\000\212\032\014\000\200"
 5525      021B0C00 
 5525      8A1A0C00 
 5525      80
 5526 0155 1B0C0002 		.ascii	"\033\014\000\002\034\014\000\214\034\014\000\011\035"
 5526      1C0C008C 
 5526      1C0C0009 
 5526      1D
 5527 0162 0C00881D 		.ascii	"\014\000\210\035\014\000\005\036\014\000\202\036\014"
ARM GAS  /tmp/ccydMd0r.s 			page 156


 5527      0C00051E 
 5527      0C00821E 
 5527      0C
 5528 016f 00051F0C 		.ascii	"\000\005\037\014\000\211\037\014\000\010 \014\000\265"
 5528      00891F0C 
 5528      0008200C 
 5528      00B5
 5529 017d 200C0002 		.ascii	" \014\000\002!\014\000\237!\014\000\002\"\014\000\202"
 5529      210C009F 
 5529      210C0002 
 5529      220C0082 
 5530 018d 220C0002 		.ascii	"\"\014\000\002\"\014\000\002#\014\000\003\"\014\000"
 5530      220C0002 
 5530      230C0003 
 5530      220C00
 5531 019c 04220400 		.ascii	"\004\"\004\000\202#\004\000\003\"\004\000\004\"\005"
 5531      82230400 
 5531      03220400 
 5531      042205
 5532 01ab 00822305 		.ascii	"\000\202#\005\000\003\"\005\000\004\"\006\000\002$\006"
 5532      00032205 
 5532      00042206 
 5532      00022406 
 5533 01bb 00032206 		.ascii	"\000\003\"\006\000\004\"\007\000\002$\007\000\003\""
 5533      00042207 
 5533      00022407 
 5533      000322
 5534 01ca 07000422 		.ascii	"\007\000\004\"\010\000\202$\010\000\003\"\010\000\004"
 5534      08008224 
 5534      08000322 
 5534      080004
 5535 01d9 22090082 		.ascii	"\"\011\000\202$\011\000\003\"\011\000\004\"\012\000"
 5535      24090003 
 5535      22090004 
 5535      220A00
 5536 01e8 02240A00 		.ascii	"\002$\012\000\003\"\012\000\004\"\013\000\202$\013\000"
 5536      03220A00 
 5536      04220B00 
 5536      82240B00 
 5537 01f8 39220B00 		.ascii	"9\"\013\000!%\013\000\200%\013\000\001&\013\000\200"
 5537      21250B00 
 5537      80250B00 
 5537      01260B00 
 5537      80
 5538 0209 260B0001 		.ascii	"&\013\000\001'\013\000\200'\013\000\000&\013\000\000"
 5538      270B0080 
 5538      270B0000 
 5538      260B0000 
 5539 0219 280B0082 		.ascii	"(\013\000\202(\013\000\000(\013\000\000)\013\000\200"
 5539      280B0000 
 5539      280B0000 
 5539      290B0080 
 5540 0229 290B0001 		.ascii	")\013\000\001*\013\000\200*\013\000\001)\013\000\002"
 5540      2A0B0080 
 5540      2A0B0001 
 5540      290B0002 
 5541 0239 2B0B0083 		.ascii	"+\013\000\203+\013\000\204+\002\000\002,\002\000\203"
ARM GAS  /tmp/ccydMd0r.s 			page 157


 5541      2B0B0084 
 5541      2B020002 
 5541      2C020083 
 5542 0249 2B020082 		.ascii	"+\002\000\202,\003\000\201+\003\000\001-\003\000\200"
 5542      2C030081 
 5542      2B030001 
 5542      2D030080 
 5543 0259 2D030001 		.ascii	"-\003\000\001.\003\000\202.\003\000\001/\003\000\204"
 5543      2E030082 
 5543      2E030001 
 5543      2F030084 
 5544 0269 2F030000 		.ascii	"/\003\000\000\000\203\001"
 5544      008301
 5545              		.section	.rodata.rd_ram_pat_content,"a"
 5548              	rd_ram_pat_content:
 5549 0000 27836000 		.ascii	"'\203`\000\000\000\000\000\000\000\000\000\000\000\000"
 5549      00000000 
 5549      00000000 
 5549      000000
 5550 000f 00860280 		.ascii	"\000\206\002\200\000\000\000\320\006\000\004\000\000"
 5550      000000D0 
 5550      06000400 
 5550      00
 5551 001c 00000000 		.ascii	"\000\000\000\000\206\002\200\300\001\000\320\006\000"
 5551      860280C0 
 5551      0100D006 
 5551      00
 5552 0029 04000000 		.ascii	"\004\000\000\000\000\000\000\266\002\201\300\001\000"
 5552      000000B6 
 5552      0281C001 
 5552      00
 5553 0036 D0060004 		.ascii	"\320\006\000\004\000\000\000\000\000\000\266\000\200"
 5553      00000000 
 5553      0000B600 
 5553      80
 5554 0043 C00100D0 		.ascii	"\300\001\000\320\006\000\004\000\001\000\000\000\000"
 5554      06000400 
 5554      01000000 
 5554      00
 5555 0050 B6008020 		.ascii	"\266\000\200 \000\000\320\006\000\004\000\001\000\000"
 5555      0000D006 
 5555      00040001 
 5555      0000
 5556 005e 0000F600 		.ascii	"\000\000\366\000\204 \000\000\320\006\000\004\000\001"
 5556      84200000 
 5556      D0060004 
 5556      0001
 5557 006c 00000000 		.ascii	"\000\000\000\000\366\000\204 \000\000\320\006\002\004"
 5557      F6008420 
 5557      0000D006 
 5557      0204
 5558 007a 00000000 		.ascii	"\000\000\000\000\000\000\366\000\200 \000\000\320\006"
 5558      0000F600 
 5558      80200000 
 5558      D006
 5559 0088 02040000 		.ascii	"\002\004\000\000\000\000\000\000\366\000\200\200\000"
 5559      00000000 
ARM GAS  /tmp/ccydMd0r.s 			page 158


 5559      F6008080 
 5559      00
 5560 0095 00D00602 		.ascii	"\000\320\006\002\004\000\000\000\000\000\000\366\000"
 5560      04000000 
 5560      000000F6 
 5560      00
 5561 00a2 A0800000 		.ascii	"\240\200\000\000\320\006\002\004\000\000\000\000\000"
 5561      D0060204 
 5561      00000000 
 5561      00
 5562 00af 00F60080 		.ascii	"\000\366\000\200@\000\000\320\006\002\004\000\000\000"
 5562      400000D0 
 5562      06020400 
 5562      0000
 5563 00bd 000000F6 		.ascii	"\000\000\000\366\024\200@\000\000\320\006\002\004\000"
 5563      14804000 
 5563      00D00602 
 5563      0400
 5564 00cb 00000000 		.ascii	"\000\000\000\000\000\366\000\200\200\001\000\320\006"
 5564      00F60080 
 5564      800100D0 
 5564      06
 5565 00d8 02040000 		.ascii	"\002\004\000\000\000\000\000\000\366@\200\200\001\000"
 5565      00000000 
 5565      F6408080 
 5565      0100
 5566 00e6 D0060204 		.ascii	"\320\006\002\004\000\000\000\000\000\000\366\000\200"
 5566      00000000 
 5566      0000F600 
 5566      80
 5567 00f3 800100D0 		.ascii	"\200\001\000\320\006\000\004\000\000\000\000\000\000"
 5567      06000400 
 5567      00000000 
 5567      00
 5568 0100 76008080 		.ascii	"v\000\200\200\001\000\320\006\000\004\000\000\000\000"
 5568      0100D006 
 5568      00040000 
 5568      0000
 5569 010e 00007600 		.ascii	"\000\000v\000\200\200\001\000\320\004\000\004\000\000"
 5569      80800100 
 5569      D0040004 
 5569      0000
 5570 011c 00000000 		.ascii	"\000\000\000\000v\000\200\200\001\000\320\004\000\000"
 5570      76008080 
 5570      0100D004 
 5570      0000
 5571 012a 00000000 		.ascii	"\000\000\000\000\000\000v\000\300\200\001\000\320\004"
 5571      00007600 
 5571      C0800100 
 5571      D004
 5572 0138 00000000 		.ascii	"\000\000\000\000\000\000\000\000v\200\300\200\001\000"
 5572      00000000 
 5572      7680C080 
 5572      0100
 5573 0146 D0040000 		.ascii	"\320\004\000\000\000\000\000\000\000\000v\000\200\300"
 5573      00000000 
 5573      00007600 
ARM GAS  /tmp/ccydMd0r.s 			page 159


 5573      80C0
 5574 0154 0100D004 		.ascii	"\001\000\320\004\000\000\000\000\000\000\000\000v(\220"
 5574      00000000 
 5574      00000000 
 5574      762890
 5575 0163 C00100D0 		.ascii	"\300\001\000\320\004\000\000\000\000\000\000\000\000"
 5575      04000000 
 5575      00000000 
 5575      00
 5576 0170 76008280 		.ascii	"v\000\202\200\001\000\320\004\000\000\000\000\000\000"
 5576      0100D004 
 5576      00000000 
 5576      0000
 5577 017e 00007600 		.ascii	"\000\000v\000\200\200\001\000\330\004\000\000\000\000"
 5577      80800100 
 5577      D8040000 
 5577      0000
 5578 018c 00000000 		.ascii	"\000\000\000\000v\000\200 \000\000\330\004\000\000\000"
 5578      76008020 
 5578      0000D804 
 5578      000000
 5579 019b 00000000 		.ascii	"\000\000\000\000\000v\000\240 \000\000\330\004\000\000"
 5579      007600A0 
 5579      200000D8 
 5579      040000
 5580 01aa 00000000 		.ascii	"\000\000\000\000\000\000v\004\200 \000\000\330\004\000"
 5580      00007604 
 5580      80200000 
 5580      D80400
 5581 01b9 00000000 		.ascii	"\000\000\000\000\000\000\000v\000\200@\000\000\330\004"
 5581      00000076 
 5581      00804000 
 5581      00D804
 5582 01c8 00000000 		.ascii	"\000\000\000\000\000\000\000\000v\000\240@\000\000\330"
 5582      00000000 
 5582      7600A040 
 5582      0000D8
 5583 01d7 04000000 		.ascii	"\004\000\000\000\000\000\000\000\000v\000\200@`\000"
 5583      00000000 
 5583      00760080 
 5583      406000
 5584 01e6 D8040100 		.ascii	"\330\004\001\000\000\000\000\000\000\000r\000\200@`"
 5584      00000000 
 5584      00007200 
 5584      804060
 5585 01f5 00D80401 		.ascii	"\000\330\004\001\000\000\000\000\000\000\000p\000\200"
 5585      00000000 
 5585      00000070 
 5585      0080
 5586 0203 40600098 		.ascii	"@`\000\230\004\001\000\000\000\000\000\000\000p\000"
 5586      04010000 
 5586      00000000 
 5586      007000
 5587 0212 80406000 		.ascii	"\200@`\000\230\024\001\000\000\000\000\000\000\000p"
 5587      98140100 
 5587      00000000 
 5587      000070
ARM GAS  /tmp/ccydMd0r.s 			page 160


 5588 0221 00804060 		.ascii	"\000\200@`\000\230T\001\000\000\000\000\000\000\000"
 5588      00985401 
 5588      00000000 
 5588      000000
 5589 0230 F0018040 		.ascii	"\360\001\200@`\000\230\004\001\000\000\000\000\000\000"
 5589      60009804 
 5589      01000000 
 5589      000000
 5590 023f 00F00180 		.ascii	"\000\360\001\200@`\000\230\204\001\000\000\000\000\000"
 5590      40600098 
 5590      84010000 
 5590      000000
 5591 024e 0000F001 		.ascii	"\000\000\360\001\200@`\000\010\024\001\000\000\000\000"
 5591      80406000 
 5591      08140100 
 5591      000000
 5592 025d 000000F0 		.ascii	"\000\000\000\360\001\200@`\000\010\024\001\004\000\000"
 5592      01804060 
 5592      00081401 
 5592      040000
 5593 026c 00000000 		.ascii	"\000\000\000\000\360\001\200 `\000\010\024\001\004\000"
 5593      F0018020 
 5593      60000814 
 5593      010400
 5594 027b 00000000 		.ascii	"\000\000\000\000\000\361\011\200 `\000(T\001\004\000"
 5594      00F10980 
 5594      20600028 
 5594      54010400 
 5595 028b 00000000 		.ascii	"\000\000\000\000\000q\011\200 `\000(T\001\004\000\000"
 5595      00710980 
 5595      20600028 
 5595      54010400 
 5595      00
 5596 029c 00000000 		.ascii	"\000\000\000\000q\011\200 `\000(U\001\004\000\000\000"
 5596      71098020 
 5596      60002855 
 5596      01040000 
 5596      00
 5597 02ad 00000071 		.ascii	"\000\000\000q\001\200 `\000(\025\001\004\000\000\000"
 5597      01802060 
 5597      00281501 
 5597      04000000 
 5598 02bd 00000071 		.ascii	"\000\000\000q\001\200 `\000(\027\001\004\000\000\000"
 5598      01802060 
 5598      00281701 
 5598      04000000 
 5599 02cd 00000071 		.ascii	"\000\000\000q\000\200 `\000(\027\001\004\000\000\000"
 5599      00802060 
 5599      00281701 
 5599      04000000 
 5600 02dd 00000071 		.ascii	"\000\000\000q\000\200 `\000(W\001\004\000\000\000\000"
 5600      00802060 
 5600      00285701 
 5600      04000000 
 5600      00
 5601 02ee 00007100 		.ascii	"\000\000q\000\220 `\000(\027\001\004\000\000\000\000"
 5601      90206000 
ARM GAS  /tmp/ccydMd0r.s 			page 161


 5601      28170104 
 5601      00000000 
 5602 02fe 00003100 		.ascii	"\000\0001\000\220 `\000(W\001\004\000\000\000\000\000"
 5602      90206000 
 5602      28570104 
 5602      00000000 
 5602      00
 5603 030f 00310080 		.ascii	"\0001\000\200 `\000(W\001\004\000\000\000\000\000\000"
 5603      20600028 
 5603      57010400 
 5603      00000000 
 5603      00
 5604 0320 31008040 		.ascii	"1\000\200@`\000(\027\001\004\000\000\000\000\000\000"
 5604      60002817 
 5604      01040000 
 5604      00000000 
 5605 0330 31408040 		.ascii	"1@\200@`\000(\027\001\004\360\000\000\000\000\0001@"
 5605      60002817 
 5605      0104F000 
 5605      00000000 
 5605      3140
 5606 0342 80406000 		.ascii	"\200@`\000(\007\001\004\360\000\000\000\000\0001\000"
 5606      28070104 
 5606      F0000000 
 5606      00003100 
 5607 0352 80406000 		.ascii	"\200@`\000(\007\001\004\360\000\000\000\000\0001\000"
 5607      28070104 
 5607      F0000000 
 5607      00003100 
 5608 0362 80606000 		.ascii	"\200``\000(\007\001\004\360\000\000\000\000\0001\200"
 5608      28070104 
 5608      F0000000 
 5608      00003180 
 5609 0372 A0606000 		.ascii	"\240``\000(\007\001\004\360\000\000\000\000\0001\000"
 5609      28070104 
 5609      F0000000 
 5609      00003100 
 5610 0382 80206000 		.ascii	"\200 `\000(\007\001\004\360\000\000\000\000\0001\020"
 5610      28070104 
 5610      F0000000 
 5610      00003110 
 5611 0392 80206000 		.ascii	"\200 `\000(\007\001\004\377\000\000\000\000\0001\000"
 5611      28070104 
 5611      FF000000 
 5611      00003100 
 5612 03a2 80206000 		.ascii	"\200 `\000(\007\001\004\377\000\000\000\000\0001\000"
 5612      28070104 
 5612      FF000000 
 5612      00003100 
 5613 03b2 80206000 		.ascii	"\200 `\000(\007\001\004\357\000\000\000\000\0001\000"
 5613      28070104 
 5613      EF000000 
 5613      00003100 
 5614 03c2 80206000 		.ascii	"\200 `\000(\007\001\004\317\000\000\000\000\0001\000"
 5614      28070104 
 5614      CF000000 
 5614      00003100 
ARM GAS  /tmp/ccydMd0r.s 			page 162


 5615 03d2 80206000 		.ascii	"\200 `\000(\007\001\004\217\000\000\000\000\0001\000"
 5615      28070104 
 5615      8F000000 
 5615      00003100 
 5616 03e2 80206000 		.ascii	"\200 `\000(\007\001\004\216\000\000\000\000\0001\000"
 5616      28070104 
 5616      8E000000 
 5616      00003100 
 5617 03f2 80206000 		.ascii	"\200 `\000(\007\001\004\016\000\000\000\000\0001\000"
 5617      28070104 
 5617      0E000000 
 5617      00003100 
 5618 0402 80206000 		.ascii	"\200 `\000(\007\001\004\014\000\000\000\000\0001\000"
 5618      28070104 
 5618      0C000000 
 5618      00003100 
 5619 0412 80206000 		.ascii	"\200 `\000(\007\001\004\010\000\000\000\000\0001\000"
 5619      28070104 
 5619      08000000 
 5619      00003100 
 5620 0422 80206000 		.ascii	"\200 `\000(\007\001\004\000\000\000\000\000\000\261"
 5620      28070104 
 5620      00000000 
 5620      0000B1
 5621 0431 00802060 		.ascii	"\000\200 `\000(\007\001\004\000\000\000\000\000\000"
 5621      00280701 
 5621      04000000 
 5621      000000
 5622 0440 B1008020 		.ascii	"\261\000\200 `\000(\007\001\000\000\000\000\000\000"
 5622      60002807 
 5622      01000000 
 5622      000000
 5623 044f 00B10180 		.ascii	"\000\261\001\200 `\000(\007\001\000\000\000\000\000"
 5623      20600028 
 5623      07010000 
 5623      000000
 5624 045e 0000B101 		.ascii	"\000\000\261\001\200 `\000(\207\001\000\000\000\000"
 5624      80206000 
 5624      28870100 
 5624      000000
 5625 046d 000000B1 		.ascii	"\000\000\000\261\001\200<`\000(\007\001\000\000\000"
 5625      01803C60 
 5625      00280701 
 5625      000000
 5626 047c 00000000 		.ascii	"\000\000\000\000\261\001\200 d\000(\007\001\000\000"
 5626      B1018020 
 5626      64002807 
 5626      010000
 5627 048b 00000000 		.ascii	"\000\000\000\000\000\261\001\200 h\000(\007\001\000"
 5627      00B10180 
 5627      20680028 
 5627      070100
 5628 049a 00000000 		.ascii	"\000\000\000\000\000\000\261\001\200 p\000(\007\001"
 5628      0000B101 
 5628      80207000 
 5628      280701
 5629 04a9 00000000 		.ascii	"\000\000\000\000\000\000\000\261\001\200 `\000 \007"
ARM GAS  /tmp/ccydMd0r.s 			page 163


 5629      000000B1 
 5629      01802060 
 5629      002007
 5630 04b8 01000000 		.ascii	"\001\000\000\000\000\000\000\000\261\001\200 `\000 "
 5630      00000000 
 5630      B1018020 
 5630      600020
 5631 04c7 27010000 		.ascii	"'\001\000\000\000\000\000\000\000\261\001\200 `\000"
 5631      00000000 
 5631      00B10180 
 5631      206000
 5632 04d6 20270104 		.ascii	" '\001\004\000\000\000\000\000\000\261\001\200 `\000"
 5632      00000000 
 5632      0000B101 
 5632      80206000 
 5633 04e6 20670104 		.ascii	" g\001\004\000\000\000\000\000\000\261\001\220 `\000"
 5633      00000000 
 5633      0000B101 
 5633      90206000 
 5634 04f6 20670104 		.ascii	" g\001\004\000\000\000\000\000\000\261\001\220 `\000"
 5634      00000000 
 5634      0000B101 
 5634      90206000 
 5635 0506 20270104 		.ascii	" '\001\004\000\000\000\000\000\000\261\000\200 `\000"
 5635      00000000 
 5635      0000B100 
 5635      80206000 
 5636 0516 20270104 		.ascii	" '\001\004\000\000\000\000\000\000\261\004\200 `\000"
 5636      00000000 
 5636      0000B104 
 5636      80206000 
 5637 0526 20670104 		.ascii	" g\001\004\000\000\000\000\000\000\261\000\200\001`"
 5637      00000000 
 5637      0000B100 
 5637      800160
 5638 0535 00202701 		.ascii	"\000 '\001\004\000\000\000\000\000\000\261\000\220\001"
 5638      04000000 
 5638      000000B1 
 5638      009001
 5639 0544 60002027 		.ascii	"`\000 '\001\004\000\000\000\000\000\000\261\000\220"
 5639      01040000 
 5639      00000000 
 5639      B10090
 5640 0553 01600020 		.ascii	"\001`\000 g\001\004\000\000\000\000\000\000\261\000"
 5640      67010400 
 5640      00000000 
 5640      00B100
 5641 0562 80016000 		.ascii	"\200\001`\000 g\001\004\000\000\000\000\000\000\261"
 5641      20670104 
 5641      00000000 
 5641      0000B1
 5642 0571 00800360 		.ascii	"\000\200\003`\000 \007\001\004\000\000\000\000\000\000"
 5642      00200701 
 5642      04000000 
 5642      000000
 5643 0580 B1008001 		.ascii	"\261\000\200\001`\000 \007\001\004\000\000\000\000\000"
 5643      60002007 
ARM GAS  /tmp/ccydMd0r.s 			page 164


 5643      01040000 
 5643      000000
 5644 058f 00B10080 		.ascii	"\000\261\000\200\001b\000 \007\001\004\000\000\000\000"
 5644      01620020 
 5644      07010400 
 5644      000000
 5645 059e 0000B108 		.ascii	"\000\000\261\010\200\001`\000 \007\001\004\000\000\000"
 5645      80016000 
 5645      20070104 
 5645      000000
 5646 05ad 000000B1 		.ascii	"\000\000\000\261 \200\001b\000 \006\001\004\000\000"
 5646      20800162 
 5646      00200601 
 5646      040000
 5647 05bc 00000000 		.ascii	"\000\000\000\000\261\"\200\001b\000 \006\001\004\000"
 5647      B1228001 
 5647      62002006 
 5647      010400
 5648 05cb 00000000 		.ascii	"\000\000\000\000\000\261\002\200\001`\000 \006\001\004"
 5648      00B10280 
 5648      01600020 
 5648      060104
 5649 05da 00000000 		.ascii	"\000\000\000\000\000\000\206\002\212\001\000\000\300"
 5649      00008602 
 5649      8A010000 
 5649      C0
 5650 05e7 06000400 		.ascii	"\006\000\004\000\000\000\000\000\000\206\002\200\001"
 5650      00000000 
 5650      00860280 
 5650      01
 5651 05f4 0000C006 		.ascii	"\000\000\300\006\000\004\000\000\000\000\000\000\206"
 5651      00040000 
 5651      00000000 
 5651      86
 5652 0601 02800000 		.ascii	"\002\200\000\000\000\300\006\000\004\000\000\000\000"
 5652      00C00600 
 5652      04000000 
 5652      00
 5653 060e 00000000 		.ascii	"\000\000\000\000\000\000\000\000\000\000"
 5653      00000000 
 5653      0000
 5654              		.section	.rodata.gt_ram_seq4_content,"a"
 5657              	gt_ram_seq4_content:
 5658 0000 20000000 		.ascii	" \000\000\000\307\000\000\000\000\206\000\000\002\007"
 5658      C7000000 
 5658      00860000 
 5658      0207
 5659 000e 000000BA 		.ascii	"\000\000\000\272\000\000\003\003\000\000\000)\000\000"
 5659      00000303 
 5659      00000029 
 5659      0000
 5660 001c 02030000 		.ascii	"\002\003\000\000\334\000\000\000\000\000\000\000\002"
 5660      DC000000 
 5660      00000000 
 5660      02
 5661 0029 10000002 		.ascii	"\020\000\000\002\200\003\000\243\221\003\000.\240\003"
 5661      800300A3 
ARM GAS  /tmp/ccydMd0r.s 			page 165


 5661      9103002E 
 5661      A003
 5662 0037 0002B003 		.ascii	"\000\002\260\003\000\300\304\003\000\273\320\003\000"
 5662      00C0C403 
 5662      00BBD003 
 5662      00
 5663 0044 02E00300 		.ascii	"\002\340\003\000\026\321\003\000\002\360\003\000\270"
 5663      16D10300 
 5663      02F00300 
 5663      B8
 5664 0051 00040002 		.ascii	"\000\004\000\002\020\004\000\026\001\004\000\002 \004"
 5664      10040016 
 5664      01040002 
 5664      2004
 5665 005f 00743104 		.ascii	"\000t1\004\000HA\004\000\031Q\004\000\0311\004\000\002"
 5665      00484104 
 5665      00195104 
 5665      00193104 
 5665      0002
 5666 0071 60040005 		.ascii	"`\004\000\0054\004\000LS\004\000\2730\004\000\002p\004"
 5666      3404004C 
 5666      530400BB 
 5666      30040002 
 5666      7004
 5667 0083 00453104 		.ascii	"\000E1\004\000\002\200\004\000\026\221\004\000\002\240"
 5667      00028004 
 5667      00169104 
 5667      0002A0
 5668 0092 04000690 		.ascii	"\004\000\006\220\003\000\002P\002\000\006\020\000\000"
 5668      03000250 
 5668      02000610 
 5668      0000
 5669 00a0 00006000 		.ascii	"\000\000`\000"
 5670              		.section	.rodata.gt_ram_seq3_content,"a"
 5673              	gt_ram_seq3_content:
 5674 0000 1F000000 		.ascii	"\037\000\000\000\006\000\000\000\000\036\000\000\002"
 5674      06000000 
 5674      001E0000 
 5674      02
 5675 000d 07000000 		.ascii	"\007\000\000\000\272\000\000\003\003\000\000\000)\000"
 5675      BA000003 
 5675      03000000 
 5675      2900
 5676 001b 00020300 		.ascii	"\000\002\003\000\000\334\000\000\000\000\000\000\000"
 5676      00DC0000 
 5676      00000000 
 5676      00
 5677 0028 02100000 		.ascii	"\002\020\000\000\002\020\003\000\2431\000\000.\220\000"
 5677      02100300 
 5677      A3310000 
 5677      2E9000
 5678 0037 00022003 		.ascii	"\000\002 \003\000\300\264\000\000\273\300\000\000\002"
 5678      00C0B400 
 5678      00BBC000 
 5678      0002
 5679 0045 30030016 		.ascii	"0\003\000\026\301\000\000\002@\003\000\270P\003\000"
 5679      C1000002 
ARM GAS  /tmp/ccydMd0r.s 			page 166


 5679      400300B8 
 5679      500300
 5680 0054 02600300 		.ascii	"\002`\003\000\026Q\003\000\002p\003\000t\001\002\000"
 5680      16510300 
 5680      02700300 
 5680      74010200 
 5681 0064 48F10100 		.ascii	"H\361\001\000\031\341\001\000\031\001\002\000\002\020"
 5681      19E10100 
 5681      19010200 
 5681      0210
 5682 0072 02000504 		.ascii	"\002\000\005\004\002\000L\343\001\000\273\000\002\000"
 5682      02004CE3 
 5682      0100BB00 
 5682      0200
 5683 0080 02200200 		.ascii	"\002 \002\000E\001\002\000\0020\002\000\026A\002\000"
 5683      45010200 
 5683      02300200 
 5683      16410200 
 5684 0090 02800000 		.ascii	"\002\200\000\000\0060\000\000\011\020\000\000\000\000"
 5684      06300000 
 5684      09100000 
 5684      0000
 5685 009e 6000     		.ascii	"`\000"
 5686              		.section	.rodata.gt_ram_seq2_content,"a"
 5689              	gt_ram_seq2_content:
 5690 0000 2D000000 		.ascii	"-\000\000\000\277\000\000\000\000J\000\000\003!\000"
 5690      BF000000 
 5690      004A0000 
 5690      032100
 5691 000f 00003F00 		.ascii	"\000\000?\000\000\000\036\000\000\000\313\000\000\002"
 5691      00001E00 
 5691      0000CB00 
 5691      0002
 5692 001d 03000074 		.ascii	"\003\000\000t\000\000\000\000\000\000\000\002\020\000"
 5692      00000000 
 5692      00000002 
 5692      1000
 5693 002b 00022000 		.ascii	"\000\002 \000\000\3221\000\000\002`\002\000|u\002\000"
 5693      00D23100 
 5693      00026002 
 5693      007C7502 
 5693      00
 5694 003c 02800200 		.ascii	"\002\200\002\000\225v\002\000\002\220\002\000\300t\002"
 5694      95760200 
 5694      02900200 
 5694      C07402
 5695 004b 00BBA002 		.ascii	"\000\273\240\002\000\002\260\002\000\026\241\002\000"
 5695      0002B002 
 5695      0016A102 
 5695      00
 5696 0058 02C00200 		.ascii	"\002\300\002\000\270\240\002\000\002\320\002\000\026"
 5696      B8A00200 
 5696      02D00200 
 5696      16
 5697 0065 A10200FE 		.ascii	"\241\002\000\376\177\002\000\376\177\002\000\376\177"
 5697      7F0200FE 
 5697      7F0200FE 
ARM GAS  /tmp/ccydMd0r.s 			page 167


 5697      7F
 5698 0072 0200FE7F 		.ascii	"\002\000\376\177\002\000\"s\002\000.\260\000\000\002"
 5698      02002273 
 5698      02002EB0 
 5698      000002
 5699 0081 E0020005 		.ascii	"\340\002\000\005\004\002\000L\343\001\000\273\000\002"
 5699      0402004C 
 5699      E30100BB 
 5699      0002
 5700 008f 0002F002 		.ascii	"\000\002\360\002\000\211\000\002\000H\361\001\000\031"
 5700      00890002 
 5700      0048F101 
 5700      0019
 5701 009d E1010019 		.ascii	"\341\001\000\031\001\002\000\002\020\002\000\005\004"
 5701      01020002 
 5701      10020005 
 5701      04
 5702 00aa 02004CE3 		.ascii	"\002\000L\343\001\000\273\000\002\000\002 \002\000\211"
 5702      0100BB00 
 5702      02000220 
 5702      020089
 5703 00b9 00020002 		.ascii	"\000\002\000\002\000\003\000\026\001\002\000\002\200"
 5703      00030016 
 5703      01020002 
 5703      80
 5704 00c6 00000630 		.ascii	"\000\000\0060\000\000\002P\002\000Z\020\000\000\000"
 5704      00000250 
 5704      02005A10 
 5704      000000
 5705 00d5 006000   		.ascii	"\000`\000"
 5706              		.section	.rodata.gt_ram_seq1_content,"a"
 5709              	gt_ram_seq1_content:
 5710 0000 42000000 		.ascii	"B\000\000\000)\000\000\000\000\302\000\000\001\023\000"
 5710      29000000 
 5710      00C20000 
 5710      011300
 5711 000f 00002F00 		.ascii	"\000\000/\000\000\000\014\000\000\000\334\000\000\002"
 5711      00000C00 
 5711      0000DC00 
 5711      0002
 5712 001d 03000020 		.ascii	"\003\000\000 \000\000\000\000\000\000\000\002\020\000"
 5712      00000000 
 5712      00000002 
 5712      1000
 5713 002b 00022000 		.ascii	"\000\002 \000\000\3221\000\000\002@\000\000s1\000\000"
 5713      00D23100 
 5713      00024000 
 5713      00733100 
 5713      00
 5714 003c D5510000 		.ascii	"\325Q\000\000\002`\000\000\322Q\000\000\2513\000\000"
 5714      02600000 
 5714      D2510000 
 5714      A9330000 
 5715 004c 02700000 		.ascii	"\002p\000\000\2700\000\000\002\200\000\000\2431\000"
 5715      B8300000 
 5715      02800000 
 5715      A33100
ARM GAS  /tmp/ccydMd0r.s 			page 168


 5716 005b 002E9000 		.ascii	"\000.\220\000\000\002\240\000\000\300\264\000\000\273"
 5716      0002A000 
 5716      00C0B400 
 5716      00BB
 5717 0069 C0000002 		.ascii	"\300\000\000\002\320\000\000\026\301\000\000\002\340"
 5717      D0000016 
 5717      C1000002 
 5717      E0
 5718 0076 0000B8C0 		.ascii	"\000\000\270\300\000\000\002\360\000\000\026\301\000"
 5718      000002F0 
 5718      000016C1 
 5718      00
 5719 0083 00A9B300 		.ascii	"\000\251\263\000\000\002\000\001\000t\261\000\000\002"
 5719      00020001 
 5719      0074B100 
 5719      0002
 5720 0091 A0000005 		.ascii	"\240\000\000\005\264\000\000L\023\001\000\273\260\000"
 5720      B400004C 
 5720      130100BB 
 5720      B000
 5721 009f 00022001 		.ascii	"\000\002 \001\000\211\260\000\000\0311\001\000\273@"
 5721      0089B000 
 5721      00193101 
 5721      00BB40
 5722 00ae 01000250 		.ascii	"\001\000\002P\001\000\026A\001\000\002`\001\000\322"
 5722      01001641 
 5722      01000260 
 5722      0100D2
 5723 00bd 41010002 		.ascii	"A\001\000\002p\001\000\300D\001\000\273\200\001\000"
 5723      700100C0 
 5723      440100BB 
 5723      800100
 5724 00cc 02900100 		.ascii	"\002\220\001\000\026\201\001\000\002\240\001\000\270"
 5724      16810100 
 5724      02A00100 
 5724      B8
 5725 00d9 B0010002 		.ascii	"\260\001\000\002\300\001\000\271\260\001\000\\\320\001"
 5725      C00100B9 
 5725      B001005C 
 5725      D001
 5726 00e7 00D6E101 		.ascii	"\000\326\341\001\000H\361\001\000\031\341\001\000\031"
 5726      0048F101 
 5726      0019E101 
 5726      0019
 5727 00f5 01020002 		.ascii	"\001\002\000\002\020\002\000\005\004\002\000L\343\001"
 5727      10020005 
 5727      0402004C 
 5727      E301
 5728 0103 00BB0002 		.ascii	"\000\273\000\002\000\002 \002\000\211\000\002\000\002"
 5728      00022002 
 5728      00890002 
 5728      0002
 5729 0111 30020016 		.ascii	"0\002\000\026A\002\000\002\200\000\000\0060\000\000"
 5729      41020002 
 5729      80000006 
 5729      300000
 5730 0120 02500200 		.ascii	"\002P\002\000\006\020\000\000\000\000`\000"
ARM GAS  /tmp/ccydMd0r.s 			page 169


 5730      06100000 
 5730      00006000 
 5731              		.section	.rodata.gt_ram_pat_content,"a"
 5734              	gt_ram_pat_content:
 5735 0000 EC884B00 		.ascii	"\354\210K\000\000\000\000\000\000\000\000\000\000\000"
 5735      00000000 
 5735      00000000 
 5735      0000
 5736 000e 00000000 		.ascii	"\000\000\000\000\000\010\000\000\000\000\000\200\000"
 5736      00080000 
 5736      00000080 
 5736      00
 5737 001b 88080000 		.ascii	"\210\010\000\000\000\000\200\000\010\000\000\000\000"
 5737      00008000 
 5737      08000000 
 5737      00
 5738 0028 20800008 		.ascii	" \200\000\010\000\000\000\000\004\200\000\010\000\000"
 5738      00000000 
 5738      04800008 
 5738      0000
 5739 0036 00000482 		.ascii	"\000\000\004\202\000\010\000\000\000\000@\200\000\010"
 5739      00080000 
 5739      00004080 
 5739      0008
 5740 0044 00000000 		.ascii	"\000\000\000\000\000\204\000\010\000\000\000\000\000"
 5740      00840008 
 5740      00000000 
 5740      00
 5741 0051 80010800 		.ascii	"\200\001\010\000\000\000\000\010\200\003\010\000\000"
 5741      00000008 
 5741      80030800 
 5741      00
 5742 005e 00000080 		.ascii	"\000\000\000\200\003\010\000\000\000\000\004\200\003"
 5742      03080000 
 5742      00000480 
 5742      03
 5743 006b 08000000 		.ascii	"\010\000\000\000\000\024\200\003\010\000\000\000\000"
 5743      00148003 
 5743      08000000 
 5743      00
 5744 0078 04820308 		.ascii	"\004\202\003\010\000\000\000\000\004\200\003\010\004"
 5744      00000000 
 5744      04800308 
 5744      04
 5745 0085 00000000 		.ascii	"\000\000\000\000\200\003H\000\000\000\000\001\200\003"
 5745      80034800 
 5745      00000001 
 5745      8003
 5746 0093 08000000 		.ascii	"\010\000\000\000\000\020\200\003\010\000\000\000\000"
 5746      00108003 
 5746      08000000 
 5746      00
 5747 00a0 00800308 		.ascii	"\000\200\003\010\002\000\000\000\001\200\003\010\002"
 5747      02000000 
 5747      01800308 
 5747      02
 5748 00ad 00000001 		.ascii	"\000\000\000\001\204\003\010\002\000\000\000\001\200"
ARM GAS  /tmp/ccydMd0r.s 			page 170


 5748      84030802 
 5748      00000001 
 5748      80
 5749 00ba 03080A00 		.ascii	"\003\010\012\000\000\000!\200\003\010\002\000\000\000"
 5749      00002180 
 5749      03080200 
 5749      0000
 5750 00c8 05800308 		.ascii	"\005\200\003\010\002\000\000\000E\200\003\010\002\000"
 5750      02000000 
 5750      45800308 
 5750      0200
 5751 00d6 00000582 		.ascii	"\000\000\005\202\003\014\002\000\000\000\005\200\003"
 5751      030C0200 
 5751      00000580 
 5751      03
 5752 00e3 0C020000 		.ascii	"\014\002\000\000\000\005\200\003\014\006\000\000\000"
 5752      00058003 
 5752      0C060000 
 5752      00
 5753 00f0 0580030C 		.ascii	"\005\200\003\014\000\000\000\000\001\200\003\014\000"
 5753      00000000 
 5753      0180030C 
 5753      00
 5754 00fd 00000001 		.ascii	"\000\000\000\001\200\003\034\000\000\000\000\000\200"
 5754      80031C00 
 5754      00000000 
 5754      80
 5755 010a 030C0000 		.ascii	"\003\014\000\000\000\000 \200\003\014\000\000\000\000"
 5755      00002080 
 5755      030C0000 
 5755      0000
 5756 0118 4080030C 		.ascii	"@\200\003\014\000\000\000\000\000\200\000,\000\000\000"
 5756      00000000 
 5756      0080002C 
 5756      000000
 5757 0127 00008000 		.ascii	"\000\000\200\000\014\000\000\000\000\000\000\000\010"
 5757      0C000000 
 5757      00000000 
 5757      08
 5758 0134 01000000 		.ascii	"\001\000\000\000\010\200\002\010\000\000\000\000\000"
 5758      08800208 
 5758      00000000 
 5758      00
 5759 0141 80020800 		.ascii	"\200\002\010\000\000\000\000\020\200\002\010\000\000"
 5759      00000010 
 5759      80020800 
 5759      00
 5760 014e 00002080 		.ascii	"\000\000 \200\002\010\000\000\000\000\004\200\002\010"
 5760      02080000 
 5760      00000480 
 5760      0208
 5761 015c 00000000 		.ascii	"\000\000\000\000D\200\002\010\000\000\000\000\004\202"
 5761      44800208 
 5761      00000000 
 5761      0482
 5762 016a 02080000 		.ascii	"\002\010\000\000\000\000\004\200\002\010\004\000\000"
 5762      00000480 
ARM GAS  /tmp/ccydMd0r.s 			page 171


 5762      02080400 
 5762      00
 5763 0177 00088003 		.ascii	"\000\010\200\003\014\000\000\000\000\020\200\003\014"
 5763      0C000000 
 5763      00108003 
 5763      0C
 5764 0184 00000000 		.ascii	"\000\000\000\000\000\200\003,\000\000\000\000\000\200"
 5764      0080032C 
 5764      00000000 
 5764      0080
 5765 0192 00080800 		.ascii	"\000\010\010\000\000\000 \200\003\010\000\000\000\000"
 5765      00002080 
 5765      03080000 
 5765      0000
 5766 01a0 44800308 		.ascii	"D\200\003\010\000\000\000\000\004\202\003\014\000\000"
 5766      00000000 
 5766      0482030C 
 5766      0000
 5767 01ae 00000480 		.ascii	"\000\000\004\200\003\014\000\000\000\000\004\200\003"
 5767      030C0000 
 5767      00000480 
 5767      03
 5768 01bb 0C040000 		.ascii	"\014\004\000\000\000\000\200\003L\000\000\000\000\002"
 5768      00008003 
 5768      4C000000 
 5768      0002
 5769 01c9 80000808 		.ascii	"\200\000\010\010\000\000\000\002\200\000\010\000\000"
 5769      00000002 
 5769      80000800 
 5769      00
 5770 01d6 00000280 		.ascii	"\000\000\002\200\001\010\000\000\000\000\012\200\003"
 5770      01080000 
 5770      00000A80 
 5770      03
 5771 01e3 08000000 		.ascii	"\010\000\000\000\000\002\200\003\010\000\000\000\000"
 5771      00028003 
 5771      08000000 
 5771      00
 5772 01f0 06800308 		.ascii	"\006\200\003\010\000\000\000\000\026\200\003\010\000"
 5772      00000000 
 5772      16800308 
 5772      00
 5773 01fd 00000006 		.ascii	"\000\000\000\006\202\003\014\000\000\000\000\006\200"
 5773      82030C00 
 5773      00000006 
 5773      80
 5774 020a 030C0000 		.ascii	"\003\014\000\000\000\000\006\200\003\014\004\000\000"
 5774      00000680 
 5774      030C0400 
 5774      00
 5775 0217 00028003 		.ascii	"\000\002\200\003L\000\000\000\000\002\200\003\014\000"
 5775      4C000000 
 5775      00028003 
 5775      0C00
 5776 0225 00000003 		.ascii	"\000\000\000\003\200\003\034\000\000\000\000\003\200"
 5776      80031C00 
 5776      00000003 
ARM GAS  /tmp/ccydMd0r.s 			page 172


 5776      80
 5777 0232 030C0000 		.ascii	"\003\014\000\000\000\000\012\200\003\014\000\000\000"
 5777      00000A80 
 5777      030C0000 
 5777      00
 5778 023f 00128003 		.ascii	"\000\022\200\003\014\000\000\000\000\002\200\000,\000"
 5778      0C000000 
 5778      00028000 
 5778      2C00
 5779 024d 00000002 		.ascii	"\000\000\000\002\200\000\014\000\000\000\000\002\204"
 5779      80000C00 
 5779      00000002 
 5779      84
 5780 025a 00080000 		.ascii	"\000\010\000\000\000\000"
 5780      0000
 5781              		.section	.rodata.fw_patch_13_mono_cert,"a"
 5784              	fw_patch_13_mono_cert:
 5785 0000 3081DA83 		.ascii	"0\201\332\203\001\001\224@y\321\356l\314q\272\367l\034"
 5785      01019440 
 5785      79D1EE6C 
 5785      CC71BAF7 
 5785      6C1C
 5786 0012 334326A4 		.ascii	"3C&\244\000\342y\241w9GB6\204C\261)>p\330\342[\030E"
 5786      00E279A1 
 5786      77394742 
 5786      368443B1 
 5786      293E70D8 
 5787 002a D09BAEE9 		.ascii	"\320\233\256\351\363,\023\252J\325\313\245\005\261\237"
 5787      F32C13AA 
 5787      4AD5CBA5 
 5787      05B19F
 5788 0039 77DB1D42 		.ascii	"w\333\035Br\312gz\017Q\177\340\260\275\332\212\004S"
 5788      72CA677A 
 5788      0F517FE0 
 5788      B0BDDA8A 
 5788      0453
 5789 004b 3934308B 		.ascii	"940\213\020\275\236\260\226\304\303u//u\335\256\300"
 5789      10BD9EB0 
 5789      96C4C375 
 5789      2F2F75DD 
 5789      AEC0
 5790 005d B679E681 		.ascii	"\266y\346\201\020\000\000\000\000\000\000\000\000\000"
 5790      10000000 
 5790      00000000 
 5790      0000
 5791 006b 00000000 		.ascii	"\000\000\000\000\000\000\000\204\001\255\207 \335}\367"
 5791      00000084 
 5791      01AD8720 
 5791      DD7DF7
 5792 007a EBDDAC58 		.ascii	"\353\335\254Xy\360\202\233\036\177\256\374J\345\330"
 5792      79F0829B 
 5792      1E7FAEFC 
 5792      4AE5D8
 5793 0089 F6DF35C9 		.ascii	"\366\3375\311\223\372\037\300r7<su \222\020\241\247"
 5793      93FA1FC0 
 5793      72373C73 
 5793      75209210 
ARM GAS  /tmp/ccydMd0r.s 			page 173


 5793      A1A7
 5794 009b A4667757 		.ascii	"\244fwW\262p\005\240B\206\000\326\320Y\205\001\000\202"
 5794      B27005A0 
 5794      428600D6 
 5794      D0598501 
 5794      0082
 5795 00ad 01DB302C 		.ascii	"\001\3330,\004\004ettm1$\004\004dbgr\004\004olbt\004"
 5795      04046574 
 5795      746D3124 
 5795      04046462 
 5795      67720404 
 5796 00c6 0470726F 		.ascii	"\004prov\004\004rcaw\004\004sens\004\004vtrp0D\002 "
 5796      76040472 
 5796      63617704 
 5796      0473656E 
 5796      73040476 
 5797 00e1 434AE3D9 		.ascii	"CJ\343\331Y\325\007m\273a\266S\036\236\251\311`$\034"
 5797      59D5076D 
 5797      BB61B653 
 5797      1E9EA9C9 
 5797      60241C
 5798 00f4 E1AFFBE5 		.ascii	"\341\257\373\345\351V@<\2678\3612\261\002 {\225]\251"
 5798      E956403C 
 5798      B738F132 
 5798      B102207B 
 5798      955DA9
 5799 0107 2331170F 		.ascii	"#1\027\017\037\325:\366w\343O=\250\003\011\375\352\234"
 5799      1FD53AF6 
 5799      77E34F3D 
 5799      A80309FD 
 5799      EA9C
 5800 0119 D20B623B 		.ascii	"\322\013b;\307qH\352\244\2500\201\222\203\001\001\212"
 5800      C77148EA 
 5800      A4A83081 
 5800      92830101 
 5800      8A
 5801 012a 04533934 		.ascii	"\004S940\213\020\275\236\260\226\304\303u//u\335\256"
 5801      308B10BD 
 5801      9EB096C4 
 5801      C3752F2F 
 5801      75DDAE
 5802 013d C0B679E6 		.ascii	"\300\266y\346\201\020\000\000\000\000\000\000\000\000"
 5802      81100000 
 5802      00000000 
 5802      0000
 5803 014b 00000000 		.ascii	"\000\000\000\000\000\000\000\000\204\001\255\207 \335"
 5803      00000000 
 5803      8401AD87 
 5803      20DD
 5804 0159 7DF7EBDD 		.ascii	"}\367\353\335\254Xy\360\202\233\036\177\256\374J\345"
 5804      AC5879F0 
 5804      829B1E7F 
 5804      AEFC4AE5 
 5805 0169 D8F6DF35 		.ascii	"\330\366\3375\311\223\372\037\300r7<su \222\020\241"
 5805      C993FA1F 
 5805      C072373C 
 5805      73752092 
ARM GAS  /tmp/ccydMd0r.s 			page 174


 5805      10A1
 5806 017b A7A46677 		.ascii	"\247\244fwW\262p\005\240B\206\000\326\320Y\205\001\000"
 5806      57B27005 
 5806      A0428600 
 5806      D6D05985 
 5806      0100
 5807 018d 8201DB30 		.ascii	"\202\001\3330&\004\004ettm1\036\004\004dbgr\004\004"
 5807      26040465 
 5807      74746D31 
 5807      1E040464 
 5807      62677204 
 5808 01a2 6F6C6274 		.ascii	"olbt\004\004prov\004\004sens\004\004vtrp0E\002 vb\025"
 5808      04047072 
 5808      6F760404 
 5808      73656E73 
 5808      04047674 
 5809 01bf 75060525 		.ascii	"u\006\005%\016D\030\332\256\367\\'z\231\020\277q\205"
 5809      0E4418DA 
 5809      AEF75C27 
 5809      7A9910BF 
 5809      7185
 5810 01d1 9EEDDBDA 		.ascii	"\236\355\333\332\354\246\360\236\266\275Q\002!\000\247"
 5810      ECA6F09E 
 5810      B6BD5102 
 5810      2100A7
 5811 01e0 88B1BF12 		.ascii	"\210\261\277\022\325\264\360\0260\367\202\357\327\034"
 5811      D5B4F016 
 5811      30F782EF 
 5811      D71C
 5812 01ee DD4B38B6 		.ascii	"\335K8\2668u\345\277\262\314p%\347B\310Sv"
 5812      3875E5BF 
 5812      B2CC7025 
 5812      E742C853 
 5812      76
 5813              		.section	.rodata.fw_patch_13_mono_array,"a"
 5816              	fw_patch_13_mono_array:
 5817 0000 ECEC6010 		.ascii	"\354\354`\0207\017\340\304\326X\336\271\320_\365\277"
 5817      370FE0C4 
 5817      D658DEB9 
 5817      D05FF5BF 
 5818 0010 C9FAF65B 		.ascii	"\311\372\366[6\310#ZW\020\251\331\344\304\250\275K{"
 5818      36C8235A 
 5818      5710A9D9 
 5818      E4C4A8BD 
 5818      4B7B
 5819 0022 C70F553C 		.ascii	"\307\017U<n\323\372\316:\364\305\010:\267\310\226:`"
 5819      6ED3FACE 
 5819      3AF4C508 
 5819      3AB7C896 
 5819      3A60
 5820 0034 A6C8DCA9 		.ascii	"\246\310\334\251\374\361\200[\333\335\227S\245e\315"
 5820      FCF1805B 
 5820      DBDD9753 
 5820      A565CD
 5821 0043 0F2C15F6 		.ascii	"\017,\025\366\227\3173\233\2075\306Qc\341U'\312\034"
 5821      97CF339B 
 5821      8735C651 
ARM GAS  /tmp/ccydMd0r.s 			page 175


 5821      63E15527 
 5821      CA1C
 5822 0055 9E265501 		.ascii	"\236&U\001k\237\265o\361j\326\233O\317=a\033\015\340"
 5822      6B9FB56F 
 5822      F16AD69B 
 5822      4FCF3D61 
 5822      1B0DE0
 5823 0068 2AFC9E7A 		.ascii	"*\374\236z\322\356\214G~\237\203\334\022\247\017>\003"
 5823      D2EE8C47 
 5823      7E9F83DC 
 5823      12A70F3E 
 5823      03
 5824 0079 64A8FD2C 		.ascii	"d\250\375,R\324 \356\006\030$\201\326U\253\243~C\271"
 5824      52D420EE 
 5824      06182481 
 5824      D655ABA3 
 5824      7E43B9
 5825 008c 94042793 		.ascii	"\224\004'\223\265\0205\357k\036\332\3775Di&n\232pxk"
 5825      B51035EF 
 5825      6B1EDAFF 
 5825      35446926 
 5825      6E9A7078 
 5826 00a1 A904E15E 		.ascii	"\251\004\341^\316\276%nB\223\327\317\235\024N\327V\011"
 5826      CEBE256E 
 5826      4293D7CF 
 5826      9D144ED7 
 5826      5609
 5827 00b3 E883CF8D 		.ascii	"\350\203\317\215\341\230R\003-\2311\260\361DbV\007\015"
 5827      E1985203 
 5827      2D9931B0 
 5827      F1446256 
 5827      070D
 5828 00c5 BCD18BE1 		.ascii	"\274\321\213\341\230\377\265\177\023\270\364\223)\211"
 5828      98FFB57F 
 5828      13B8F493 
 5828      2989
 5829 00d3 5EEBFE7C 		.ascii	"^\353\376|\271\223\315\245\326JJ/\357d\027\237S4\337"
 5829      B993CDA5 
 5829      D64A4A2F 
 5829      EF64179F 
 5829      5334DF
 5830 00e6 6AC8DF1A 		.ascii	"j\310\337\032\030\210\252\202\205\220\027\213A\306\206"
 5830      1888AA82 
 5830      8590178B 
 5830      41C686
 5831 00f5 18448F0E 		.ascii	"\030D\217\016\375\321=\335\307\034\021\211h\253\011"
 5831      FDD13DDD 
 5831      C71C1189 
 5831      68AB09
 5832 0104 2DD87DE3 		.ascii	"-\330}\343=Z\237 hX\262R\376o;}\034\006qp6\034J\237"
 5832      3D5A9F20 
 5832      6858B252 
 5832      FE6F3B7D 
 5832      1C067170 
 5833 011c D53D10BA 		.ascii	"\325=\020\2723\327\371\251\026\005\021\200\350\235,"
 5833      33D7F9A9 
 5833      16051180 
ARM GAS  /tmp/ccydMd0r.s 			page 176


 5833      E89D2C
 5834 012b E1AFD507 		.ascii	"\341\257\325\007\373oaH\373\336\203\203k\022/\273u\013"
 5834      FB6F6148 
 5834      FBDE8383 
 5834      6B122FBB 
 5834      750B
 5835 013d 9FC4FA2D 		.ascii	"\237\304\372-L\321\242\230)(\276\355\265ko\206,>CH\340"
 5835      4CD1A298 
 5835      2928BEED 
 5835      B56B6F86 
 5835      2C3E4348 
 5836 0152 74B9FD20 		.ascii	"t\271\375 \032f\253?|\335\325`\242\024\030\031\266q"
 5836      1A66AB3F 
 5836      7CDDD560 
 5836      A2141819 
 5836      B671
 5837 0164 29D40C3B 		.ascii	")\324\014;\3755q\330\276\000\013\245!\3557\035A7c*n"
 5837      FD3571D8 
 5837      BE000BA5 
 5837      21ED371D 
 5837      4137632A 
 5838 0179 B1E6531F 		.ascii	"\261\346S\037S\204\340\340z\177\006\366\235\331]\363"
 5838      5384E0E0 
 5838      7A7F06F6 
 5838      9DD95DF3 
 5839 0189 1C19CCBA 		.ascii	"\034\031\314\272uM-=]F\272\010D~\330\372:(\343Gc%\012"
 5839      754D2D3D 
 5839      5D46BA08 
 5839      447ED8FA 
 5839      3A28E347 
 5840 01a0 2AA5F6BF 		.ascii	"*\245\366\277\361\037\233K\3144\201\367&\"O==\2770a"
 5840      F11F9B4B 
 5840      CC3481F7 
 5840      26224F3D 
 5840      3DBF3061 
 5841 01b4 6EA59995 		.ascii	"n\245\231\225\360\365\031\313\2404\253\202;\006\361"
 5841      F0F519CB 
 5841      A034AB82 
 5841      3B06F1
 5842 01c3 BBD1E55F 		.ascii	"\273\321\345_;I(>w\233\275iJ9\222J]\272\246t\201\321"
 5842      3B49283E 
 5842      779BBD69 
 5842      4A39924A 
 5842      5DBAA674 
 5843 01d9 D0420FAA 		.ascii	"\320B\017\252D\325'\245D\270\261\336\323\360%\010\262"
 5843      44D527A5 
 5843      44B8B1DE 
 5843      D3F02508 
 5843      B2
 5844 01ea 72757D6F 		.ascii	"ru}o\261\3379W\343\202\370\325d\352\236\256L\307'\005"
 5844      B1DF3957 
 5844      E382F8D5 
 5844      64EA9EAE 
 5844      4CC72705 
 5845 01fe BC04F6AE 		.ascii	"\274\004\366\256\260\344\022\267\202\220`$\200\303\036"
 5845      B0E412B7 
 5845      82906024 
ARM GAS  /tmp/ccydMd0r.s 			page 177


 5845      80C31E
 5846 020d 9D6BEA97 		.ascii	"\235k\352\227\324>W\234>\274\031I\203&Y\313\272\364"
 5846      D43E579C 
 5846      3EBC1949 
 5846      832659CB 
 5846      BAF4
 5847 021f 10174B71 		.ascii	"\020\027Kq\011\315\336#^&\253x\036\3342\377\351\323"
 5847      09CDDE23 
 5847      5E26AB78 
 5847      1EDC32FF 
 5847      E9D3
 5848 0231 16A8E71B 		.ascii	"\026\250\347\033h\015J\177\013\253\364u\254\276\344"
 5848      680D4A7F 
 5848      0BABF475 
 5848      ACBEE4
 5849 0240 FDEA740F 		.ascii	"\375\352t\017>x@\337\273\217qS\037\303'\312X\307Hi\237"
 5849      3E7840DF 
 5849      BB8F7153 
 5849      1FC327CA 
 5849      58C74869 
 5850 0255 CB1DBF3A 		.ascii	"\313\035\277:\012\016U*\233\310\253t`/\030nC\025:{\027"
 5850      0A0E552A 
 5850      9BC8AB74 
 5850      602F186E 
 5850      43153A7B 
 5851 026a 0C8B7BA3 		.ascii	"\014\213{\243\276\231\261\364nK^\007\015\356\242\301"
 5851      BE99B1F4 
 5851      6E4B5E07 
 5851      0DEEA2C1 
 5852 027a D000923F 		.ascii	"\320\000\222?.\335\003\354\315#y-\025\234\265G\001\274"
 5852      2EDD03EC 
 5852      CD23792D 
 5852      159CB547 
 5852      01BC
 5853 028c 0DC3B8E4 		.ascii	"\015\303\270\344\363\324\356\023\230\207O\276\234D\335"
 5853      F3D4EE13 
 5853      98874FBE 
 5853      9C44DD
 5854 029b EFB47CAE 		.ascii	"\357\264|\256\232\247t.G;A\267F$\272\230O\307L\336\344"
 5854      9AA7742E 
 5854      473B41B7 
 5854      4624BA98 
 5854      4FC74CDE 
 5855 02b0 3B860B9D 		.ascii	";\206\013\235\267,\3125F4,\343\353\205\312\030\321}"
 5855      B72CCA35 
 5855      46342CE3 
 5855      EB85CA18 
 5855      D17D
 5856 02c2 FDBAC164 		.ascii	"\375\272\301d\024Y\324\276:\225<\265\0351\371\007\214"
 5856      1459D4BE 
 5856      3A953CB5 
 5856      1D31F907 
 5856      8C
 5857 02d3 E1A67D33 		.ascii	"\341\246}3\326\212WU\373A\265\203}\013\354\033vF\256"
 5857      D68A5755 
 5857      FB41B583 
 5857      7D0BEC1B 
ARM GAS  /tmp/ccydMd0r.s 			page 178


 5857      7646AE
 5858 02e6 8AEBAEEB 		.ascii	"\212\353\256\353@\017\012\257\027\316p\230B\243\227"
 5858      400F0AAF 
 5858      17CE7098 
 5858      42A397
 5859 02f5 19BD407A 		.ascii	"\031\275@z\376\222bt\014\361\036=\002\362J\272}\246"
 5859      FE926274 
 5859      0CF11E3D 
 5859      02F24ABA 
 5859      7DA6
 5860 0307 7D985A51 		.ascii	"}\230ZQ\201\230\305\233\027h\203\3656\242\305`\371\312"
 5860      8198C59B 
 5860      176883F5 
 5860      36A2C560 
 5860      F9CA
 5861 0319 867C8A17 		.ascii	"\206|\212\027\311\032\227\225\372\277\267\031\265\276"
 5861      C91A9795 
 5861      FABFB719 
 5861      B5BE
 5862 0327 6A958A06 		.ascii	"j\225\212\006V\015\232+%\267\220R\011\202\313\364_$"
 5862      560D9A2B 
 5862      25B79052 
 5862      0982CBF4 
 5862      5F24
 5863 0339 A0F5E747 		.ascii	"\240\365\347G\301H\352_\302\037\350H{\230\207\361n\217"
 5863      C148EA5F 
 5863      C21FE848 
 5863      7B9887F1 
 5863      6E8F
 5864 034b 1BD4BD24 		.ascii	"\033\324\275$Px\241\352\241l%\233\343\241 \212F<9\246"
 5864      5078A1EA 
 5864      A16C259B 
 5864      E3A1208A 
 5864      463C39A6 
 5865 035f A7F3EE92 		.ascii	"\247\363\356\222q6\302Z_\030PY&u\346\254\274$\036\201"
 5865      7136C25A 
 5865      5F185059 
 5865      2675E6AC 
 5865      BC241E81 
 5866 0373 371487A7 		.ascii	"7\024\207\2479\034/S\037\372\013\003\263=\242\207\311"
 5866      391C2F53 
 5866      1FFA0B03 
 5866      B33DA287 
 5866      C9
 5867 0384 CDE759D7 		.ascii	"\315\347Y\327\365\264\326\273\021\335\322\306\202L\017"
 5867      F5B4D6BB 
 5867      11DDD2C6 
 5867      824C0F
 5868 0393 5DB74493 		.ascii	"]\267D\223\343Y\027\224\213,\275\204\214\241{(\377\201"
 5868      E3591794 
 5868      8B2CBD84 
 5868      8CA17B28 
 5868      FF81
 5869 03a5 01620073 		.ascii	"\001b\000s\332\342\357\304R;\364\214\267\332R\325\003"
 5869      DAE2EFC4 
 5869      523BF48C 
 5869      B7DA52D5 
ARM GAS  /tmp/ccydMd0r.s 			page 179


 5869      03
 5870 03b6 DD1442E4 		.ascii	"\335\024B\344\346si\352\241VU\224l\036<\306i9\307'\214"
 5870      E67369EA 
 5870      A1565594 
 5870      6C1E3CC6 
 5870      6939C727 
 5871 03cb 9BACA1CD 		.ascii	"\233\254\241\315\234_\271\272\301\374\207]7g?\243a\264"
 5871      9C5FB9BA 
 5871      C1FC875D 
 5871      37673FA3 
 5871      61B4
 5872 03dd 3665931E 		.ascii	"6e\223\036#i\274\274\245\334\375\244\014\203\006<\376"
 5872      2369BCBC 
 5872      A5DCFDA4 
 5872      0C83063C 
 5872      FE
 5873 03ee 3F5FFA59 		.ascii	"?_\372Y\252X\037\234\270\260nPo\311A}\365l\272\305\223"
 5873      AA581F9C 
 5873      B8B06E50 
 5873      6FC9417D 
 5873      F56CBAC5 
 5874 0403 3CE082CC 		.ascii	"<\340\202\314\015Nq\006\270m\2543dE~H\310\237\3724V"
 5874      0D4E7106 
 5874      B86DAC33 
 5874      64457E48 
 5874      C89FFA34 
 5875 0418 363B0C58 		.ascii	"6;\014X(\000\320VM1i\322\222^x\270Ft.Y\222\367\011\362"
 5875      2800D056 
 5875      4D3169D2 
 5875      925E78B8 
 5875      46742E59 
 5876 0430 94F36C18 		.ascii	"\224\363l\030\300ly\016\371\232\360\252O9K\352\341!"
 5876      C06C790E 
 5876      F99AF0AA 
 5876      4F394BEA 
 5876      E121
 5877 0442 2396DCAE 		.ascii	"#\226\334\256\320\032\335xagr\232H\035A\245Uy\306n3"
 5877      D01ADD78 
 5877      6167729A 
 5877      481D41A5 
 5877      5579C66E 
 5878 0457 FEEB8826 		.ascii	"\376\353\210&t\334\254\261\227tD\010\017\351\223e\236"
 5878      74DCACB1 
 5878      97744408 
 5878      0FE99365 
 5878      9E
 5879 0468 DF665388 		.ascii	"\337fS\210L\025(\236\340\253\322,;<\321\331\273\274"
 5879      4C15289E 
 5879      E0ABD22C 
 5879      3B3CD1D9 
 5879      BBBC
 5880 047a 8F280289 		.ascii	"\217(\002\211\011\315\034\210\212 \013\2109\265\230"
 5880      09CD1C88 
 5880      8A200B88 
 5880      39B598
 5881 0489 67982495 		.ascii	"g\230$\225N\254\330\334\216\232\001T\336\303\201\231"
 5881      4EACD8DC 
ARM GAS  /tmp/ccydMd0r.s 			page 180


 5881      8E9A0154 
 5881      DEC38199 
 5882 0499 F99895CB 		.ascii	"\371\230\225\313J\352\240\367\020,V\252\250]w-\012\254"
 5882      4AEAA0F7 
 5882      102C56AA 
 5882      A85D772D 
 5882      0AAC
 5883 04ab F20AF37D 		.ascii	"\362\012\363}\201\245\221{|3*J\222\370\015\031\177L"
 5883      81A5917B 
 5883      7C332A4A 
 5883      92F80D19 
 5883      7F4C
 5884 04bd B3C46155 		.ascii	"\263\304aU\037\350r\361\037\364\330\030\224f\333\256"
 5884      1FE872F1 
 5884      1FF4D818 
 5884      9466DBAE 
 5885 04cd E49C69F2 		.ascii	"\344\234i\362\"\254\255F\032\337\273X\216\323\314S\267"
 5885      22ACAD46 
 5885      1ADFBB58 
 5885      8ED3CC53 
 5885      B7
 5886 04de 4F29BB85 		.ascii	"O)\273\205\210\250\307}\222d\304\3106\261\310-\363\357"
 5886      88A8C77D 
 5886      9264C4C8 
 5886      36B1C82D 
 5886      F3EF
 5887 04f0 6431A357 		.ascii	"d1\243W2O\307M\304\014\370Z\347\030{[v\037Rsx\231TN"
 5887      324FC74D 
 5887      C40CF85A 
 5887      E7187B5B 
 5887      761F5273 
 5888 0508 E49BAF04 		.ascii	"\344\233\257\004\331O\274\231\200\004\206\200d\336'"
 5888      D94FBC99 
 5888      80048680 
 5888      64DE27
 5889 0517 01551205 		.ascii	"\001U\022\005\240ZX\324\210\352\335T@m{\264\276\274"
 5889      A05A58D4 
 5889      88EADD54 
 5889      406D7BB4 
 5889      BEBC
 5890 0529 1CC74E27 		.ascii	"\034\307N'1\272!\321'{\344@&iE\375\271\330\345\213\363"
 5890      31BA21D1 
 5890      277BE440 
 5890      266945FD 
 5890      B9D8E58B 
 5891 053e 844FA577 		.ascii	"\204O\245w\234\316\366\317\271\204\317GiR\224\217D\367"
 5891      9CCEF6CF 
 5891      B984CF47 
 5891      6952948F 
 5891      44F7
 5892 0550 B455DAED 		.ascii	"\264U\332\355r\307\213\203\"*S\016\015\"\010L\311\243"
 5892      72C78B83 
 5892      222A530E 
 5892      0D22084C 
 5892      C9A3
 5893 0562 2A27ADCB 		.ascii	"*'\255\313\354\271\207b\226S?\352\000\217\321\243e&"
 5893      ECB98762 
ARM GAS  /tmp/ccydMd0r.s 			page 181


 5893      96533FEA 
 5893      008FD1A3 
 5893      6526
 5894 0574 93B21A7E 		.ascii	"\223\262\032~!S\011\257\224\304\251\212\201\303t\315"
 5894      215309AF 
 5894      94C4A98A 
 5894      81C374CD 
 5895 0584 D9A0F4AF 		.ascii	"\331\240\364\257\024\362bt\305\316\344\350At\213\012"
 5895      14F26274 
 5895      C5CEE4E8 
 5895      41748B0A 
 5896 0594 C5ECE6E3 		.ascii	"\305\354\346\343\302\336\214{>\015\203\315\021\312\345"
 5896      C2DE8C7B 
 5896      3E0D83CD 
 5896      11CAE5
 5897 05a3 C10871D8 		.ascii	"\301\010q\330o\255OZ\007\315\316o\235\251V\227SQ\223"
 5897      6FAD4F5A 
 5897      07CDCE6F 
 5897      9DA95697 
 5897      535193
 5898 05b6 BC1AF000 		.ascii	"\274\032\360\000\203\312<?\363I}\002AdW\343?I\026T\005"
 5898      83CA3C3F 
 5898      F3497D02 
 5898      416457E3 
 5898      3F491654 
 5899 05cb 17136E3E 		.ascii	"\027\023n>Z\210\354s\250\236\353\372\035B\347{;\343"
 5899      5A88EC73 
 5899      A89EEBFA 
 5899      1D42E77B 
 5899      3BE3
 5900 05dd B686DD46 		.ascii	"\266\206\335FA\016\241\363\276\373\340\332s\342;\226"
 5900      410EA1F3 
 5900      BEFBE0DA 
 5900      73E23B96 
 5901 05ed 9AFB54BD 		.ascii	"\232\373T\275X\326>\3257r\262{\317\015f}r\373\244\011"
 5901      58D63ED5 
 5901      3772B27B 
 5901      CF0D667D 
 5901      72FBA409 
 5902 0601 3AE4EDCF 		.ascii	":\344\355\317\316c4\211\306\213\020I\234\262|\261x\321"
 5902      CE633489 
 5902      C68B1049 
 5902      9CB27CB1 
 5902      78D1
 5903 0613 CC228E6D 		.ascii	"\314\"\216m\272o\224\001$\0102\240\211\237\267n\024"
 5903      BA6F9401 
 5903      240832A0 
 5903      899FB76E 
 5903      14
 5904 0624 456DD9C8 		.ascii	"Em\331\310\275]SF\344\303\\\276\375\351\260\343j\371"
 5904      BD5D5346 
 5904      E4C35CBE 
 5904      FDE9B0E3 
 5904      6AF9
 5905 0636 F0B9686F 		.ascii	"\360\271ho\223\311\262:\032\337\027\177\033\314p\377"
 5905      93C9B23A 
 5905      1ADF177F 
ARM GAS  /tmp/ccydMd0r.s 			page 182


 5905      1BCC70FF 
 5906 0646 AA3CDF44 		.ascii	"\252<\337D\345[\255\220\305\226\344\273\317\033o\300"
 5906      E55BAD90 
 5906      C596E4BB 
 5906      CF1B6FC0 
 5907 0656 4777833A 		.ascii	"Gw\203:P\"\002d\235\352\316\031\003\011\026\265;n\201"
 5907      50220264 
 5907      9DEACE19 
 5907      030916B5 
 5907      3B6E81
 5908 0669 D1E6E3ED 		.ascii	"\321\346\343\355(\037\370o\371\024Z\212\255\0273\256"
 5908      281FF86F 
 5908      F9145A8A 
 5908      AD1733AE 
 5909 0679 8800DBFA 		.ascii	"\210\000\333\372\353`\177\020\260\306\244\363wl\207"
 5909      EB607F10 
 5909      B0C6A4F3 
 5909      776C87
 5910 0688 F2E8258C 		.ascii	"\362\350%\214oOz\241h\240R\012\347\001\265{\275L\226"
 5910      6F4F7AA1 
 5910      68A0520A 
 5910      E701B57B 
 5910      BD4C96
 5911 069b 639DD2BE 		.ascii	"c\235\322\276+\271\327!\351\266\250\025\257\333\210"
 5911      2BB9D721 
 5911      E9B6A815 
 5911      AFDB88
 5912 06aa 99444EA1 		.ascii	"\231DN\241\327gk\3558E\2647\313\032\315%\336]a\310w"
 5912      D7676BED 
 5912      3845B437 
 5912      CB1ACD25 
 5912      DE5D61C8 
 5913 06bf 5E15E8DB 		.ascii	"^\025\350\333s\263\273\005\006Eg\202<\022s5\343\361"
 5913      73B3BB05 
 5913      06456782 
 5913      3C127335 
 5913      E3F1
 5914 06d1 8191C147 		.ascii	"\201\221\301G\365m\366\333Xu\224Q\000\361\026[\234\004"
 5914      F56DF6DB 
 5914      58759451 
 5914      00F1165B 
 5914      9C04
 5915 06e3 9C467465 		.ascii	"\234Fte\377\352\326~\262c\344Z\037= o\203C\271%\250"
 5915      FFEAD67E 
 5915      B263E45A 
 5915      1F3D206F 
 5915      8343B925 
 5916 06f8 EDA029A2 		.ascii	"\355\240)\242\037q\204\011'\204\357\031\361#R\241\360"
 5916      1F718409 
 5916      2784EF19 
 5916      F12352A1 
 5916      F0
 5917 0709 85A044B4 		.ascii	"\205\240D\264^m_\025H\374D\033\304eH?\255[\3132\257"
 5917      5E6D5F15 
 5917      48FC441B 
 5917      C465483F 
 5917      AD5BCB32 
ARM GAS  /tmp/ccydMd0r.s 			page 183


 5918 071e 11916AD7 		.ascii	"\021\221j\327\027\274\350\300fl\223@\226\251\262\275"
 5918      17BCE8C0 
 5918      666C9340 
 5918      96A9B2BD 
 5919 072e 31689D9A 		.ascii	"1h\235\232\335\020u\370\027\306\261\364c\247[\215\310"
 5919      DD1075F8 
 5919      17C6B1F4 
 5919      63A75B8D 
 5919      C8
 5920 073f DE5049DF 		.ascii	"\336PI\337\273y\213\355\333\336\022j3\300\225\247\225"
 5920      BB798BED 
 5920      DBDE126A 
 5920      33C095A7 
 5920      95
 5921 0750 4A8541DF 		.ascii	"J\205A\337\331\000\372T\354W\231\012p\243\023H:Zs\006"
 5921      D900FA54 
 5921      EC57990A 
 5921      70A31348 
 5921      3A5A7306 
 5922 0764 4644FF58 		.ascii	"FD\377X\364J\320\250\252\035\265V\3049\213\215\265\301"
 5922      F44AD0A8 
 5922      AA1DB556 
 5922      C4398B8D 
 5922      B5C1
 5923 0776 C9EF5EDA 		.ascii	"\311\357^\332\275\021>\010\257\225>o\265\260\013\304"
 5923      BD113E08 
 5923      AF953E6F 
 5923      B5B00BC4 
 5924 0786 901DDF69 		.ascii	"\220\035\337iz\300U\005\347@0\001\355@\201\363t\262"
 5924      7AC05505 
 5924      E7403001 
 5924      ED4081F3 
 5924      74B2
 5925 0798 3319C2FE 		.ascii	"3\031\302\376\356l@\377\2331\0136\277\2147\313i\260"
 5925      EE6C40FF 
 5925      9B310B36 
 5925      BF8C37CB 
 5925      69B0
 5926 07aa 144EE6DE 		.ascii	"\024N\346\336\375]T\305G\306o;\010;cz\321\241'\214\010"
 5926      FD5D54C5 
 5926      47C66F3B 
 5926      083B637A 
 5926      D1A1278C 
 5927 07bf F0C71D63 		.ascii	"\360\307\035c?\253$;\362w0\356\257\356\030\272\033"
 5927      3FAB243B 
 5927      F27730EE 
 5927      AFEE18BA 
 5927      1B
 5928 07d0 D6F0630F 		.ascii	"\326\360c\017\3064\226\342X\246\026\"M#\237m\266\235"
 5928      C63496E2 
 5928      58A61622 
 5928      4D239F6D 
 5928      B69D
 5929 07e2 780FE200 		.ascii	"x\017\342\000\223=\233\011\353\206cl1\225\271\213\207"
 5929      933D9B09 
 5929      EB86636C 
 5929      3195B98B 
ARM GAS  /tmp/ccydMd0r.s 			page 184


 5929      87
 5930 07f3 4D20EA42 		.ascii	"M \352B\345\360\207\371`\320\347V\207@\273V\211\006"
 5930      E5F087F9 
 5930      60D0E756 
 5930      8740BB56 
 5930      8906
 5931 0805 0D8BEC7B 		.ascii	"\015\213\354{#co{jU\361\337D\325\3166cQ\\\265\317\370"
 5931      23636F7B 
 5931      6A55F1DF 
 5931      44D5CE36 
 5931      63515CB5 
 5932 081b 28A3E922 		.ascii	"(\243\351\"\224}D\212}]\004\177\274*\226\213\203fl\003"
 5932      947D448A 
 5932      7D5D047F 
 5932      BC2A968B 
 5932      83666C03 
 5933 082f 770AE955 		.ascii	"w\012\351U\015o?TE\301\344\255b\207\373$C9\271*\015"
 5933      0D6F3F54 
 5933      45C1E4AD 
 5933      6287FB24 
 5933      4339B92A 
 5934 0844 A4691AEB 		.ascii	"\244i\032\353\350\316\323\341\225R\240\276v\033\226"
 5934      E8CED3E1 
 5934      9552A0BE 
 5934      761B96
 5935 0853 733553A2 		.ascii	"s5S\242\25058\225O\267vZ\257\316#\023y\343\2478P\274"
 5935      A8353895 
 5935      4FB7765A 
 5935      AFCE2313 
 5935      79E3A738 
 5936 0869 B422984B 		.ascii	"\264\"\230K|wg\213\377\273&\351\313\026\273s\305\360"
 5936      7C77678B 
 5936      FFBB26E9 
 5936      CB16BB73 
 5936      C5F0
 5937 087b BC820EFD 		.ascii	"\274\202\016\375\365\256\350w6\012\341.'h^\370w]I\362"
 5937      F5AEE877 
 5937      360AE12E 
 5937      27685EF8 
 5937      775D49F2 
 5938 088f ABCDAB42 		.ascii	"\253\315\253B>\355me\245\350\246\"\027O\365\200\\\022"
 5938      3EED6D65 
 5938      A5E8A622 
 5938      174FF580 
 5938      5C12
 5939 08a1 F8E9B60F 		.ascii	"\370\351\266\017y\2449x\340\364Y\3269\024I\0363\033"
 5939      79A43978 
 5939      E0F459D6 
 5939      3914491E 
 5939      331B
 5940 08b3 A8ED4A9C 		.ascii	"\250\355J\234\254\273@\011\343\223]\254\252\333\316"
 5940      ACBB4009 
 5940      E3935DAC 
 5940      AADBCE
 5941 08c2 52DA7921 		.ascii	"R\332y!{}\217&\3165\"+h\243\"~!\275*\245\330\246*T\275"
 5941      7B7D8F26 
 5941      CE35222B 
ARM GAS  /tmp/ccydMd0r.s 			page 185


 5941      68A3227E 
 5941      21BD2AA5 
 5942 08db 6ED7D9CA 		.ascii	"n\327\331\312B\261'&jiq\177pN\264W\210\254\377\215+"
 5942      42B12726 
 5942      6A69717F 
 5942      704EB457 
 5942      88ACFF8D 
 5943 08f0 ADD7BDA3 		.ascii	"\255\327\275\243\254\274\317\325a\023L\360\251b\267"
 5943      ACBCCFD5 
 5943      61134CF0 
 5943      A962B7
 5944 08ff 6D0DCD6A 		.ascii	"m\015\315js:\340\320\241,\366\344\242\367\235:\341\313"
 5944      733AE0D0 
 5944      A12CF6E4 
 5944      A2F79D3A 
 5944      E1CB
 5945 0911 DAA50FCF 		.ascii	"\332\245\017\317\202\345#\257M\330`Z\200\360\277\374"
 5945      82E523AF 
 5945      4DD8605A 
 5945      80F0BFFC 
 5946 0921 3E1582EA 		.ascii	">\025\202\352D\371\202\024i\355\235\351\206\237:f\000"
 5946      44F98214 
 5946      69ED9DE9 
 5946      869F3A66 
 5946      00
 5947 0932 8837A00E 		.ascii	"\2107\240\016\310F\"t}\300\264\012\357e\000i`'gf\353"
 5947      C8462274 
 5947      7DC0B40A 
 5947      EF650069 
 5947      60276766 
 5948 0947 32451B3F 		.ascii	"2E\033?\236T\205F\367\361r$.\251\304U\003Z9dbEJ\220"
 5948      9E548546 
 5948      F7F17224 
 5948      2EA9C455 
 5948      035A3964 
 5949 095f 6875EDEC 		.ascii	"hu\355\354$\360KWm\364\004\216\300D\306\261\216\253"
 5949      24F04B57 
 5949      6DF4048E 
 5949      C044C6B1 
 5949      8EAB
 5950 0971 5A9F16CE 		.ascii	"Z\237\026\316\372(\245\356\365e\235\244\374a+\326\371"
 5950      FA28A5EE 
 5950      F5659DA4 
 5950      FC612BD6 
 5950      F9
 5951 0982 3A7EADA4 		.ascii	":~\255\244\337\225\035C\276\012\224\254!\000\267\350"
 5951      DF951D43 
 5951      BE0A94AC 
 5951      2100B7E8 
 5952 0992 3C26D26A 		.ascii	"<&\322j\300\343,\360\370\230\365#L\251nT\3753\323\223"
 5952      C0E32CF0 
 5952      F898F523 
 5952      4CA96E54 
 5952      FD33D393 
 5953 09a6 53BB4FB6 		.ascii	"S\273O\266^\3279\335\341\354D\374Z\325W|Wg\336~9\357"
 5953      5ED739DD 
 5953      E1EC44FC 
ARM GAS  /tmp/ccydMd0r.s 			page 186


 5953      5AD5577C 
 5953      5767DE7E 
 5954 09bc 498CB784 		.ascii	"I\214\267\204\263\027\276\004:\016$\227\243\326{<u\334"
 5954      B317BE04 
 5954      3A0E2497 
 5954      A3D67B3C 
 5954      75DC
 5955 09ce 8907A207 		.ascii	"\211\007\242\007\257\350 -*\377|\326$\213\0328\001-"
 5955      AFE8202D 
 5955      2AFF7CD6 
 5955      248B1A38 
 5955      012D
 5956 09e0 79AA58E2 		.ascii	"y\252X\34260\203=\277\026\252\357So{\316t\333\337l4"
 5956      3630833D 
 5956      BF16AAEF 
 5956      536F7BCE 
 5956      74DBDF6C 
 5957 09f5 5C101D82 		.ascii	"\\\020\035\202\006b\203\277\336l\337\016\227k\025\005"
 5957      066283BF 
 5957      DE6CDF0E 
 5957      976B1505 
 5958 0a05 BF65C1C9 		.ascii	"\277e\301\311,\375\306\251n:5\36709,\330\243\200G!\\"
 5958      2CFDC6A9 
 5958      6E3A35F7 
 5958      30392CD8 
 5958      A3804721 
 5959 0a1a 75DB9CEA 		.ascii	"u\333\234\352\034`\252\361Y/\365\233\317\272\227{\013"
 5959      1C60AAF1 
 5959      592FF59B 
 5959      CFBA977B 
 5959      0B
 5960 0a2b 0BAAFDCC 		.ascii	"\013\252\375\314\276\377\271cg@\012\245\226h\366\344"
 5960      BEFFB963 
 5960      67400AA5 
 5960      9668F6E4 
 5961 0a3b 0349422D 		.ascii	"\003IB-\250\201\002\275\204\305\222\024\\\341\215\035"
 5961      A88102BD 
 5961      84C59214 
 5961      5CE18D1D 
 5962 0a4b B7A18A81 		.ascii	"\267\241\212\201r\033\314\030\236B\203CC\311N\270\027"
 5962      721BCC18 
 5962      9E428343 
 5962      43C94EB8 
 5962      17
 5963 0a5c E7D366BF 		.ascii	"\347\323f\277GZAZ\007\352\"+E,$w\260@3V\320\2621\273"
 5963      475A415A 
 5963      07EA222B 
 5963      452C2477 
 5963      B0403356 
 5964 0a74 A6E9C9E5 		.ascii	"\246\351\311\345_5\376\346\2200*\237\237\005p\262\205"
 5964      5F35FEE6 
 5964      90302A9F 
 5964      9F0570B2 
 5964      85
 5965 0a85 46531336 		.ascii	"FS\02361E\007O\322CN\314\355iC9@&\003\356]^\236\247"
 5965      3145074F 
 5965      D2434ECC 
ARM GAS  /tmp/ccydMd0r.s 			page 187


 5965      ED694339 
 5965      402603EE 
 5966 0a9d BAAF546D 		.ascii	"\272\257Tm\344\004\370cN\345\306B\3178O\375\203\004"
 5966      E404F863 
 5966      4EE5C642 
 5966      CF384FFD 
 5966      8304
 5967 0aaf 1DA538E1 		.ascii	"\035\2458\341\314[%\373\016\323<\225)\322\267\250C\344"
 5967      CC5B25FB 
 5967      0ED33C95 
 5967      29D2B7A8 
 5967      43E4
 5968 0ac1 B14B1468 		.ascii	"\261K\024h:\235\341\266\217m\337zE\306H\026\002\016"
 5968      3A9DE1B6 
 5968      8F6DDF7A 
 5968      45C64816 
 5968      020E
 5969 0ad3 D649811E 		.ascii	"\326I\201\036\350\016\002c\271\006\311J\364o\003\357"
 5969      E80E0263 
 5969      B906C94A 
 5969      F46F03EF 
 5970 0ae3 2C2D5F73 		.ascii	",-_s\367\326\340\363m/\257\376=a1\246,\245\202Z*\360"
 5970      F7D6E0F3 
 5970      6D2FAFFE 
 5970      3D6131A6 
 5970      2CA5825A 
 5971 0af9 F569CDA5 		.ascii	"\365i\315\245\346\\\177\216\351j\324\313\031\316\032"
 5971      E65C7F8E 
 5971      E96AD4CB 
 5971      19CE1A
 5972 0b08 D446F091 		.ascii	"\324F\360\221t\352\324b\351\314\007jk\314\352\001\344"
 5972      74EAD462 
 5972      E9CC076A 
 5972      6BCCEA01 
 5972      E4
 5973 0b19 F70E4ECB 		.ascii	"\367\016N\313Z\345\012\212\373S$\354\235\021\224S\012"
 5973      5AE50A8A 
 5973      FB5324EC 
 5973      9D119453 
 5973      0A
 5974 0b2a 51E4E32D 		.ascii	"Q\344\343-\036]F8\363@\330\270`QA\320LR\360\307\237"
 5974      1E5D4638 
 5974      F340D8B8 
 5974      605141D0 
 5974      4C52F0C7 
 5975 0b3f 818935B6 		.ascii	"\201\2115\266\253\374\354\311\224\245\267\315g),\200"
 5975      ABFCECC9 
 5975      94A5B7CD 
 5975      67292C80 
 5976 0b4f 36BC2352 		.ascii	"6\274#R\025\345\020v\004\251\205\003\260\257\224\265"
 5976      15E51076 
 5976      04A98503 
 5976      B0AF94B5 
 5977 0b5f 1FD855EC 		.ascii	"\037\330U\354\245\327\0347\026\267\236\264-\260\325"
 5977      A5D71C37 
 5977      16B79EB4 
 5977      2DB0D5
ARM GAS  /tmp/ccydMd0r.s 			page 188


 5978 0b6e AD7C6309 		.ascii	"\255|c\011\020\236\207&O\302i\374\202\202~4\036\242"
 5978      109E8726 
 5978      4FC269FC 
 5978      82827E34 
 5978      1EA2
 5979 0b80 AFB2B5F8 		.ascii	"\257\262\265\370\333\000\025\321\273\004\227\213\246"
 5979      DB0015D1 
 5979      BB04978B 
 5979      A6
 5980 0b8d 5B2096BD 		.ascii	"[ \226\275\317\222h^v\205W!\312\360\227E\022\374\342"
 5980      CF92685E 
 5980      76855721 
 5980      CAF09745 
 5980      12FCE2
 5981 0ba0 05E681F5 		.ascii	"\005\346\201\365\327\273x\353g\357NJs\022\226=T'\264"
 5981      D7BB78EB 
 5981      67EF4E4A 
 5981      7312963D 
 5981      5427B4
 5982 0bb3 2E289968 		.ascii	".(\231h\207\353\372\374\204\340\336\234\214\370Z\014"
 5982      87EBFAFC 
 5982      84E0DE9C 
 5982      8CF85A0C 
 5983 0bc3 7859E96B 		.ascii	"xY\351k\020>\032tz\341Y\205Z-,\211\230 \206\365\304"
 5983      103E1A74 
 5983      7AE15985 
 5983      5A2D2C89 
 5983      982086F5 
 5984 0bd8 AA92EB2F 		.ascii	"\252\222\353/\241\262yIP\341\330\257\315\031z\25645"
 5984      A1B27949 
 5984      50E1D8AF 
 5984      CD197AAE 
 5984      3435
 5985 0bea A5252E05 		.ascii	"\245%.\005\225]\207f\304*!\212\351\234R.\205\035PBg"
 5985      955D8766 
 5985      C42A218A 
 5985      E99C522E 
 5985      851D5042 
 5986 0bff 10BDDC23 		.ascii	"\020\275\334#n\"\331\311\362(\271\007\353\3229\035n"
 5986      6E22D9C9 
 5986      F228B907 
 5986      EBD2391D 
 5986      6E
 5987 0c10 A0E7F764 		.ascii	"\240\347\367d\021\301`\252\020\005\200S\3363_\321m\301"
 5987      11C160AA 
 5987      10058053 
 5987      DE335FD1 
 5987      6DC1
 5988 0c22 AD9B5D1F 		.ascii	"\255\233]\037N&\373\241\305{)\206\354\223\325\367\305"
 5988      4E26FBA1 
 5988      C57B2986 
 5988      EC93D5F7 
 5988      C5
 5989 0c33 6EDC9E21 		.ascii	"n\334\236!\022\2027\034\016\317{\327\377\221X\3555\263"
 5989      1282371C 
 5989      0ECF7BD7 
 5989      FF9158ED 
ARM GAS  /tmp/ccydMd0r.s 			page 189


 5989      35B3
 5990 0c45 D54FEF9E 		.ascii	"\325O\357\2368\212\334\305\232\237J\227gFE\\gm;3\277"
 5990      388ADCC5 
 5990      9A9F4A97 
 5990      6746455C 
 5990      676D3B33 
 5991 0c5a A4650622 		.ascii	"\244e\006\"Z\0246\323^\331C\215\340\213e\335\244\010"
 5991      5A1436D3 
 5991      5ED9438D 
 5991      E08B65DD 
 5991      A408
 5992 0c6c 511729A4 		.ascii	"Q\027)\244&C\347\252\017\343\035e\251\266\030\266\261"
 5992      2643E7AA 
 5992      0FE31D65 
 5992      A9B618B6 
 5992      B1
 5993 0c7d C8941253 		.ascii	"\310\224\022S\212\004\222\240\216\332w\214\320ln\201"
 5993      8A0492A0 
 5993      8EDA778C 
 5993      D06C6E81 
 5994 0c8d BDE920EF 		.ascii	"\275\351 \357\211aGf\364utK\020JO\210\236\317\323d\032"
 5994      89614766 
 5994      F475744B 
 5994      104A4F88 
 5994      9ECFD364 
 5995 0ca2 B0A130FA 		.ascii	"\260\2410\372V\341\026\203\246\232\372\010\265\231u"
 5995      56E11683 
 5995      A69AFA08 
 5995      B59975
 5996 0cb1 96225795 		.ascii	"\226\"W\225\177\343p\265y\232\361\323\352\350p\361\335"
 5996      7FE370B5 
 5996      799AF1D3 
 5996      EAE870F1 
 5996      DD
 5997 0cc2 C8CBC2E3 		.ascii	"\310\313\302\343\254\363\236\364\2515\315\211s\244\276"
 5997      ACF39EF4 
 5997      A935CD89 
 5997      73A4BE
 5998 0cd1 6EDA1BDB 		.ascii	"n\332\033\333\337\304:\370\337x7K\211^!\177\273\330"
 5998      DFC43AF8 
 5998      DF78374B 
 5998      895E217F 
 5998      BBD8
 5999 0ce3 A9D39FC7 		.ascii	"\251\323\237\307!`\276\016\336\206\206K\007\263\253"
 5999      2160BE0E 
 5999      DE86864B 
 5999      07B3AB
 6000 0cf2 DF3B158E 		.ascii	"\337;\025\216>\361\247\"!8\015\373\247]#\352\014ui7"
 6000      3EF1A722 
 6000      21380DFB 
 6000      A75D23EA 
 6000      0C756937 
 6001 0d06 10BD9167 		.ascii	"\020\275\221g\360~\220\313\346\371\376\210\315\373\357"
 6001      F07E90CB 
 6001      E6F9FE88 
 6001      CDFBEF
 6002 0d15 6D4CB29A 		.ascii	"mL\262\232\013%5)\331\235\305\311'\0014(\245X\375:\371"
ARM GAS  /tmp/ccydMd0r.s 			page 190


 6002      0B253529 
 6002      D99DC5C9 
 6002      27013428 
 6002      A558FD3A 
 6003 0d2a 7B095239 		.ascii	"{\011R99\264\034\000\332lF\246?\177K\304\266\245\365"
 6003      39B41C00 
 6003      DA6C46A6 
 6003      3F7F4BC4 
 6003      B6A5F5
 6004 0d3d E3BA5632 		.ascii	"\343\272V2\026\235\362\221\025\230\301\320\204\212\273"
 6004      169DF291 
 6004      1598C1D0 
 6004      848ABB
 6005 0d4c 6F16BE4D 		.ascii	"o\026\276M\306\246=L\366\356\256\033\347!qK\343,\213"
 6005      C6A63D4C 
 6005      F6EEAE1B 
 6005      E721714B 
 6005      E32C8B
 6006 0d5f FA95450F 		.ascii	"\372\225E\017\032\226a\303\332\314\322f\306\036\177"
 6006      1A9661C3 
 6006      DACCD266 
 6006      C61E7F
 6007 0d6e 8D82A660 		.ascii	"\215\202\246`~\354\300B5\274p\242\032y<\023a\217\024"
 6007      7EECC042 
 6007      35BC70A2 
 6007      1A793C13 
 6007      618F14
 6008 0d81 D4B842E6 		.ascii	"\324\270B\346*\206\032{\330\265\007p#\332\275m\324\247"
 6008      2A861A7B 
 6008      D8B50770 
 6008      23DABD6D 
 6008      D4A7
 6009 0d93 0188C16D 		.ascii	"\001\210\301m^\006'^j\333k?\227n\231\337H\345\261\335"
 6009      5E06275E 
 6009      6ADB6B3F 
 6009      976E99DF 
 6009      48E5B1DD 
 6010 0da7 A953B819 		.ascii	"\251S\270\031\202F7\024\001\341\367Vc\222\232\2065\244"
 6010      82463714 
 6010      01E1F756 
 6010      63929A86 
 6010      35A4
 6011 0db9 E7E15207 		.ascii	"\347\341R\007\233\013\354\360\271\331jf\007\004]\225"
 6011      9B0BECF0 
 6011      B9D96A66 
 6011      07045D95 
 6012 0dc9 F7E2CDD7 		.ascii	"\367\342\315\327Z\272\320\253<\307(A\275\2203Q\361\316"
 6012      5ABAD0AB 
 6012      3CC72841 
 6012      BD903351 
 6012      F1CE
 6013 0ddb 2F3FD9AA 		.ascii	"/?\331\252;\027\3278\270\360\360\257\015\212<_\361b"
 6013      3B17D738 
 6013      B8F0F0AF 
 6013      0D8A3C5F 
 6013      F162
 6014 0ded A09120BE 		.ascii	"\240\221 \276\306\214\306\244I'\252\204\330\210\037"
ARM GAS  /tmp/ccydMd0r.s 			page 191


 6014      C68CC6A4 
 6014      4927AA84 
 6014      D8881F
 6015 0dfc 095CF6F3 		.ascii	"\011\\\366\363\327G\035\252p\011\322]\265\374B\265\250"
 6015      D7471DAA 
 6015      7009D25D 
 6015      B5FC42B5 
 6015      A8
 6016 0e0d 01217A35 		.ascii	"\001!z5\362$\263\326Q\377k\200Ex6\005\301.=\002g\011"
 6016      F224B3D6 
 6016      51FF6B80 
 6016      45783605 
 6016      C12E3D02 
 6017 0e23 E9980F55 		.ascii	"\351\230\017U\024Y\\NrBK\263i^\363\341\252\255\376\343"
 6017      14595C4E 
 6017      72424BB3 
 6017      695EF3E1 
 6017      AAADFEE3 
 6018 0e37 1095816A 		.ascii	"\020\225\201j\016\331\365\007\247\000-,[\346\231\011"
 6018      0ED9F507 
 6018      A7002D2C 
 6018      5BE69909 
 6019 0e47 223B4F20 		.ascii	"\";O \252\240\217\351\212\033o,<m\003\355\006\354\233"
 6019      AAA08FE9 
 6019      8A1B6F2C 
 6019      3C6D03ED 
 6019      06EC9B
 6020 0e5a C18CFE24 		.ascii	"\301\214\376$M\221/x+\350\010<I*9O\366\014\275\277\303"
 6020      4D912F78 
 6020      2BE8083C 
 6020      492A394F 
 6020      F60CBDBF 
 6021 0e6f 4BED0D72 		.ascii	"K\355\015r\342\257I\317\271\001\230\220\012l\302\325"
 6021      E2AF49CF 
 6021      B9019890 
 6021      0A6CC2D5 
 6022 0e7f 724603F5 		.ascii	"rF\003\365\004(u\264|\266\275\347\006\274\273\202\332"
 6022      042875B4 
 6022      7CB6BDE7 
 6022      06BCBB82 
 6022      DA
 6023 0e90 B492DDC4 		.ascii	"\264\222\335\304\027aj\375\306]\215\254\020\341\011"
 6023      17616AFD 
 6023      C65D8DAC 
 6023      10E109
 6024 0e9f 5A5AA207 		.ascii	"ZZ\242\007\252\204\036\344\224\277\274a\324\312\325"
 6024      AA841EE4 
 6024      94BFBC61 
 6024      D4CAD5
 6025 0eae F98807CB 		.ascii	"\371\210\007\313X\217\325\366\261_'\340\3018\321\320"
 6025      588FD5F6 
 6025      B15F27E0 
 6025      C138D1D0 
 6026 0ebe CD881A98 		.ascii	"\315\210\032\230\271\\\305\005L\012Z\252\026K\353\366"
 6026      B95CC505 
 6026      4C0A5AAA 
 6026      164BEBF6 
ARM GAS  /tmp/ccydMd0r.s 			page 192


 6027 0ece 78FB0228 		.ascii	"x\373\002(\261\306\252\025\236\005\304\305\015\204\016"
 6027      B1C6AA15 
 6027      9E05C4C5 
 6027      0D840E
 6028 0edd 8C4E07D1 		.ascii	"\214N\007\321\255\343\340\002\0150LJ\332\011\226\023"
 6028      ADE3E002 
 6028      0D304C4A 
 6028      DA099613 
 6029 0eed AFBF6DC9 		.ascii	"\257\277m\311\010\254\224\221rcrI\277\014\303\257u\241"
 6029      08AC9491 
 6029      72637249 
 6029      BF0CC3AF 
 6029      75A1
 6030 0eff 60235A57 		.ascii	"`#ZW(V\260q\\\247xi\243\302q\251 \031\031\361\362E\346"
 6030      2856B071 
 6030      5CA77869 
 6030      A3C271A9 
 6030      201919F1 
 6031 0f16 6A5FC44C 		.ascii	"j_\304L\377\033}#u\246\350P\216<\213\220fAB\274\260"
 6031      FF1B7D23 
 6031      75A6E850 
 6031      8E3C8B90 
 6031      664142BC 
 6032 0f2b 3D7B74B5 		.ascii	"={t\265\024\213*\373nN\217\363\200\346\376\335\023\023"
 6032      148B2AFB 
 6032      6E4E8FF3 
 6032      80E6FEDD 
 6032      1313
 6033 0f3d C0D051A3 		.ascii	"\300\320Q\243\027\306&\347\240S\346\224[\321G\337\330"
 6033      17C626E7 
 6033      A053E694 
 6033      5BD147DF 
 6033      D8
 6034 0f4e 442BA188 		.ascii	"D+\241\210\013K\355\240)\333\003\250\200\013\015\335"
 6034      0B4BEDA0 
 6034      29DB03A8 
 6034      800B0DDD 
 6035 0f5e D4236BD9 		.ascii	"\324#k\331\234\027\236\216\0366z\360_\277Y5v\026Y\253"
 6035      9C179E8E 
 6035      1E367AF0 
 6035      5FBF5935 
 6035      761659AB 
 6036 0f72 1CBEE544 		.ascii	"\034\276\345DUZ\255\317\036ep\332gT=\2042S\350@\326"
 6036      555AADCF 
 6036      1E6570DA 
 6036      67543D84 
 6036      3253E840 
 6037 0f87 E3E8EA01 		.ascii	"\343\350\352\001\375\273^C\215\021 \311\374\315\270"
 6037      FDBB5E43 
 6037      8D1120C9 
 6037      FCCDB8
 6038 0f96 9A9A58B1 		.ascii	"\232\232X\261\010\241m\032\300\206"
 6038      08A16D1A 
 6038      C086
 6039 0fa0 E736C30C 		.ascii	"\3476\303\014\231a\2265\2373\232F\276\212]\264n\251"
 6039      99619635 
 6039      9F339A46 
ARM GAS  /tmp/ccydMd0r.s 			page 193


 6039      BE8A5DB4 
 6039      6EA9
 6040 0fb2 69311389 		.ascii	"i1\023\211f\205\210\310\001.\273\267\271\006\346\242"
 6040      668588C8 
 6040      012EBBB7 
 6040      B906E6A2 
 6041 0fc2 EBB40B6D 		.ascii	"\353\264\013m\233\240\033\217\371I\022\356\345\200\270"
 6041      9BA01B8F 
 6041      F94912EE 
 6041      E580B8
 6042 0fd1 9FAB7FAD 		.ascii	"\237\253\177\255\275\305gfN \266\2619\312\0121\276\371"
 6042      BDC56766 
 6042      4E20B6B1 
 6042      39CA0A31 
 6042      BEF9
 6043 0fe3 B73914E5 		.ascii	"\2679\024\345\243\245\340)\204\200\373\235\004\377\320"
 6043      A3A5E029 
 6043      8480FB9D 
 6043      04FFD0
 6044 0ff2 A6171D1F 		.ascii	"\246\027\035\037\002J\364\335\2574\370\255\217\037z"
 6044      024AF4DD 
 6044      AF34F8AD 
 6044      8F1F7A
 6045 1001 D55B262B 		.ascii	"\325[&+~N\012mBAyd\310\246^\240\342\023([\272\223l\221"
 6045      7E4E0A6D 
 6045      42417964 
 6045      C8A65EA0 
 6045      E213285B 
 6046 1019 42E3FDF1 		.ascii	"B\343\375\361\022\351\360\362\250]\365nn\301\3519\244"
 6046      12E9F0F2 
 6046      A85DF56E 
 6046      6EC1E939 
 6046      A4
 6047 102a 6EDE1E59 		.ascii	"n\336\036Y\016(\220\224\217\266o\\U\263\314\376{h\277"
 6047      0E289094 
 6047      8FB66F5C 
 6047      55B3CCFE 
 6047      7B68BF
 6048 103d 08FA7267 		.ascii	"\010\372rgq\346Y#N\376\3278\265\235\320#^:\35259t-\317"
 6048      71E65923 
 6048      4EFED738 
 6048      B59DD023 
 6048      5E3AEA35 
 6049 1055 D91DBAA2 		.ascii	"\331\035\272\242\220p\177\361\213\306)\250\277>\000"
 6049      90707FF1 
 6049      8BC629A8 
 6049      BF3E00
 6050 1064 EF18800E 		.ascii	"\357\030\200\016\366\343\315dH\212\032(\275[\202sy\035"
 6050      F6E3CD64 
 6050      488A1A28 
 6050      BD5B8273 
 6050      791D
 6051 1076 F165C9DF 		.ascii	"\361e\311\337\241\037TA\363\334\026\254La\361}\320\255"
 6051      A11F5441 
 6051      F3DC16AC 
 6051      4C61F17D 
 6051      D0AD
ARM GAS  /tmp/ccydMd0r.s 			page 194


 6052 1088 EA4C9295 		.ascii	"\352L\222\225\020YtJa0\021\271\211\335\205\350v\227"
 6052      1059744A 
 6052      613011B9 
 6052      89DD85E8 
 6052      7697
 6053 109a 486B8AE1 		.ascii	"Hk\212\341\013wo\034\270\253a\001\366X\214K\266vc\375"
 6053      0B776F1C 
 6053      B8AB6101 
 6053      F6588C4B 
 6053      B67663FD 
 6054 10ae B78BE718 		.ascii	"\267\213\347\030\362\277\321NQwBs\251\010P_\005\244"
 6054      F2BFD14E 
 6054      51774273 
 6054      A908505F 
 6054      05A4
 6055 10c0 A2C2E105 		.ascii	"\242\302\341\005\021\210$\230(y\314{\267\206\300\276"
 6055      11882498 
 6055      2879CC7B 
 6055      B786C0BE 
 6056 10d0 4543BB90 		.ascii	"EC\273\220\220E\234\247(T\245G\306\001?\022\177@{\222"
 6056      90459CA7 
 6056      2854A547 
 6056      C6013F12 
 6056      7F407B92 
 6057 10e4 40F2BE62 		.ascii	"@\362\276b\261\335\323,\315\350\303\204B\363\353,\226"
 6057      B1DDD32C 
 6057      CDE8C384 
 6057      42F3EB2C 
 6057      96
 6058 10f5 F0B7893A 		.ascii	"\360\267\211:t\205\311\334\255\037\227Ur\353\026\347"
 6058      7485C9DC 
 6058      AD1F9755 
 6058      72EB16E7 
 6059 1105 AC304B05 		.ascii	"\2540K\005\011\230\377r\320W\212\231\362\214\330\233"
 6059      0998FF72 
 6059      D0578A99 
 6059      F28CD89B 
 6060 1115 2BD14F8F 		.ascii	"+\321O\217^\357$\013\021\371D\277J\250T\321\223Q\022"
 6060      5EEF240B 
 6060      11F944BF 
 6060      4AA854D1 
 6060      935112
 6061 1128 DA9380F8 		.ascii	"\332\223\200\370\205\204\246{k\343\350\257\370\225R"
 6061      8584A67B 
 6061      6BE3E8AF 
 6061      F89552
 6062 1137 CCF64784 		.ascii	"\314\366G\204\247_\277\264\301\375\235\023\272d\247"
 6062      A75FBFB4 
 6062      C1FD9D13 
 6062      BA64A7
 6063 1146 DC85B304 		.ascii	"\334\205\263\004RitU~c:'\370\340\210\025rQC\347\035"
 6063      52697455 
 6063      7E633A27 
 6063      F8E08815 
 6063      725143E7 
 6064 115b F112BE44 		.ascii	"\361\022\276D=A\015#\370\0044\314i\213\205X\300\376"
 6064      3D410D23 
ARM GAS  /tmp/ccydMd0r.s 			page 195


 6064      F80434CC 
 6064      698B8558 
 6064      C0FE
 6065 116d DED7DB24 		.ascii	"\336\327\333$\210do\362\311\024\224\023@tD\303\217w"
 6065      88646FF2 
 6065      C9149413 
 6065      407444C3 
 6065      8F77
 6066 117f 60D69109 		.ascii	"`\326\221\011\276\200h\331q1Jn\262\263\023T9}]\207\252"
 6066      BE8068D9 
 6066      71314A6E 
 6066      B2B31354 
 6066      397D5D87 
 6067 1194 D9867D97 		.ascii	"\331\206}\227\313\021=\255\032Di\330\227\233)T>\203"
 6067      CB113DAD 
 6067      1A4469D8 
 6067      979B2954 
 6067      3E83
 6068 11a6 EBE368E6 		.ascii	"\353\343h\346\263\310\032o\322D\3635o\327\253\337(\374"
 6068      B3C81A6F 
 6068      D244F335 
 6068      6FD7ABDF 
 6068      28FC
 6069 11b8 B784C0F1 		.ascii	"\267\204\300\361\212\367s\314L\267A\252\215F\301\222"
 6069      8AF773CC 
 6069      4CB741AA 
 6069      8D46C192 
 6070 11c8 940F6513 		.ascii	"\224\017e\023n\357\027\353\307\374;\034\011o\201\333"
 6070      6EEF17EB 
 6070      C7FC3B1C 
 6070      096F81DB 
 6071 11d8 72836ED8 		.ascii	"r\203n\330\255Y\337A\000k\305\300\276\342\2061\200\353"
 6071      AD59DF41 
 6071      006BC5C0 
 6071      BEE28631 
 6071      80EB
 6072 11ea 8EAD4E53 		.ascii	"\216\255NS,j\273]=\252\014r\005\3626\332*\334\275w\252"
 6072      2C6ABB5D 
 6072      3DAA0C72 
 6072      05F236DA 
 6072      2ADCBD77 
 6073 11ff AC9B2C34 		.ascii	"\254\233,4q\031\326\376r\273\377\242\327\264\325HK\207"
 6073      7119D6FE 
 6073      72BBFFA2 
 6073      D7B4D548 
 6073      4B87
 6074 1211 3B15BEAC 		.ascii	";\025\276\254}u\243\223:j5\003U\251\307\003\266\306"
 6074      7D75A393 
 6074      3A6A3503 
 6074      55A9C703 
 6074      B6C6
 6075 1223 AC21F702 		.ascii	"\254!\367\002\305o>\021\033K$\362\020\000\337A\244\306"
 6075      C56F3E11 
 6075      1B4B24F2 
 6075      1000DF41 
 6075      A4C6
 6076 1235 0EE4F491 		.ascii	"\016\344\364\221\213y \026\311\276M\342\012\025\264"
ARM GAS  /tmp/ccydMd0r.s 			page 196


 6076      8B792016 
 6076      C9BE4DE2 
 6076      0A15B4
 6077 1244 B73950AB 		.ascii	"\2679P\253\373\242#\213\234\201r\257h#X\237\032\232"
 6077      FBA2238B 
 6077      9C8172AF 
 6077      6823589F 
 6077      1A9A
 6078 1256 5EA52045 		.ascii	"^\245 E\000\000\236o\177Gt#\024*\013(M\220\364\177\253"
 6078      00009E6F 
 6078      7F477423 
 6078      142A0B28 
 6078      4D90F47F 
 6079 126b ED1B890C 		.ascii	"\355\033\211\014\204\343\233\206*\362\214\340\325R\205"
 6079      84E39B86 
 6079      2AF28CE0 
 6079      D55285
 6080 127a 8922CF58 		.ascii	"\211\"\317X\242\313\303-\2714\210.\0316\342zZ9\2217"
 6080      A2CBC32D 
 6080      B934882E 
 6080      1936E27A 
 6080      5A399137 
 6081 128e DED696E1 		.ascii	"\336\326\226\341\361\352\323\370\227J\231h\241\256\303"
 6081      F1EAD3F8 
 6081      974A9968 
 6081      A1AEC3
 6082 129d 1E551C29 		.ascii	"\036U\034)}\203&\350v\2516B\331.\341(\264J\000,\365"
 6082      7D8326E8 
 6082      76A93642 
 6082      D92EE128 
 6082      B44A002C 
 6083 12b2 DC456A84 		.ascii	"\334Ej\204*\\5\313'\011\005w\277D6\023\272H\335\034"
 6083      2A5C35CB 
 6083      27090577 
 6083      BF443613 
 6083      BA48DD1C 
 6084 12c6 B6439D16 		.ascii	"\266C\235\026m\306\376\344\247\300\015\203^\030\006"
 6084      6DC6FEE4 
 6084      A7C00D83 
 6084      5E1806
 6085 12d5 E6C43986 		.ascii	"\346\3049\206\233\367\325\227\307\325af\011R\362\220"
 6085      9BF7D597 
 6085      C7D56166 
 6085      0952F290 
 6086 12e5 7BD0CACB 		.ascii	"{\320\312\313\244\274\304J\032c\011\374\343\006J$\004"
 6086      A4BCC44A 
 6086      1A6309FC 
 6086      E3064A24 
 6086      04
 6087 12f6 5A678523 		.ascii	"Zg\205#\300\345zq\370\031W\355\211\375\226\017C\326"
 6087      C0E57A71 
 6087      F81957ED 
 6087      89FD960F 
 6087      43D6
 6088 1308 3851330C 		.ascii	"8Q3\014\212J\302\034bu\265\010\333\036\373\341}\242"
 6088      8A4AC21C 
 6088      6275B508 
ARM GAS  /tmp/ccydMd0r.s 			page 197


 6088      DB1EFBE1 
 6088      7DA2
 6089 131a E5855E7F 		.ascii	"\345\205^\177DG\022\251\347\206\327\034\031\310\255"
 6089      444712A9 
 6089      E786D71C 
 6089      19C8AD
 6090 1329 03A3F7BC 		.ascii	"\003\243\367\274\344\326\020?\377\344\211c\265\007x"
 6090      E4D6103F 
 6090      FFE48963 
 6090      B50778
 6091 1338 3574A248 		.ascii	"5t\242H\020Hf\373\275 \237\202z\244\361\002\015\325"
 6091      104866FB 
 6091      BD209F82 
 6091      7AA4F102 
 6091      0DD5
 6092 134a C6416426 		.ascii	"\306Ad&\231#\354\321\016\026\231!R\254\353W\001X,\205"
 6092      9923ECD1 
 6092      0E169921 
 6092      52ACEB57 
 6092      01582C85 
 6093 135e D0FB4E59 		.ascii	"\320\373NYfq\366\326&\266%\2030u\373|\277\317\316\024"
 6093      6671F6D6 
 6093      26B62583 
 6093      3075FB7C 
 6093      BFCFCE14 
 6094 1372 F3536A54 		.ascii	"\363SjT\310?\012\254\242 \027\247\022V\250Jx\3512\251"
 6094      C83F0AAC 
 6094      A22017A7 
 6094      1256A84A 
 6094      78E932A9 
 6095 1386 CBD6411A 		.ascii	"\313\326A\032,Et\015\351\306\246\215\030\353\274\317"
 6095      2C45740D 
 6095      E9C6A68D 
 6095      18EBBCCF 
 6096 1396 1D814C37 		.ascii	"\035\201L7\002\352\270\037/\026\347S5\012)3`5 mLq\254"
 6096      02EAB81F 
 6096      2F16E753 
 6096      350A2933 
 6096      6035206D 
 6097 13ad B16E6CDD 		.ascii	"\261nl\335\227|E\264\322\037=i\213\204\237\012\314\325"
 6097      977C45B4 
 6097      D21F3D69 
 6097      8B849F0A 
 6097      CCD5
 6098 13bf E33B8AD4 		.ascii	"\343;\212\324\253L\023FU\204h\352O;^x\263\325b\304\317"
 6098      AB4C1346 
 6098      558468EA 
 6098      4F3B5E78 
 6098      B3D562C4 
 6099 13d4 51423710 		.ascii	"QB7\020\235Su\376\011/m\177\350\354\307ov\337\353~\250"
 6099      9D5375FE 
 6099      092F6D7F 
 6099      E8ECC76F 
 6099      76DFEB7E 
 6100 13e9 904BF9BD 		.ascii	"\220K\371\275\333\001\331\255I.b\306^8\247\213/\374"
 6100      DB01D9AD 
 6100      492E62C6 
ARM GAS  /tmp/ccydMd0r.s 			page 198


 6100      5E38A78B 
 6100      2FFC
 6101 13fb EF1841F7 		.ascii	"\357\030A\367\275\307\331y!\214TF\314\031j\226i\377"
 6101      BDC7D979 
 6101      218C5446 
 6101      CC196A96 
 6101      69FF
 6102 140d B1FFA92E 		.ascii	"\261\377\251.\236\212\315q\276\341\317]~\356m\356\313"
 6102      9E8ACD71 
 6102      BEE1CF5D 
 6102      7EEE6DEE 
 6102      CB
 6103 141e 91692E6A 		.ascii	"\221i.j\226-\037m\242\373YP\015\345&W\363oj\375;\010"
 6103      962D1F6D 
 6103      A2FB5950 
 6103      0DE52657 
 6103      F36F6AFD 
 6104 1434 B7E18A5E 		.ascii	"\267\341\212^\3627\247\345]\261\035\222$\250+\304\274"
 6104      F237A7E5 
 6104      5DB11D92 
 6104      24A82BC4 
 6104      BC
 6105 1445 AF4C718D 		.ascii	"\257Lq\215\306\213}S\225\325\325\031\264\002\343\241"
 6105      C68B7D53 
 6105      95D5D519 
 6105      B402E3A1 
 6106 1455 529487B8 		.ascii	"R\224\207\270%\036\247\307\365\302\026pq\177\327\311"
 6106      251EA7C7 
 6106      F5C21670 
 6106      717FD7C9 
 6107 1465 211AB702 		.ascii	"!\032\267\002u\277\335\016W5c\212\342\031\303\3018["
 6107      75BFDD0E 
 6107      5735638A 
 6107      E219C3C1 
 6107      385B
 6108 1477 DF877B59 		.ascii	"\337\207{Y\322\357aD\035Q\235\353$b\316\324\3531\343"
 6108      D2EF6144 
 6108      1D519DEB 
 6108      2462CED4 
 6108      EB31E3
 6109 148a E28AC6B8 		.ascii	"\342\212\306\270C]#\310\015\336X\177\322-\201\263/9"
 6109      435D23C8 
 6109      0DDE587F 
 6109      D22D81B3 
 6109      2F39
 6110 149c 3E58684C 		.ascii	">XhLG\264\"\246\277\321w\360\0245\224\222\025f\010\205"
 6110      47B422A6 
 6110      BFD177F0 
 6110      14359492 
 6110      15660885 
 6111 14b0 ADF8EAF2 		.ascii	"\255\370\352\362+\011P\364\207Y\016\237L\004\000\343"
 6111      2B0950F4 
 6111      87590E9F 
 6111      4C0400E3 
 6112 14c0 ECCBCA23 		.ascii	"\354\313\312#\375\262\237g\315\034j\\\315\236\027Uu"
 6112      FDB29F67 
 6112      CD1C6A5C 
ARM GAS  /tmp/ccydMd0r.s 			page 199


 6112      CD9E1755 
 6112      75
 6113 14d1 5AA0B86E 		.ascii	"Z\240\270n\026\237\210\233\314\230\314\034\350\275\000"
 6113      169F889B 
 6113      CC98CC1C 
 6113      E8BD00
 6114 14e0 5C279D0E 		.ascii	"\\'\235\016\251\032\243x\334\207x\313S\222N\007\264"
 6114      A91AA378 
 6114      DC8778CB 
 6114      53924E07 
 6114      B4
 6115 14f1 03584CD2 		.ascii	"\003XL\322\025\207G\315\305\010v\301*<%\013\236\265"
 6115      158747CD 
 6115      C50876C1 
 6115      2A3C250B 
 6115      9EB5
 6116 1503 FF8E1F16 		.ascii	"\377\216\037\026)\201\327\332\362t\333$\030*\335\371"
 6116      2981D7DA 
 6116      F274DB24 
 6116      182ADDF9 
 6117 1513 F7B64F78 		.ascii	"\367\266OxDW\231\232\251\016\316b\316xL?5\207\215\272"
 6117      4457999A 
 6117      A90ECE62 
 6117      CE784C3F 
 6117      35878DBA 
 6118 1527 5AAC0628 		.ascii	"Z\254\006(\377\266\335\356\225=\374\240\346\371Rm\260"
 6118      FFB6DDEE 
 6118      953DFCA0 
 6118      E6F9526D 
 6118      B0
 6119 1538 728B4EF8 		.ascii	"r\213N\370\262}Q\260\205\007A\313\270\303\022\"\277"
 6119      B27D51B0 
 6119      850741CB 
 6119      B8C31222 
 6119      BF
 6120 1549 B3EC200C 		.ascii	"\263\354 \014\364\376\324\361Z\354\250\034\245P\253"
 6120      F4FED4F1 
 6120      5AECA81C 
 6120      A550AB
 6121 1558 5FAFE02F 		.ascii	"_\257\340/6{|\313\315Z\017\310u\214\227\003\033|7\225"
 6121      367B7CCB 
 6121      CD5A0FC8 
 6121      758C9703 
 6121      1B7C3795 
 6122 156c 31CC8273 		.ascii	"1\314\202s$\256P\372n\317l\217Y\303S\0310\265\002{["
 6122      24AE50FA 
 6122      6ECF6C8F 
 6122      59C35319 
 6122      30B5027B 
 6123 1581 BDBE5AC5 		.ascii	"\275\276Z\305r\364\012h-\373\006\014\342\033f=?\015"
 6123      72F40A68 
 6123      2DFB060C 
 6123      E21B663D 
 6123      3F0D
 6124 1593 2FEFEF9F 		.ascii	"/\357\357\237\001X\301`\233\230D\013\202\006\255\274"
 6124      0158C160 
 6124      9B98440B 
ARM GAS  /tmp/ccydMd0r.s 			page 200


 6124      8206ADBC 
 6125 15a3 19F32AAA 		.ascii	"\031\363*\252\032$t\230\213\250\027\010\312\306\273"
 6125      1A247498 
 6125      8BA81708 
 6125      CAC6BB
 6126 15b2 1B24D9BC 		.ascii	"\033$\331\274\343o\346s\241\371\311\201_tQ6nW\004\213"
 6126      E36FE673 
 6126      A1F9C981 
 6126      5F745136 
 6126      6E57048B 
 6127 15c6 7D173AF3 		.ascii	"}\027:\363\263q\277\2469\336\210\346\227\315P\242\026"
 6127      B371BFA6 
 6127      39DE88E6 
 6127      97CD50A2 
 6127      16
 6128 15d7 07F16300 		.ascii	"\007\361c\000\254\273\276\214\243\255_\213\316\005k"
 6128      ACBBBE8C 
 6128      A3AD5F8B 
 6128      CE056B
 6129 15e6 AB3B3A50 		.ascii	"\253;:P\371\274\015t\014\205\253`\326\013\354=\2005"
 6129      F9BC0D74 
 6129      0C85AB60 
 6129      D60BEC3D 
 6129      8035
 6130 15f8 C2DF6AAB 		.ascii	"\302\337j\253;\026\264\247\301(%=\321\215]\367\364\016"
 6130      3B16B4A7 
 6130      C128253D 
 6130      D18D5DF7 
 6130      F40E
 6131 160a EAAA4B60 		.ascii	"\352\252K`\303Mn\271\037\032Qg\346\006z\323\362\356"
 6131      C34D6EB9 
 6131      1F1A5167 
 6131      E6067AD3 
 6131      F2EE
 6132 161c 1EBE7E1F 		.ascii	"\036\276~\037\277\237\207\0333\257\300\304q\211\233"
 6132      BF9F871B 
 6132      33AFC0C4 
 6132      71899B
 6133 162b 9D37A8D9 		.ascii	"\2357\250\331E\021k\017o\310s\247=q\0004@\034\035\334"
 6133      45116B0F 
 6133      6FC873A7 
 6133      3D710034 
 6133      401C1DDC 
 6134 163f 22BE0189 		.ascii	"\"\276\001\211\214w\237\346\265\344V4-\251,\303C\361"
 6134      8C779FE6 
 6134      B5E45634 
 6134      2DA92CC3 
 6134      43F1
 6135 1651 55E1F7F8 		.ascii	"U\341\367\370\351^-\017\030p\027\374\214\370\326\035"
 6135      E95E2D0F 
 6135      187017FC 
 6135      8CF8D61D 
 6136 1661 19E2FD12 		.ascii	"\031\342\375\022\005\030\242K^bm\237\334\2116J\317\365"
 6136      0518A24B 
 6136      5E626D9F 
 6136      DC89364A 
 6136      CFF5
ARM GAS  /tmp/ccydMd0r.s 			page 201


 6137 1673 3C318C7B 		.ascii	"<1\214{R\253\007\"a\240OT9\304Ak\010b\231fhE\352&\353"
 6137      52AB0722 
 6137      61A04F54 
 6137      39C4416B 
 6137      08629966 
 6138 168c 323A0674 		.ascii	"2:\006t[\231\260\037c\362\311\376W\315\"\343i\214\255"
 6138      5B99B01F 
 6138      63F2C9FE 
 6138      57CD22E3 
 6138      698CAD
 6139 169f 6A202566 		.ascii	"j %f\250\211\263\236FcKrk\254k0\311)\324\342\013q\353"
 6139      A889B39E 
 6139      46634B72 
 6139      6BAC6B30 
 6139      C929D4E2 
 6140 16b6 0BCEC8D6 		.ascii	"\013\316\310\326\224\277\002\331#\235\022<\323\201\177"
 6140      94BF02D9 
 6140      239D123C 
 6140      D3817F
 6141 16c5 479DB048 		.ascii	"G\235\260H\354\266s\220\232\016P$\363\013&i\275W\301"
 6141      ECB67390 
 6141      9A0E5024 
 6141      F30B2669 
 6141      BD57C1
 6142 16d8 AB583AC9 		.ascii	"\253X:\311\216\310\326&\000\217\001\264\337\"pL\370"
 6142      8EC8D626 
 6142      008F01B4 
 6142      DF22704C 
 6142      F8
 6143 16e9 037BFDE6 		.ascii	"\003{\375\346\264\225\011\370\270xR\372\0157\213V`\274"
 6143      B49509F8 
 6143      B87852FA 
 6143      0D378B56 
 6143      60BC
 6144 16fb 40CD2096 		.ascii	"@\315 \226\006\243=\336*\311$\207$\340\316\226\014q"
 6144      06A33DDE 
 6144      2AC92487 
 6144      24E0CE96 
 6144      0C71
 6145 170d 02EB1411 		.ascii	"\002\353\024\0218H\210Q\302\375\233\321g@\341\021*z"
 6145      38488851 
 6145      C2FD9BD1 
 6145      6740E111 
 6145      2A7A
 6146 171f 004F4608 		.ascii	"\000OF\010\2234\010\212\371V\177 >\031\2750\200\\\200"
 6146      9334088A 
 6146      F9567F20 
 6146      3E19BD30 
 6146      805C80
 6147 1732 96E837C5 		.ascii	"\226\3507\305\224\336\014=\217\357\204\024\206\320\332"
 6147      94DE0C3D 
 6147      8FEF8414 
 6147      86D0DA
 6148 1741 D5F3A865 		.ascii	"\325\363\250eyL\263j\255w\362\317\\\036\001d\274\200"
 6148      794CB36A 
 6148      AD77F2CF 
 6148      5C1E0164 
ARM GAS  /tmp/ccydMd0r.s 			page 202


 6148      BC80
 6149 1753 0F33A926 		.ascii	"\0173\251&\255\307\304\234\310\003\311\014\031\014k"
 6149      ADC7C49C 
 6149      C803C90C 
 6149      190C6B
 6150 1762 F0CEDC6D 		.ascii	"\360\316\334m\302l)8\301\3658\014\003\""
 6150      C26C2938 
 6150      C1F5380C 
 6150      0322
 6151 1770 FE61CD9B 		.ascii	"\376a\315\233z\211eb\344A\203\255\224\262\030\312W\026"
 6151      7A896562 
 6151      E44183AD 
 6151      94B218CA 
 6151      5716
 6152 1782 EFDDE52F 		.ascii	"\357\335\345/K1n\314\230;Xk\317y\375\213-\267\022b\006"
 6152      4B316ECC 
 6152      983B586B 
 6152      CF79FD8B 
 6152      2DB71262 
 6153 1797 5C6E3275 		.ascii	"\\n2u\035\206\331\235{\200\025\331+b{\242\357\270\375"
 6153      1D86D99D 
 6153      7B8015D9 
 6153      2B627BA2 
 6153      EFB8FD
 6154 17aa 76623703 		.ascii	"vb7\003Y(\247\320\020\343R:\301t\263\302L\277+\345\255"
 6154      5928A7D0 
 6154      10E3523A 
 6154      C174B3C2 
 6154      4CBF2BE5 
 6155 17bf 4DDECA79 		.ascii	"M\336\312yI\003\001$z2\341]\304\037\005\251\272\376"
 6155      49030124 
 6155      7A32E15D 
 6155      C41F05A9 
 6155      BAFE
 6156 17d1 572D8875 		.ascii	"W-\210u\020\353'5@!\236\377\300\353G\320\307.\234\234"
 6156      10EB2735 
 6156      40219EFF 
 6156      C0EB47D0 
 6156      C72E9C9C 
 6157 17e5 7CC4AC9F 		.ascii	"|\304\254\237i\231\247\027\257)J\224*D\272\302\313\325"
 6157      6999A717 
 6157      AF294A94 
 6157      2A44BAC2 
 6157      CBD5
 6158 17f7 93C1FD22 		.ascii	"\223\301\375\"\374j\355\370F\345\373C\236\027\236\011"
 6158      FC6AEDF8 
 6158      46E5FB43 
 6158      9E179E09 
 6159 1807 97FC44BC 		.ascii	"\227\374D\274\370\225\2718A\230\205+S\364\372\236FP"
 6159      F895B938 
 6159      4198852B 
 6159      53F4FA9E 
 6159      4650
 6160 1819 F0738C1D 		.ascii	"\360s\214\035U1\027LV\326\2243y\202X\204\376\036&\377"
 6160      5531174C 
 6160      56D69433 
 6160      79825884 
ARM GAS  /tmp/ccydMd0r.s 			page 203


 6160      FE1E26FF 
 6161 182d E3258AC4 		.ascii	"\343%\212\304\274\011\023\377\365\235V\245\337\362\323"
 6161      BC0913FF 
 6161      F59D56A5 
 6161      DFF2D3
 6162 183c D9A480FC 		.ascii	"\331\244\200\374\317\276\373(s\367\336\333\027\206\247"
 6162      CFBEFB28 
 6162      73F7DEDB 
 6162      1786A7
 6163 184b 4A1D4D30 		.ascii	"J\035M0It\367\004\022\320\304\261\361\035\326\221\273"
 6163      4974F704 
 6163      12D0C4B1 
 6163      F11DD691 
 6163      BB
 6164 185c 692197EF 		.ascii	"i!\227\357\023\301\377\014\337\2320\004\215\270\200"
 6164      13C1FF0C 
 6164      DF9A3004 
 6164      8DB880
 6165 186b E8A6009F 		.ascii	"\350\246\000\237\022\242\000\272w\305?\235\037\313\326"
 6165      12A200BA 
 6165      77C53F9D 
 6165      1FCBD6
 6166 187a 37DA7111 		.ascii	"7\332q\021n\012\355\275\244\311\330#\231u\201RW\355"
 6166      6E0AEDBD 
 6166      A4C9D823 
 6166      99758152 
 6166      57ED
 6167 188c 9EF716BF 		.ascii	"\236\367\026\277\261l\032J\250\314!l\342\302\216\252"
 6167      B16C1A4A 
 6167      A8CC216C 
 6167      E2C28EAA 
 6168 189c 43A47718 		.ascii	"C\244w\030&+H1\251\226mT&\352\224\315\243\002\015vV"
 6168      262B4831 
 6168      A9966D54 
 6168      26EA94CD 
 6168      A3020D76 
 6169 18b1 78B1A170 		.ascii	"x\261\241p`\350\363\373Z\300\007n\261\021\354\011\371"
 6169      60E8F3FB 
 6169      5AC0076E 
 6169      B111EC09 
 6169      F9
 6170 18c2 5CAA56F3 		.ascii	"\\\252V\363\277\011V\005g\245\317\367\355j\011\2021"
 6170      BF095605 
 6170      67A5CFF7 
 6170      ED6A0982 
 6170      31
 6171 18d3 E2FE6333 		.ascii	"\342\376c3\247!\320o\261\332\202\022\212*\234\240&-"
 6171      A721D06F 
 6171      B1DA8212 
 6171      8A2A9CA0 
 6171      262D
 6172 18e5 0759389E 		.ascii	"\007Y8\236t\215\255\002\034\354\350t\023O>\213\335\031"
 6172      748DAD02 
 6172      1CECE874 
 6172      134F3E8B 
 6172      DD19
 6173 18f7 780323B0 		.ascii	"x\003#\260\201\261\274<\006\001\007\012\372d*\365\316"
ARM GAS  /tmp/ccydMd0r.s 			page 204


 6173      81B1BC3C 
 6173      0601070A 
 6173      FA642AF5 
 6173      CE
 6174 1908 D6C4EF54 		.ascii	"\326\304\357T\272/R\344\245/Ex\336N(=\030\221Q\311\332"
 6174      BA2F52E4 
 6174      A52F4578 
 6174      DE4E283D 
 6174      189151C9 
 6175 191d 9884A5F9 		.ascii	"\230\204\245\371j\374E]\314\352_\202\341\373y\264;|"
 6175      6AFC455D 
 6175      CCEA5F82 
 6175      E1FB79B4 
 6175      3B7C
 6176 192f 24ADF6C2 		.ascii	"$\255\366\302#\0270B\2412w\331g\252\310\267\304Y\267"
 6176      23173042 
 6176      A13277D9 
 6176      67AAC8B7 
 6176      C459B7
 6177 1942 F40F33C0 		.ascii	"\364\0173\3009\313X\315[\321|r\205PM\230c\377\2639\224"
 6177      39CB58CD 
 6177      5BD17C72 
 6177      85504D98 
 6177      63FFB339 
 6178 1957 C21952F0 		.ascii	"\302\031R\360J-i\254C m\234c\370T\346\341\321\245\374"
 6178      4A2D69AC 
 6178      43206D9C 
 6178      63F854E6 
 6178      E1D1A5FC 
 6179 196b DA9E839C 		.ascii	"\332\236\203\234\312J\251]\005\253\312[\367\224 sY\350"
 6179      CA4AA95D 
 6179      05ABCA5B 
 6179      F7942073 
 6179      59E8
 6180 197d 14F71486 		.ascii	"\024\367\024\206\037\363\004a\263\214\322\365\370\363"
 6180      1FF30461 
 6180      B38CD2F5 
 6180      F8F3
 6181 198b BF83D3C4 		.ascii	"\277\203\323\304\372\024\351\366\327\244QrtH\304\241"
 6181      FA14E9F6 
 6181      D7A45172 
 6181      7448C4A1 
 6182 199b 5549A979 		.ascii	"UI\251y\034\032k\355\214Y\301\206'E\007gP_Of\177\302"
 6182      1C1A6BED 
 6182      8C59C186 
 6182      27450767 
 6182      505F4F66 
 6183 19b1 269C5770 		.ascii	"&\234Wp\031'\351\024\340\364\250>\325\011O\367\347P"
 6183      1927E914 
 6183      E0F4A83E 
 6183      D5094FF7 
 6183      E750
 6184 19c3 233D987E 		.ascii	"#=\230~[\327S\012\000n\262\027\341\200\256\213\276\320"
 6184      5BD7530A 
 6184      006EB217 
 6184      E180AE8B 
 6184      BED0
ARM GAS  /tmp/ccydMd0r.s 			page 205


 6185 19d5 ADD23CF0 		.ascii	"\255\322<\360P\347\333R\\\307\022\356\014\302Z\207\373"
 6185      50E7DB52 
 6185      5CC712EE 
 6185      0CC25A87 
 6185      FB
 6186 19e6 996E282C 		.ascii	"\231n(,\302\032\226\232o\355*\204\211$\203\306Br\310"
 6186      C21A969A 
 6186      6FED2A84 
 6186      892483C6 
 6186      4272C8
 6187 19f9 A27D6A29 		.ascii	"\242}j)U\017\365\035\276\2549\314/\367\211m\313fu\365"
 6187      550FF51D 
 6187      BEAC39CC 
 6187      2FF7896D 
 6187      CB6675F5 
 6188 1a0d E8C20708 		.ascii	"\350\302\007\010\001\237O7\011\011\375%e\366\354\260"
 6188      019F4F37 
 6188      0909FD25 
 6188      65F6ECB0 
 6189 1a1d 9B7AABB7 		.ascii	"\233z\253\267\341\017\213\243 %j^\356\351\321l\276\033"
 6189      E10F8BA3 
 6189      20256A5E 
 6189      EEE9D16C 
 6189      BE1B
 6190 1a2f C70D75A2 		.ascii	"\307\015u\242g\026\325p\251\015\267\326e6\216\0235\005"
 6190      6716D570 
 6190      A90DB7D6 
 6190      65368E13 
 6190      3505
 6191 1a41 9E2F0D82 		.ascii	"\236/\015\202\275\247\231$\356\307\030p\346l\337e'E"
 6191      BDA79924 
 6191      EEC71870 
 6191      E66CDF65 
 6191      2745
 6192 1a53 7ADDD0C8 		.ascii	"z\335\320\310\232!\256\3259\354\177\375*MBJ`\033W\265"
 6192      9A21AED5 
 6192      39EC7FFD 
 6192      2A4D424A 
 6192      601B57B5 
 6193 1a67 E04E6BD5 		.ascii	"\340Nk\325\217\266!v\306\210f\010\327\231\225\3642>"
 6193      8FB62176 
 6193      C6886608 
 6193      D79995F4 
 6193      323E
 6194 1a79 26A21542 		.ascii	"&\242\025B}\275\303\373\377\277<:\272h'\247e\276\037"
 6194      7DBDC3FB 
 6194      FFBF3C3A 
 6194      BA6827A7 
 6194      65BE1F
 6195 1a8c C274DD70 		.ascii	"\302t\335p\003pH\304\325\373H\340\343\235\321N\027L"
 6195      037048C4 
 6195      D5FB48E0 
 6195      E39DD14E 
 6195      174C
 6196 1a9e 4A4DAED3 		.ascii	"JM\256\323\332\247v\304\033\245\335\251\362\017\033"
 6196      DAA776C4 
 6196      1BA5DDA9 
ARM GAS  /tmp/ccydMd0r.s 			page 206


 6196      F20F1B
 6197 1aad 728A9EBB 		.ascii	"r\212\236\273\317\011\012S\223K\202S\004\210G\240\245"
 6197      CF090A53 
 6197      934B8253 
 6197      048847A0 
 6197      A5
 6198 1abe 1589E8E4 		.ascii	"\025\211\350\344,f\206\351\331<\366\227\230\274,\370"
 6198      2C6686E9 
 6198      D93CF697 
 6198      98BC2CF8 
 6199 1ace 4D4911A8 		.ascii	"MI\021\250\264`\350L+\377\013\004\272\256\007>N\221"
 6199      B460E84C 
 6199      2BFF0B04 
 6199      BAAE073E 
 6199      4E91
 6200 1ae0 FD1C1489 		.ascii	"\375\034\024\211\007\322\337\003\027#\315{\3230\347"
 6200      07D2DF03 
 6200      1723CD7B 
 6200      D330E7
 6201 1aef B3ED5B04 		.ascii	"\263\355[\004\265\223B\3275B\030\320:\356\262\335\366"
 6201      B59342D7 
 6201      354218D0 
 6201      3AEEB2DD 
 6201      F6
 6202 1b00 0D3252DF 		.ascii	"\0152R\337\3336-\202p\242\264\315\304\221\262\352\303"
 6202      DB362D82 
 6202      70A2B4CD 
 6202      C491B2EA 
 6202      C3
 6203 1b11 20AAD13F 		.ascii	" \252\321?CgQd\347\016\327\305=\334\206\335X\206\230"
 6203      43675164 
 6203      E70ED7C5 
 6203      3DDC86DD 
 6203      588698
 6204 1b24 D3C53EE5 		.ascii	"\323\305>\345\034\237\374\034\270C\331\211s\256\333"
 6204      1C9FFC1C 
 6204      B843D989 
 6204      73AEDB
 6205 1b33 755EAF70 		.ascii	"u^\257p\004\363\356-2\253\030\277\322\262ad\364\374"
 6205      04F3EE2D 
 6205      32AB18BF 
 6205      D2B26164 
 6205      F4FC
 6206 1b45 2ECCF727 		.ascii	".\314\367'0\215\355\315\225\373\316O#p\230\316\021\027"
 6206      308DEDCD 
 6206      95FBCE4F 
 6206      237098CE 
 6206      1117
 6207 1b57 CE419D4C 		.ascii	"\316A\235L\363\371\313\237\257\375x\314J\315\036\315"
 6207      F3F9CB9F 
 6207      AFFD78CC 
 6207      4ACD1ECD 
 6208 1b67 4AB2FCC9 		.ascii	"J\262\374\311\377\"\263\325\311\244\273\015L\235\307"
 6208      FF22B3D5 
 6208      C9A4BB0D 
 6208      4C9DC7
 6209 1b76 48B67426 		.ascii	"H\266t&\374_\345\371\011\337\336H\322]\200\337~^\241"
ARM GAS  /tmp/ccydMd0r.s 			page 207


 6209      FC5FE5F9 
 6209      09DFDE48 
 6209      D25D80DF 
 6209      7E5EA1
 6210 1b89 30CE66BA 		.ascii	"0\316f\272\375\260w\355\326\205\247\031\235#E\0367\261"
 6210      FDB077ED 
 6210      D685A719 
 6210      9D23451E 
 6210      37B1
 6211 1b9b E2530900 		.ascii	"\342S\011\000!\321a\361\215hL|\364Yu\307+\354\323\274"
 6211      21D161F1 
 6211      8D684C7C 
 6211      F45975C7 
 6211      2BECD3BC 
 6212 1baf 8E274949 		.ascii	"\216'II\213\304R<\3134\232x\272j!X@\322'\310\276\243"
 6212      8BC4523C 
 6212      CB349A78 
 6212      BA6A2158 
 6212      40D227C8 
 6213 1bc5 20DE4A8B 		.ascii	" \336J\213\002f\367\240\035u\271\375N\205\010|\226\316"
 6213      0266F7A0 
 6213      1D75B9FD 
 6213      4E85087C 
 6213      96CE
 6214 1bd7 61CB229D 		.ascii	"a\313\"\235\270\013\302\232\3535\270\224\340\302\230"
 6214      B80BC29A 
 6214      EB35B894 
 6214      E0C298
 6215 1be6 02F1B1D8 		.ascii	"\002\361\261\330xY\205\220l\301\0320B\3055o\023^\216"
 6215      78598590 
 6215      6CC11A30 
 6215      42C5356F 
 6215      135E8E
 6216 1bf9 31AE2CD8 		.ascii	"1\256,\330\013\311\277a\240\244\3748\230L\276\203\353"
 6216      0BC9BF61 
 6216      A0A4FC38 
 6216      984CBE83 
 6216      EB
 6217 1c0a CB5DBDE2 		.ascii	"\313]\275\342\252v\205\310\334\223\321\263\261W\332"
 6217      AA7685C8 
 6217      DC93D1B3 
 6217      B157DA
 6218 1c19 45AA05B9 		.ascii	"E\252\005\271\036\330\250r\034\377\272\270\001\211\250"
 6218      1ED8A872 
 6218      1CFFBAB8 
 6218      0189A8
 6219 1c28 5FACFCF7 		.ascii	"_\254\374\367\343\243N93^3]\244\2376\270\364\375\012"
 6219      E3A34E39 
 6219      335E335D 
 6219      A49F36B8 
 6219      F4FD0A
 6220 1c3b 0241FBD1 		.ascii	"\002A\373\321\363!\355\202v>N\303R-\011\327iIP\3062"
 6220      F321ED82 
 6220      763E4EC3 
 6220      522D09D7 
 6220      694950C6 
 6221 1c50 C9E81CC0 		.ascii	"\311\350\034\300\221\233_\016OP\366\320\260\246\344"
ARM GAS  /tmp/ccydMd0r.s 			page 208


 6221      919B5F0E 
 6221      4F50F6D0 
 6221      B0A6E4
 6222 1c5f 360D3AB7 		.ascii	"6\015:\267\330~c\032\202\355\306\257\177\302\206iT\347"
 6222      D87E631A 
 6222      82EDC6AF 
 6222      7FC28669 
 6222      54E7
 6223 1c71 0505F4D9 		.ascii	"\005\005\364\331\231E\271\275[6\364\374\205\367O\201"
 6223      9945B9BD 
 6223      5B36F4FC 
 6223      85F74F81 
 6224 1c81 2F3ABA7B 		.ascii	"/:\272{\313\253\235\307\267\336\340J\336K\255=\231\004"
 6224      CBAB9DC7 
 6224      B7DEE04A 
 6224      DE4BAD3D 
 6224      9904
 6225 1c93 83AF48F2 		.ascii	"\203\257H\362\035U1\000\326w\373<{'9T\355\032\263\322"
 6225      1D553100 
 6225      D677FB3C 
 6225      7B273954 
 6225      ED1AB3D2 
 6226 1ca7 EB8872A4 		.ascii	"\353\210r\2448$\"\327TAD\036\207\264\255\243Z\312\222"
 6226      382422D7 
 6226      5441441E 
 6226      87B4ADA3 
 6226      5ACA92
 6227 1cba 5E5F0002 		.ascii	"^_\000\002\230\032\232\035Y\220\"\030\231gW\011\362"
 6227      981A9A1D 
 6227      59902218 
 6227      99675709 
 6227      F2
 6228 1ccb 9690472C 		.ascii	"\226\220G,E\266\314\334\214\203@\216\315\334rQe~\234"
 6228      45B6CCDC 
 6228      8C83408E 
 6228      CDDC7251 
 6228      657E9C
 6229 1cde 4616CE07 		.ascii	"F\026\316\007]u\357\333\207\370%r\013\220\023*+g\270"
 6229      5D75EFDB 
 6229      87F82572 
 6229      0B90132A 
 6229      2B67B8
 6230 1cf1 827594BC 		.ascii	"\202u\224\274&\263;\345O\216\012\021+V\012\333H\326"
 6230      26B33BE5 
 6230      4F8E0A11 
 6230      2B560ADB 
 6230      48D6
 6231 1d03 18349D9E 		.ascii	"\0304\235\236\232Y\305R\345~:\252\350G\316f\035\301"
 6231      9A59C552 
 6231      E57E3AAA 
 6231      E847CE66 
 6231      1DC1
 6232 1d15 EC4BA32D 		.ascii	"\354K\243-\030\207\014\2379\236I\322\236e\237\222\212"
 6232      18870C9F 
 6232      399E49D2 
 6232      9E659F92 
 6232      8A
ARM GAS  /tmp/ccydMd0r.s 			page 209


 6233 1d26 98DEEC38 		.ascii	"\230\336\3548]\0147\027\350\206\266\235\207\030\200"
 6233      5D0C3717 
 6233      E886B69D 
 6233      871880
 6234 1d35 6DFDEB21 		.ascii	"m\375\353!\372H\347|E\206\322\217\206\237\256\337h\277"
 6234      FA48E77C 
 6234      4586D28F 
 6234      869FAEDF 
 6234      68BF
 6235 1d47 DF5260DF 		.ascii	"\337R`\337^\343\366\213\237\2270\242\331(1\267\021\342"
 6235      5EE3F68B 
 6235      9F9730A2 
 6235      D92831B7 
 6235      11E2
 6236 1d59 7905A907 		.ascii	"y\005\251\007.y7\234\026\340\347hU\2173\\H\260\233\342"
 6236      2E79379C 
 6236      16E0E768 
 6236      558F335C 
 6236      48B09BE2 
 6237 1d6d 23EFFC38 		.ascii	"#\357\3748\302K\224\026\202\354\261\366\230\364u\000"
 6237      C24B9416 
 6237      82ECB1F6 
 6237      98F47500 
 6238 1d7d 829CFEF0 		.ascii	"\202\234\376\360\205\347\263\264\377<,|\357.7\003Q\246"
 6238      85E7B3B4 
 6238      FF3C2C7C 
 6238      EF2E3703 
 6238      51A6
 6239 1d8f 36FFB474 		.ascii	"6\377\264t\002\003>&\265\272L\221\212\3126\310\372i"
 6239      02033E26 
 6239      B5BA4C91 
 6239      8ACA36C8 
 6239      FA69
 6240 1da1 2D0742E2 		.ascii	"-\007B\342\345\232\326\023sH\337\205J\225\275\241\030"
 6240      E59AD613 
 6240      7348DF85 
 6240      4A95BDA1 
 6240      18
 6241 1db2 857D76C5 		.ascii	"\205}v\3059\301:\033Z\350\311/;\232\032/\007\200\373"
 6241      39C13A1B 
 6241      5AE8C92F 
 6241      3B9A1A2F 
 6241      0780FB
 6242 1dc5 9BC708BA 		.ascii	"\233\307\010\272\271\356\036\241\302\3524u\342\261|"
 6242      B9EE1EA1 
 6242      C2EA3475 
 6242      E2B17C
 6243 1dd4 BF065C5F 		.ascii	"\277\006\\_\214\240pl9n\241\333W\015q\321\257\255\311"
 6243      8CA0706C 
 6243      396EA1DB 
 6243      570D71D1 
 6243      AFADC9
 6244 1de7 3B8E424F 		.ascii	";\216BO\363C\334\234/:J\377\032(2\231\031nFf\217\024"
 6244      F343DC9C 
 6244      2F3A4AFF 
 6244      1A283299 
 6244      196E4666 
ARM GAS  /tmp/ccydMd0r.s 			page 210


 6245 1dfd F4F85051 		.ascii	"\364\370PQ\000!nO\233J5\000EBO\005\336\242|O\361\250"
 6245      00216E4F 
 6245      9B4A3500 
 6245      45424F05 
 6245      DEA27C4F 
 6246 1e13 1C00BF55 		.ascii	"\034\000\277U\\\321O\200R\331\366^\247k\347~\332\301"
 6246      5CD14F80 
 6246      52D9F65E 
 6246      A76BE77E 
 6246      DAC1
 6247 1e25 1ED6CED3 		.ascii	"\036\326\316\323j\351\262\343\245\036\345\231p\202\336"
 6247      6AE9B2E3 
 6247      A51EE599 
 6247      7082DE
 6248 1e34 19A9FD77 		.ascii	"\031\251\375w\373\360e\27568\211*M\247*\313`\271Jj\030"
 6248      FBF065BD 
 6248      3638892A 
 6248      4DA72ACB 
 6248      60B94A6A 
 6249 1e49 6629F6E1 		.ascii	"f)\366\341\307\236\221\327Bw\271\347\372\3210\323\327"
 6249      C79E91D7 
 6249      4277B9E7 
 6249      FAD130D3 
 6249      D7
 6250 1e5a F3B6A254 		.ascii	"\363\266\242T)\025l\307\266\305\214\257\030'V^u\217"
 6250      29156CC7 
 6250      B6C58CAF 
 6250      1827565E 
 6250      758F
 6251 1e6c D3BC2FCD 		.ascii	"\323\274/\315^[\371\346\247c5\361g\305\232\364|\230"
 6251      5E5BF9E6 
 6251      A76335F1 
 6251      67C59AF4 
 6251      7C98
 6252 1e7e 87BB441A 		.ascii	"\207\273D\032\365X\005Jp\212\213\321\303\224\235\315"
 6252      F558054A 
 6252      708A8BD1 
 6252      C3949DCD 
 6253 1e8e FC884DF3 		.ascii	"\374\210M\363\024\275\020\3353\253\0242\250\006\214"
 6253      14BD10DD 
 6253      33AB1432 
 6253      A8068C
 6254 1e9d B10E5C1F 		.ascii	"\261\016\\\037\223K\245\362\233Y\323\036}6\262T\177"
 6254      934BA5F2 
 6254      9B59D31E 
 6254      7D36B254 
 6254      7F
 6255 1eae 96E1DC9A 		.ascii	"\226\341\334\232\233\223\212\263ZN5g\205\353\033\245"
 6255      9B938AB3 
 6255      5A4E3567 
 6255      85EB1BA5 
 6256 1ebe 384CF7A3 		.ascii	"8L\367\243\351\330\311\213<\217\021u\035;\213MQ\221"
 6256      E9D8C98B 
 6256      3C8F1175 
 6256      1D3B8B4D 
 6256      5191
 6257 1ed0 9058686F 		.ascii	"\220Xho#\345\002u1!3~\324\254\0027mp\347\026\256\316"
ARM GAS  /tmp/ccydMd0r.s 			page 211


 6257      23E50275 
 6257      3121337E 
 6257      D4AC0237 
 6257      6D70E716 
 6258 1ee6 B1009A07 		.ascii	"\261\000\232\007\275\214\024\027\027\303Sk\255\204\251"
 6258      BD8C1417 
 6258      17C3536B 
 6258      AD84A9
 6259 1ef5 BDB361C6 		.ascii	"\275\263a\306x\333\333\322\305\312\274\2433\241\221"
 6259      78DBDBD2 
 6259      C5CABCA3 
 6259      33A191
 6260 1f04 0C0FEE32 		.ascii	"\014\017\3562f\302\003\036\310\240\270\005;\365\236"
 6260      66C2031E 
 6260      C8A0B805 
 6260      3BF59E
 6261 1f13 0A9C05AE 		.ascii	"\012\234\005\256\261 NJKU\234\360A\231\366\255-\221"
 6261      B1204E4A 
 6261      4B559CF0 
 6261      4199F6AD 
 6261      2D91
 6262 1f25 5F68D682 		.ascii	"_h\326\202\215\230\225qw\035\250\002\026\257\035#\245"
 6262      8D989571 
 6262      771DA802 
 6262      16AF1D23 
 6262      A5
 6263 1f36 0E1B0E5E 		.ascii	"\016\033\016^%\344\237\23651"
 6263      25E49F9E 
 6263      3531
 6264 1f40 4F137BA4 		.ascii	"O\023{\244\177\004\3252\347\327\260m(T\007\226\272\217"
 6264      7F04D532 
 6264      E7D7B06D 
 6264      28540796 
 6264      BA8F
 6265 1f52 1CB659FE 		.ascii	"\034\266Y\376\005\020L\001o6k\235+y\244\374\225LsD!"
 6265      05104C01 
 6265      6F366B9D 
 6265      2B79A4FC 
 6265      954C7344 
 6266 1f67 CE628A50 		.ascii	"\316b\212P7\214\240\273\327\246{\373\201\236\303\222"
 6266      378CA0BB 
 6266      D7A67BFB 
 6266      819EC392 
 6267 1f77 2BDE83FF 		.ascii	"+\336\203\377\005\370\200\001\035\\\263e\000\257\353"
 6267      05F88001 
 6267      1D5CB365 
 6267      00AFEB
 6268 1f86 DCDB2AD1 		.ascii	"\334\333*\321i\321\276q\236\217\264\266i\310\022+<9"
 6268      69D1BE71 
 6268      9E8FB4B6 
 6268      69C8122B 
 6268      3C39
 6269 1f98 A3D11E51 		.ascii	"\243\321\036Q\022N\000\350\372d\322\021`\245\344q\015"
 6269      124E00E8 
 6269      FA64D211 
 6269      60A5E471 
 6269      0D
ARM GAS  /tmp/ccydMd0r.s 			page 212


 6270 1fa9 0BD70DD0 		.ascii	"\013\327\015\320/\021t\273\342\265\321\234\242\222q"
 6270      2F1174BB 
 6270      E2B5D19C 
 6270      A29271
 6271 1fb8 17F08B9A 		.ascii	"\027\360\213\2322f\250\231d\272\236\213m%\202B\252\006"
 6271      3266A899 
 6271      64BA9E8B 
 6271      6D258242 
 6271      AA06
 6272 1fca 16B7F0CB 		.ascii	"\026\267\360\313\240\335\254W1-\033\375=\254;m\213\310"
 6272      A0DDAC57 
 6272      312D1BFD 
 6272      3DAC3B6D 
 6272      8BC8
 6273 1fdc BDFFB54A 		.ascii	"\275\377\265J\341\264\255nl\312\356E\231z>\3746nQ(\241"
 6273      E1B4AD6E 
 6273      6CCAEE45 
 6273      997A3EFC 
 6273      366E5128 
 6274 1ff1 F7E9E83A 		.ascii	"\367\351\350:\2518(\233\335\002\3703B\017\373\372H\237"
 6274      A938289B 
 6274      DD02F833 
 6274      420FFBFA 
 6274      489F
 6275 2003 EFEFC987 		.ascii	"\357\357\311\207~\260\016\210\351\013\011\376\371\243"
 6275      7EB00E88 
 6275      E90B09FE 
 6275      F9A3
 6276 2011 79F30453 		.ascii	"y\363\004S\350=\336!\353\313\022\216L\033\012I\263h"
 6276      E83DDE21 
 6276      EBCB128E 
 6276      4C1B0A49 
 6276      B368
 6277 2023 2D7C47B8 		.ascii	"-|G\270\220\274\211/\301&\257_\010\264j\037#]\247\356"
 6277      90BC892F 
 6277      C126AF5F 
 6277      08B46A1F 
 6277      235DA7EE 
 6278 2037 8CD53122 		.ascii	"\214\3251\"\276\037 \255@K\000 _F\226bMt\271\300\204"
 6278      BE1F20AD 
 6278      404B0020 
 6278      5F469662 
 6278      4D74B9C0 
 6279 204c F0F71EF3 		.ascii	"\360\367\036\363\233\270\2071[\201\326\200\207\357\311"
 6279      9BB88731 
 6279      5B81D680 
 6279      87EFC9
 6280 205b 65E3D3A3 		.ascii	"e\343\323\243\245\304\327\344\034gA\275_\316\310\300"
 6280      A5C4D7E4 
 6280      1C6741BD 
 6280      5FCEC8C0 
 6281 206b A9D4474D 		.ascii	"\251\324GM\304w\2722a\232\221oB\232FT\272\352d\307\316"
 6281      C477BA32 
 6281      619A916F 
 6281      429A4654 
 6281      BAEA64C7 
 6282 2080 6C8D1C51 		.ascii	"l\215\034Q\025Fj\210?Y\246\000\255xl\344\224^/\366N"
ARM GAS  /tmp/ccydMd0r.s 			page 213


 6282      15466A88 
 6282      3F59A600 
 6282      AD786CE4 
 6282      945E2FF6 
 6283 2095 1AE865E2 		.ascii	"\032\350e\342\036+\312\235\337\246\354\340\212\304\017"
 6283      1E2BCA9D 
 6283      DFA6ECE0 
 6283      8AC40F
 6284 20a4 C7E7822A 		.ascii	"\307\347\202*Lqv\351\031\206\252\334!\356\345\364\024"
 6284      4C7176E9 
 6284      1986AADC 
 6284      21EEE5F4 
 6284      14
 6285 20b5 07A8C1B3 		.ascii	"\007\250\301\263K\035Y\312\354\211L\317Bv\245\036\273"
 6285      4B1D59CA 
 6285      EC894CCF 
 6285      4276A51E 
 6285      BB
 6286 20c6 7DE37083 		.ascii	"}\343p\203\017.;o\005j\222\367\205\301\000U\035$\370"
 6286      0F2E3B6F 
 6286      056A92F7 
 6286      85C10055 
 6286      1D24F8
 6287 20d9 E21B3634 		.ascii	"\342\03364\313\240\263m\371\037\255C\356\333\210\235"
 6287      CBA0B36D 
 6287      F91FAD43 
 6287      EEDB889D 
 6288 20e9 D366E32F 		.ascii	"\323f\343/.\212\220\276\352\253\240\235\011\367\232"
 6288      2E8A90BE 
 6288      EAABA09D 
 6288      09F79A
 6289 20f8 FD495051 		.ascii	"\375IPQ\255.\260\341^\233\331\201z\004\227\001\005\345"
 6289      AD2EB0E1 
 6289      5E9BD981 
 6289      7A049701 
 6289      05E5
 6290 210a 7A751DA5 		.ascii	"zu\035\245\230d\343\334\344\002p~\323\262\346\360\311"
 6290      9864E3DC 
 6290      E402707E 
 6290      D3B2E6F0 
 6290      C9
 6291 211b ECF7FAB9 		.ascii	"\354\367\372\271\344\021\261\007\014\264+\272\021r\241"
 6291      E411B107 
 6291      0CB42BBA 
 6291      1172A1
 6292 212a BED652E8 		.ascii	"\276\326R\350\001\2131\375{\354\334\024\226 \037\020"
 6292      018B31FD 
 6292      7BECDC14 
 6292      96201F10 
 6293 213a E82982A0 		.ascii	"\350)\202\240!C\377\0146v0\366\265\007\242\336\350m"
 6293      2143FF0C 
 6293      367630F6 
 6293      B507A2DE 
 6293      E86D
 6294 214c 205F37D0 		.ascii	" _7\320\247\342sq\276\001d\263\350\011`L\372}9 \232"
 6294      A7E27371 
 6294      BE0164B3 
ARM GAS  /tmp/ccydMd0r.s 			page 214


 6294      E809604C 
 6294      FA7D3920 
 6295 2161 7B8376CB 		.ascii	"{\203v\313\"\315C|\326\305\021\236\371#2A\214\373f\306"
 6295      22CD437C 
 6295      D6C5119E 
 6295      F9233241 
 6295      8CFB66C6 
 6296 2175 154D0682 		.ascii	"\025M\006\202\336}1\376\016\240\345\177J\312\356g\315"
 6296      DE7D31FE 
 6296      0EA0E57F 
 6296      4ACAEE67 
 6296      CD
 6297 2186 732F4B44 		.ascii	"s/KD\273\202\376|\230\264\342 /\012\256^\256\372\004"
 6297      BB82FE7C 
 6297      98B4E220 
 6297      2F0AAE5E 
 6297      AEFA04
 6298 2199 D4DC9215 		.ascii	"\324\334\222\025\327B\225M\225\235b\310\227\242a\242"
 6298      D742954D 
 6298      959D62C8 
 6298      97A261A2 
 6299 21a9 FF3A479F 		.ascii	"\377:G\237py)\3728V&w\362\032\225\375\301\010h\275\330"
 6299      707929FA 
 6299      38562677 
 6299      F21A95FD 
 6299      C10868BD 
 6300 21be 6EB29DEE 		.ascii	"n\262\235\356\331\204\331\242\304\364`\025\005\306\337"
 6300      D984D9A2 
 6300      C4F46015 
 6300      05C6DF
 6301 21cd D1532C32 		.ascii	"\321S,2i\226F90\003G\365\220\030\002\004\363Bg\226."
 6301      69964639 
 6301      300347F5 
 6301      90180204 
 6301      F3426796 
 6302 21e2 F766C6B5 		.ascii	"\367f\306\265\211\341\303x11o\263\022\006H\305\330:"
 6302      89E1C378 
 6302      31316FB3 
 6302      120648C5 
 6302      D83A
 6303 21f4 A6CFAE5D 		.ascii	"\246\317\256]u\210\362\375\221\234\273}s\017\244\012"
 6303      7588F2FD 
 6303      919CBB7D 
 6303      730FA40A 
 6304 2204 C109970F 		.ascii	"\301\011\227\017\264\274\274\322\021\233t$Z\"\342\006"
 6304      B4BCBCD2 
 6304      119B7424 
 6304      5A22E206 
 6305 2214 C6643A85 		.ascii	"\306d:\205\037G]\304\345R\210Bl\365F\352\351oH\303\\"
 6305      1F475DC4 
 6305      E5528842 
 6305      6CF546EA 
 6305      E96F48C3 
 6306 2229 4BFE2630 		.ascii	"K\376&0L\007-<}\341\306\205\250]\222\353\207\241\370"
 6306      4C072D3C 
 6306      7DE1C685 
 6306      A85D92EB 
ARM GAS  /tmp/ccydMd0r.s 			page 215


 6306      87A1F8
 6307 223c DD2A9E84 		.ascii	"\335*\236\204\177<\325\370\007\264\272-o\306:\266>W"
 6307      7F3CD5F8 
 6307      07B4BA2D 
 6307      6FC63AB6 
 6307      3E57
 6308 224e 9825B093 		.ascii	"\230%\260\223!\207~\247\213d\333\323\010\244\276\301"
 6308      21877EA7 
 6308      8B64DBD3 
 6308      08A4BEC1 
 6309 225e 2F1F5107 		.ascii	"/\037Q\007X\247\330p9s\304\320\371:\315(\251\221\240"
 6309      58A7D870 
 6309      3973C4D0 
 6309      F93ACD28 
 6309      A991A0
 6310 2271 241031D3 		.ascii	"$\0201\323\366_\314\305\261\346js\225O\336;\337\214"
 6310      F65FCCC5 
 6310      B1E66A73 
 6310      954FDE3B 
 6310      DF8C
 6311 2283 A1A7167C 		.ascii	"\241\247\026|\232\371\310,7~J\273'mFq\335e\036T\340"
 6311      9AF9C82C 
 6311      377E4ABB 
 6311      276D4671 
 6311      DD651E54 
 6312 2298 CB4FC1EB 		.ascii	"\313O\301\353\376\220A\314\212){\002]\325\363\303\303"
 6312      FE9041CC 
 6312      8A297B02 
 6312      5DD5F3C3 
 6312      C3
 6313 22a9 2088A99F 		.ascii	" \210\251\237\276\340k\276\245\037I\310\363\035\006"
 6313      BEE06BBE 
 6313      A51F49C8 
 6313      F31D06
 6314 22b8 531DD99C 		.ascii	"S\035\331\234\246\311K\272\027\001\261\006\364Z\031"
 6314      A6C94BBA 
 6314      1701B106 
 6314      F45A19
 6315 22c7 DDCFCAB4 		.ascii	"\335\317\312\264\273n\336N\276\266oH<\323\200eZ9\036"
 6315      BB6EDE4E 
 6315      BEB66F48 
 6315      3CD38065 
 6315      5A391E
 6316 22da 0BB58DD9 		.ascii	"\013\265\215\331\252\363\261\035\243/\216f{\316\272"
 6316      AAF3B11D 
 6316      A32F8E66 
 6316      7BCEBA
 6317 22e9 07425D47 		.ascii	"\007B]G\202\033\314\266@X\210hs:\365\015\177\270\036"
 6317      821BCCB6 
 6317      40588868 
 6317      733AF50D 
 6317      7FB81E
 6318 22fc 54CF62F7 		.ascii	"T\317b\367\206\224\243\030\256\2064W\360\310\3223O\007"
 6318      8694A318 
 6318      AE863457 
 6318      F0C8D233 
 6318      4F07
ARM GAS  /tmp/ccydMd0r.s 			page 216


 6319 230e 9C3766AA 		.ascii	"\2347f\252\245b:\362CBC&\301+o\3017y\331\220\247\231"
 6319      A5623AF2 
 6319      43424326 
 6319      C12B6FC1 
 6319      3779D990 
 6320 2324 C3F6C6F9 		.ascii	"\303\366\306\371\342\336\364!7\030\340\304\344iT\370"
 6320      E2DEF421 
 6320      3718E0C4 
 6320      E46954F8 
 6321 2334 5100E9A3 		.ascii	"Q\000\351\243#\276\331\344\023\367\233t\004\260jr\255"
 6321      23BED9E4 
 6321      13F79B74 
 6321      04B06A72 
 6321      AD
 6322 2345 1091BB44 		.ascii	"\020\221\273DD\005\253\317\270\353/\321w}\223\273\010"
 6322      4405ABCF 
 6322      B8EB2FD1 
 6322      777D93BB 
 6322      08
 6323 2356 52755C7F 		.ascii	"Ru\\\177}\335\225\356!\275\371y\347\013s\307!\005o\362"
 6323      7DDD95EE 
 6323      21BDF979 
 6323      E70B73C7 
 6323      21056FF2 
 6324 236a 2ABF7458 		.ascii	"*\277tX\351ur\255.\302\024\033\362\222\375\005\367\217"
 6324      E97572AD 
 6324      2EC2141B 
 6324      F292FD05 
 6324      F78F
 6325 237c 6395DF96 		.ascii	"c\225\337\226\"\366\301K\332\027\367+\304\022\015\222"
 6325      22F6C14B 
 6325      DA17F72B 
 6325      C4120D92 
 6326 238c 46516226 		.ascii	"FQb&\200\363,j\345%\300\340.c\277\322\360\327ll\347"
 6326      80F32C6A 
 6326      E525C0E0 
 6326      2E63BFD2 
 6326      F0D76C6C 
 6327 23a1 9A5A3689 		.ascii	"\232Z6\211\313\347\351\021\343\313YM\232\305\214g\010"
 6327      CBE7E911 
 6327      E3CB594D 
 6327      9AC58C67 
 6327      08
 6328 23b2 E1FC6F49 		.ascii	"\341\374oI\351\221\351\256\006\316\035\220[I\243\263"
 6328      E991E9AE 
 6328      06CE1D90 
 6328      5B49A3B3 
 6329 23c2 5F6063C0 		.ascii	"_`c\300\311\204\364\265_\014\024_\342Ae\227P\305\354"
 6329      C984F4B5 
 6329      5F0C145F 
 6329      E2416597 
 6329      50C5EC
 6330 23d5 F6DFDB65 		.ascii	"\366\337\333e: \200R\244\270\342=\304'\323\224\350\240"
 6330      3A208052 
 6330      A4B8E23D 
 6330      C427D394 
 6330      E8A0
ARM GAS  /tmp/ccydMd0r.s 			page 217


 6331 23e7 6CA5C544 		.ascii	"l\245\305D\263b\266Ujm\232\014\273\021\212q\204r\350"
 6331      B362B655 
 6331      6A6D9A0C 
 6331      BB118A71 
 6331      8472E8
 6332 23fa 5F0B7DDF 		.ascii	"_\013}\337\036\257\262?P\357@UT\372\254+\232Hx\016\015"
 6332      1EAFB23F 
 6332      50EF4055 
 6332      54FAAC2B 
 6332      9A48780E 
 6333 240f 3E85CB6C 		.ascii	">\205\313lV\\\327\305\316\205\327i%\350H\230\276\245"
 6333      565CD7C5 
 6333      CE85D769 
 6333      25E84898 
 6333      BEA5
 6334 2421 E1543940 		.ascii	"\341T9@\336e\225\030\361\346\267^\325/\323 \223\251"
 6334      DE659518 
 6334      F1E6B75E 
 6334      D52FD320 
 6334      93A9
 6335 2433 09B6DE75 		.ascii	"\011\266\336u/\352G\317>s\016\321\023\337\253\314\277"
 6335      2FEA47CF 
 6335      3E730ED1 
 6335      13DFABCC 
 6335      BF
 6336 2444 F275A7BB 		.ascii	"\362u\247\273\265\221\341/\\`0\0005\201,PA:\310\346"
 6336      B591E12F 
 6336      5C603000 
 6336      35812C50 
 6336      413AC8E6 
 6337 2458 60D93608 		.ascii	"`\3316\010\214c\375+\301p#A\\\356\326D.c\020yk\365\010"
 6337      8C63FD2B 
 6337      C1702341 
 6337      5CEED644 
 6337      2E631079 
 6338 246f C28803D1 		.ascii	"\302\210\003\32124\0307\361\022Y\315\367toH\372c-*\367"
 6338      32341837 
 6338      F11259CD 
 6338      F7746F48 
 6338      FA632D2A 
 6339 2484 4A5C1225 		.ascii	"J\\\022%\017\313\372\341\025\323\326\235L\367{F\344"
 6339      0FCBFAE1 
 6339      15D3D69D 
 6339      4CF77B46 
 6339      E4
 6340 2495 31FB6058 		.ascii	"1\373`XZe\226\270\024\214\226\302\366o}\007\222A\321"
 6340      5A6596B8 
 6340      148C96C2 
 6340      F66F7D07 
 6340      9241D1
 6341 24a8 7DAA035D 		.ascii	"}\252\003]\235\271\036\333\031\251|\315\006\014i\301"
 6341      9DB91EDB 
 6341      19A97CCD 
 6341      060C69C1 
 6342 24b8 8A7B48BD 		.ascii	"\212{H\275Kq\2529v\006\267D7\026:\244\332OTo\206\235"
 6342      4B71AA39 
 6342      7606B744 
ARM GAS  /tmp/ccydMd0r.s 			page 218


 6342      37163AA4 
 6342      DA4F546F 
 6343 24ce ED0DF6EA 		.ascii	"\355\015\366\352-P\321\310\031\257\370\375\004x\250"
 6343      2D50D1C8 
 6343      19AFF8FD 
 6343      0478A8
 6344 24dd 57739FB5 		.ascii	"Ws\237\265K'\001\241\245L\347\260\263ib\251\270\304"
 6344      4B2701A1 
 6344      A54CE7B0 
 6344      B36962A9 
 6344      B8C4
 6345 24ef EA63CC8B 		.ascii	"\352c\314\213\240\373\266\014\340\206\236\203\320j\267"
 6345      A0FBB60C 
 6345      E0869E83 
 6345      D06AB7
 6346 24fe 303A1F33 		.ascii	"0:\03733\367\334J;=-\277\341\014v>p\212\3154\021F\376"
 6346      33F7DC4A 
 6346      3B3D2DBF 
 6346      E10C763E 
 6346      708ACD34 
 6347 2515 D27AA18A 		.ascii	"\322z\241\212=+]\316#%\027\374\222\236\374\311GD\221"
 6347      3D2B5DCE 
 6347      232517FC 
 6347      929EFCC9 
 6347      474491
 6348 2528 BB76A4B6 		.ascii	"\273v\244\266`\204\201\231\340\231\2006W%\341\"\254"
 6348      60848199 
 6348      E0998036 
 6348      5725E122 
 6348      AC
 6349 2539 C7C87B15 		.ascii	"\307\310{\025q\305\336\272\313\015j\203\036\272B/\010"
 6349      71C5DEBA 
 6349      CB0D6A83 
 6349      1EBA422F 
 6349      08
 6350 254a C52B0E4D 		.ascii	"\305+\016M$p\033\331\324\277\316\204\273\272\236\347"
 6350      24701BD9 
 6350      D4BFCE84 
 6350      BBBA9EE7 
 6351 255a CCA58D8C 		.ascii	"\314\245\215\214sg\334\031\223'\256\017(!\321\30582"
 6351      7367DC19 
 6351      9327AE0F 
 6351      2821D1C5 
 6351      3832
 6352 256c 7813F28B 		.ascii	"x\023\362\213W\311\015\230N\237\224\362\305Ho_\333\322"
 6352      57C90D98 
 6352      4E9F94F2 
 6352      C5486F5F 
 6352      DBD2
 6353 257e B049C504 		.ascii	"\260I\305\004\233\263\233V\035\256a\210-\362Wd8\254"
 6353      9BB39B56 
 6353      1DAE6188 
 6353      2DF25764 
 6353      38AC
 6354 2590 BF0F1512 		.ascii	"\277\017\025\022\030\320$x\265\274\024\251\226>\015"
 6354      18D02478 
 6354      B5BC14A9 
ARM GAS  /tmp/ccydMd0r.s 			page 219


 6354      963E0D
 6355 259f C2A9BBD6 		.ascii	"\302\251\273\326?\352}\022\317\255\301\024\002\0145"
 6355      3FEA7D12 
 6355      CFADC114 
 6355      020C35
 6356 25ae 8D529184 		.ascii	"\215R\221\204\313\212\333g\314\221\257\257\377\316\266"
 6356      CB8ADB67 
 6356      CC91AFAF 
 6356      FFCEB6
 6357 25bd 9A491918 		.ascii	"\232I\031\030\222\247\301\263\232D_.f\222\177<7\334"
 6357      92A7C1B3 
 6357      9A445F2E 
 6357      66927F3C 
 6357      37DC
 6358 25cf AC441787 		.ascii	"\254D\027\207\013\221\234\030/\300\335\363\215\030\246"
 6358      0B919C18 
 6358      2FC0DDF3 
 6358      8D18A6
 6359 25de C3AEF3C5 		.ascii	"\303\256\363\305!\217<\005_Ln\225C\210\000\235\177\335"
 6359      218F3C05 
 6359      5F4C6E95 
 6359      4388009D 
 6359      7FDD
 6360 25f0 D47B6683 		.ascii	"\324{f\203\240{\266z\210\000%\252\355\015\021\302\232"
 6360      A07BB67A 
 6360      880025AA 
 6360      ED0D11C2 
 6360      9A
 6361 2601 F7F1E320 		.ascii	"\367\361\343 -/\365\021J\226\321\261\353\330\236\266"
 6361      2D2FF511 
 6361      4A96D1B1 
 6361      EBD89EB6 
 6362 2611 494F8407 		.ascii	"IO\204\007\327\012X\014;\306\207\\o\346\264\330\270"
 6362      D70A580C 
 6362      3BC6875C 
 6362      6FE6B4D8 
 6362      B8
 6363 2622 73D60B0B 		.ascii	"s\326\013\013\241&\300\253R\210\000\303\343\011\314"
 6363      A126C0AB 
 6363      528800C3 
 6363      E309CC
 6364 2631 8F7FC543 		.ascii	"\217\177\305C\207\236\001^\302\363\212f\264\354}x\026"
 6364      879E015E 
 6364      C2F38A66 
 6364      B4EC7D78 
 6364      16
 6365 2642 20AA1722 		.ascii	" \252\027\"\005&`\012\256\365\364{\252\376\301\267\003"
 6365      0526600A 
 6365      AEF5F47B 
 6365      AAFEC1B7 
 6365      03
 6366 2653 39404395 		.ascii	"9@C\225\233\330\341\314\264c\317h}g\310\020\212Y\266"
 6366      9BD8E1CC 
 6366      B463CF68 
 6366      7D67C810 
 6366      8A59B6
 6367 2666 1E296E47 		.ascii	"\036)nGx\256\327\225\314\"j\3006\316\012+\341#\012("
ARM GAS  /tmp/ccydMd0r.s 			page 220


 6367      78AED795 
 6367      CC226AC0 
 6367      36CE0A2B 
 6367      E1230A28 
 6368 267a 161CEDD2 		.ascii	"\026\034\355\322+}\242\2125\324\322]\210\377\306q6\027"
 6368      2B7DA28A 
 6368      35D4D25D 
 6368      88FFC671 
 6368      3617
 6369 268c 558A213C 		.ascii	"U\212!<\227\320\235Q\207!J\033,\273\236\354\315e\316"
 6369      97D09D51 
 6369      87214A1B 
 6369      2CBB9EEC 
 6369      CD65CE
 6370 269f 003FB062 		.ascii	"\000?\260biw\307\330S1\335`\271\"\214\213\031\231\003"
 6370      6977C7D8 
 6370      5331DD60 
 6370      B9228C8B 
 6370      199903
 6371 26b2 C4D28611 		.ascii	"\304\322\206\021\301\377f\207\272\332=@8\256\235km\270"
 6371      C1FF6687 
 6371      BADA3D40 
 6371      38AE9D6B 
 6371      6DB8
 6372 26c4 66D04654 		.ascii	"f\320FT\003\007\341tC\032s\216\271c\217\360[\262~\377"
 6372      0307E174 
 6372      431A738E 
 6372      B9638FF0 
 6372      5BB27EFF 
 6373 26d8 02C821D3 		.ascii	"\002\310!\323J\211`\313f\224!\235\266\016%\234\222\022"
 6373      4A8960CB 
 6373      6694219D 
 6373      B60E259C 
 6373      9212
 6374 26ea A025D7C9 		.ascii	"\240%\327\311\234n\035!\201b\253*\321\013\\_\013\221"
 6374      9C6E1D21 
 6374      8162AB2A 
 6374      D10B5C5F 
 6374      0B91
 6375 26fc D875AB70 		.ascii	"\330u\253pVBxF\0179\347h&r\252\203xL\215\366"
 6375      56427846 
 6375      0F39E768 
 6375      2672AA83 
 6375      784C8DF6 
 6376 2710 4B3C0EB4 		.ascii	"K<\016\264f\240\313\366\331\214\225\030\355\000m\345"
 6376      66A0CBF6 
 6376      D98C9518 
 6376      ED006DE5 
 6377 2720 D31A0640 		.ascii	"\323\032\006@s\235\363\002\336\363\303\362\312\206\220"
 6377      739DF302 
 6377      DEF3C3F2 
 6377      CA8690
 6378 272f A4CD51D3 		.ascii	"\244\315Q\323Ym\0040\312\267=2\240]\302\310\367\201"
 6378      596D0430 
 6378      CAB73D32 
 6378      A05DC2C8 
 6378      F781
ARM GAS  /tmp/ccydMd0r.s 			page 221


 6379 2741 AD1F552C 		.ascii	"\255\037U,\377\305\011\030\272\327\221\020\275M\304"
 6379      FFC50918 
 6379      BAD79110 
 6379      BD4DC4
 6380 2750 DBC1A975 		.ascii	"\333\301\251u\000\334\341j+\263yH\245\377\273\265\320"
 6380      00DCE16A 
 6380      2BB37948 
 6380      A5FFBBB5 
 6380      D0
 6381 2761 DB0A129D 		.ascii	"\333\012\022\235 *\352\305\323\004\307\320\275f1\364"
 6381      202AEAC5 
 6381      D304C7D0 
 6381      BD6631F4 
 6382 2771 8AB412E2 		.ascii	"\212\264\022\3420\222\365\010lT\307v\370\375\263\370"
 6382      3092F508 
 6382      6C54C776 
 6382      F8FDB3F8 
 6383 2781 1B6D5E45 		.ascii	"\033m^EU\014n\240N\325(D\306z\203\314,aU\360~|\374\371"
 6383      550C6EA0 
 6383      4ED52844 
 6383      C67A83CC 
 6383      2C6155F0 
 6384 2799 3AB4FEEA 		.ascii	":\264\376\352\017\365LEg\301ykxS-\324v\0329 \207\030"
 6384      0FF54C45 
 6384      67C1796B 
 6384      78532DD4 
 6384      761A3920 
 6385 27af CD754FFC 		.ascii	"\315uO\374\217\271\000\236\277\204'GP1\360\350\330\024"
 6385      8FB9009E 
 6385      BF842747 
 6385      5031F0E8 
 6385      D814
 6386 27c1 7D275A30 		.ascii	"}'Z0E\372=\353\272\355\3501\353\220\232WePYk\357$_T"
 6386      45FA3DEB 
 6386      BAEDE831 
 6386      EB909A57 
 6386      6550596B 
 6387 27d9 98F310E9 		.ascii	"\230\363\020\3519\217\013\310\327\006\213F\222\304\232"
 6387      398F0BC8 
 6387      D7068B46 
 6387      92C49A
 6388 27e8 E1DE2355 		.ascii	"\341\336#UM\300\311J%\356M\016\210\274\323\203\217\020"
 6388      4DC0C94A 
 6388      25EE4D0E 
 6388      88BCD383 
 6388      8F10
 6389 27fa F7495DD5 		.ascii	"\367I]\325/\236\245CTJ\205\236vl\222:\205\265\311\025"
 6389      2F9EA543 
 6389      544A859E 
 6389      766C923A 
 6389      85B5C915 
 6390 280e F73C1611 		.ascii	"\367<\026\021\312\005\207\307\266\257\271\007\006P$"
 6390      CA0587C7 
 6390      B6AFB907 
 6390      065024
 6391 281d 695A8670 		.ascii	"iZ\206p\241\245Z\221\374u\201\374\277\315\250V\"{3\323"
 6391      A1A55A91 
ARM GAS  /tmp/ccydMd0r.s 			page 222


 6391      FC7581FC 
 6391      BFCDA856 
 6391      227B33D3 
 6392 2831 B62E72CC 		.ascii	"\266.r\314\025\037\226\233\334<\006g%\"\341T\214\233"
 6392      151F969B 
 6392      DC3C0667 
 6392      2522E154 
 6392      8C9B
 6393 2843 048BFD36 		.ascii	"\004\213\3756\307\2612(!\324\377\301K\267\210U\323L"
 6393      C7B13228 
 6393      21D4FFC1 
 6393      4BB78855 
 6393      D34C
 6394 2855 0F62EA0B 		.ascii	"\017b\352\013\025\374\020\346\027\314d\345~]\023\012"
 6394      15FC10E6 
 6394      17CC64E5 
 6394      7E5D130A 
 6395 2865 D2B55EE3 		.ascii	"\322\265^\343\034\254\333\035\330\275H,\016\007\351"
 6395      1CACDB1D 
 6395      D8BD482C 
 6395      0E07E9
 6396 2874 5A4E6E61 		.ascii	"ZNna\002\234G9\355 \310\372\024\272ug_ix \345f&\342"
 6396      029C4739 
 6396      ED20C8FA 
 6396      14BA7567 
 6396      5F697820 
 6397 288c C37E0EEF 		.ascii	"\303~\016\357\235\231\305\206\316\337 \300\243\3270"
 6397      9D99C586 
 6397      CEDF20C0 
 6397      A3D730
 6398 289b 9FCDF8F2 		.ascii	"\237\315\370\362\206t\320\225\003\226W\2655a7m\206Y"
 6398      8674D095 
 6398      039657B5 
 6398      3561376D 
 6398      8659
 6399 28ad 803C021E 		.ascii	"\200<\002\036+\343\037'\233\274N=\240^\036\227Y\026"
 6399      2BE31F27 
 6399      9BBC4E3D 
 6399      A05E1E97 
 6399      5916
 6400 28bf E4D0BB49 		.ascii	"\344\320\273I\331\335\303$\305\324\324~\226\210Wm\030"
 6400      D9DDC324 
 6400      C5D4D47E 
 6400      9688576D 
 6400      18
 6401 28d0 B02D7A75 		.ascii	"\260-zuIE)3\026\005i\313\000\3416\317\354\307)zo\256"
 6401      49452933 
 6401      160569CB 
 6401      00E136CF 
 6401      ECC7297A 
 6402 28e6 6BB377D2 		.ascii	"k\263w\322w\010Z\341\264 \326\036DS\245\023\207\035"
 6402      77085AE1 
 6402      B420D61E 
 6402      4453A513 
 6402      871D
 6403 28f8 8DE4943E 		.ascii	"\215\344\224>:!\240\225EE\335\333\261\271\330\177Li"
 6403      3A21A095 
ARM GAS  /tmp/ccydMd0r.s 			page 223


 6403      4545DDDB 
 6403      B1B9D87F 
 6403      4C69
 6404 290a C2EF3525 		.ascii	"\302\3575%\206~\263\257\016O\3015\331M\207\250es}5]"
 6404      867EB3AF 
 6404      0E4FC135 
 6404      D94D87A8 
 6404      65737D35 
 6405 291f 5C6B0661 		.ascii	"\\k\006a\334\022\215\375\263@9\211\220\345\367\216."
 6405      DC128DFD 
 6405      B3403989 
 6405      90E5F78E 
 6405      2E
 6406 2930 A372EEB4 		.ascii	"\243r\356\264\327\342\212\243\362\363sBX\243\370t!^"
 6406      D7E28AA3 
 6406      F2F37342 
 6406      58A3F874 
 6406      215E
 6407 2942 0C8AE931 		.ascii	"\014\212\3511H|wM\311-\275\251N_\\\003\313G\371\241"
 6407      487C774D 
 6407      C92DBDA9 
 6407      4E5F5C03 
 6407      CB47F9A1 
 6408 2956 397EF31B 		.ascii	"9~\363\033\313\223\246\255\210\305\033\256\373\322\033"
 6408      CB93A6AD 
 6408      88C51BAE 
 6408      FBD21B
 6409 2965 16399BB1 		.ascii	"\0269\233\261\214\350[$\337Kx\273q\324\346\341\214|"
 6409      8CE85B24 
 6409      DF4B78BB 
 6409      71D4E6E1 
 6409      8C7C
 6410 2977 7DEFF035 		.ascii	"}\357\3605\340O\340O{-\214\337c\265\240\376\311\031"
 6410      E04FE04F 
 6410      7B2D8CDF 
 6410      63B5A0FE 
 6410      C919
 6411 2989 41FBC54C 		.ascii	"A\373\305L\3130\376\034\332\356?\254P\371\301@\310\221"
 6411      CB30FE1C 
 6411      DAEE3FAC 
 6411      50F9C140 
 6411      C891
 6412 299b DD2AED08 		.ascii	"\335*\355\010\012\240\337\\<_\375\265\352b\320\027\246"
 6412      0AA0DF5C 
 6412      3C5FFDB5 
 6412      EA62D017 
 6412      A6
 6413 29ac 07C92FF0 		.ascii	"\007\311/\360\021*T}\327nv\214\315\013\013\001\334\004"
 6413      112A547D 
 6413      D76E768C 
 6413      CD0B0B01 
 6413      DC04
 6414 29be AC7038DF 		.ascii	"\254p8\337\335\002\015l7.\202\251\212\236\006~<IB\324"
 6414      DD020D6C 
 6414      372E82A9 
 6414      8A9E067E 
 6414      3C4942D4 
ARM GAS  /tmp/ccydMd0r.s 			page 224


 6415 29d2 1B2351C8 		.ascii	"\033#Q\310\210z]so\220\014\327_-w\260\240\375g\353\204"
 6415      887A5D73 
 6415      6F900CD7 
 6415      5F2D77B0 
 6415      A0FD67EB 
 6416 29e7 BB9BB7AC 		.ascii	"\273\233\267\254\322\000\332\254k\010\030\316\325\222"
 6416      D200DAAC 
 6416      6B0818CE 
 6416      D592
 6417 29f5 B0EC9617 		.ascii	"\260\354\226\027\022\023!\253\364pX+\003\252\357\011"
 6417      121321AB 
 6417      F470582B 
 6417      03AAEF09 
 6418 2a05 B61F8505 		.ascii	"\266\037\205\005Uv\350\254\220\033\206\2726\213\263"
 6418      5576E8AC 
 6418      901B86BA 
 6418      368BB3
 6419 2a14 28B411AE 		.ascii	"(\264\021\256\226\236\245k\240\350x\026m\375s\017l\303"
 6419      969EA56B 
 6419      A0E87816 
 6419      6DFD730F 
 6419      6CC3
 6420 2a26 B4F22C50 		.ascii	"\264\362,P\035\334y\203@\317\020\234\247g\015w,[w\365"
 6420      1DDC7983 
 6420      40CF109C 
 6420      A7670D77 
 6420      2C5B77F5 
 6421 2a3a C95AE842 		.ascii	"\311Z\350B\312\367\323\221\037\312[\355(|\204s\271u"
 6421      CAF7D391 
 6421      1FCA5BED 
 6421      287C8473 
 6421      B975
 6422 2a4c 7BF47881 		.ascii	"{\364x\201\016c\261\017\251d\023\272 \336\226\216\032"
 6422      0E63B10F 
 6422      A96413BA 
 6422      20DE968E 
 6422      1A
 6423 2a5d 934F560D 		.ascii	"\223OV\015\036u\026\307\016b^\221=B\327\341d6\252\024"
 6423      1E7516C7 
 6423      0E625E91 
 6423      3D42D7E1 
 6423      6436AA14 
 6424 2a71 200E6C2D 		.ascii	" \016l-\374\342\200\312\0011.\363l\200\366$rm\212\256"
 6424      FCE280CA 
 6424      01312EF3 
 6424      6C80F624 
 6424      726D8AAE 
 6425 2a85 3456E878 		.ascii	"4V\350x\250rt\021T\264\004.\303\307\240%hF~\202\370"
 6425      A8727411 
 6425      54B4042E 
 6425      C3C7A025 
 6425      68467E82 
 6426 2a9a 8330F394 		.ascii	"\2030\363\224G\257\313\330]\275e\022n\367\375\214V\237"
 6426      47AFCBD8 
 6426      5DBD6512 
 6426      6EF7FD8C 
 6426      569F
ARM GAS  /tmp/ccydMd0r.s 			page 225


 6427 2aac D65B5C9F 		.ascii	"\326[\\\237b\355\346\307!\367\232\003\310\2262\246\253"
 6427      62EDE6C7 
 6427      21F79A03 
 6427      C89632A6 
 6427      AB
 6428 2abd B8D4B674 		.ascii	"\270\324\266t\341\250\306\241K\373@m\032i'1\232\300"
 6428      E1A8C6A1 
 6428      4BFB406D 
 6428      1A692731 
 6428      9AC0
 6429 2acf D638030A 		.ascii	"\3268\003\012\263^\217\012\003V+7 \235\011\274EI\241"
 6429      B35E8F0A 
 6429      03562B37 
 6429      209D09BC 
 6429      4549A1
 6430 2ae2 79F45FC1 		.ascii	"y\364_\301KF\363\354w6)\221}L\026VX$\330X\310\321)r"
 6430      4B46F3EC 
 6430      77362991 
 6430      7D4C1656 
 6430      5824D858 
 6431 2afa 21666C2F 		.ascii	"!fl/,\303\261\020\026\254\311[3|?9\365\372$\213\373"
 6431      2CC3B110 
 6431      16ACC95B 
 6431      337C3F39 
 6431      F5FA248B 
 6432 2b0f 3D08F9A0 		.ascii	"=\010\371\240\214C\333\227\217\204\252#\376\221\001"
 6432      8C43DB97 
 6432      8F84AA23 
 6432      FE9101
 6433 2b1e BE7EF990 		.ascii	"\276~\371\220x\011\2216\002\267\247\2055\0357\353\273"
 6433      78099136 
 6433      02B7A785 
 6433      351D37EB 
 6433      BB
 6434 2b2f 388440D4 		.ascii	"8\204@\324\022\023\300\362\012\2353\354k\261\257\243"
 6434      1213C0F2 
 6434      0A9D33EC 
 6434      6BB1AFA3 
 6435 2b3f 29876F77 		.ascii	")\207ow\305ha\224\374\002c\273\344X\274\002\351\223"
 6435      C5686194 
 6435      FC0263BB 
 6435      E458BC02 
 6435      E993
 6436 2b51 8A3A9829 		.ascii	"\212:\230)\261L\340\300%\206%E\265\345\001\272V\203"
 6436      B14CE0C0 
 6436      25862545 
 6436      B5E501BA 
 6436      5683
 6437 2b63 0BF2C83A 		.ascii	"\013\362\310:s3\264J\035\353\200\262\252\230\356p\247"
 6437      7333B44A 
 6437      1DEB80B2 
 6437      AA98EE70 
 6437      A7
 6438 2b74 20755112 		.ascii	" uQ\022\021\357C\023/\203\022\000i\316\342~YL\023\265"
 6438      11EF4313 
 6438      2F831200 
 6438      69CEE27E 
ARM GAS  /tmp/ccydMd0r.s 			page 226


 6438      594C13B5 
 6439 2b88 4D663073 		.ascii	"Mf0s\207\257\250e\234\322\017\261|\337\364\356\004\271"
 6439      87AFA865 
 6439      9CD20FB1 
 6439      7CDFF4EE 
 6439      04B9
 6440 2b9a 477303C0 		.ascii	"Gs\003\3001s4b\317\345ei\037d\344\245/\003\037f\030"
 6440      31733462 
 6440      CFE56569 
 6440      1F64E4A5 
 6440      2F031F66 
 6441 2baf CDB7F3DF 		.ascii	"\315\267\363\337\022\325\367[\250gf[P\305\020:x\206"
 6441      12D5F75B 
 6441      A867665B 
 6441      50C5103A 
 6441      7886
 6442 2bc1 5130915C 		.ascii	"Q0\221\\3\237b\265\010f\357E\037\373S8\015\3371G&m\036"
 6442      339F62B5 
 6442      0866EF45 
 6442      1FFB5338 
 6442      0DDF3147 
 6443 2bd8 CAF53031 		.ascii	"\312\36501\241\013DKP\351\335\013#\347\255\0031v\322"
 6443      A10B444B 
 6443      50E9DD0B 
 6443      23E7AD03 
 6443      3176D2
 6444 2beb CFF7D7EF 		.ascii	"\317\367\327\357j\354\0074\374\023\352H1\301y\343\002"
 6444      6AEC0734 
 6444      FC13EA48 
 6444      31C179E3 
 6444      02
 6445 2bfc 67950966 		.ascii	"g\225\011fA\014\371kI\245\321\336\267a4&\254\256\035"
 6445      410CF96B 
 6445      49A5D1DE 
 6445      B7613426 
 6445      ACAE1D
 6446 2c0f 0A67A22A 		.ascii	"\012g\242*\203\303\276Ys(0w\323\207\200\273\031\030"
 6446      83C3BE59 
 6446      73283077 
 6446      D38780BB 
 6446      1918
 6447 2c21 68EEF60E 		.ascii	"h\356\366\016j\257V\306\351m\253\003n\244\021K\003c"
 6447      6AAF56C6 
 6447      E96DAB03 
 6447      6EA4114B 
 6447      0363
 6448 2c33 594F4E92 		.ascii	"YON\222\3660\347Y\3449\224H/\031.9`\305s9\237\244\230"
 6448      F630E759 
 6448      E4399448 
 6448      2F192E39 
 6448      60C57339 
 6449 2c4a 4EA6E683 		.ascii	"N\246\346\203\033\015\346\356\275\266s\213\024\353#"
 6449      1B0DE6EE 
 6449      BDB6738B 
 6449      14EB23
 6450 2c59 0AE27958 		.ascii	"\012\342yX\237\005\013\236Y\266$\245'y\322\020\205\017"
 6450      9F050B9E 
ARM GAS  /tmp/ccydMd0r.s 			page 227


 6450      59B624A5 
 6450      2779D210 
 6450      850F
 6451 2c6b 114ED3A6 		.ascii	"\021N\323\246\224-\3641\2476\242&[><\370O\350+\016\211"
 6451      942DF431 
 6451      A736A226 
 6451      5B3E3CF8 
 6451      4FE82B0E 
 6452 2c80 E2E78375 		.ascii	"\342\347\203uC\327\320\244\241V\330#\362\257\020\227"
 6452      43D7D0A4 
 6452      A156D823 
 6452      F2AF1097 
 6453 2c90 85EE3F49 		.ascii	"\205\356?I\204\215z\005\345;\334d\265X\216Yf\0116n\216"
 6453      848D7A05 
 6453      E53BDC64 
 6453      B5588E59 
 6453      6609366E 
 6454 2ca5 5E95E128 		.ascii	"^\225\341(m\022\343q{\306V\314!\030\326\237\032\235"
 6454      6D12E371 
 6454      7BC656CC 
 6454      2118D69F 
 6454      1A9D
 6455 2cb7 2AE4E4FF 		.ascii	"*\344\344\377\0033\017\322 \237Rn'\215\035\255\332]"
 6455      03330FD2 
 6455      209F526E 
 6455      278D1DAD 
 6455      DA5D
 6456 2cc9 7E95DE57 		.ascii	"~\225\336W\240\322\236\327\035\373\233\370\323M(\214"
 6456      A0D29ED7 
 6456      1DFB9BF8 
 6456      D34D288C 
 6457 2cd9 E4C51746 		.ascii	"\344\305\027F\307t\242nS\321\217\371\014\357\365\017"
 6457      C774A26E 
 6457      53D18FF9 
 6457      0CEFF50F 
 6458 2ce9 4EF57772 		.ascii	"N\365wr|`W\265n\263$O\267\253\201\257\306\310\241\260"
 6458      7C6057B5 
 6458      6EB3244F 
 6458      B7AB81AF 
 6458      C6C8A1B0 
 6459 2cfd 93C4E48A 		.ascii	"\223\304\344\212\213\301\341\255P\361\312\232\276\304"
 6459      8BC1E1AD 
 6459      50F1CA9A 
 6459      BEC4
 6460 2d0b 014A3BF7 		.ascii	"\001J;\367\364\356\0278\340\321`V\323\232tH\017\303"
 6460      F4EE1738 
 6460      E0D16056 
 6460      D39A7448 
 6460      0FC3
 6461 2d1d 5FD47F6A 		.ascii	"_\324\177j^\317sZ\353\0015\360\304\343\234|\256\016"
 6461      5ECF735A 
 6461      EB0135F0 
 6461      C4E39C7C 
 6461      AE0E
 6462 2d2f 98FBB31E 		.ascii	"\230\373\263\036\302\364pC\031\222\273\263U\274\247"
 6462      C2F47043 
 6462      1992BBB3 
ARM GAS  /tmp/ccydMd0r.s 			page 228


 6462      55BCA7
 6463 2d3e 4F1F9C94 		.ascii	"O\037\234\224E\360\377\354\240\004\255\034\246&\241"
 6463      45F0FFEC 
 6463      A004AD1C 
 6463      A626A1
 6464 2d4d 59ADCE21 		.ascii	"Y\255\316!\347Y\011XRn\306V\324\253$>\376\305x\004\367"
 6464      E7590958 
 6464      526EC656 
 6464      D4AB243E 
 6464      FEC57804 
 6465 2d62 05F25419 		.ascii	"\005\362T\031\030\341\004\261\266#\015\336\302\177("
 6465      18E104B1 
 6465      B6230DDE 
 6465      C27F28
 6466 2d71 E98ABCF2 		.ascii	"\351\212\274\362!\017j\266\235\352\266\303\017\2640"
 6466      210F6AB6 
 6466      9DEAB6C3 
 6466      0FB430
 6467 2d80 90E98B1E 		.ascii	"\220\351\213\036\2774\204\307C\332\217\323\253t\210"
 6467      BF3484C7 
 6467      43DA8FD3 
 6467      AB7488
 6468 2d8f 7685CC19 		.ascii	"v\205\314\031\347\304\336&\310x|5\262\"\206D\331C\234"
 6468      E7C4DE26 
 6468      C8787C35 
 6468      B2228644 
 6468      D9439C
 6469 2da2 4D208819 		.ascii	"M \210\031K\321\230\264[\234\337B\211\311:\377\355\014"
 6469      4BD198B4 
 6469      5B9CDF42 
 6469      89C93AFF 
 6469      ED0C
 6470 2db4 C58F7977 		.ascii	"\305\217yw\033\350J8@\255\353\024\331\204q\220\264#"
 6470      1BE84A38 
 6470      40ADEB14 
 6470      D9847190 
 6470      B423
 6471 2dc6 77C8BFB9 		.ascii	"w\310\277\271\253\316o-0\336\306\\\214\222\241\343\211"
 6471      ABCE6F2D 
 6471      30DEC65C 
 6471      8C92A1E3 
 6471      89
 6472 2dd7 A03BB584 		.ascii	"\240;\265\204\317\257Q\020\000\023(Jp\257\335\354m\241"
 6472      CFAF5110 
 6472      0013284A 
 6472      70AFDDEC 
 6472      6DA1
 6473 2de9 2C041DCB 		.ascii	",\004\035\313H\352\267\013Jf\021\036\204N\230\337\333"
 6473      48EAB70B 
 6473      4A66111E 
 6473      844E98DF 
 6473      DB
 6474 2dfa 700BDD06 		.ascii	"p\013\335\006\015\322\342\023n\005\322\210\334\223\307"
 6474      0DD2E213 
 6474      6E05D288 
 6474      DC93C7
 6475 2e09 9F9BEF10 		.ascii	"\237\233\357\020\352>\013;\026i\302\024\244N\254\377"
ARM GAS  /tmp/ccydMd0r.s 			page 229


 6475      EA3E0B3B 
 6475      1669C214 
 6475      A44EACFF 
 6476 2e19 AF7D9EA8 		.ascii	"\257}\236\250\2503@)\355\2056f\021\332\001\016[G\350"
 6476      A8334029 
 6476      ED853666 
 6476      11DA010E 
 6476      5B47E8
 6477 2e2c 27EE7F90 		.ascii	"'\356\177\220%\231\016\207\3440\271\210\245\277\360"
 6477      25990E87 
 6477      E430B988 
 6477      A5BFF0
 6478 2e3b 00355F77 		.ascii	"\0005_w\3170e\253+\365\232\354\036u\362\033F\223F\357"
 6478      CF3065AB 
 6478      2BF59AEC 
 6478      1E75F21B 
 6478      469346EF 
 6479 2e4f CCF88684 		.ascii	"\314\370\206\204~\322\343\213\037\264D\216u\004\237"
 6479      7ED2E38B 
 6479      1FB4448E 
 6479      75049F
 6480 2e5e 88C23DDE 		.ascii	"\210\302=\336+\304\265j\012\363\352\367\260;\221\324"
 6480      2BC4B56A 
 6480      0AF3EAF7 
 6480      B03B91D4 
 6481 2e6e DF0AC2CB 		.ascii	"\337\012\302\313\244\037\234H\234\315\242'g\313s\201"
 6481      A41F9C48 
 6481      9CCDA227 
 6481      67CB7381 
 6482 2e7e C4612606 		.ascii	"\304a&\0066\260\022\302\335\017/+G\255E\254\023\005"
 6482      36B012C2 
 6482      DD0F2F2B 
 6482      47AD45AC 
 6482      1305
 6483 2e90 9427E4AE 		.ascii	"\224'\344\256\241\365\312{\310\024\223J\205V\034I\015"
 6483      A1F5CA7B 
 6483      C814934A 
 6483      85561C49 
 6483      0D
 6484 2ea1 2E3909CD 		.ascii	".9\011\315\325{f\317\206\215\225\224,\326\244\203\267"
 6484      D57B66CF 
 6484      868D9594 
 6484      2CD6A483 
 6484      B7
 6485 2eb2 10E63AF0 		.ascii	"\020\346:\360\013\375\273\247@\243J\001\262A\263_\332"
 6485      0BFDBBA7 
 6485      40A34A01 
 6485      B241B35F 
 6485      DA
 6486 2ec3 50F7F89E 		.ascii	"P\367\370\236f\243\377\000\30792,k\001_\347T\341\205"
 6486      66A3FF00 
 6486      C739322C 
 6486      6B015FE7 
 6486      54E185
 6487 2ed6 94E301F4 		.ascii	"\224\343\001\364\245\002\240\257k\267"
 6487      A502A0AF 
 6487      6BB7
ARM GAS  /tmp/ccydMd0r.s 			page 230


 6488 2ee0 7A848110 		.ascii	"z\204\201\020\256\002\3116\017\367\264\237\233\210\365"
 6488      AE02C936 
 6488      0FF7B49F 
 6488      9B88F5
 6489 2eef CBEEA64A 		.ascii	"\313\356\246J\247}\223m\375\177\223uF\314\231\357e\324"
 6489      A77D936D 
 6489      FD7F9375 
 6489      46CC99EF 
 6489      65D4
 6490 2f01 CEB6EB6F 		.ascii	"\316\266\353o\327*M\373\033uT\333[\225\362\035\222\347"
 6490      D72A4DFB 
 6490      1B7554DB 
 6490      5B95F21D 
 6490      92E7
 6491 2f13 596C407D 		.ascii	"Yl@}\024\202\351!\347\207\362\327\355t\342\344\211\261"
 6491      1482E921 
 6491      E787F2D7 
 6491      ED74E2E4 
 6491      89B1
 6492 2f25 28B4EE6A 		.ascii	"(\264\356jAwq\342\315\006V4\001B\234\243}\207\360\274"
 6492      417771E2 
 6492      CD065634 
 6492      01429CA3 
 6492      7D87F0BC 
 6493 2f39 2FAF7413 		.ascii	"/\257t\023}2\321L\370\2329x\030\0067\305\213\201\035"
 6493      7D32D14C 
 6493      F89A3978 
 6493      180637C5 
 6493      8B811D
 6494 2f4c BA7788FF 		.ascii	"\272w\210\377t\276\010\256\210\321 v\317\352H\361\246"
 6494      74BE08AE 
 6494      88D12076 
 6494      CFEA48F1 
 6494      A6
 6495 2f5d 2A4C9E7C 		.ascii	"*L\236|\031t\345\205\243?\211\032o\000\032\244m\005"
 6495      1974E585 
 6495      A33F891A 
 6495      6F001AA4 
 6495      6D05
 6496 2f6f B4F4DE76 		.ascii	"\264\364\336vdI\031\222\275\037\36148\373^,\027^Z\357"
 6496      64491992 
 6496      BD1FF134 
 6496      38FB5E2C 
 6496      175E5AEF 
 6497 2f83 EC7224B8 		.ascii	"\354r$\270\267\3560\004\215\000\226=T\256\257\020\343"
 6497      B7EE3004 
 6497      8D00963D 
 6497      54AEAF10 
 6497      E3
 6498 2f94 44C8FBE8 		.ascii	"D\310\373\350W\225T.\177\356\227\230\277_R\206-\261"
 6498      5795542E 
 6498      7FEE9798 
 6498      BF5F5286 
 6498      2DB1
 6499 2fa6 DCE24ED7 		.ascii	"\334\342N\327{\031\375/\355[}\200\301\237\356\030\327"
 6499      7B19FD2F 
 6499      ED5B7D80 
ARM GAS  /tmp/ccydMd0r.s 			page 231


 6499      C19FEE18 
 6499      D7
 6500 2fb7 C60DAB12 		.ascii	"\306\015\253\022\303\227J+\266&\241\241FcMs\010\320"
 6500      C3974A2B 
 6500      B626A1A1 
 6500      46634D73 
 6500      08D0
 6501 2fc9 11E04662 		.ascii	"\021\340Fb\011]\315\272W\021\026\255TN\266\023\353,"
 6501      095DCDBA 
 6501      571116AD 
 6501      544EB613 
 6501      EB2C
 6502 2fdb 953B4C67 		.ascii	"\225;Lg\312 \322\005s\037\356w)\236\367\245<Y\370\215"
 6502      CA20D205 
 6502      731FEE77 
 6502      299EF7A5 
 6502      3C59F88D 
 6503 2fef 4D953111 		.ascii	"M\2251\021 4\210_8 \302\232yV;\334O\2416\232n\206C\\"
 6503      2034885F 
 6503      3820C29A 
 6503      79563BDC 
 6503      4FA1369A 
 6504 3007 E97E4E2E 		.ascii	"\351~N.\277\247\012qq\"\2277\206\2459\201\331\222\327"
 6504      BFA70A71 
 6504      71229737 
 6504      86A53981 
 6504      D992D7
 6505 301a B4E5A13C 		.ascii	"\264\345\241</\351\342\000\365\244\203\266\030\377\206"
 6505      2FE9E200 
 6505      F5A483B6 
 6505      18FF86
 6506 3029 5332B3C4 		.ascii	"S2\263\304\265m.\\\376=t8sHK\227\227.TH\270_\204\005"
 6506      B56D2E5C 
 6506      FE3D7438 
 6506      73484B97 
 6506      972E5448 
 6507 3041 D285FE81 		.ascii	"\322\205\376\201\3477\202\024]EL\271\245=\222\302\003"
 6507      E7378214 
 6507      5D454CB9 
 6507      A53D92C2 
 6507      03
 6508 3052 5E8D248C 		.ascii	"^\215$\214\026\211\215\337\015\240U\322\020m\304j8\217"
 6508      16898DDF 
 6508      0DA055D2 
 6508      106DC46A 
 6508      388F
 6509 3064 1DA49FE7 		.ascii	"\035\244\237\347\212\251\337\251*I\342\273\013\243\022"
 6509      8AA9DFA9 
 6509      2A49E2BB 
 6509      0BA312
 6510 3073 355D4280 		.ascii	"5]B\200:\025\266X\212\035\252d,\242\034\355\327\352"
 6510      3A15B658 
 6510      8A1DAA64 
 6510      2CA21CED 
 6510      D7EA
 6511 3085 9A02F213 		.ascii	"\232\002\362\023\256\375\377\000XgY\266\334\226\302"
 6511      AEFDFF00 
ARM GAS  /tmp/ccydMd0r.s 			page 232


 6511      586759B6 
 6511      DC96C2
 6512 3094 A60038F4 		.ascii	"\246\0008\364\234\3019\265\314\264\262\2317\004\004"
 6512      9CC139B5 
 6512      CCB4B299 
 6512      370404
 6513 30a3 DC39EAF9 		.ascii	"\3349\352\371\223\246z5%\363\367\243\203YI\013h:\241"
 6513      93A67A35 
 6513      25F3F7A3 
 6513      8359490B 
 6513      683AA1
 6514 30b6 2575AAE4 		.ascii	"%u\252\344\010\212}\373\"[\371\020\260\331sE\034#IG"
 6514      088A7DFB 
 6514      225BF910 
 6514      B0D97345 
 6514      1C234947 
 6515 30ca C0F0060B 		.ascii	"\300\360\006\013\263\034td#Gy\347\370z\302\362<t1e\274"
 6515      B31C7464 
 6515      234779E7 
 6515      F87AC2F2 
 6515      3C743165 
 6516 30df 8B34AFF3 		.ascii	"\2134\257\363b\332}\370TS(\243\2701\337X$\353\322\370"
 6516      62DA7DF8 
 6516      545328A3 
 6516      B831DF58 
 6516      24EBD2F8 
 6517 30f3 9171D413 		.ascii	"\221q\324\023S2\235\034\205\016\012\002\256\023s\364"
 6517      53329D1C 
 6517      850E0A02 
 6517      AE1373F4 
 6518 3103 35445D3D 		.ascii	"5D]=\030\255(\204G\026\025\377\332j-\347\236\361X~6"
 6518      18AD2884 
 6518      471615FF 
 6518      DA6A2DE7 
 6518      9EF1587E 
 6519 3118 486666DB 		.ascii	"Hff\333\225\334\001}Vs,h;lY\366\245\361\201-\020\012"
 6519      95DC017D 
 6519      56732C68 
 6519      3B6C59F6 
 6519      A5F1812D 
 6520 312e A8B05C09 		.ascii	"\250\260\\\011\216\224u7\360MR\004GJ\020\237\260\330"
 6520      8E947537 
 6520      F04D5204 
 6520      474A109F 
 6520      B0D8
 6521 3140 58D382C3 		.ascii	"X\323\202\303Tz\215[\207\201\022\310\363\364e\341Q\314"
 6521      547A8D5B 
 6521      878112C8 
 6521      F3F465E1 
 6521      51CC
 6522 3152 A2077276 		.ascii	"\242\007rv\312\210\200L\366hA\237R\277~MfS\253\320\373"
 6522      CA88804C 
 6522      F668419F 
 6522      52BF7E4D 
 6522      6653ABD0 
 6523 3167 6A3E9D00 		.ascii	"j>\235\000\331P>\206\342v\345V\211\003\030\263`&5G4"
 6523      D9503E86 
ARM GAS  /tmp/ccydMd0r.s 			page 233


 6523      E276E556 
 6523      890318B3 
 6523      60263547 
 6524 317c 844C11D3 		.ascii	"\204L\021\323\310\342\000\005\201-\252\003E,&\323R\237"
 6524      C8E20005 
 6524      812DAA03 
 6524      452C26D3 
 6524      529F
 6525 318e 20183E50 		.ascii	" \030>P\306!\275T\324:\273\015\177\366rB\336\034\000"
 6525      C621BD54 
 6525      D43ABB0D 
 6525      7FF67242 
 6525      DE1C00
 6526 31a1 EA79E7AE 		.ascii	"\352y\347\256?\330\255\3162\216\247h\222\206|\252S\262"
 6526      3FD8ADCE 
 6526      328EA768 
 6526      92867CAA 
 6526      53B2
 6527 31b3 D9B72EF2 		.ascii	"\331\267.\362\205\263\206\035\035\222\323\373\0042\241"
 6527      85B3861D 
 6527      1D92D3FB 
 6527      0432A1
 6528 31c2 AE09812B 		.ascii	"\256\011\201+K\003u\223\366\313\326\270\250\202C_\254"
 6528      4B037593 
 6528      F6CBD6B8 
 6528      A882435F 
 6528      AC
 6529 31d3 1A4902BC 		.ascii	"\032I\002\274\202O\352\273\367X\335\221/\354\356\271"
 6529      824FEABB 
 6529      F758DD91 
 6529      2FECEEB9 
 6530 31e3 DEAB051A 		.ascii	"\336\253\005\032\203X=)\220\330\321\350=~,\341\026\327"
 6530      83583D29 
 6530      90D8D1E8 
 6530      3D7E2CE1 
 6530      16D7
 6531 31f5 003A7457 		.ascii	"\000:tW]\372\333\244\307\030\371\007#\345\241\025\037"
 6531      5DFADBA4 
 6531      C718F907 
 6531      23E5A115 
 6531      1F
 6532 3206 BE311B7A 		.ascii	"\2761\033z\020\367\313\335\2467\202De@\323|\242\303"
 6532      10F7CBDD 
 6532      A6378244 
 6532      6540D37C 
 6532      A2C3
 6533 3218 544988ED 		.ascii	"TI\210\355\275l\264\305VE\314\230\325\337\261\265\227"
 6533      BD6CB4C5 
 6533      5645CC98 
 6533      D5DFB1B5 
 6533      97
 6534 3229 46040918 		.ascii	"F\004\011\030\344\315\327\354&0\246[=\313\325\030-M"
 6534      E4CDD7EC 
 6534      2630A65B 
 6534      3DCBD518 
 6534      2D4D
 6535 323b 7C6CC195 		.ascii	"|l\301\225\012\3337\251\356\307;\3231\231\000C\352\272"
ARM GAS  /tmp/ccydMd0r.s 			page 234


 6535      0ADB37A9 
 6535      EEC73BD3 
 6535      31990043 
 6535      EABA
 6536 324d 02D14481 		.ascii	"\002\321D\201\3746(\2761\256\273\320%\343\354\266v\200"
 6536      FC3628BE 
 6536      31AEBBD0 
 6536      25E3ECB6 
 6536      7680
 6537 325f 9A591475 		.ascii	"\232Y\024u3[\336<\031\342\312|\307 `\344\211\006d\227"
 6537      335BDE3C 
 6537      19E2CA7C 
 6537      C72060E4 
 6537      89066497 
 6538 3273 10C91BED 		.ascii	"\020\311\033\355\037\"\344O8\226$\221\203#\177F\037"
 6538      1F22E44F 
 6538      38962491 
 6538      83237F46 
 6538      1F
 6539 3284 1FC68796 		.ascii	"\037\306\207\226\232d\313\362/\255\360rG\255%\253\265"
 6539      9A64CBF2 
 6539      2FADF072 
 6539      47AD25AB 
 6539      B5
 6540 3295 B4A068D3 		.ascii	"\264\240h\323n\361U\351\251\333,\352\323\276$\211\200"
 6540      6EF155E9 
 6540      A9DB2CEA 
 6540      D3BE2489 
 6540      80
 6541 32a6 B544F500 		.ascii	"\265D\365\000\332\307\200\323\352\267d:\244;T\277-\304"
 6541      DAC780D3 
 6541      EAB7643A 
 6541      A43B54BF 
 6541      2DC4
 6542 32b8 D35F22C1 		.ascii	"\323_\"\301Fvj\232di\347\026l\021\220\36580@\276\210"
 6542      46766A9A 
 6542      6469E716 
 6542      6C1190F5 
 6542      383040BE 
 6543 32cd B4795579 		.ascii	"\264yUy\371\217\314^\011a\275\335?\351\363,\000X\332"
 6543      F98FCC5E 
 6543      0961BDDD 
 6543      3FE9F32C 
 6543      0058DA
 6544 32e0 AE80EC69 		.ascii	"\256\200\354i\335\232\"\356\002\222\377\216\375\255"
 6544      DD9A22EE 
 6544      0292FF8E 
 6544      FDAD
 6545 32ee 3377BE18 		.ascii	"3w\276\030]-U\3131\335vw\360D\012vT\033\034\015UE\202"
 6545      5D2D55CB 
 6545      31DD7677 
 6545      F0440A76 
 6545      541B1C0D 
 6546 3305 79789495 		.ascii	"yx\224\2257\272\033Y\320\014p1/6\364\372\341\314\265"
 6546      37BA1B59 
 6546      D00C7031 
 6546      2F36F4FA 
ARM GAS  /tmp/ccydMd0r.s 			page 235


 6546      E1CCB5
 6547 3318 A95EF2AE 		.ascii	"\251^\362\256\322\304\253\3138z\223\323\032\377\346"
 6547      D2C4ABCB 
 6547      387A93D3 
 6547      1AFFE6
 6548 3327 B02565E4 		.ascii	"\260%e\344\301\273=1\320\346\306\206\024\371`\216\005"
 6548      C1BB3D31 
 6548      D0E6C686 
 6548      14F9608E 
 6548      05
 6549 3338 50CA75D9 		.ascii	"P\312u\331\243\210\003<\364\2653Y\331\315\262\355kS"
 6549      A388033C 
 6549      F4B53359 
 6549      D9CDB2ED 
 6549      6B53
 6550 334a B41DCEF1 		.ascii	"\264\035\316\361c\363\242\226\361}\321\341\247p\236"
 6550      63F3A296 
 6550      F17DD1E1 
 6550      A7709E
 6551 3359 282A43E0 		.ascii	"(*C\340\274\241@\025\212\177\027\365u\254\313\370^\326"
 6551      BCA14015 
 6551      8A7F17F5 
 6551      75ACCBF8 
 6551      5ED6
 6552 336b 29F9166C 		.ascii	")\371\026l6\315]\021M\365\247f6\301\223\202\024UtR\317"
 6552      36CD5D11 
 6552      4DF5A766 
 6552      36C19382 
 6552      14557452 
 6553 3380 5870269F 		.ascii	"Xp&\237\325\263\316|\336\006j\362\236\265\246V\022d"
 6553      D5B3CE7C 
 6553      DE066AF2 
 6553      9EB5A656 
 6553      1264
 6554 3392 964F5C41 		.ascii	"\226O\\A\211*6\001\014\320\260Bn\350R\303o\021\372t"
 6554      892A3601 
 6554      0CD0B042 
 6554      6EE852C3 
 6554      6F11FA74 
 6555 33a6 93DEED1C 		.ascii	"\223\336\355\034\332|\217\033\345l\336\024\021\037\234"
 6555      DA7C8F1B 
 6555      E56CDE14 
 6555      111F9C
 6556 33b5 57CB75B5 		.ascii	"W\313u\265\361\006D\015`\005|\307\216\236\347~>h\306"
 6556      F106440D 
 6556      60057CC7 
 6556      8E9EE77E 
 6556      3E68C6
 6557 33c8 B511A734 		.ascii	"\265\021\2474\237\341\013\301D\341B\307\260h\237\241"
 6557      9FE10BC1 
 6557      44E142C7 
 6557      B0689FA1 
 6558 33d8 5DFCE89D 		.ascii	"]\374\350\235:>\335>Q\033+W\331\327\327\177e>\022r\203"
 6558      3A3EDD3E 
 6558      511B2B57 
 6558      D9D7D77F 
 6558      653E1272 
ARM GAS  /tmp/ccydMd0r.s 			page 236


 6559 33ed 9FD5F15E 		.ascii	"\237\325\361^\030\235\026\032WQ\365X\035B$\274S\274"
 6559      189D161A 
 6559      5751F558 
 6559      1D4224BC 
 6559      53BC
 6560 33ff 892E97F2 		.ascii	"\211.\227\362\330\352?\343\345DR\260\"\270\241-\240"
 6560      D8EA3FE3 
 6560      E54452B0 
 6560      22B8A12D 
 6560      A0
 6561 3410 65D06ED6 		.ascii	"e\320n\326\342\245h\317\2114N\026\207\3577|?\037\016"
 6561      E2A568CF 
 6561      89344E16 
 6561      87EF377C 
 6561      3F1F0E
 6562 3423 4703844C 		.ascii	"G\003\204L\263\267\3025\301\177\374\3574\326\313\032"
 6562      B3B7C235 
 6562      C17FFCEF 
 6562      34D6CB1A 
 6563 3433 57D62F34 		.ascii	"W\326/4\317\240p\376\343\265n\377\200\367\317S\241\014"
 6563      CFA070FE 
 6563      E3B56EFF 
 6563      80F7CF53 
 6563      A10C
 6564 3445 8D0213FD 		.ascii	"\215\002\023\375nN8\0010A\305\331\015\343\334i5\305"
 6564      6E4E3801 
 6564      3041C5D9 
 6564      0DE3DC69 
 6564      35C5
 6565 3457 1A972EEE 		.ascii	"\032\227.\356.\221\267M\241\203\3201\230\215qZ`\330"
 6565      2E91B74D 
 6565      A183D031 
 6565      988D715A 
 6565      60D8
 6566 3469 A64C481D 		.ascii	"\246LH\035\351I\272\004,u\3633\255\032u\346`\032\004"
 6566      E949BA04 
 6566      2C75F333 
 6566      AD1A75E6 
 6566      601A04
 6567 347c 25693421 		.ascii	"%i4!-|\2739\031\251&q\014({\267Yr\3622\217-\355C\302"
 6567      2D7CBB39 
 6567      19A92671 
 6567      0C287BB7 
 6567      5972F232 
 6568 3495 FDFAD811 		.ascii	"\375\372\330\021\303\202\360\\I\366\325\3434\244\375"
 6568      C382F05C 
 6568      49F6D5E3 
 6568      34A4FD
 6569 34a4 CDCDC921 		.ascii	"\315\315\311!\272^\230\377\354`\305\305\367A\001\243"
 6569      BA5E98FF 
 6569      EC60C5C5 
 6569      F74101A3 
 6570 34b4 58F83F28 		.ascii	"X\370?(0\252\361-\312\214%/\234\203\210\340\000\332"
 6570      30AAF12D 
 6570      CA8C252F 
 6570      9C8388E0 
 6570      00DA
ARM GAS  /tmp/ccydMd0r.s 			page 237


 6571 34c6 F30C5FBA 		.ascii	"\363\014_\272*\270\003\014\022\231Q#\026/\003\010V\332"
 6571      2AB8030C 
 6571      12995123 
 6571      162F0308 
 6571      56DA
 6572 34d8 FC89A67C 		.ascii	"\374\211\246|\021uG.\2336\272\225G\2611\014\244\011"
 6572      1175472E 
 6572      9B36BA95 
 6572      47B1310C 
 6572      A409
 6573 34ea 13DA4DD1 		.ascii	"\023\332M\321\275\011\350\242\315h\370!\005\370\377"
 6573      BD09E8A2 
 6573      CD68F821 
 6573      05F8FF
 6574 34f9 903C0E88 		.ascii	"\220<\016\210\213\207\237O\225j-S\242\373\005%yv\030"
 6574      8B879F4F 
 6574      956A2D53 
 6574      A2FB0525 
 6574      797618
 6575 350c 7F28F328 		.ascii	"\177(\363(\242\206\262\243\226\222\355\313\245\253\214"
 6575      A286B2A3 
 6575      9692EDCB 
 6575      A5AB8C
 6576 351b 0DF9FBDA 		.ascii	"\015\371\373\332\350\330\332\362;\241\255-\232\357\260"
 6576      E8D8DAF2 
 6576      3BA1AD2D 
 6576      9AEFB0
 6577 352a 37C5A1FA 		.ascii	"7\305\241\372\327\213%\344h\257Y\337q\003\373O{\\\021"
 6577      D78B25E4 
 6577      68AF59DF 
 6577      7103FB4F 
 6577      7B5C11
 6578 353d A655634C 		.ascii	"\246UcL\355\262\003\021\272\212 \2420\243\203C\335o"
 6578      EDB20311 
 6578      BA8A20A2 
 6578      30A38343 
 6578      DD6F
 6579 354f 96A7ECA6 		.ascii	"\226\247\354\246\311$\024\374_nv\227X\202e\305\375\350"
 6579      C92414FC 
 6579      5F6E7697 
 6579      588265C5 
 6579      FDE8
 6580 3561 5FBF7AB2 		.ascii	"_\277z\262Mf\015\216\306\206\204\361\245\361\242\311"
 6580      4D660D8E 
 6580      C68684F1 
 6580      A5F1A2C9 
 6581 3571 862D1980 		.ascii	"\206-\031\200\3437\012\017\030\027\004\201\037\032\245"
 6581      E3370A0F 
 6581      18170481 
 6581      1F1AA5
 6582 3580 D4BD508D 		.ascii	"\324\275P\215\335\335u\276\036\273:Z\271b\036i\231z"
 6582      DDDD75BE 
 6582      1EBB3A5A 
 6582      B9621E69 
 6582      997A
 6583 3592 9C98D239 		.ascii	"\234\230\3229jO\207\206\260n\026\032y*P\023\004\341"
 6583      6A4F8786 
ARM GAS  /tmp/ccydMd0r.s 			page 238


 6583      B06E161A 
 6583      792A5013 
 6583      04E1
 6584 35a4 CA8BC01E 		.ascii	"\312\213\300\036\351\256\201\003\324\010\232\303aK\312"
 6584      E9AE8103 
 6584      D4089AC3 
 6584      614BCA
 6585 35b3 11240715 		.ascii	"\021$\007\025\260W\\`\034\300\262\254\007\215t@s`\005"
 6585      B0575C60 
 6585      1CC0B2AC 
 6585      078D7440 
 6585      736005
 6586 35c6 A7920917 		.ascii	"\247\222\011\027\201\247Eg\266\216\014\237A\206hE\345"
 6586      81A74567 
 6586      B68E0C9F 
 6586      41866845 
 6586      E5
 6587 35d7 7089B915 		.ascii	"p\211\271\025\341\357\021zW\354}}\266\247\226\371\205"
 6587      E1EF117A 
 6587      57EC7D7D 
 6587      B6A796F9 
 6587      85
 6588 35e8 ECE98C08 		.ascii	"\354\351\214\010\011\304,\266\204\202\227\313\337?("
 6588      09C42CB6 
 6588      848297CB 
 6588      DF3F28
 6589 35f7 968B1D1E 		.ascii	"\226\213\035\036\356\331\207Y\300\"W\340\355\012\224"
 6589      EED98759 
 6589      C02257E0 
 6589      ED0A94
 6590 3606 79C4807C 		.ascii	"y\304\200|P\023\006\212\375\351c]\274\237\033T\242\322"
 6590      5013068A 
 6590      FDE9635D 
 6590      BC9F1B54 
 6590      A2D2
 6591 3618 76150E4E 		.ascii	"v\025\016N\201\311\332\310\332\335\220\273d\002MDn!"
 6591      81C9DAC8 
 6591      DADD90BB 
 6591      64024D44 
 6591      6E21
 6592 362a BD8BF2BB 		.ascii	"\275\213\362\273\014\011\0125\227\207\273u0\324a\211"
 6592      0C090A35 
 6592      9787BB75 
 6592      30D46189 
 6593 363a 3589335A 		.ascii	"5\2113ZF\017\363\267d\262U\334[\230\347\217\360\310"
 6593      460FF3B7 
 6593      64B255DC 
 6593      5B98E78F 
 6593      F0C8
 6594 364c 488B8886 		.ascii	"H\213\210\206]\005\226_\356sZ|\303\311k\311\277\377"
 6594      5D05965F 
 6594      EE735A7C 
 6594      C3C96BC9 
 6594      BFFF
 6595 365e 247A9BB2 		.ascii	"$z\233\262W\010\261\251\372i\234?.\246-\234\375%\332"
 6595      5708B1A9 
 6595      FA699C3F 
ARM GAS  /tmp/ccydMd0r.s 			page 239


 6595      2EA62D9C 
 6595      FD25DA
 6596 3671 5304FB38 		.ascii	"S\004\3738\002V\037\330\233\262\306\367p-/\304\214\345"
 6596      02561FD8 
 6596      9BB2C6F7 
 6596      702D2FC4 
 6596      8CE5
 6597 3683 1D2F8FE2 		.ascii	"\035/\217\342\027\323P\322\303\237xh0\233\342\226\033"
 6597      17D350D2 
 6597      C39F7868 
 6597      309BE296 
 6597      1B
 6598 3694 EEF6E47A 		.ascii	"\356\366\344z\031%.\257\001\260\333U\223\353\316\212"
 6598      19252EAF 
 6598      01B0DB55 
 6598      93EBCE8A 
 6599 36a4 2145B3D0 		.ascii	"!E\263\320n\000\356k-Y\226\325"
 6599      6E00EE6B 
 6599      2D5996D5 
 6600 36b0 918B89C2 		.ascii	"\221\213\211\302\373X\021/\270K\264\323''h\207AE\255"
 6600      FB58112F 
 6600      B84BB4D3 
 6600      27276887 
 6600      4145AD
 6601 36c3 CC00258E 		.ascii	"\314\000%\216,%\375I\334q\322\212\324\343\274\3610;"
 6601      2C25FD49 
 6601      DC71D28A 
 6601      D4E3BCF1 
 6601      303B
 6602 36d5 9762A49E 		.ascii	"\227b\244\236\247\004\350\354\267\241(U\031\365\212"
 6602      A704E8EC 
 6602      B7A12855 
 6602      19F58A
 6603 36e4 BA83FFB1 		.ascii	"\272\203\377\261\265\240\333\201\242\026\012w\367UP"
 6603      B5A0DB81 
 6603      A2160A77 
 6603      F75550
 6604 36f3 80722590 		.ascii	"\200r%\220\221\346x\017T\263\204\227C3w\224\220\033"
 6604      91E6780F 
 6604      54B38497 
 6604      43337794 
 6604      901B
 6605 3705 432B9296 		.ascii	"C+\222\226\325\267O\3030\012\204,\320Sr\225\326\023"
 6605      D5B74FC3 
 6605      300A842C 
 6605      D0537295 
 6605      D613
 6606 3717 35AFCBCB 		.ascii	"5\257\313\313b\375\265\0278+\023\333:\325)\236\243\344"
 6606      62FDB517 
 6606      382B13DB 
 6606      3AD5299E 
 6606      A3E4
 6607 3729 499CF1B8 		.ascii	"I\234\361\270\255\242\334;Gi\005q\2610S7\377\2136\023"
 6607      ADA2DC3B 
 6607      47690571 
 6607      B1305337 
 6607      FF8B3613 
ARM GAS  /tmp/ccydMd0r.s 			page 240


 6608 373d 4BD6FA52 		.ascii	"K\326\372R\203\317-\264\306\255\363\222\226z\270\235"
 6608      83CF2DB4 
 6608      C6ADF392 
 6608      967AB89D 
 6609 374d D691A30D 		.ascii	"\326\221\243\0157\321\203\004\273{{\346|\357\357F:\277"
 6609      37D18304 
 6609      BB7B7BE6 
 6609      7CEFEF46 
 6609      3ABF
 6610 375f 2B63F866 		.ascii	"+c\370f*.\3160l\333\035U\"\035\376\031jI\001\352&v("
 6610      2A2ECE30 
 6610      6CDB1D55 
 6610      221DFE19 
 6610      6A4901EA 
 6611 3776 A2AA9DE2 		.ascii	"\242\252\235\342R{\337\244\357M\001O\023\204C\321\357"
 6611      527BDFA4 
 6611      EF4D014F 
 6611      138443D1 
 6611      EF
 6612 3787 65997F92 		.ascii	"e\231\177\222e\314\026\021aA\232\373\212\030\0261\306"
 6612      65CC1611 
 6612      61419AFB 
 6612      8A181631 
 6612      C6
 6613 3798 2657D4B2 		.ascii	"&W\324\262\236\205\025 \332(U\273_\271\025!Yf\217\263"
 6613      9E851520 
 6613      DA2855BB 
 6613      5FB91521 
 6613      59668FB3 
 6614 37ac 60AAADD6 		.ascii	"`\252\255\326\265Mf\021O\251\231>k\214L<\326H\267\320"
 6614      B54D6611 
 6614      4FA9993E 
 6614      6B8C4C3C 
 6614      D648B7D0 
 6615 37c0 677E7233 		.ascii	"g~r3\326\0173\006#\003\243n8\376\313<\234\241\032o\375"
 6615      D60F3306 
 6615      2303A36E 
 6615      38FECB3C 
 6615      9CA11A6F 
 6616 37d5 374F8BD1 		.ascii	"7O\213\321\207\246\252x\345\013a\007\270\010\350\371"
 6616      87A6AA78 
 6616      E50B6107 
 6616      B808E8F9 
 6617 37e5 9491D696 		.ascii	"\224\221\326\226I}\203\254\374\\b\227Zg\372SLh\034s"
 6617      497D83AC 
 6617      FC5C6297 
 6617      5A67FA53 
 6617      4C681C73 
 6618 37f9 ACFC4E51 		.ascii	"\254\374NQV\310\362\304THD\243\205N\022\304\231\215"
 6618      56C8F2C4 
 6618      544844A3 
 6618      854E12C4 
 6618      998D
 6619 380b A9197BC3 		.ascii	"\251\031{\303zV*uP\213HEa\235$H-\201:\200\272\320\240"
 6619      7A562A75 
 6619      508B4845 
 6619      619D2448 
ARM GAS  /tmp/ccydMd0r.s 			page 241


 6619      2D813A80 
 6620 3822 1FC382CF 		.ascii	"\037\303\202\317\352\004q\021)V$\245\364\034*\333Z\036"
 6620      EA047111 
 6620      295624A5 
 6620      F41C2ADB 
 6620      5A1E
 6621 3834 D86F0AFB 		.ascii	"\330o\012\373r\350\337\263|t9\2167\224\302\251\017\327"
 6621      72E8DFB3 
 6621      7C74398E 
 6621      3794C2A9 
 6621      0FD7
 6622 3846 CE7316C6 		.ascii	"\316s\026\306\002\255\341\330,\236\323;\015@\225\231"
 6622      02ADE1D8 
 6622      2C9ED33B 
 6622      0D409599 
 6623 3856 87864C95 		.ascii	"\207\206L\225\372'\337\337\322\011^\303\021r\003\204"
 6623      FA27DFDF 
 6623      D2095EC3 
 6623      11720384 
 6624 3866 D39ACEFE 		.ascii	"\323\232\316\376h\260y\004\311t\370\036!\030\250\003"
 6624      68B07904 
 6624      C974F81E 
 6624      2118A803 
 6625 3876 282A374F 		.ascii	"(*7O\216\314WPg\345{[\262\362\272\322\217\261\264\260"
 6625      8ECC5750 
 6625      67E57B5B 
 6625      B2F2BAD2 
 6625      8FB1B4B0 
 6626 388a 06863EF1 		.ascii	"\006\206>\361\366\037\211<\244\0103\033\250\0070\300"
 6626      F61F893C 
 6626      A408331B 
 6626      A80730C0 
 6627 389a F2CEC33C 		.ascii	"\362\316\303<!e\3658\241\204\206eg]\037\355\023?\260"
 6627      2165F538 
 6627      A1848665 
 6627      675D1FED 
 6627      133FB0
 6628 38ad D0703DDB 		.ascii	"\320p=\333\235j\341t\324S\0200J \0005S\361\344\006:"
 6628      9D6AE174 
 6628      D4531030 
 6628      4A200035 
 6628      53F1E406 
 6629 38c2 4C602E51 		.ascii	"L`.Ql\205\000?871\310\204\250(Lb\375\374\006w\216\015"
 6629      6C85003F 
 6629      383731C8 
 6629      84A8284C 
 6629      62FDFC06 
 6630 38d9 F75E2368 		.ascii	"\367^#h\246\273m\325\331U\037TfEj\354\234\223`[Y\370"
 6630      A6BB6DD5 
 6630      D9551F54 
 6630      66456AEC 
 6630      9C93605B 
 6631 38ef 841AE547 		.ascii	"\204\032\345G\010p1#\220o\030\0332\244\272\026x]\033"
 6631      08703123 
 6631      906F181B 
 6631      32A4BA16 
 6631      785D1B
ARM GAS  /tmp/ccydMd0r.s 			page 242


 6632 3902 996BA8D5 		.ascii	"\231k\250\325\030U\207\"\034m'hXQ\\\276K\250\343F\221"
 6632      18558722 
 6632      1C6D2768 
 6632      58515CBE 
 6632      4BA8E346 
 6633 3917 EA3EB2AE 		.ascii	"\352>\262\256\011\\;\375\016\205#xT\305VL\243\277\264"
 6633      095C3BFD 
 6633      0E852378 
 6633      54C5564C 
 6633      A3BFB4
 6634 392a 8C7F5C0A 		.ascii	"\214\177\\\012\241\316\333\247\300g\226'\302)\014\244"
 6634      A1CEDBA7 
 6634      C0679627 
 6634      C2290CA4 
 6635 393a 150F5079 		.ascii	"\025\017Py\356\377\334n\326\300E\027\217\310\352\342"
 6635      EEFFDC6E 
 6635      D6C04517 
 6635      8FC8EAE2 
 6636 394a 2995F850 		.ascii	")\225\370P\322\373,O\252\213|\316\360nt[2\320\011\337"
 6636      D2FB2C4F 
 6636      AA8B7CCE 
 6636      F06E745B 
 6636      32D009DF 
 6637 395e B1DD7258 		.ascii	"\261\335rX\267}\226\002%\361\321\256\333\035]\250\015"
 6637      B77D9602 
 6637      25F1D1AE 
 6637      DB1D5DA8 
 6637      0D
 6638 396f AECBEDD4 		.ascii	"\256\313\355\324\251G\321\021\362\267\256\177\2313)"
 6638      A947D111 
 6638      F2B7AE7F 
 6638      993329
 6639 397e D86285CE 		.ascii	"\330b\205\316/\205F_<L\306\306\316A^\200\341m\302\323"
 6639      2F85465F 
 6639      3C4CC6C6 
 6639      CE415E80 
 6639      E16DC2D3 
 6640 3992 2B9FC363 		.ascii	"+\237\303c\342u\325Bd\334b\262\254\231\003\324\246\242"
 6640      E275D542 
 6640      64DC62B2 
 6640      AC9903D4 
 6640      A6A2
 6641 39a4 BCADCC24 		.ascii	"\274\255\314$\216\362\247\370]s\276\032\365\032\211"
 6641      8EF2A7F8 
 6641      5D73BE1A 
 6641      F51A89
 6642 39b3 01F38198 		.ascii	"\001\363\201\230\260h\253\313\020\256\003$sf\317j\341"
 6642      B068ABCB 
 6642      10AE0324 
 6642      7366CF6A 
 6642      E1
 6643 39c4 BDEBF2A9 		.ascii	"\275\353\362\251\271\241\356i>\210IF#)\275;\205Qa\376"
 6643      B9A1EE69 
 6643      3E884946 
 6643      2329BD3B 
 6643      855161FE 
 6644 39d8 6A1FFA6C 		.ascii	"j\037\372l\363V\000\376\255s\252\354Fu%\220RI\002dC"
ARM GAS  /tmp/ccydMd0r.s 			page 243


 6644      F35600FE 
 6644      AD73AAEC 
 6644      46752590 
 6644      52490264 
 6645 39ed 8B5069A6 		.ascii	"\213Pi\246\345\362-\333~\3330.v\306\023M\0238\011\222"
 6645      E5F22DDB 
 6645      7EDB302E 
 6645      76C6134D 
 6645      13380992 
 6646 3a01 13BEE1C2 		.ascii	"\023\276\341\302\337\201\264\317s\212\322\036\023\310"
 6646      DF81B4CF 
 6646      738AD21E 
 6646      13C8
 6647 3a0f 941E2DC7 		.ascii	"\224\036-\307\\0\232\373\025dd\262\377\300\306#J\007"
 6647      5C309AFB 
 6647      156464B2 
 6647      FFC0C623 
 6647      4A07
 6648 3a21 573F1225 		.ascii	"W?\022%\237\036\334N\237VTF\004!\315-8uJ\226-k\031\275"
 6648      9F1EDC4E 
 6648      9F565446 
 6648      0421CD2D 
 6648      38754A96 
 6649 3a39 D782ED70 		.ascii	"\327\202\355p\242\354\300\261zx\257w\311\304GM\032\362"
 6649      A2ECC0B1 
 6649      7A78AF77 
 6649      C9C4474D 
 6649      1AF2
 6650 3a4b F4DBC3D0 		.ascii	"\364\333\303\320\015\366\032\206\020?T\032\372\304\242"
 6650      0DF61A86 
 6650      103F541A 
 6650      FAC4A2
 6651 3a5a 03394F94 		.ascii	"\0039O\224\211\210\241\373ft\256\251\247\3625\226\205"
 6651      8988A1FB 
 6651      6674AEA9 
 6651      A7F23596 
 6651      85
 6652 3a6b CD1227EA 		.ascii	"\315\022'\352K2\373E\3271\244\363Zvw\371\027\317\200"
 6652      4B32FB45 
 6652      D731A4F3 
 6652      5A7677F9 
 6652      17CF80
 6653 3a7e CE191D76 		.ascii	"\316\031\035v\311M\033\312Q8\245\343O\342\235V\003{"
 6653      C94D1BCA 
 6653      5138A5E3 
 6653      4FE29D56 
 6653      037B
 6654 3a90 6D8197D3 		.ascii	"m\201\227\323?\201\244\265\345\005X*\000<\021S\372\250"
 6654      3F81A4B5 
 6654      E505582A 
 6654      003C1153 
 6654      FAA8
 6655 3aa2 01B2382B 		.ascii	"\001\2628+\024\004\247P\350\216\210\015#\304omuV\006"
 6655      1404A750 
 6655      E88E880D 
 6655      23C46F6D 
 6655      755606
ARM GAS  /tmp/ccydMd0r.s 			page 244


 6656 3ab5 ABBEC04C 		.ascii	"\253\276\300L*\316\314HN\205\200~\245Bt\365'p*\0143"
 6656      2ACECC48 
 6656      4E85807E 
 6656      A54274F5 
 6656      27702A0C 
 6657 3aca 6E5C6E49 		.ascii	"n\\nIu\376/H$\012\315\006\001\012\321\313G\301\247\012"
 6657      75FE2F48 
 6657      240ACD06 
 6657      010AD1CB 
 6657      47C1A70A 
 6658 3ade 44649C64 		.ascii	"Dd\234d\376\023Cb\277_H{\024\003X\253\316LqF\231y\306"
 6658      FE134362 
 6658      BF5F487B 
 6658      140358AB 
 6658      CE4C7146 
 6659 3af5 33F5DE71 		.ascii	"3\365\336q\216 \304k\354\320r\321>h\032\026n\257\210"
 6659      8E20C46B 
 6659      ECD072D1 
 6659      3E681A16 
 6659      6EAF88
 6660 3b08 5C434191 		.ascii	"\\CA\221\275Yk\375\305\035<\270[\314\\Q3\314G\210\346"
 6660      BD596BFD 
 6660      C51D3CB8 
 6660      5BCC5C51 
 6660      33CC4788 
 6661 3b1d 04B5E11D 		.ascii	"\004\265\341\0357d)1*\016\217y\242\0160\374\350\027"
 6661      37642931 
 6661      2A0E8F79 
 6661      A20E30FC 
 6661      E817
 6662 3b2f C5E3284B 		.ascii	"\305\343(K\320X\217\201\037l\237\011\227\347\273\342"
 6662      D0588F81 
 6662      1F6C9F09 
 6662      97E7BBE2 
 6663 3b3f 9B6DA4E6 		.ascii	"\233m\244\346XL]\331R\326\353D\255\012\364\266\377\260"
 6663      584C5DD9 
 6663      52D6EB44 
 6663      AD0AF4B6 
 6663      FFB0
 6664 3b51 CC0314AB 		.ascii	"\314\003\024\253\253J\273\357x\222\340w9\333\353\024"
 6664      AB4ABBEF 
 6664      7892E077 
 6664      39DBEB14 
 6665 3b61 3D70ADF8 		.ascii	"=p\255\370\327H\210\002\255w\"h\333\307Q\362\201\202"
 6665      D7488802 
 6665      AD772268 
 6665      DBC751F2 
 6665      8182
 6666 3b73 0E366830 		.ascii	"\0166h0\227\207\216\001<\327!\007s`'\274\205\357\347"
 6666      97878E01 
 6666      3CD72107 
 6666      736027BC 
 6666      85EFE7
 6667 3b86 3A8EC1B2 		.ascii	":\216\301\262\227<\255\346\007\2425evJQ\330\245vA\357"
 6667      973CADE6 
 6667      07A23565 
 6667      764A51D8 
ARM GAS  /tmp/ccydMd0r.s 			page 245


 6667      A57641EF 
 6668 3b9a 195F998D 		.ascii	"\031_\231\215,0F\243\340s\020N\267\306\021/F\246q\305"
 6668      2C3046A3 
 6668      E073104E 
 6668      B7C6112F 
 6668      46A671C5 
 6669 3bae 8C5A43E5 		.ascii	"\214ZC\345\037\276\352U\302\337\226{\223\024\015~W>"
 6669      1FBEEA55 
 6669      C2DF967B 
 6669      93140D7E 
 6669      573E
 6670 3bc0 8657DB93 		.ascii	"\206W\333\223]\013\250\314l\314\306_\323\220\233\000"
 6670      5D0BA8CC 
 6670      6CCCC65F 
 6670      D3909B00 
 6671 3bd0 A9744C9F 		.ascii	"\251tL\237\257D\262}\243\314\252_S\001\277\024`\267"
 6671      AF44B27D 
 6671      A3CCAA5F 
 6671      5301BF14 
 6671      60B7
 6672 3be2 05827D95 		.ascii	"\005\202}\225+\277\004{{\241\330\325y>\216\022\007\234"
 6672      2BBF047B 
 6672      7BA1D8D5 
 6672      793E8E12 
 6672      079C
 6673 3bf4 2C2AD6C8 		.ascii	",*\326\310~\0128\017\016\256v+x\0242!\030|\317\374\360"
 6673      7E0A380F 
 6673      0EAE762B 
 6673      78143221 
 6673      187CCFFC 
 6674 3c09 3C024FF5 		.ascii	"<\002O\365\243\237\217\037\025\223\361\322\023\376\361"
 6674      A39F8F1F 
 6674      1593F1D2 
 6674      13FEF1
 6675 3c18 F07C7E1F 		.ascii	"\360|~\037\343w).\007\2167\210J\207_\375!\012Ma\236"
 6675      E377292E 
 6675      078E3788 
 6675      4A875FFD 
 6675      210A4D61 
 6676 3c2d A5BAFF36 		.ascii	"\245\272\3776\015M\260\242\2407\312\250\002\355i\030"
 6676      0D4DB0A2 
 6676      A037CAA8 
 6676      02ED6918 
 6677 3c3d D6CB4A2C 		.ascii	"\326\313J,B\361\003W\307p\266b\354w\366\011T\236W\367"
 6677      42F10357 
 6677      C770B662 
 6677      EC77F609 
 6677      549E57F7 
 6678 3c51 C5D9E67D 		.ascii	"\305\331\346}P\206M\000E\030\014\207\335\226\242\366"
 6678      50864D00 
 6678      45180C87 
 6678      DD96A2F6 
 6679 3c61 E39CA4FE 		.ascii	"\343\234\244\376T9\037Wq\372\326~/5\326\024T\256|\233"
 6679      54391F57 
 6679      71FAD67E 
 6679      2F35D614 
 6679      54AE7C9B 
ARM GAS  /tmp/ccydMd0r.s 			page 246


 6680 3c75 3AD8CDE2 		.ascii	":\330\315\342s\370\032\351\025\364T1\221\306u \221\012"
 6680      73F81AE9 
 6680      15F45431 
 6680      91C67520 
 6680      910A
 6681 3c87 70AD0BD6 		.ascii	"p\255\013\326\222\203\361\307\343hL\"\011\274\356\253"
 6681      9283F1C7 
 6681      E3684C22 
 6681      09BCEEAB 
 6682 3c97 E3503AF6 		.ascii	"\343P:\3662+\250\245\232\245:\010\250)\374e\340\207"
 6682      322BA8A5 
 6682      9AA53A08 
 6682      A829FC65 
 6682      E087
 6683 3ca9 53D60FC5 		.ascii	"S\326\017\305H\356\247;\034P\021\236h\251{:(\035\235"
 6683      48EEA73B 
 6683      1C50119E 
 6683      68A97B3A 
 6683      281D9D
 6684 3cbc 11929B27 		.ascii	"\021\222\233'\232U\205$ZU\350?\250\304v\314\336\336"
 6684      9A558524 
 6684      5A55E83F 
 6684      A8C476CC 
 6684      DEDE
 6685 3cce C18C18B9 		.ascii	"\301\214\030\271p\205\205\255V\301\276R\004\235z\304"
 6685      708585AD 
 6685      56C1BE52 
 6685      049D7AC4 
 6686 3cde D2D7C378 		.ascii	"\322\327\303xD\020\366`C\216C\343\347\362\202T\351h"
 6686      4410F660 
 6686      438E43E3 
 6686      E7F28254 
 6686      E968
 6687 3cf0 2B4BDFD8 		.ascii	"+K\337\3305\341\036\211\316\257\344es\364cZJ\350\252"
 6687      35E11E89 
 6687      CEAFE465 
 6687      73F4635A 
 6687      4AE8AA
 6688 3d03 56E41DED 		.ascii	"V\344\035\355\364\342\011\370\037*\320\271\342y\032"
 6688      F4E209F8 
 6688      1F2AD0B9 
 6688      E2791A
 6689 3d12 A9F31AC2 		.ascii	"\251\363\032\302D\002+\230\2239\332a\036\367\025.\030"
 6689      44022B98 
 6689      9339DA61 
 6689      1EF7152E 
 6689      18
 6690 3d23 D7907AED 		.ascii	"\327\220z\355\257\343\270:b\023O\347At*I\212\331\025"
 6690      AFE3B83A 
 6690      62134FE7 
 6690      41742A49 
 6690      8AD915
 6691 3d36 677728D1 		.ascii	"gw(\321.2\303 \243o\334{\270\036G\330\262\005\263\001"
 6691      2E32C320 
 6691      A36FDC7B 
 6691      B81E47D8 
 6691      B205B301 
ARM GAS  /tmp/ccydMd0r.s 			page 247


 6692 3d4a 0E454931 		.ascii	"\016EI1\241W\232\246\335i\265yE\3524\311\222\006\247"
 6692      A1579AA6 
 6692      DD69B579 
 6692      45EA34C9 
 6692      9206A7
 6693 3d5d 299C683A 		.ascii	")\234h:\227\215=\354\036\362\030\353|\036\023\241\001"
 6693      978D3DEC 
 6693      1EF218EB 
 6693      7C1E13A1 
 6693      01
 6694 3d6e C6B9F1B4 		.ascii	"\306\271\361\264\303\230,<2\272\244\263z\015.\213\254"
 6694      C3982C3C 
 6694      32BAA4B3 
 6694      7A0D2E8B 
 6694      AC
 6695 3d7f 18224AD6 		.ascii	"\030\"J\326I\240'/\021\213\302n\207\271U\210\025\346"
 6695      49A0272F 
 6695      118BC26E 
 6695      87B95588 
 6695      15E6
 6696 3d91 52199405 		.ascii	"R\031\224\005Q\303\326\013\327\300\2279\324>\237\311"
 6696      51C3D60B 
 6696      D7C09739 
 6696      D43E9FC9 
 6697 3da1 2CCAA647 		.ascii	",\312\246G\371\036\311d\252\215\312=\251\264\001*NV"
 6697      F91EC964 
 6697      AA8DCA3D 
 6697      A9B4012A 
 6697      4E56
 6698 3db3 C90257F6 		.ascii	"\311\002W\366aL\255\227\265\201\244\217\322\220\217"
 6698      614CAD97 
 6698      B581A48F 
 6698      D2908F
 6699 3dc2 8939BE17 		.ascii	"\2119\276\027\257\333Y\226\256%0\214~%\277\320\342\276"
 6699      AFDB5996 
 6699      AE25308C 
 6699      7E25BFD0 
 6699      E2BE
 6700 3dd4 D9FA3845 		.ascii	"\331\3728E\010[!\302\010\236\373\350-\344\215Q\204\234"
 6700      085B21C2 
 6700      089EFBE8 
 6700      2DE48D51 
 6700      849C
 6701 3de6 B4DDD81D 		.ascii	"\264\335\330\0358G\360\247q\252\353\2578\016\017iB-"
 6701      3847F0A7 
 6701      71AAEBAF 
 6701      380E0F69 
 6701      422D
 6702 3df8 01DC86B6 		.ascii	"\001\334\206\266X\354\200Qy\247:\320\321\245\204\232"
 6702      58EC8051 
 6702      79A73AD0 
 6702      D1A5849A 
 6703 3e08 AE78CDF5 		.ascii	"\256x\315\3659\357\354{\374\332\015e\316\012\215\004"
 6703      39EFEC7B 
 6703      FCDA0D65 
 6703      CE0A8D04 
 6704 3e18 8EBF2E94 		.ascii	"\216\277.\224\033EW\346\260\266LK\230X\"\373 \337\203"
ARM GAS  /tmp/ccydMd0r.s 			page 248


 6704      1B4557E6 
 6704      B0B64C4B 
 6704      985822FB 
 6704      20DF83
 6705 3e2b AC6FE036 		.ascii	"\254o\3406\301|\350\007(\032\003\352\201\0276\371K-"
 6705      C17CE807 
 6705      281A03EA 
 6705      811736F9 
 6705      4B2D
 6706 3e3d DB0DBDC9 		.ascii	"\333\015\275\311jX\273&\036\223x0?\224\201\342T\347"
 6706      6A58BB26 
 6706      1E937830 
 6706      3F9481E2 
 6706      54E7
 6707 3e4f BACDEE11 		.ascii	"\272\315\356\021\007\315\230l\2071\230\227D?\253\213"
 6707      07CD986C 
 6707      87319897 
 6707      443FAB8B 
 6708 3e5f 6B6B1DD4 		.ascii	"kk\035\324\233}\0071\037YC\241\251vE\263\224\241\363"
 6708      9B7D0731 
 6708      1F5943A1 
 6708      A97645B3 
 6708      94A1F3
 6709 3e72 21C55A0D 		.ascii	"!\305Z\015\012\242\224\237T\304\265\272\350\232"
 6709      0AA2949F 
 6709      54C4B5BA 
 6709      E89A
 6710 3e80 FD23EEE0 		.ascii	"\375#\356\340t$\005\361N\360\211i\264\344\013u\212\006"
 6710      742405F1 
 6710      4EF08969 
 6710      B4E40B75 
 6710      8A06
 6711 3e92 597773F3 		.ascii	"Yws\363\012\316\212\325v\367\302\344\337m\264\375Cz"
 6711      0ACE8AD5 
 6711      76F7C2E4 
 6711      DF6DB4FD 
 6711      437A
 6712 3ea4 838586D7 		.ascii	"\203\205\206\327\202NM\342`a\332\027T\347\363\214\231"
 6712      824E4DE2 
 6712      6061DA17 
 6712      54E7F38C 
 6712      99
 6713 3eb5 2337BBEB 		.ascii	"#7\273\353_\245\207W\334lM\015\267\337\327\322`}\022"
 6713      5FA58757 
 6713      DC6C4D0D 
 6713      B7DFD7D2 
 6713      607D12
 6714 3ec8 94AD903F 		.ascii	"\224\255\220?@\036H\301\"\2104\027\223\376\371Y\307"
 6714      401E48C1 
 6714      22883417 
 6714      93FEF959 
 6714      C7
 6715 3ed9 2F236A9F 		.ascii	"/#j\237\310\374\252\267\232W\331\031w\376\245\265\013"
 6715      C8FCAAB7 
 6715      9A57D919 
 6715      77FEA5B5 
 6715      0B
ARM GAS  /tmp/ccydMd0r.s 			page 249


 6716 3eea B74C659C 		.ascii	"\267Le\234_\037Z\036J\264\264`\304T}u_\371\374IB\350"
 6716      5F1F5A1E 
 6716      4AB4B460 
 6716      C4547D75 
 6716      5FF9FC49 
 6717 3f00 04100242 		.ascii	"\004\020\002B\303r\026\2150\266\260n\226\253\177\352"
 6717      C372168D 
 6717      30B6B06E 
 6717      96AB7FEA 
 6718 3f10 E323F7FB 		.ascii	"\343#\367\373\377\346J;!\325\346\235\023!\024\314\350"
 6718      FFE64A3B 
 6718      21D5E69D 
 6718      132114CC 
 6718      E8
 6719 3f21 F3125BD1 		.ascii	"\363\022[\321\001\212\267iA\015\000\263sh\240\266\357"
 6719      018AB769 
 6719      410D00B3 
 6719      7368A0B6 
 6719      EF
 6720 3f32 2637DBBF 		.ascii	"&7\333\277\355\372\344\211\222K,_\254\216\363\020\214"
 6720      EDFAE489 
 6720      924B2C5F 
 6720      AC8EF310 
 6720      8C
 6721 3f43 1C2DA86D 		.ascii	"\034-\250m4{0\231`0\247\224\376\322O\007\347K\003E\330"
 6721      347B3099 
 6721      6030A794 
 6721      FED24F07 
 6721      E74B0345 
 6722 3f58 524582DC 		.ascii	"RE\202\334'$QN\3220\330\324U;\340t?2\361\345\027z\363"
 6722      2724514E 
 6722      D230D8D4 
 6722      553BE074 
 6722      3F32F1E5 
 6723 3f6f 83E84282 		.ascii	"\203\350B\202F{K\315>a\230\311\321\365\204\330\317\373"
 6723      467B4BCD 
 6723      3E6198C9 
 6723      D1F584D8 
 6723      CFFB
 6724 3f81 4505921E 		.ascii	"E\005\222\036'\243\203J\012q\313qF\221\225i2Q\254\256"
 6724      27A3834A 
 6724      0A71CB71 
 6724      46919569 
 6724      3251ACAE 
 6725 3f95 3121C463 		.ascii	"1!\304c\351V\007\325pR\004P\326Z\334\222\371\274C\237"
 6725      E95607D5 
 6725      70520450 
 6725      D65ADC92 
 6725      F9BC439F 
 6726 3fa9 94752BFD 		.ascii	"\224u+\375\232G\3602\011\312\275\261yA>\3555I\024.\327"
 6726      9A47F032 
 6726      09CABDB1 
 6726      79413EED 
 6726      3549142E 
 6727 3fbe E14398B7 		.ascii	"\341C\230\267\357F\330a\334\254+\323\350\363:\317\327"
 6727      EF46D861 
 6727      DCAC2BD3 
ARM GAS  /tmp/ccydMd0r.s 			page 250


 6727      E8F33ACF 
 6727      D7
 6728 3fcf FB363C03 		.ascii	"\3736<\003G\2328\360mB{\256\320`dK'\227\233y\2537\275"
 6728      479A38F0 
 6728      6D427BAE 
 6728      D060644B 
 6728      27979B79 
 6729 3fe6 EE1329CB 		.ascii	"\356\023)\313zx~\211\251\210\205\244\034y.OX}\2073{"
 6729      7A787E89 
 6729      A98885A4 
 6729      1C792E4F 
 6729      587D8733 
 6730 3ffb 4BDAB2A2 		.ascii	"K\332\262\242\343$\177 \031\300IB[\342%\360\007<\330"
 6730      E3247F20 
 6730      19C04942 
 6730      5BE225F0 
 6730      073CD8
 6731 400e 00336E71 		.ascii	"\0003nq\025B\321\230\322\021u\307\231k\340\243\203\263"
 6731      1542D198 
 6731      D21175C7 
 6731      996BE0A3 
 6731      83B3
 6732 4020 2D7C026D 		.ascii	"-|\002m^\024\262\273p\367\3549\027\016\300\363El\026"
 6732      5E14B2BB 
 6732      70F7EC39 
 6732      170EC0F3 
 6732      456C16
 6733 4033 F5E73F40 		.ascii	"\365\347?@G\222\013\304\314\223\321\255\013\274\224"
 6733      47920BC4 
 6733      CC93D1AD 
 6733      0BBC94
 6734 4042 E1892474 		.ascii	"\341\211$t\023u\3021\321k\001z+\274\377[\3419\205G\307"
 6734      1375C231 
 6734      D16B017A 
 6734      2BBCFF5B 
 6734      E1398547 
 6735 4057 EFFF060E 		.ascii	"\357\377\006\016M\260\350\015{Y\216'\270\342\005B\215"
 6735      4DB0E80D 
 6735      7B598E27 
 6735      B8E20542 
 6735      8D
 6736 4068 1DCED200 		.ascii	"\035\316\322\000\004F~\305\005\033d\031o\225\251+\315"
 6736      04467EC5 
 6736      051B6419 
 6736      6F95A92B 
 6736      CD
 6737 4079 FE1FBDC4 		.ascii	"\376\037\275\304\271:\340\225i\340\340~(\210\342\373"
 6737      B93AE095 
 6737      69E0E07E 
 6737      2888E2FB 
 6738 4089 4AA9A4ED 		.ascii	"J\251\244\355\037ZM\357\016\323\250\037?\003\244\352"
 6738      1F5A4DEF 
 6738      0ED3A81F 
 6738      3F03A4EA 
 6739 4099 78172301 		.ascii	"x\027#\001\012\372D\300\362\327\231\011o\243\350\200"
 6739      0AFA44C0 
 6739      F2D79909 
ARM GAS  /tmp/ccydMd0r.s 			page 251


 6739      6FA3E880 
 6740 40a9 60645032 		.ascii	"`dP2z\275}\354\207\017%@\267\267\350\266\316\301\345"
 6740      7ABD7DEC 
 6740      870F2540 
 6740      B7B7E8B6 
 6740      CEC1E5
 6741 40bc 8FA9C18D 		.ascii	"\217\251\301\215\024\003\222\272?\002A;/\257\011\264"
 6741      140392BA 
 6741      3F02413B 
 6741      2FAF09B4 
 6742 40cc A2011EF1 		.ascii	"\242\001\036\361y\253\307\332\340\343\370]\234\002A"
 6742      79ABC7DA 
 6742      E0E3F85D 
 6742      9C0241
 6743 40db 7B9D1226 		.ascii	"{\235\022&\200Y\226g\245\254\032c&\266\354(D\276Y\262"
 6743      80599667 
 6743      A5AC1A63 
 6743      26B6EC28 
 6743      44BE59B2 
 6744 40ef 8EB45CD9 		.ascii	"\216\264\\\331\227\200.\346\320\272\260\205D\210\234"
 6744      97802EE6 
 6744      D0BAB085 
 6744      44889C
 6745 40fe D456ABA2 		.ascii	"\324V\253\242\323\031\2762\001\222j\320\202\340\254"
 6745      D319BE32 
 6745      01926AD0 
 6745      82E0AC
 6746 410d 57B3CFCD 		.ascii	"W\263\317\315WJ\352y\007\022)\374\366^\215J\201\021"
 6746      574AEA79 
 6746      071229FC 
 6746      F65E8D4A 
 6746      8111
 6747 411f 43CDF683 		.ascii	"C\315\366\203\257[l\325\033<\210q+\221(\313:\032\246"
 6747      AF5B6CD5 
 6747      1B3C8871 
 6747      2B9128CB 
 6747      3A1AA6
 6748 4132 73A6C3F2 		.ascii	"s\246\303\362\3060\242\345>\251:H\305l\307\312\003'"
 6748      C630A2E5 
 6748      3EA93A48 
 6748      C56CC7CA 
 6748      0327
 6749 4144 EE01BED2 		.ascii	"\356\001\276\322\330;\224\267\201\016X\320\365\300\245"
 6749      D83B94B7 
 6749      810E58D0 
 6749      F5C0A5
 6750 4153 2AB9C888 		.ascii	"*\271\310\210\347\010vj\210\216\364&\351\331\316Ux\250"
 6750      E708766A 
 6750      888EF426 
 6750      E9D9CE55 
 6750      78A8
 6751 4165 1F0BD7B3 		.ascii	"\037\013\327\263[\253\337\255\331(\230\241\230\006b"
 6751      5BABDFAD 
 6751      D92898A1 
 6751      980662
 6752 4174 5CF9B0D2 		.ascii	"\\\371\260\322\012\265\242z\350Fb@\265\201\331\363"
 6752      0AB5A27A 
ARM GAS  /tmp/ccydMd0r.s 			page 252


 6752      E8466240 
 6752      B581D9F3 
 6753              		.section	.rodata.fw_patch_13_rgbnir_cert,"a"
 6756              	fw_patch_13_rgbnir_cert:
 6757 0000 3081D483 		.ascii	"0\201\324\203\001\001\224@y\321\356l\314q\272\367l\034"
 6757      01019440 
 6757      79D1EE6C 
 6757      CC71BAF7 
 6757      6C1C
 6758 0012 334326A4 		.ascii	"3C&\244\000\342y\241w9GB6\204C\261)>p\330\342[\030E"
 6758      00E279A1 
 6758      77394742 
 6758      368443B1 
 6758      293E70D8 
 6759 002a D09BAEE9 		.ascii	"\320\233\256\351\363,\023\252J\325\313\245\005\261\237"
 6759      F32C13AA 
 6759      4AD5CBA5 
 6759      05B19F
 6760 0039 77DB1D42 		.ascii	"w\333\035Br\312gz\017Q\177\340\260\275\332\212\004S"
 6760      72CA677A 
 6760      0F517FE0 
 6760      B0BDDA8A 
 6760      0453
 6761 004b 3934308B 		.ascii	"940\213\020\275\236\260\226\304\303u//u\335\256\300"
 6761      10BD9EB0 
 6761      96C4C375 
 6761      2F2F75DD 
 6761      AEC0
 6762 005d B679E681 		.ascii	"\266y\346\201\020\000\000\000\000\000\000\000\000\000"
 6762      10000000 
 6762      00000000 
 6762      0000
 6763 006b 00000000 		.ascii	"\000\000\000\000\000\000\000\204\001\255\207 c\352]"
 6763      00000084 
 6763      01AD8720 
 6763      63EA5D
 6764 007a 77CD0F24 		.ascii	"w\315\017$W7\011\262w\312c\232M\322\326\212\304\230"
 6764      573709B2 
 6764      77CA639A 
 6764      4DD2D68A 
 6764      C498
 6765 008c 1932DC05 		.ascii	"\0312\334\005\357&\202\3022i\217\222\020\241\247\244"
 6765      EF2682C2 
 6765      32698F92 
 6765      10A1A7A4 
 6766 009c 667757B2 		.ascii	"fwW\262p\005\240B\206\000\326\320Y\205\001\000\202\001"
 6766      7005A042 
 6766      8600D6D0 
 6766      59850100 
 6766      8201
 6767 00ae DB302604 		.ascii	"\3330&\004\004ettm1\036\004\004dbgr\004\004olbt\004"
 6767      04657474 
 6767      6D311E04 
 6767      04646267 
 6767      7204046F 
 6768 00c6 0470726F 		.ascii	"\004prov\004\004rcaw\004\004vtrp0F\002!\000\266\231"
 6768      76040472 
ARM GAS  /tmp/ccydMd0r.s 			page 253


 6768      63617704 
 6768      04767472 
 6768      70304602 
 6769 00de C4F8C638 		.ascii	"\304\370\3068\271\231\351\016\325~\001~\313\320\315"
 6769      B999E90E 
 6769      D57E017E 
 6769      CBD0CD
 6770 00ed 734D4C27 		.ascii	"sML':0i\024-\346'\"\243<\343\002!\000\244\316\306\014"
 6770      3A306914 
 6770      2DE62722 
 6770      A33CE302 
 6770      2100A4CE 
 6771 0103 18584F45 		.ascii	"\030XOEDk[\375\221+\335\207\303\013\275S\024\223\300"
 6771      446B5BFD 
 6771      912BDD87 
 6771      C30BBD53 
 6771      1493C0
 6772 0116 EE5B7A76 		.ascii	"\356[zv\010\010\353O\3140\201\214\203\001\001\212\004"
 6772      0808EB4F 
 6772      CC30818C 
 6772      8301018A 
 6772      04
 6773 0127 53393430 		.ascii	"S940\213\020\275\236\260\226\304\303u//u\335\256\300"
 6773      8B10BD9E 
 6773      B096C4C3 
 6773      752F2F75 
 6773      DDAEC0
 6774 013a B679E681 		.ascii	"\266y\346\201\020\000\000\000\000\000\000\000\000\000"
 6774      10000000 
 6774      00000000 
 6774      0000
 6775 0148 00000000 		.ascii	"\000\000\000\000\000\000\000\204\001\255\207 c\352]"
 6775      00000084 
 6775      01AD8720 
 6775      63EA5D
 6776 0157 77CD0F24 		.ascii	"w\315\017$W7\011\262w\312c\232M\322\326\212\304\230"
 6776      573709B2 
 6776      77CA639A 
 6776      4DD2D68A 
 6776      C498
 6777 0169 1932DC05 		.ascii	"\0312\334\005\357&\202\3022i\217\222\020\241\247\244"
 6777      EF2682C2 
 6777      32698F92 
 6777      10A1A7A4 
 6778 0179 667757B2 		.ascii	"fwW\262p\005\240B\206\000\326\320Y\205\001\000\202\001"
 6778      7005A042 
 6778      8600D6D0 
 6778      59850100 
 6778      8201
 6779 018b DB302004 		.ascii	"\3330 \004\004ettm1\030\004\004dbgr\004\004olbt\004"
 6779      04657474 
 6779      6D311804 
 6779      04646267 
 6779      7204046F 
 6780 01a3 0470726F 		.ascii	"\004prov\004\004vtrp0E\002 lQ\373\355m\203!\330\255"
 6780      76040476 
 6780      74727030 
ARM GAS  /tmp/ccydMd0r.s 			page 254


 6780      4502206C 
 6780      51FBED6D 
 6781 01bb BA713581 		.ascii	"\272q5\201\214W\363O+\035Ep\234\254\337]\345I.\260\376"
 6781      8C57F34F 
 6781      2B1D4570 
 6781      9CACDF5D 
 6781      E5492EB0 
 6782 01d0 B3520221 		.ascii	"\263R\002!\000\264\335\237\237\032\376\017\373\230\331"
 6782      00B4DD9F 
 6782      9F1AFE0F 
 6782      FB98D9
 6783 01df A7A99048 		.ascii	"\247\251\220H\177\310\223G\251\250\314\223\006\214\204"
 6783      7FC89347 
 6783      A9A8CC93 
 6783      068C84
 6784 01ee 79B09439 		.ascii	"y\260\2249\032\314\023"
 6784      1ACC13
 6785              		.section	.rodata.fw_patch_13_rgbnir_array,"a"
 6788              	fw_patch_13_rgbnir_array:
 6789 0000 ECEC9C0F 		.ascii	"\354\354\234\017l\216E\201\300\256\035\347M\226\212"
 6789      6C8E4581 
 6789      C0AE1DE7 
 6789      4D968A
 6790 000f 66FCF8A2 		.ascii	"f\374\370\242\246j\366\361\3349\244\376\222\235;\210"
 6790      A66AF6F1 
 6790      DC39A4FE 
 6790      929D3B88 
 6791 001f 7F228F30 		.ascii	"\177\"\2170\360\235\\~mg7U\320d\214\250\355<\201\301"
 6791      F09D5C7E 
 6791      6D673755 
 6791      D0648CA8 
 6791      ED3C81C1 
 6792 0033 C75D50E0 		.ascii	"\307]P\340)\373{\025G\334S\257\035S\003\304H\037\267"
 6792      29FB7B15 
 6792      47DC53AF 
 6792      1D5303C4 
 6792      481FB7
 6793 0046 DD4EA664 		.ascii	"\335N\246dP>#\267C\341\314\271\224\356\305\263\354\363"
 6793      503E23B7 
 6793      43E1CCB9 
 6793      94EEC5B3 
 6793      ECF3
 6794 0058 43F35FE6 		.ascii	"C\363_\346F\363\313\255\270\334\236\225D\206\247\273"
 6794      46F3CBAD 
 6794      B8DC9E95 
 6794      4486A7BB 
 6795 0068 A45A4494 		.ascii	"\244ZD\224\011=#D\230P\276'\274\305\357\027\341\337"
 6795      093D2344 
 6795      9850BE27 
 6795      BCC5EF17 
 6795      E1DF
 6796 007a 082A2AD1 		.ascii	"\010**\321Y\216\316V\254\033&\312\204\356\364o\240\031"
 6796      598ECE56 
 6796      AC1B26CA 
 6796      84EEF46F 
 6796      A019
 6797 008c 122B89C2 		.ascii	"\022+\211\3029\031s\336\265J\302\377O\260C\374\202&"
ARM GAS  /tmp/ccydMd0r.s 			page 255


 6797      391973DE 
 6797      B54AC2FF 
 6797      4FB043FC 
 6797      8226
 6798 009e 142581A9 		.ascii	"\024%\201\251\353\232\310{\370\241\253\220,H\244\212"
 6798      EB9AC87B 
 6798      F8A1AB90 
 6798      2C48A48A 
 6799 00ae 9BB4355F 		.ascii	"\233\2645_W\370\222\216\014\256\302\200\234O\030Q\013"
 6799      57F8928E 
 6799      0CAEC280 
 6799      9C4F1851 
 6799      0B
 6800 00bf C40CEA1D 		.ascii	"\304\014\352\035I\212\342\366B\326\277\342L\255Wa\024"
 6800      498AE2F6 
 6800      42D6BFE2 
 6800      4CAD5761 
 6800      14
 6801 00d0 B2B96ACF 		.ascii	"\262\271j\317\205\0324\236q\030\034\210\177$\376\234"
 6801      851A349E 
 6801      71181C88 
 6801      7F24FE9C 
 6802 00e0 A6D895FC 		.ascii	"\246\330\225\374d\364\345^?R\202\024o\304\254Bj\347"
 6802      64F4E55E 
 6802      3F528214 
 6802      6FC4AC42 
 6802      6AE7
 6803 00f2 9FC66741 		.ascii	"\237\306gA>\016<c\021_\360#B\235\217\221\302?\317\201"
 6803      3E0E3C63 
 6803      115FF023 
 6803      429D8F91 
 6803      C23FCF81 
 6804 0106 C9870AF5 		.ascii	"\311\207\012\3657d\265)5\246\360;\343\326\013OO\217"
 6804      3764B529 
 6804      35A6F03B 
 6804      E3D60B4F 
 6804      4F8F
 6805 0118 C2F01A06 		.ascii	"\302\360\032\006\312\217b\370\351\351VX\364U\2000\303"
 6805      CA8F62F8 
 6805      E9E95658 
 6805      F4558030 
 6805      C3
 6806 0129 FCDE6E45 		.ascii	"\374\336nE\007c}\375\362\275\035)\"Pk\\\277\346\337"
 6806      07637DFD 
 6806      F2BD1D29 
 6806      22506B5C 
 6806      BFE6DF
 6807 013c D49084FD 		.ascii	"\324\220\204\375\213t\207\201\374\211\203\322\302=\216"
 6807      8B748781 
 6807      FC8983D2 
 6807      C23D8E
 6808 014b 434E78A6 		.ascii	"CNx\246.7\214\373:\255\036\025\355\010N|\003\221 \037"
 6808      2E378CFB 
 6808      3AAD1E15 
 6808      ED084E7C 
 6808      0391201F 
 6809 015f E0AB8A58 		.ascii	"\340\253\212X\017\347\245.\002S>8\337\232pf\204'~S\255"
ARM GAS  /tmp/ccydMd0r.s 			page 256


 6809      0FE7A52E 
 6809      02533E38 
 6809      DF9A7066 
 6809      84277E53 
 6810 0174 D5B387AD 		.ascii	"\325\263\207\255'9\206\2055\376\377\364\215\342E\356"
 6810      27398685 
 6810      35FEFFF4 
 6810      8DE245EE 
 6811 0184 A3B1F0FB 		.ascii	"\243\261\360\373N\310\237W\365\354\012\234\345\357\020"
 6811      4EC89F57 
 6811      F5EC0A9C 
 6811      E5EF10
 6812 0193 0EFBCC4F 		.ascii	"\016\373\314O\020\274\3654\375\230l\010\216\005\242"
 6812      10BCF534 
 6812      FD986C08 
 6812      8E05A2
 6813 01a2 597D1646 		.ascii	"Y}\026F\307\353\213\301\317\216\016\344Y\347\261\242"
 6813      C7EB8BC1 
 6813      CF8E0EE4 
 6813      59E7B1A2 
 6814 01b2 D4E250A5 		.ascii	"\324\342P\245i\244\014Y\251I\231\016y\307\264;.Z'\000"
 6814      69A40C59 
 6814      A949990E 
 6814      79C7B43B 
 6814      2E5A2700 
 6815 01c6 BB3DBCE6 		.ascii	"\273=\274\346\3476\372!\263\013\"_[y \370\333\001\002"
 6815      E736FA21 
 6815      B30B225F 
 6815      5B7920F8 
 6815      DB0102
 6816 01d9 A97AA04D 		.ascii	"\251z\240M*\324\204\264\361\256F\300\013\304\022\226"
 6816      2AD484B4 
 6816      F1AE46C0 
 6816      0BC41296 
 6817 01e9 9BE2EBF8 		.ascii	"\233\342\353\370S9\251\263\" '\260\307\302Z\320\361"
 6817      5339A9B3 
 6817      222027B0 
 6817      C7C25AD0 
 6817      F1
 6818 01fa FE0806A3 		.ascii	"\376\010\006\243\245\350d9\364\010\242\323\362b~iT\375"
 6818      A5E86439 
 6818      F408A2D3 
 6818      F2627E69 
 6818      54FD
 6819 020c 9054D8D7 		.ascii	"\220T\330\327D\002+\244z\212\007\334\337\\\202o\362"
 6819      44022BA4 
 6819      7A8A07DC 
 6819      DF5C826F 
 6819      F2
 6820 021d 844BADF2 		.ascii	"\204K\255\362\374Th\215+\305\321\235f;\300g\255T\322"
 6820      FC54688D 
 6820      2BC5D19D 
 6820      663BC067 
 6820      AD54D2
 6821 0230 F0F0C4B8 		.ascii	"\360\360\304\270 <}u\313Z\267$\222\212\023\376J4\355"
 6821      203C7D75 
 6821      CB5AB724 
ARM GAS  /tmp/ccydMd0r.s 			page 257


 6821      928A13FE 
 6821      4A34ED
 6822 0243 733A4445 		.ascii	"s:DE\321&\320\345\354\257IM\250E\313\300\346\322\336"
 6822      D126D0E5 
 6822      ECAF494D 
 6822      A845CBC0 
 6822      E6D2DE
 6823 0256 A4A51F5E 		.ascii	"\244\245\037^l\273\011\327\020\264}\217F\223\234\037"
 6823      6CBB09D7 
 6823      10B47D8F 
 6823      46939C1F 
 6824 0266 164CA44D 		.ascii	"\026L\244M\0138\030\005\245\253\223\017+\355\014\314"
 6824      0B381805 
 6824      A5AB930F 
 6824      2BED0CCC 
 6825 0276 7F4D5979 		.ascii	"\177MYy4Y\221\311L\340\201G\346\245\334^\331\237{Z?"
 6825      345991C9 
 6825      4CE08147 
 6825      E6A5DC5E 
 6825      D99F7B5A 
 6826 028b C7D349E3 		.ascii	"\307\323I\343>\347\275*\377\206\374h\333\177\025?nd"
 6826      3EE7BD2A 
 6826      FF86FC68 
 6826      DB7F153F 
 6826      6E64
 6827 029d 63A8749B 		.ascii	"c\250t\233\300E\223\226\014]\361\036\323A\376\377\220"
 6827      C0459396 
 6827      0C5DF11E 
 6827      D341FEFF 
 6827      90
 6828 02ae 4C002E6C 		.ascii	"L\000.l\223\243o\301X\200\027\254<B\033p\227q\321\326"
 6828      93A36FC1 
 6828      588017AC 
 6828      3C421B70 
 6828      9771D1D6 
 6829 02c2 5B07166A 		.ascii	"[\007\026j}\330%\220\272w\021\202\035\027\316^=\273"
 6829      7DD82590 
 6829      BA771182 
 6829      1D17CE5E 
 6829      3DBB
 6830 02d4 1805ED61 		.ascii	"\030\005\355a\243\361\315\000\356\303\316\266\373G\374"
 6830      A3F1CD00 
 6830      EEC3CEB6 
 6830      FB47FC
 6831 02e3 F11F34E8 		.ascii	"\361\0374\350g\276&\215 \212\203>\327\270\345\216\206"
 6831      67BE268D 
 6831      208A833E 
 6831      D7B8E58E 
 6831      86
 6832 02f4 C791E995 		.ascii	"\307\221\351\225\205\3210\337\304@\3026\250\324\341"
 6832      85D130DF 
 6832      C440C236 
 6832      A8D4E1
 6833 0303 C815B18F 		.ascii	"\310\025\261\217\231\002E!\237x\322\352\033H\247\273"
 6833      99024521 
 6833      9F78D2EA 
 6833      1B48A7BB 
ARM GAS  /tmp/ccydMd0r.s 			page 258


 6834 0313 958246CF 		.ascii	"\225\202F\317\006\234MK\036\361\000\310\023L\243^\""
 6834      069C4D4B 
 6834      1EF100C8 
 6834      134CA35E 
 6834      22
 6835 0324 F00CBF0B 		.ascii	"\360\014\277\013o\037P\020\251\372\177\325\374z\360"
 6835      6F1F5010 
 6835      A9FA7FD5 
 6835      FC7AF0
 6836 0333 BA2787E1 		.ascii	"\272'\207\341\247&\"\337q\277k8\316\310\200\275\317"
 6836      A72622DF 
 6836      71BF6B38 
 6836      CEC880BD 
 6836      CF
 6837 0344 15DCF175 		.ascii	"\025\334\361u\251\020\206BU\311\233>5\210\234\367t\344"
 6837      A9108642 
 6837      55C99B3E 
 6837      35889CF7 
 6837      74E4
 6838 0356 15007D36 		.ascii	"\025\000}6a\371\213K\276\027\246\312\347J\202`\373\346"
 6838      61F98B4B 
 6838      BE17A6CA 
 6838      E74A8260 
 6838      FBE6
 6839 0368 BAA5619E 		.ascii	"\272\245a\236\303\223\361\354&\211\345>|\177n\031\264"
 6839      C393F1EC 
 6839      2689E53E 
 6839      7C7F6E19 
 6839      B4
 6840 0379 23CA4537 		.ascii	"#\312E7\030\\\315\327\246\377N\220h(\327{\306\316f\234"
 6840      185CCDD7 
 6840      A6FF4E90 
 6840      6828D77B 
 6840      C6CE669C 
 6841 038d C1226FD5 		.ascii	"\301\"o\325/\021\003\256@\217\304Fl\251rf\006\262\342"
 6841      2F1103AE 
 6841      408FC446 
 6841      6CA97266 
 6841      06B2E2
 6842 03a0 D8F3F622 		.ascii	"\330\363\366\"\324\246\002\312\2670'\216\020\266\334"
 6842      D4A602CA 
 6842      B730278E 
 6842      10B6DC
 6843 03af 5D1EA63D 		.ascii	"]\036\246=S\005t?\020xW|\353\231\211\003&Ea\263\334"
 6843      5305743F 
 6843      1078577C 
 6843      EB998903 
 6843      264561B3 
 6844 03c4 35056543 		.ascii	"5\005eC\217k=H\341)\3138\027\210'\337\351\311CKhQ\251"
 6844      8F6B3D48 
 6844      E129CB38 
 6844      178827DF 
 6844      E9C9434B 
 6845 03db B07B6F65 		.ascii	"\260{oe.Y\361\272\274\316D%\026R\231\250c\352k\357*"
 6845      2E59F1BA 
 6845      BCCE4425 
 6845      165299A8 
ARM GAS  /tmp/ccydMd0r.s 			page 259


 6845      63EA6BEF 
 6846 03f0 B0DC977C 		.ascii	"\260\334\227|\264\264\234\244_\233g0\341\227\342wZ\200"
 6846      B4B49CA4 
 6846      5F9B6730 
 6846      E197E277 
 6846      5A80
 6847 0402 38B60E71 		.ascii	"8\266\016q\016\311\237\0360\276F\260\005\253O@\024\034"
 6847      0EC99F1E 
 6847      30BE46B0 
 6847      05AB4F40 
 6847      141C
 6848 0414 DF2D7FF8 		.ascii	"\337-\177\370\311\347\337\327O\336\372\364\347\260\200"
 6848      C9E7DFD7 
 6848      4FDEFAF4 
 6848      E7B080
 6849 0423 7C1221EF 		.ascii	"|\022!\357a\235\272\257A?\031^\300\004uw^\027\335\276"
 6849      619DBAAF 
 6849      413F195E 
 6849      C0047577 
 6849      5E17DDBE 
 6850 0437 422B8B7D 		.ascii	"B+\213}\372\370]\214'!\312u\205\016\212\234P\273\363"
 6850      FAF85D8C 
 6850      2721CA75 
 6850      850E8A9C 
 6850      50BBF3
 6851 044a 303EEFDA 		.ascii	"0>\357\332\333U\353\001|y\345\347\036\362\235\310\012"
 6851      DB55EB01 
 6851      7C79E5E7 
 6851      1EF29DC8 
 6851      0A
 6852 045b 3AED1474 		.ascii	":\355\024t\345\265<\001\355\025Y\323\227\337\214KX\022"
 6852      E5B53C01 
 6852      ED1559D3 
 6852      97DF8C4B 
 6852      5812
 6853 046d A748FB8A 		.ascii	"\247H\373\212\332\002L\253\020L6e\260\304\005\"Pg\214"
 6853      DA024CAB 
 6853      104C3665 
 6853      B0C40522 
 6853      50678C
 6854 0480 B9E55D37 		.ascii	"\271\345]7\363\331\240\015>\233S\210\324\204n\003\234"
 6854      F3D9A00D 
 6854      3E9B5388 
 6854      D4846E03 
 6854      9C
 6855 0491 CB4A4ADF 		.ascii	"\313JJ\337\035\234\326\266WW\237\272\353,[\206x-\331"
 6855      1D9CD6B6 
 6855      57579FBA 
 6855      EB2C5B86 
 6855      782DD9
 6856 04a4 EA40AE96 		.ascii	"\352@\256\226f]\253\273:\017\007C#\305f\001\255B\350"
 6856      665DABBB 
 6856      3A0F0743 
 6856      23C56601 
 6856      AD42E8
 6857 04b7 A6DB8166 		.ascii	"\246\333\201f\"\201\224P\0135\352\010\020\032\254\020"
 6857      22819450 
ARM GAS  /tmp/ccydMd0r.s 			page 260


 6857      0B35EA08 
 6857      101AAC10 
 6858 04c7 81A5408C 		.ascii	"\201\245@\214n\347g*\007\026on\360h:\350x\356\324\323"
 6858      6EE7672A 
 6858      07166F6E 
 6858      F0683AE8 
 6858      78EED4D3 
 6859 04db 816FEDC2 		.ascii	"\201o\355\302Z\337d!\354\207\235\2767\032cQ;\224$\373"
 6859      5ADF6421 
 6859      EC879DBE 
 6859      371A6351 
 6859      3B9424FB 
 6860 04ef C4D51512 		.ascii	"\304\325\025\022\215\014\344\224\273\244\271\005\034"
 6860      8D0CE494 
 6860      BBA4B905 
 6860      1C
 6861 04fc A6718A35 		.ascii	"\246q\2125y6\030\276\252:\030e#Tc\254\363\025\3235\203"
 6861      793618BE 
 6861      AA3A1865 
 6861      235463AC 
 6861      F315D335 
 6862 0511 F9DA5545 		.ascii	"\371\332UERZ\312\252\340\003s\327\346\267!n\324di\323"
 6862      525ACAAA 
 6862      E00373D7 
 6862      E6B7216E 
 6862      D46469D3 
 6863 0525 BA3E46AE 		.ascii	"\272>F\256~\365\331\374\237\014g\011\3768\315\216y!"
 6863      7EF5D9FC 
 6863      9F0C6709 
 6863      FE38CD8E 
 6863      7921
 6864 0537 014C507B 		.ascii	"\001LP{\205\241\215\344\031Q\355Lt~\241k\3711\216\271"
 6864      85A18DE4 
 6864      1951ED4C 
 6864      747EA16B 
 6864      F9318EB9 
 6865 054b 87ACC59C 		.ascii	"\207\254\305\234\223x\335\323\323\351\327234\334\033"
 6865      9378DDD3 
 6865      D3E9D732 
 6865      3334DC1B 
 6866 055b F5358C03 		.ascii	"\3655\214\003\274\305\277\224?;\241\340\202\321\345"
 6866      BCC5BF94 
 6866      3F3BA1E0 
 6866      82D1E5
 6867 056a 24596720 		.ascii	"$Yg \256\222\025\005J\232\020\2724k\021bf\312\225\307"
 6867      AE921505 
 6867      4A9A10BA 
 6867      346B1162 
 6867      66CA95C7 
 6868 057e D011A2D6 		.ascii	"\320\021\242\326\205k\306\3231BX\\\356\371 Su\350\226"
 6868      856BC6D3 
 6868      3142585C 
 6868      EEF92053 
 6868      75E896
 6869 0591 420531A3 		.ascii	"B\0051\243eM\352\347G\023;\333\265TT\002\305\373\006"
 6869      654DEAE7 
 6869      47133BDB 
ARM GAS  /tmp/ccydMd0r.s 			page 261


 6869      B5545402 
 6869      C5FB06
 6870 05a4 AC51E764 		.ascii	"\254Q\347d\326G\230\015\030\202\330\246\316\266\377"
 6870      D647980D 
 6870      1882D8A6 
 6870      CEB6FF
 6871 05b3 4A207236 		.ascii	"J r6\227\033\312\364\177\352\365\361\253~L\3167\031"
 6871      971BCAF4 
 6871      7FEAF5F1 
 6871      AB7E4CCE 
 6871      3719
 6872 05c5 28726827 		.ascii	"(rh'\205\337=r;+\000\254\346P\023R\272\370W$\261\"\225"
 6872      85DF3D72 
 6872      3B2B00AC 
 6872      E6501352 
 6872      BAF85724 
 6873 05dc 26A2C6B1 		.ascii	"&\242\306\261\352\025\245c\023\343\261\013\015\202M"
 6873      EA15A563 
 6873      13E3B10B 
 6873      0D824D
 6874 05eb 70719E4D 		.ascii	"pq\236M\244l\332\275}\266\214\371\271\304\307|\254m"
 6874      A46CDABD 
 6874      7DB68CF9 
 6874      B9C4C77C 
 6874      AC6D
 6875 05fd CDE3DD8F 		.ascii	"\315\343\335\217+-v\333\023;\214\373bE\020\366\014\232"
 6875      2B2D76DB 
 6875      133B8CFB 
 6875      624510F6 
 6875      0C9A
 6876 060f E8665081 		.ascii	"\350fP\201\332\251\250n\263%\362\320\346\003:\213\017"
 6876      DAA9A86E 
 6876      B325F2D0 
 6876      E6033A8B 
 6876      0F
 6877 0620 EC99FBFB 		.ascii	"\354\231\373\373\2308EH-S\241\325\217\336\210I\035v"
 6877      98384548 
 6877      2D53A1D5 
 6877      8FDE8849 
 6877      1D76
 6878 0632 DC14137C 		.ascii	"\334\024\023|\314\010\224\030\177\243!\370\204:B\033"
 6878      CC089418 
 6878      7FA321F8 
 6878      843A421B 
 6879 0642 AE61B189 		.ascii	"\256a\261\211\335 \207\305uh\263d\364\341\200X\364x"
 6879      DD2087C5 
 6879      7568B364 
 6879      F4E18058 
 6879      F478
 6880 0654 E35511EA 		.ascii	"\343U\021\352\377u\224\365\255Q\252\33734e>m?M+\315"
 6880      FF7594F5 
 6880      AD51AADF 
 6880      3334653E 
 6880      6D3F4D2B 
 6881 0669 13F771E9 		.ascii	"\023\367q\351A\200\205g\234\212V\357\241{\325\264I\306"
 6881      41808567 
 6881      9C8A56EF 
ARM GAS  /tmp/ccydMd0r.s 			page 262


 6881      A17BD5B4 
 6881      49C6
 6882 067b 26A91764 		.ascii	"&\251\027d5S\354\020\312\374\276\315\224\013\020\256"
 6882      3553EC10 
 6882      CAFCBECD 
 6882      940B10AE 
 6883 068b B7DE8034 		.ascii	"\267\336\2004\246b.\225\300C\317\266\340\014\267T$\226"
 6883      A6622E95 
 6883      C043CFB6 
 6883      E00CB754 
 6883      2496
 6884 069d F7FAB04E 		.ascii	"\367\372\260N\336\306\353m\220a\310N\025\231h\277\227"
 6884      DEC6EB6D 
 6884      9061C84E 
 6884      159968BF 
 6884      97
 6885 06ae 11D71E28 		.ascii	"\021\327\036(\330\373\333\372\222O\275\275t\346\246"
 6885      D8FBDBFA 
 6885      924FBDBD 
 6885      74E6A6
 6886 06bd D2905A53 		.ascii	"\322\220ZS\243\366\272v+L=\335\311\225_\000\237\302"
 6886      A3F6BA76 
 6886      2B4C3DDD 
 6886      C9955F00 
 6886      9FC2
 6887 06cf D877856A 		.ascii	"\330w\205j\226R\255\377\217\230\260z\357\027\227Jx\225"
 6887      9652ADFF 
 6887      8F98B07A 
 6887      EF17974A 
 6887      7895
 6888 06e1 0B97D200 		.ascii	"\013\227\322\000\346\354vC\255\032\344\177\206r>\222"
 6888      E6EC7643 
 6888      AD1AE47F 
 6888      86723E92 
 6889 06f1 BCA6C731 		.ascii	"\274\246\3071\345\016\207>CR-8&\015\010\374_$\373#\323"
 6889      E50E873E 
 6889      43522D38 
 6889      260D08FC 
 6889      5F24FB23 
 6890 0706 1F430ED5 		.ascii	"\037C\016\325\032h\000)\307\305\2229\034\350\346BM\257"
 6890      1A680029 
 6890      C7C59239 
 6890      1CE8E642 
 6890      4DAF
 6891 0718 5C8146B5 		.ascii	"\\\201F\265\375\006^\322\324\303\200\031\240\374x\363"
 6891      FD065ED2 
 6891      D4C38019 
 6891      A0FC78F3 
 6892 0728 7E90438B 		.ascii	"~\220C\213\0279-\317Y\264\006\356u\364W\037\253\223"
 6892      17392DCF 
 6892      59B406EE 
 6892      75F4571F 
 6892      AB93
 6893 073a 1CB48B5E 		.ascii	"\034\264\213^{\277{\367\233U\326^\027\334\205'\341n"
 6893      7BBF7BF7 
 6893      9B55D65E 
 6893      17DC8527 
ARM GAS  /tmp/ccydMd0r.s 			page 263


 6893      E16E
 6894 074c 8F2DCB67 		.ascii	"\217-\313g\004\225\221I\000l\257'\323\206\015\016\314"
 6894      04959149 
 6894      006CAF27 
 6894      D3860D0E 
 6894      CC
 6895 075d B18F5076 		.ascii	"\261\217Pv\253?\336\341\256\032\313W\330\2107\277\357"
 6895      AB3FDEE1 
 6895      AE1ACB57 
 6895      D88837BF 
 6895      EF
 6896 076e 87B10878 		.ascii	"\207\261\010x\377\214.s\002O\364\220\311rc\377\364\337"
 6896      FF8C2E73 
 6896      024FF490 
 6896      C97263FF 
 6896      F4DF
 6897 0780 10591033 		.ascii	"\020Y\02038\220\341\024#\267\326\212e\354\346\224\177"
 6897      3890E114 
 6897      23B7D68A 
 6897      65ECE694 
 6897      7F
 6898 0791 A47F5AA2 		.ascii	"\244\177Z\2428\\\370J\252\000\206\362\277\222>\244\217"
 6898      385CF84A 
 6898      AA0086F2 
 6898      BF923EA4 
 6898      8F
 6899 07a2 86E92394 		.ascii	"\206\351#\224^0\037\026\224\005\246\256\304\354U\363"
 6899      5E301F16 
 6899      9405A6AE 
 6899      C4EC55F3 
 6900 07b2 19A1253C 		.ascii	"\031\241%<\266\360$~\242\355A\005\214\025\331C\007\220"
 6900      B6F0247E 
 6900      A2ED4105 
 6900      8C15D943 
 6900      0790
 6901 07c4 D0C2BCA9 		.ascii	"\320\302\274\251\334:\360M\0101\220\235"
 6901      DC3AF04D 
 6901      0831909D 
 6902 07d0 CB699314 		.ascii	"\313i\223\024\210\317\013\265Y\3603S\241\313\232\312"
 6902      88CF0BB5 
 6902      59F03353 
 6902      A1CB9ACA 
 6903 07e0 7B4FEBA8 		.ascii	"{O\353\250\244\214\277i\246T\034D\013\322\252\346G\011"
 6903      A48CBF69 
 6903      A6541C44 
 6903      0BD2AAE6 
 6903      4709
 6904 07f2 72CCD8E5 		.ascii	"r\314\330\345Be\217=\003\231\273\231\210:\030\023\312"
 6904      42658F3D 
 6904      0399BB99 
 6904      883A1813 
 6904      CA
 6905 0803 9F878A84 		.ascii	"\237\207\212\204\307\202k\253\216\377^\271SfP{\016\236"
 6905      C7826BAB 
 6905      8EFF5EB9 
 6905      5366507B 
 6905      0E9E
ARM GAS  /tmp/ccydMd0r.s 			page 264


 6906 0815 CCF0BD88 		.ascii	"\314\360\275\210\337\204P\211>L\350P\303\247]\366\234"
 6906      DF845089 
 6906      3E4CE850 
 6906      C3A75DF6 
 6906      9C
 6907 0826 E77ACBE6 		.ascii	"\347z\313\346$m\224\275g\001x\202\270\262\345\020*\210"
 6907      246D94BD 
 6907      67017882 
 6907      B8B2E510 
 6907      2A88
 6908 0838 512C3FAF 		.ascii	"Q,?\257\213f\020\360K\3268\222m\313\016U\370f\012O\337"
 6908      8B6610F0 
 6908      4BD63892 
 6908      6DCB0E55 
 6908      F8660A4F 
 6909 084d 568F5C29 		.ascii	"V\217\\)\003h\037\311,\322\225\022j\351\373\324\206"
 6909      03681FC9 
 6909      2CD29512 
 6909      6AE9FBD4 
 6909      86
 6910 085e 9AB288CF 		.ascii	"\232\262\210\317\231&r\273\022\373\340\212\011t\222"
 6910      992672BB 
 6910      12FBE08A 
 6910      097492
 6911 086d 556C3FD9 		.ascii	"Ul?\331+\372\020B\302\344\364\2732\241U\351/!\364\366"
 6911      2BFA1042 
 6911      C2E4F4BB 
 6911      32A155E9 
 6911      2F21F4F6 
 6912 0881 9306CFF7 		.ascii	"\223\006\317\367Z^S\036'\004\272\301\023\212\261\317"
 6912      5A5E531E 
 6912      2704BAC1 
 6912      138AB1CF 
 6913 0891 ADAC0906 		.ascii	"\255\254\011\006_\340p3C\274\232kJ\033\341\034v\362"
 6913      5FE07033 
 6913      43BC9A6B 
 6913      4A1BE11C 
 6913      76F2
 6914 08a3 11D1C473 		.ascii	"\021\321\304s&O(\3473\211\314\002\304\022\027|\373\320"
 6914      264F28E7 
 6914      3389CC02 
 6914      C412177C 
 6914      FBD0
 6915 08b5 E6488CD5 		.ascii	"\346H\214\3258f\364\264~\241\007\213\322\243\307\227"
 6915      3866F4B4 
 6915      7EA1078B 
 6915      D2A3C797 
 6916 08c5 D4F1D8D8 		.ascii	"\324\361\330\330\003\274\376\021\216\273\311\362^\216"
 6916      03BCFE11 
 6916      8EBBC9F2 
 6916      5E8E
 6917 08d3 C2574ECD 		.ascii	"\302WN\315\247)]\000\262~\213K\262\015\273\002\203j"
 6917      A7295D00 
 6917      B27E8B4B 
 6917      B20DBB02 
 6917      836A
 6918 08e5 6668546F 		.ascii	"fhTo\311\370\267\000\240o;\272P\341\316b\253\352\266"
ARM GAS  /tmp/ccydMd0r.s 			page 265


 6918      C9F8B700 
 6918      A06F3BBA 
 6918      50E1CE62 
 6918      ABEAB6
 6919 08f8 1CBD74CB 		.ascii	"\034\275t\313\352\324\303}\342K\270Z-\377\234D\232\314"
 6919      EAD4C37D 
 6919      E24BB85A 
 6919      2DFF9C44 
 6919      9ACC
 6920 090a 711329B6 		.ascii	"q\023)\266(\273N\210\345\254\211B\266g\245\357\020\241"
 6920      28BB4E88 
 6920      E5AC8942 
 6920      B667A5EF 
 6920      10A1
 6921 091c D207D67F 		.ascii	"\322\007\326\177\370\233\220)|>\034q\257\323+\037\222"
 6921      F89B9029 
 6921      7C3E1C71 
 6921      AFD32B1F 
 6921      92
 6922 092d A5072EDD 		.ascii	"\245\007.\335uM.\\F\331n\014G\242\273\357\310\2773\223"
 6922      754D2E5C 
 6922      46D96E0C 
 6922      47A2BBEF 
 6922      C8BF3393 
 6923 0941 670AC7EE 		.ascii	"g\012\307\356W}@\227\205\220S\323\374t\033\276>\225"
 6923      577D4097 
 6923      859053D3 
 6923      FC741BBE 
 6923      3E95
 6924 0953 C8DCC8C8 		.ascii	"\310\334\310\310w\355+2F\224\0252\333\351\336\035Y?"
 6924      77ED2B32 
 6924      46941532 
 6924      DBE9DE1D 
 6924      593F
 6925 0965 BDB3B3B1 		.ascii	"\275\263\263\261\030\272\000R\270}\377x\230\010\036"
 6925      18BA0052 
 6925      B87DFF78 
 6925      98081E
 6926 0974 F4385139 		.ascii	"\3648Q9\354\356\300\242\372#)\342\032\007\3608\334S"
 6926      ECEEC0A2 
 6926      FA2329E2 
 6926      1A07F038 
 6926      DC53
 6927 0986 E213094A 		.ascii	"\342\023\011JI\007\006GI\007S3\010\272\\\312\301v\213"
 6927      49070647 
 6927      49075333 
 6927      08BA5CCA 
 6927      C1768B
 6928 0999 B0490C2C 		.ascii	"\260I\014,\235/?\225\013|)\331\032|\\\247J\273\002\000"
 6928      9D2F3F95 
 6928      0B7C29D9 
 6928      1A7C5CA7 
 6928      4ABB0200 
 6929 09ad 8056F133 		.ascii	"\200V\3613\232r\031U\375\276\010\001\011\374\302\220"
 6929      9A721955 
 6929      FDBE0801 
 6929      09FCC290 
ARM GAS  /tmp/ccydMd0r.s 			page 266


 6930 09bd 71EED79A 		.ascii	"q\356\327\232P&\304\342'i\336\263S,\2632m\214wA\365"
 6930      5026C4E2 
 6930      2769DEB3 
 6930      532CB332 
 6930      6D8C7741 
 6931 09d2 26DD32B4 		.ascii	"&\3352\264S><\251}p\311\243MYV\224\270\360\241\011\365"
 6931      533E3CA9 
 6931      7D70C9A3 
 6931      4D595694 
 6931      B8F0A109 
 6932 09e7 A0432AC4 		.ascii	"\240C*\304\355'\260%(Oq\355\372y?\257\367\343\226\253"
 6932      ED27B025 
 6932      284F71ED 
 6932      FA793FAF 
 6932      F7E396AB 
 6933 09fb 6527B5B9 		.ascii	"e'\265\271\234`\207\007{F7\177\246\311\251Z.\342\257"
 6933      9C608707 
 6933      7B46377F 
 6933      A6C9A95A 
 6933      2EE2AF
 6934 0a0e 4B56D951 		.ascii	"KV\331Q0%\277E\333\226\267C\227\306*\315\204\264\342"
 6934      3025BF45 
 6934      DB96B743 
 6934      97C62ACD 
 6934      84B4E2
 6935 0a21 A2F27E04 		.ascii	"\242\362~\004\021\346W\225\364]\237\361Sx\227\311\""
 6935      11E65795 
 6935      F45D9FF1 
 6935      537897C9 
 6935      22
 6936 0a32 11DDCCBA 		.ascii	"\021\335\314\2723$\237\304z\315f\316\003\2713d\205\345"
 6936      33249FC4 
 6936      7ACD66CE 
 6936      03B93364 
 6936      85E5
 6937 0a44 92E1DF20 		.ascii	"\222\341\337 \355\307\322\230q6\353\272\343\024}\363"
 6937      EDC7D298 
 6937      7136EBBA 
 6937      E3147DF3 
 6938 0a54 ECEFAB47 		.ascii	"\354\357\253G_V}\024C\321\243\014\365\2634 \011\365"
 6938      5F567D14 
 6938      43D1A30C 
 6938      F5B33420 
 6938      09F5
 6939 0a66 507ABF02 		.ascii	"Pz\277\002\376bS\263\221`\364\011\341f\324\003\002M"
 6939      FE6253B3 
 6939      9160F409 
 6939      E166D403 
 6939      024D
 6940 0a78 CEDD0B6A 		.ascii	"\316\335\013j\231\014\235\367\007\377i\353\315K\246"
 6940      990C9DF7 
 6940      07FF69EB 
 6940      CD4BA6
 6941 0a87 9D55B749 		.ascii	"\235U\267I\335\357\303n\374\346\264w\276q\327UxT\347"
 6941      DDEFC36E 
 6941      FCE6B477 
 6941      BE71D755 
ARM GAS  /tmp/ccydMd0r.s 			page 267


 6941      7854E7
 6942 0a9a C42394A9 		.ascii	"\304#\224\251k{M]\301\346gsDM5\240^:\344\241s\217\024"
 6942      6B7B4D5D 
 6942      C1E66773 
 6942      444D35A0 
 6942      5E3AE4A1 
 6943 0ab1 E8959BF5 		.ascii	"\350\225\233\365\226\246\267\213\006\352V\303c\371@"
 6943      96A6B78B 
 6943      06EA56C3 
 6943      63F940
 6944 0ac0 DDB26FB8 		.ascii	"\335\262o\270\325\3434T!\226k\325\005x\240\273\251\236"
 6944      D5E33454 
 6944      21966BD5 
 6944      0578A0BB 
 6944      A99E
 6945 0ad2 19598D24 		.ascii	"\031Y\215$\2732\305\001\325\227N\370h\360\001\177\336"
 6945      BB32C501 
 6945      D5974EF8 
 6945      68F0017F 
 6945      DE
 6946 0ae3 BCDB2C63 		.ascii	"\274\333,c-\332\211aBp\207F\214\365\037\224_\307\257"
 6946      2DDA8961 
 6946      42708746 
 6946      8CF51F94 
 6946      5FC7AF
 6947 0af6 66B65CB8 		.ascii	"f\266\\\270b%c(\236\243n\006\010\"H\336g\276/k\246\372"
 6947      62256328 
 6947      9EA36E06 
 6947      082248DE 
 6947      67BE2F6B 
 6948 0b0c B972EE05 		.ascii	"\271r\356\005\356#`\020\031\370\264\\\356mj\201Ix\267"
 6948      EE236010 
 6948      19F8B45C 
 6948      EE6D6A81 
 6948      4978B7
 6949 0b1f 1BD75673 		.ascii	"\033\327Vsz2\315\345u\362:\011\031=\364\002\273\266"
 6949      7A32CDE5 
 6949      75F23A09 
 6949      193DF402 
 6949      BBB6
 6950 0b31 BB79783D 		.ascii	"\273yx=\310\2546\232ZU4\276\255\201\261?1$wa\246l\264"
 6950      C8AC369A 
 6950      5A5534BE 
 6950      AD81B13F 
 6950      31247761 
 6951 0b48 F1DEC706 		.ascii	"\361\336\307\0069\307\254\263\232\225\311\012\276\222"
 6951      39C7ACB3 
 6951      9A95C90A 
 6951      BE92
 6952 0b56 588165A2 		.ascii	"X\201e\242\301/\025\201\301)\037\012(\306\322M\212:"
 6952      C12F1581 
 6952      C1291F0A 
 6952      28C6D24D 
 6952      8A3A
 6953 0b68 0A0B33C4 		.ascii	"\012\0133\304\355,\034y\334\231\372a\320\274\371\361"
 6953      ED2C1C79 
 6953      DC99FA61 
ARM GAS  /tmp/ccydMd0r.s 			page 268


 6953      D0BCF9F1 
 6954 0b78 B5D3ADA4 		.ascii	"\265\323\255\244\205\037&\377\013\323qDI\314\357/\210"
 6954      851F26FF 
 6954      0BD37144 
 6954      49CCEF2F 
 6954      88
 6955 0b89 F4BC6009 		.ascii	"\364\274`\011\225\226\020\021$[\231\251\270z|8\373\353"
 6955      95961011 
 6955      245B99A9 
 6955      B87A7C38 
 6955      FBEB
 6956 0b9b A0967255 		.ascii	"\240\226rU\030\331\255-\011#r\314\334\302\015\330%\377"
 6956      18D9AD2D 
 6956      092372CC 
 6956      DCC20DD8 
 6956      25FF
 6957 0bad BACDB0A5 		.ascii	"\272\315\260\245\235\246\012N8P\205\312\202VF\271/\237"
 6957      9DA60A4E 
 6957      385085CA 
 6957      825646B9 
 6957      2F9F
 6958 0bbf 60187658 		.ascii	"`\030vX\300\015\274\346xT\322\262\204^i^*\214\312\325"
 6958      C00DBCE6 
 6958      7854D2B2 
 6958      845E695E 
 6958      2A8CCAD5 
 6959 0bd3 A4DAE343 		.ascii	"\244\332\343C\203\243/\365\313/f\317\344\242\001\006"
 6959      83A32FF5 
 6959      CB2F66CF 
 6959      E4A20106 
 6960 0be3 B92BAA70 		.ascii	"\271+\252p\263\200\375T2\234Pf6\212\2664\026\224\372"
 6960      B380FD54 
 6960      329C5066 
 6960      368AB634 
 6960      1694FA
 6961 0bf6 4E1E7297 		.ascii	"N\036r\227uL\227\216W=\207K\314j6\023r\234\014\012D"
 6961      754C978E 
 6961      573D874B 
 6961      CC6A3613 
 6961      729C0C0A 
 6962 0c0b 6AC63B2B 		.ascii	"j\306;+\014P\010\2452H\356\344,|\257\312\234\340\323"
 6962      0C5008A5 
 6962      3248EEE4 
 6962      2C7CAFCA 
 6962      9CE0D3
 6963 0c1e 589AD337 		.ascii	"X\232\3237\\\177\366\316A\276\272gT\371\304\017Ubc\301"
 6963      5C7FF6CE 
 6963      41BEBA67 
 6963      54F9C40F 
 6963      556263C1 
 6964 0c32 C7B42486 		.ascii	"\307\264$\206ks\225\237\377\267\2504\277\331\337\205"
 6964      6B73959F 
 6964      FFB7A834 
 6964      BFD9DF85 
 6965 0c42 503B4D42 		.ascii	"P;MB\362=\346\177\332\324;l\312! \306#\326T\274\322"
 6965      F23DE67F 
 6965      DAD43B6C 
ARM GAS  /tmp/ccydMd0r.s 			page 269


 6965      CA2120C6 
 6965      23D654BC 
 6966 0c57 E86708B7 		.ascii	"\350g\010\267\373\263\240\210\271\012N;?>K8T\372\366"
 6966      FBB3A088 
 6966      B90A4E3B 
 6966      3F3E4B38 
 6966      54FAF6
 6967 0c6a 3D725E76 		.ascii	"=r^v_{\323.;\305\233\377{\277\336\210B\240zX(\271\216"
 6967      5F7BD32E 
 6967      3BC59BFF 
 6967      7BBFDE88 
 6967      42A07A58 
 6968 0c81 33DDCA65 		.ascii	"3\335\312eaD\260\235\356\257\263<*\371\336i\302:\311"
 6968      6144B09D 
 6968      EEAFB33C 
 6968      2AF9DE69 
 6968      C23AC9
 6969 0c94 EE15D4B5 		.ascii	"\356\025\324\265\011Y6\317\374\354 \303\201\275C\271"
 6969      095936CF 
 6969      FCEC20C3 
 6969      81BD43B9 
 6970 0ca4 CB2FB261 		.ascii	"\313/\262a#J\362\322\211\006M\023\224\363\370\015\343"
 6970      234AF2D2 
 6970      89064D13 
 6970      94F3F80D 
 6970      E3
 6971 0cb5 6599CBC4 		.ascii	"e\231\313\304\200c\015\221\025\004\215\274\276\020V"
 6971      80630D91 
 6971      15048DBC 
 6971      BE1056
 6972 0cc4 0B639FE8 		.ascii	"\013c\237\350 \357w(X?\265 h\211C\321\\\310\207\177"
 6972      20EF7728 
 6972      583FB520 
 6972      688943D1 
 6972      5CC8877F 
 6973 0cd8 008EA560 		.ascii	"\000\216\245`\023o\250n\310Lp\\c\032\360\250\217\233"
 6973      136FA86E 
 6973      C84C705C 
 6973      631AF0A8 
 6973      8F9B
 6974 0cea 9D82050E 		.ascii	"\235\202\005\016gR\025\330\022\017\366\276\202\022\252"
 6974      675215D8 
 6974      120FF6BE 
 6974      8212AA
 6975 0cf9 CA913201 		.ascii	"\312\2212\0011>|\374\003\267|\036\274\246mk;\311\231"
 6975      313E7CFC 
 6975      03B77C1E 
 6975      BCA66D6B 
 6975      3BC999
 6976 0d0c C6A824B0 		.ascii	"\306\250$\260F\327Bz\000\352\232\303\031\273\305\326"
 6976      46D7427A 
 6976      00EA9AC3 
 6976      19BBC5D6 
 6977 0d1c EBDD342E 		.ascii	"\353\3354.(\026\312\323\032\270\243\262\027\252\366"
 6977      2816CAD3 
 6977      1AB8A3B2 
 6977      17AAF6
ARM GAS  /tmp/ccydMd0r.s 			page 270


 6978 0d2b 48BC52FB 		.ascii	"H\274R\373\000\335v\213\315\264\266\320\361xA(\2237"
 6978      00DD768B 
 6978      CDB4B6D0 
 6978      F1784128 
 6978      9337
 6979 0d3d 7ED8A440 		.ascii	"~\330\244@\202\330\233\330\032\203\301\\\311!\253\345"
 6979      82D89BD8 
 6979      1A83C15C 
 6979      C921ABE5 
 6980 0d4d 00E28994 		.ascii	"\000\342\211\224\226>N\215|\223\2144\274b$\226#\371"
 6980      963E4E8D 
 6980      7C938C34 
 6980      BC622496 
 6980      23F9
 6981 0d5f 78A4FD11 		.ascii	"x\244\375\021~\034\263:Sv\300E\343Y?Ae\004\210\365\216"
 6981      7E1CB33A 
 6981      5376C045 
 6981      E3593F41 
 6981      650488F5 
 6982 0d74 5972EEEF 		.ascii	"Yr\356\357\265\025\\\027\020/\222Q\030\030\245\301\323"
 6982      B5155C17 
 6982      102F9251 
 6982      1818A5C1 
 6982      D3
 6983 0d85 5215A71F 		.ascii	"R\025\247\037\024a+b\275F\226\210\271\275H^\376\257"
 6983      14612B62 
 6983      BD469688 
 6983      B9BD485E 
 6983      FEAF
 6984 0d97 3E2B3A95 		.ascii	">+:\225\274_\023\033\036Eg\334\021>\271\373\025\201"
 6984      BC5F131B 
 6984      1E4567DC 
 6984      113EB9FB 
 6984      1581
 6985 0da9 B2114BC4 		.ascii	"\262\021K\304`\361\324\254\334|8\007\034\315\226\211"
 6985      60F1D4AC 
 6985      DC7C3807 
 6985      1CCD9689 
 6986 0db9 B88E9749 		.ascii	"\270\216\227I\232\023\012\206\317\222\005\352>\030\251"
 6986      9A130A86 
 6986      CF9205EA 
 6986      3E18A9
 6987 0dc8 7530D6EB 		.ascii	"u0\326\353\356\365\237e`Y\017[{M\031\237K\007.W\321"
 6987      EEF59F65 
 6987      60590F5B 
 6987      7B4D199F 
 6987      4B072E57 
 6988 0ddd 3486A172 		.ascii	"4\206\241r\372\366\010\306\372\315QvV\0364:\025/\"\367"
 6988      FAF608C6 
 6988      FACD5176 
 6988      561E343A 
 6988      152F22F7 
 6989 0df1 A702BC77 		.ascii	"\247\002\274w\026\251\336\"LY\211\006\212\021_\305z"
 6989      16A9DE22 
 6989      4C598906 
 6989      8A115FC5 
 6989      7A
ARM GAS  /tmp/ccydMd0r.s 			page 271


 6990 0e02 B1A38897 		.ascii	"\261\243\210\227\267\342\325\264a\271\303\003\"y\024"
 6990      B7E2D5B4 
 6990      61B9C303 
 6990      227914
 6991 0e11 D3771CA5 		.ascii	"\323w\034\245\254_=\001\022A\233\021G\263\366\326\316"
 6991      AC5F3D01 
 6991      12419B11 
 6991      47B3F6D6 
 6991      CE
 6992 0e22 9178D406 		.ascii	"\221x\324\006\355LF\335q\254\324\217w\350\273mbEK[g"
 6992      ED4C46DD 
 6992      71ACD48F 
 6992      77E8BB6D 
 6992      62454B5B 
 6993 0e37 212951E5 		.ascii	"!)Q\345:\020\351\332\226\300g\216]VW\252\256z\373DN"
 6993      3A10E9DA 
 6993      96C0678E 
 6993      5D5657AA 
 6993      AE7AFB44 
 6994 0e4c 319A7D6D 		.ascii	"1\232}m7\024\226\023\362\307zO\245,sh\260\035\010\210"
 6994      37149613 
 6994      F2C77A4F 
 6994      A52C7368 
 6994      B01D0888 
 6995 0e60 6E3B2798 		.ascii	"n;'\230\207\340\267F\252\243M\020W\015\325\227\245\000"
 6995      87E0B746 
 6995      AAA34D10 
 6995      570DD597 
 6995      A500
 6996 0e72 3EFBDC5F 		.ascii	">\373\334_\025\261\365\200\033\325\305\2048\312`:\226"
 6996      15B1F580 
 6996      1BD5C584 
 6996      38CA603A 
 6996      96
 6997 0e83 EC382895 		.ascii	"\3548(\225\032\361\006\267\310\212\023\252\024\226}"
 6997      1AF106B7 
 6997      C88A13AA 
 6997      14967D
 6998 0e92 7A7A29D6 		.ascii	"zz)\326\023\363\226\277|<\217\3114#g\005\355rT,\345"
 6998      13F396BF 
 6998      7C3C8FC9 
 6998      34236705 
 6998      ED72542C 
 6999 0ea7 E8AEF099 		.ascii	"\350\256\360\231\227\316WV{Q\236@\030\0221/\271\205"
 6999      97CE5756 
 6999      7B519E40 
 6999      1812312F 
 6999      B985
 7000 0eb9 C9AA1161 		.ascii	"\311\252\021aX\001\231\277\004\003\031\376\213\3720"
 7000      580199BF 
 7000      040319FE 
 7000      8BFA30
 7001 0ec8 6F9FC38F 		.ascii	"o\237\303\217\315\324BR\263\252\201\211\333\357\202"
 7001      CDD44252 
 7001      B3AA8189 
 7001      DBEF82
 7002 0ed7 34BE8FC7 		.ascii	"4\276\217\307\370L\342\354\3158tC\220\222\271\370<\025"
ARM GAS  /tmp/ccydMd0r.s 			page 272


 7002      F84CE2EC 
 7002      CD387443 
 7002      9092B9F8 
 7002      3C15
 7003 0ee9 8911DF44 		.ascii	"\211\021\337D\206\020q\2262\230\277\005^\251\327\230"
 7003      86107196 
 7003      3298BF05 
 7003      5EA9D798 
 7004 0ef9 7F6558AA 		.ascii	"\177eX\252\257\332q\306\345\232\252\346\364\243t\346"
 7004      AFDA71C6 
 7004      E59AAAE6 
 7004      F4A374E6 
 7005 0f09 A99EA3F7 		.ascii	"\251\236\243\367\263\316\274\177\321\323\344\372\342"
 7005      B3CEBC7F 
 7005      D1D3E4FA 
 7005      E2
 7006 0f16 65A56661 		.ascii	"e\245fa\314@jE5\315\316\231\3758\373\302\371\210\267"
 7006      CC406A45 
 7006      35CDCE99 
 7006      FD38FBC2 
 7006      F988B7
 7007 0f29 B4C51481 		.ascii	"\264\305\024\201e\242\2628\321\260Z\272uK\217\300\012"
 7007      65A2B238 
 7007      D1B05ABA 
 7007      754B8FC0 
 7007      0A
 7008 0f3a BA2090FD 		.ascii	"\272 \220\375\361\370\207\300\323LzJ\245 ~8yP{#$\361"
 7008      F1F887C0 
 7008      D34C7A4A 
 7008      A5207E38 
 7008      79507B23 
 7009 0f50 0EA11ED2 		.ascii	"\016\241\036\322\327\313\255\335<\221\025\211\222\262"
 7009      D7CBADDD 
 7009      3C911589 
 7009      92B2
 7010 0f5e 2D6FF9C9 		.ascii	"-o\371\311\343I\236\005\376\2669\243\\9g*\324\004I\332"
 7010      E3499E05 
 7010      FEB639A3 
 7010      5C39672A 
 7010      D40449DA 
 7011 0f72 C2D31CC6 		.ascii	"\302\323\034\306O\012\225\237\216\355\330_]\225\231"
 7011      4F0A959F 
 7011      8EEDD85F 
 7011      5D9599
 7012 0f81 CF94BE29 		.ascii	"\317\224\276)\304\355\236h\373\225\035!*\234\217\206"
 7012      C4ED9E68 
 7012      FB951D21 
 7012      2A9C8F86 
 7013 0f91 CF04F60F 		.ascii	"\317\004\366\017]\377\002\243\216\235\366\027c\243\304"
 7013      5DFF02A3 
 7013      8E9DF617 
 7013      63A3C4
 7014 0fa0 EA7C2554 		.ascii	"\352|%T\016\205\220vP\013\323\327\035t\251|\232&\265"
 7014      0E859076 
 7014      500BD3D7 
 7014      1D74A97C 
 7014      9A26B5
ARM GAS  /tmp/ccydMd0r.s 			page 273


 7015 0fb3 CEC1FCB2 		.ascii	"\316\301\374\2620\206\270\3625\215\356\374,`\310\252"
 7015      3086B8F2 
 7015      358DEEFC 
 7015      2C60C8AA 
 7016 0fc3 D63D4494 		.ascii	"\326=D\224\224\266\324y\217Q\022\3137`\024\302G\300"
 7016      94B6D479 
 7016      8F5112CB 
 7016      376014C2 
 7016      47C0
 7017 0fd5 EBEDF811 		.ascii	"\353\355\370\021EX\023\250\374\251\3331\371\313C\025"
 7017      455813A8 
 7017      FCA9DB31 
 7017      F9CB4315 
 7018 0fe5 6B4679E1 		.ascii	"kFy\341\034\257\277\022/l\357\027\374\302\375\212\355"
 7018      1CAFBF12 
 7018      2F6CEF17 
 7018      FCC2FD8A 
 7018      ED
 7019 0ff6 633469E2 		.ascii	"c4i\342\361,{\205\313\332\200\203\243\247\003\331M\340"
 7019      F12C7B85 
 7019      CBDA8083 
 7019      A3A703D9 
 7019      4DE0
 7020 1008 71A1A44A 		.ascii	"q\241\244J\344*\332\234\250>\370P\377f\252\365h\241"
 7020      E42ADA9C 
 7020      A83EF850 
 7020      FF66AAF5 
 7020      68A1
 7021 101a 41BD8831 		.ascii	"A\275\2101v\371\333\354\013\\\007V\031\307\2140\031"
 7021      76F9DBEC 
 7021      0B5C0756 
 7021      19C78C30 
 7021      19
 7022 102b 5DB8419B 		.ascii	"]\270A\233\337\010\213I\264\026\002\350b\017\270\014"
 7022      DF088B49 
 7022      B41602E8 
 7022      620FB80C 
 7023 103b 178C5B19 		.ascii	"\027\214[\031\012.%\360\362\016W?\214\376\001\015\255"
 7023      0A2E25F0 
 7023      F20E573F 
 7023      8CFE010D 
 7023      AD
 7024 104c 614B8B38 		.ascii	"aK\2138\356U\262\242\303\344\262\241l\226[\217B\360"
 7024      EE55B2A2 
 7024      C3E4B2A1 
 7024      6C965B8F 
 7024      42F0
 7025 105e DC6CF36D 		.ascii	"\334l\363mZ\310\333\365T\022Z\017\011\236\312\340\026"
 7025      5AC8DBF5 
 7025      54125A0F 
 7025      099ECAE0 
 7025      16
 7026 106f EB310169 		.ascii	"\3531\001i\265|\370f\264}2R\371\233J\267\222\346'y\034"
 7026      B57CF866 
 7026      B47D3252 
 7026      F99B4AB7 
 7026      92E62779 
ARM GAS  /tmp/ccydMd0r.s 			page 274


 7027 1084 CECF9606 		.ascii	"\316\317\226\006\366\373\376\266\002{0\202\327\247I"
 7027      F6FBFEB6 
 7027      027B3082 
 7027      D7A749
 7028 1093 04F49AB2 		.ascii	"\004\364\232\262Y\344\034\373qUx\007\346X_\363\001b"
 7028      59E41CFB 
 7028      71557807 
 7028      E6585FF3 
 7028      0162
 7029 10a5 0CE62150 		.ascii	"\014\346!P|\011\231\343\310\263\321\234\251\234h\213"
 7029      7C0999E3 
 7029      C8B3D19C 
 7029      A99C688B 
 7030 10b5 415D49E7 		.ascii	"A]I\347y\034yaDR\372\360V\0019C\200\351\374\233\026"
 7030      791C7961 
 7030      4452FAF0 
 7030      56013943 
 7030      80E9FC9B 
 7031 10ca 05841D5E 		.ascii	"\005\204\035^\353\007\337\364#\357\367c)O\343\215\351"
 7031      EB07DFF4 
 7031      23EFF763 
 7031      294FE38D 
 7031      E9
 7032 10db A830BE18 		.ascii	"\2500\276\030\241\341o\2218\316\325W\213\003\316N\003"
 7032      A1E16F91 
 7032      38CED557 
 7032      8B03CE4E 
 7032      03
 7033 10ec D63C21FA 		.ascii	"\326<!\372dAO\006\332\002\327\030\330\035I\033\312/"
 7033      64414F06 
 7033      DA02D718 
 7033      D81D491B 
 7033      CA2F
 7034 10fe 8FBE2520 		.ascii	"\217\276% \314\243f\0146k\354}\225\246\307\362C\205"
 7034      CCA3660C 
 7034      366BEC7D 
 7034      95A6C7F2 
 7034      4385
 7035 1110 C6DF2738 		.ascii	"\306\337'8\231L#\331\016\344\352\340\035\324_\211\323"
 7035      994C23D9 
 7035      0EE4EAE0 
 7035      1DD45F89 
 7035      D3
 7036 1121 36084E42 		.ascii	"6\010NB\242\014Q5\271\323\030<\366}\024\017\261q\005"
 7036      A20C5135 
 7036      B9D3183C 
 7036      F67D140F 
 7036      B17105
 7037 1134 87D19324 		.ascii	"\207\321\223$\341%\360%\310\021pb\335\305J1\307\016"
 7037      E125F025 
 7037      C8117062 
 7037      DDC54A31 
 7037      C70E
 7038 1146 EEECCE1E 		.ascii	"\356\354\316\036]\021\216\245\204\225\272g\251\331\000"
 7038      5D118EA5 
 7038      8495BA67 
 7038      A9D900
ARM GAS  /tmp/ccydMd0r.s 			page 275


 7039 1155 30D16B28 		.ascii	"0\321k(~\207\214\370a\265\301\253\206\255\230\377\373"
 7039      7E878CF8 
 7039      61B5C1AB 
 7039      86AD98FF 
 7039      FB
 7040 1166 C981BBAF 		.ascii	"\311\201\273\257\273#g\006\326s.\371\310\000P\322\032"
 7040      BB236706 
 7040      D6732EF9 
 7040      C80050D2 
 7040      1A
 7041 1177 8803C43B 		.ascii	"\210\003\304;C\306+\223\253\224\310+\213}Z\302\216u"
 7041      43C62B93 
 7041      AB94C82B 
 7041      8B7D5AC2 
 7041      8E75
 7042 1189 4F47132C 		.ascii	"OG\023,\304\016\220\351\032\217\020\306\347E\321\244"
 7042      C40E90E9 
 7042      1A8F10C6 
 7042      E745D1A4 
 7043 1199 4DF6E862 		.ascii	"M\366\350b\265\355\276e B^\035\016\007\230\002\356F"
 7043      B5EDBE65 
 7043      20425E1D 
 7043      0E079802 
 7043      EE46
 7044 11ab F6C398CF 		.ascii	"\366\303\230\317X5\375p\214\261\274X\265A\262<\207\364"
 7044      5835FD70 
 7044      8CB1BC58 
 7044      B541B23C 
 7044      87F4
 7045 11bd CB7260C7 		.ascii	"\313r`\307Uw\235\032\3078\204\352Ob\224\212\237\032"
 7045      55779D1A 
 7045      C73884EA 
 7045      4F62948A 
 7045      9F1A
 7046 11cf 972A6AB7 		.ascii	"\227*j\267o\312\001\277\235\037\224=\354z\365\340A\234"
 7046      6FCA01BF 
 7046      9D1F943D 
 7046      EC7AF5E0 
 7046      419C
 7047 11e1 67840789 		.ascii	"g\204\007\211\254\347\037\011\331\334\334}~\005\204"
 7047      ACE71F09 
 7047      D9DCDC7D 
 7047      7E0584
 7048 11f0 6D652E05 		.ascii	"me.\005\357\362@\217\3623\015\333\243\010\336I\212\267"
 7048      EFF2408F 
 7048      F2330DDB 
 7048      A308DE49 
 7048      8AB7
 7049 1202 AC9FE396 		.ascii	"\254\237\343\226\313X\004\323\246\034\244\203\367D\302"
 7049      CB5804D3 
 7049      A61CA483 
 7049      F744C2
 7050 1211 FE1E22BC 		.ascii	"\376\036\"\274\030\356\004\312\341\356\366(\037x}Gv"
 7050      18EE04CA 
 7050      E1EEF628 
 7050      1F787D47 
 7050      76
ARM GAS  /tmp/ccydMd0r.s 			page 276


 7051 1222 93B1B5E0 		.ascii	"\223\261\265\340n\375\002\312\302aG\015\240\241\244"
 7051      6EFD02CA 
 7051      C261470D 
 7051      A0A1A4
 7052 1231 50B17A06 		.ascii	"P\261z\006\332#\244I\012\236%\200\256W\260dl\034?5\316"
 7052      DA23A449 
 7052      0A9E2580 
 7052      AE57B064 
 7052      6C1C3F35 
 7053 1246 72E91165 		.ascii	"r\351\021e\177\337\333\365\241\000oc|N\037M\352\016"
 7053      7FDFDBF5 
 7053      A1006F63 
 7053      7C4E1F4D 
 7053      EA0E
 7054 1258 F1D8E903 		.ascii	"\361\330\351\003\270X\177\315\222\301\030\013\023\345"
 7054      B8587FCD 
 7054      92C1180B 
 7054      13E5
 7055 1266 A48A0253 		.ascii	"\244\212\002SC\202`=\305\310\307i\340\021\031Z]\212"
 7055      4382603D 
 7055      C5C8C769 
 7055      E011195A 
 7055      5D8A
 7056 1278 3D1326AB 		.ascii	"=\023&\253+\017&y\372N1\024\0269\\`\312S019EP\341\245"
 7056      2B0F2679 
 7056      FA4E3114 
 7056      16395C60 
 7056      CA533031 
 7057 1291 7985785C 		.ascii	"y\205x\\\033\263#8^\231\225u\346;\255<W\363\353\342"
 7057      1BB32338 
 7057      5E999575 
 7057      E63BAD3C 
 7057      57F3EBE2 
 7058 12a5 BB7032C4 		.ascii	"\273p2\304@\273\301/\226\020H'\303\317+g\361,:\330R"
 7058      40BBC12F 
 7058      96104827 
 7058      C3CF2B67 
 7058      F12C3AD8 
 7059 12ba 29C06E76 		.ascii	")\300nv[s\351E\0239\321\207\217\212\025\014S\336\004"
 7059      5B73E945 
 7059      1339D187 
 7059      8F8A150C 
 7059      53DE04
 7060 12cd 0D614257 		.ascii	"\015aBW\257b\276\032\015\313\214\343\036\276\024\357"
 7060      AF62BE1A 
 7060      0DCB8CE3 
 7060      1EBE14EF 
 7061 12dd AFC35AEB 		.ascii	"\257\303Z\353\262S\314\260a\210DT\247\202J\361\013\270"
 7061      B253CCB0 
 7061      61884454 
 7061      A7824AF1 
 7061      0BB8
 7062 12ef DD2342FE 		.ascii	"\335#B\376\264l+-\300\325\361\321R\267\331\340\302\220"
 7062      B46C2B2D 
 7062      C0D5F1D1 
 7062      52B7D9E0 
 7062      C290
ARM GAS  /tmp/ccydMd0r.s 			page 277


 7063 1301 A2CDB431 		.ascii	"\242\315\2641\223|On\027\360y#\374\007\036\253ZF\202"
 7063      937C4F6E 
 7063      17F07923 
 7063      FC071EAB 
 7063      5A4682
 7064 1314 E89D6181 		.ascii	"\350\235a\201\003p\002\346)=u\024\342\330\220\266e\001"
 7064      037002E6 
 7064      293D7514 
 7064      E2D890B6 
 7064      6501
 7065 1326 813FC000 		.ascii	"\201?\300\0009\276\351]\315\364\\\370\276\254\256r\004"
 7065      39BEE95D 
 7065      CDF45CF8 
 7065      BEACAE72 
 7065      04
 7066 1337 B320EDB0 		.ascii	"\263 \355\260lx\035\017*1u\033\231\307dK\363\261@\321"
 7066      6C781D0F 
 7066      2A31751B 
 7066      99C7644B 
 7066      F3B140D1 
 7067 134b 63699914 		.ascii	"ci\231\024gkPH\344P\376=I3\270B\2675>\352\315K\357\003"
 7067      676B5048 
 7067      E450FE3D 
 7067      4933B842 
 7067      B7353EEA 
 7068 1363 C740569F 		.ascii	"\307@V\237\003\250\243\026\3350\013y\257\353=Ae\015"
 7068      03A8A316 
 7068      DD300B79 
 7068      AFEB3D41 
 7068      650D
 7069 1375 242B422B 		.ascii	"$+B+4\225\222\251\025\036\331qJ\346\272\255\331D\217"
 7069      349592A9 
 7069      151ED971 
 7069      4AE6BAAD 
 7069      D9448F
 7070 1388 25F18F76 		.ascii	"%\361\217v\321t\347\026\223\211\273X\243*\366,\233\377"
 7070      D174E716 
 7070      9389BB58 
 7070      A32AF62C 
 7070      9BFF
 7071 139a 2C348440 		.ascii	",4\204@\325Q\256\241\301\037Q$V\216\332\315\377x7\005"
 7071      D551AEA1 
 7071      C11F5124 
 7071      568EDACD 
 7071      FF783705 
 7072 13ae EE1EBC9E 		.ascii	"\356\036\274\236\252@\317l\320\335C\351\033=O\252\260"
 7072      AA40CF6C 
 7072      D0DD43E9 
 7072      1B3D4FAA 
 7072      B0
 7073 13bf A930F856 		.ascii	"\2510\370V\276\367\375~\275\234\251\203\016`\314 \240"
 7073      BEF7FD7E 
 7073      BD9CA983 
 7073      0E60CC20 
 7073      A0
 7074 13d0 52629A2F 		.ascii	"Rb\232/& \311V\352\275k\271R\2015\374\247\346\211\006"
 7074      2620C956 
ARM GAS  /tmp/ccydMd0r.s 			page 278


 7074      EABD6BB9 
 7074      528135FC 
 7074      A7E68906 
 7075 13e4 42E4E9E0 		.ascii	"B\344\351\340u\004?_A\322'\304\017\302\001\224\312H"
 7075      75043F5F 
 7075      41D227C4 
 7075      0FC20194 
 7075      CA48
 7076 13f6 33CA3495 		.ascii	"3\3124\225]Otg\364\007]\002<$P\301U\3540\006\034BG-"
 7076      5D4F7467 
 7076      F4075D02 
 7076      3C2450C1 
 7076      55EC3006 
 7077 140e 79031104 		.ascii	"y\003\021\004\241\316\006\312\320lC\367\255\236\341"
 7077      A1CE06CA 
 7077      D06C43F7 
 7077      AD9EE1
 7078 141d F261DDDF 		.ascii	"\362a\335\337\265k^\337*\204\3602\272\321)\360BG\345"
 7078      B56B5EDF 
 7078      2A84F032 
 7078      BAD129F0 
 7078      4247E5
 7079 1430 B50BA0F4 		.ascii	"\265\013\240\364\024P\027H\350e\332\245\242\257w#\372"
 7079      14501748 
 7079      E865DAA5 
 7079      A2AF7723 
 7079      FA
 7080 1441 FBAC317D 		.ascii	"\373\2541}e\350\367\031\371#FHi\237\214z\303\023\307"
 7080      65E8F719 
 7080      F9234648 
 7080      699F8C7A 
 7080      C313C7
 7081 1454 E7DCB0A0 		.ascii	"\347\334\260\240\034\353\340\336\015\325\336<\347 \303"
 7081      1CEBE0DE 
 7081      0DD5DE3C 
 7081      E720C3
 7082 1463 1B1F91D8 		.ascii	"\033\037\221\330\213\01684\014\341\322P\264\206\247"
 7082      8B0E3834 
 7082      0CE1D250 
 7082      B486A7
 7083 1472 392A7D75 		.ascii	"9*}u(\003\3136\260\006\307JT\355<\032.\025\002\024\254"
 7083      2803CB36 
 7083      B006C74A 
 7083      54ED3C1A 
 7083      2E150214 
 7084 1487 BB2F07B8 		.ascii	"\273/\007\270\226y\257\004\321\223\011\201\264\247\370"
 7084      9679AF04 
 7084      D1930981 
 7084      B4A7F8
 7085 1496 54DBACCA 		.ascii	"T\333\254\312\017am\262\350\260v6\225\003\326\253\345"
 7085      0F616DB2 
 7085      E8B07636 
 7085      9503D6AB 
 7085      E5
 7086 14a7 5596CD5E 		.ascii	"U\226\315^\203\367\372\211\262\310\306\216\"dp\366\032"
 7086      83F7FA89 
 7086      B2C8C68E 
ARM GAS  /tmp/ccydMd0r.s 			page 279


 7086      226470F6 
 7086      1A
 7087 14b8 71D8BC9D 		.ascii	"q\330\274\235\350x\312p\205\002\034\212\024)\325G\302"
 7087      E878CA70 
 7087      85021C8A 
 7087      1429D547 
 7087      C2
 7088 14c9 882C0D44 		.ascii	"\210,\015Ds\230I\373A\212\315\320r\374\012\352\316\002"
 7088      739849FB 
 7088      418ACDD0 
 7088      72FC0AEA 
 7088      CE02
 7089 14db 666C418B 		.ascii	"flA\213\357$\207\2262u\251,\033\177\366\313\002\240"
 7089      EF248796 
 7089      3275A92C 
 7089      1B7FF6CB 
 7089      02A0
 7090 14ed AB9617D0 		.ascii	"\253\226\027\320z\352:a\215F\336/T\230\222\334/\210"
 7090      7AEA3A61 
 7090      8D46DE2F 
 7090      549892DC 
 7090      2F88
 7091 14ff 2F449129 		.ascii	"/D\221)\033\013\201\273\210q\344\206W\300\207]\217\225"
 7091      1B0B81BB 
 7091      8871E486 
 7091      57C0875D 
 7091      8F95
 7092 1511 205D807B 		.ascii	" ]\200{F\264\177\334\005\326\037@\226\015Y\213f\274"
 7092      46B47FDC 
 7092      05D61F40 
 7092      960D598B 
 7092      66BC
 7093 1523 2EE25E45 		.ascii	".\342^ECw+C$W\372\226:r_\354\\\222s\022\006\255}\305"
 7093      43772B43 
 7093      2457FA96 
 7093      3A725FEC 
 7093      5C927312 
 7094 153b 6BF57CE4 		.ascii	"k\365|\344\340\271s f\005\0039s\372\004\"9\223\205 "
 7094      E0B97320 
 7094      66050339 
 7094      73FA0422 
 7094      39938520 
 7095 154f F3844DA7 		.ascii	"\363\204M\247\267L\250\276\012\024\240d\317\203\306"
 7095      B74CA8BE 
 7095      0A14A064 
 7095      CF83C6
 7096 155e 0A2BE368 		.ascii	"\012+\343h\006w\265\370\337K\354\260\230!\023\205\270"
 7096      0677B5F8 
 7096      DF4BECB0 
 7096      98211385 
 7096      B8
 7097 156f 0FBB7B47 		.ascii	"\017\273{Gv\206\310\364P\204r\344\000V\015\350\203\021"
 7097      7686C8F4 
 7097      508472E4 
 7097      00560DE8 
 7097      8311
 7098 1581 55729C55 		.ascii	"Ur\234U\311:W\364\307\313q\352\234\246*\341{i\022\027"
ARM GAS  /tmp/ccydMd0r.s 			page 280


 7098      C93A57F4 
 7098      C7CB71EA 
 7098      9CA62AE1 
 7098      7B691217 
 7099 1595 76DF184F 		.ascii	"v\337\030O\206|\271\323\266+\032\252S\206\346\216\034"
 7099      867CB9D3 
 7099      B62B1AAA 
 7099      5386E68E 
 7099      1C
 7100 15a6 3FE16C04 		.ascii	"?\341l\004\015,O\012\034J\243T\177\015L\317\2534go\313"
 7100      0D2C4F0A 
 7100      1C4AA354 
 7100      7F0D4CCF 
 7100      AB34676F 
 7101 15bb F8538188 		.ascii	"\370S\201\210\347\270\220u\221\336\031G]^Hg\275\234"
 7101      E7B89075 
 7101      91DE1947 
 7101      5D5E4867 
 7101      BD9C
 7102 15cd A663EDDC 		.ascii	"\246c\355\334f5V@\266\222&\360=\255SpkE\004\3176m\222"
 7102      66355640 
 7102      B69226F0 
 7102      3DAD5370 
 7102      6B4504CF 
 7103 15e4 4AD45DF9 		.ascii	"J\324]\371\250\307\223\365R\370\006#\216r\376\277\202"
 7103      A8C793F5 
 7103      52F80623 
 7103      8E72FEBF 
 7103      82
 7104 15f5 71AC5D5B 		.ascii	"q\254][\203\325/\335\342\035\210\272>\002^\206u\252"
 7104      83D52FDD 
 7104      E21D88BA 
 7104      3E025E86 
 7104      75AA
 7105 1607 756A885B 		.ascii	"uj\210[\350\301\0033\372u\230\215\212\014~\177\206T"
 7105      E8C10333 
 7105      FA75988D 
 7105      8A0C7E7F 
 7105      8654
 7106 1619 82848EA1 		.ascii	"\202\204\216\241\202m\037\207\213@\360:m\353`\330\222"
 7106      826D1F87 
 7106      8B40F03A 
 7106      6DEB60D8 
 7106      92
 7107 162a 7AB37CA8 		.ascii	"z\263|\250$\306\333\250\244\020dQ\3227\362\227\361P"
 7107      24C6DBA8 
 7107      A4106451 
 7107      D237F297 
 7107      F150
 7108 163c 4C2BEF78 		.ascii	"L+\357xaV\000!\217z\242\2061\260\201\227\356aa\255\012"
 7108      61560021 
 7108      8F7AA286 
 7108      31B08197 
 7108      EE6161AD 
 7109 1651 CC19E20C 		.ascii	"\314\031\342\014*\302A\216_\014\034\\\320d\224A$\302"
 7109      2AC2418E 
 7109      5F0C1C5C 
ARM GAS  /tmp/ccydMd0r.s 			page 281


 7109      D0649441 
 7109      24C2
 7110 1663 1AE70E28 		.ascii	"\032\347\016(\350\375\263\305\355\361\335\311\224V\317"
 7110      E8FDB3C5 
 7110      EDF1DDC9 
 7110      9456CF
 7111 1672 79734A94 		.ascii	"ysJ\224\336w\375>\353\\\177\327\322Y\035\020_\\?\356"
 7111      DE77FD3E 
 7111      EB5C7FD7 
 7111      D2591D10 
 7111      5F5C3FEE 
 7112 1686 8AD18B3B 		.ascii	"\212\321\213;\301\271\360\242\363\005\213yvey\321\373"
 7112      C1B9F0A2 
 7112      F3058B79 
 7112      766579D1 
 7112      FB
 7113 1697 8F3831DC 		.ascii	"\21781\334\022\207\011\\\362\250b\267\250\274E\366\224"
 7113      1287095C 
 7113      F2A862B7 
 7113      A8BC45F6 
 7113      94
 7114 16a8 3CBBA8F2 		.ascii	"<\273\250\362\027+C\005Y38\374\326\377$xtrp\312Qu\373"
 7114      172B4305 
 7114      593338FC 
 7114      D6FF2478 
 7114      747270CA 
 7115 16bf 89C862B0 		.ascii	"\211\310b\260\323%gW\210o\2707\263J!j\017\277/<\243"
 7115      D3256757 
 7115      886FB837 
 7115      B34A216A 
 7115      0FBF2F3C 
 7116 16d4 B5723BB8 		.ascii	"\265r;\270p\261Q=dwy\301\011\2100\303OG\266|\373*\315"
 7116      70B1513D 
 7116      647779C1 
 7116      098830C3 
 7116      4F47B67C 
 7117 16eb F465FBF9 		.ascii	"\364e\373\371\371yPk\205\264\246G\000\031bJ\351xg\331"
 7117      F979506B 
 7117      85B4A647 
 7117      0019624A 
 7117      E97867D9 
 7118 16ff 6B42709F 		.ascii	"kBp\237l(\036Y\245\027\033N\357\213\032\332\011a\\\010"
 7118      6C281E59 
 7118      A5171B4E 
 7118      EF8B1ADA 
 7118      09615C08 
 7119 1713 9B1D578B 		.ascii	"\233\035W\213\261\034\361Nn\007\320\207X\367\010\376"
 7119      B11CF14E 
 7119      6E07D087 
 7119      58F708FE 
 7120 1723 8B6A159E 		.ascii	"\213j\025\236(G\206\343\204\251p\340\001-)\"O9\216\017"
 7120      284786E3 
 7120      84A970E0 
 7120      012D2922 
 7120      4F398E0F 
 7121 1737 F430471B 		.ascii	"\3640G\033x\"\010\002 \240\3067`\217\016\205\372-\331"
 7121      78220802 
ARM GAS  /tmp/ccydMd0r.s 			page 282


 7121      20A0C637 
 7121      608F0E85 
 7121      FA2DD9
 7122 174a 69536FF2 		.ascii	"iSo\3622n\032O;\227\2126m\242m\000\253\273\006M\276"
 7122      326E1A4F 
 7122      3B978A36 
 7122      6DA26D00 
 7122      ABBB064D 
 7123 175f AC291E0D 		.ascii	"\254)\036\015}\020Jd\302f2z\277c\037\250\030"
 7123      7D104A64 
 7123      C266327A 
 7123      BF631FA8 
 7123      18
 7124 1770 D4BA4B09 		.ascii	"\324\272K\011\235Tj\005\370\344\324\221>\323\350\026"
 7124      9D546A05 
 7124      F8E4D491 
 7124      3ED3E816 
 7125 1780 1E1A9A17 		.ascii	"\036\032\232\027\330\027t|1\241\251 \030q0\325\374\032"
 7125      D817747C 
 7125      31A1A920 
 7125      187130D5 
 7125      FC1A
 7126 1792 738199CB 		.ascii	"s\201\231\313o\230W\007l\017L\330\033T\323Y<\266\020"
 7126      6F985707 
 7126      6C0F4CD8 
 7126      1B54D359 
 7126      3CB610
 7127 17a5 A9278D47 		.ascii	"\251'\215G\336h\2150\3323\203f\300\2748\370D\267\266"
 7127      DE688D30 
 7127      DA338366 
 7127      C0BC38F8 
 7127      44B7B6
 7128 17b8 D509A1C6 		.ascii	"\325\011\241\306\275a\206\306\336|\354\214\020\352'"
 7128      BD6186C6 
 7128      DE7CEC8C 
 7128      10EA27
 7129 17c7 E091CA8C 		.ascii	"\340\221\312\214\206\260\210\013g\345?W{X\352\305\252"
 7129      86B0880B 
 7129      67E53F57 
 7129      7B58EAC5 
 7129      AA
 7130 17d8 09211D24 		.ascii	"\011!\035$\204\231:\013\011\353\266\377\230\250\234"
 7130      84993A0B 
 7130      09EBB6FF 
 7130      98A89C
 7131 17e7 74E44B5A 		.ascii	"t\344KZ\"\372ofS]\\\223\024\027\330c\310\221V\262:~"
 7131      22FA6F66 
 7131      535D5C93 
 7131      1417D863 
 7131      C89156B2 
 7132 17fd 52ED4039 		.ascii	"R\355@9\003Mg\320\371\371\340\2301\235\323\265~\226"
 7132      034D67D0 
 7132      F9F9E098 
 7132      319DD3B5 
 7132      7E96
 7133 180f 55567A7E 		.ascii	"UVz~\363O\375\254\363\262y*\036[\350W\260\202\200\217"
 7133      F34FFDAC 
ARM GAS  /tmp/ccydMd0r.s 			page 283


 7133      F3B2792A 
 7133      1E5BE857 
 7133      B082808F 
 7134 1823 FE0501C5 		.ascii	"\376\005\001\305\312\254\334\240\332\261\324`[\315["
 7134      CAACDCA0 
 7134      DAB1D460 
 7134      5BCD5B
 7135 1832 EAB34D7E 		.ascii	"\352\263M~\251\334WA)\275\323\236\224\\\367a=\300\300"
 7135      A9DC5741 
 7135      29BDD39E 
 7135      945CF761 
 7135      3DC0C0
 7136 1845 8F3BA15E 		.ascii	"\217;\241^H=pv\237\332I\213gL\364d\\\212z]\376\012\361"
 7136      483D7076 
 7136      9FDA498B 
 7136      674CF464 
 7136      5C8A7A5D 
 7137 185c 8F79762A 		.ascii	"\217yv*\323\224\012]\362\272U\326\240\320\236\2045\013"
 7137      D3940A5D 
 7137      F2BA55D6 
 7137      A0D09E84 
 7137      350B
 7138 186e 9FEE3F94 		.ascii	"\237\356?\224\302\225\313\315&\033vj7D\016OC\361T\316"
 7138      C295CBCD 
 7138      261B766A 
 7138      37440E4F 
 7138      43F154CE 
 7139 1882 4B8D6158 		.ascii	"K\215aXB\031\234T\216\212l\002\277(\274\223$pR&\364"
 7139      42199C54 
 7139      8E8A6C02 
 7139      BF28BC93 
 7139      24705226 
 7140 1897 926D96E2 		.ascii	"\222m\226\342\247\254\307\232\346kud&J\366\3753\024"
 7140      A7ACC79A 
 7140      E66B7564 
 7140      264AF6FD 
 7140      3314
 7141 18a9 3042F5B4 		.ascii	"0B\365\264\001D|\306E\026\261w\271\230\363^\266\361"
 7141      01447CC6 
 7141      4516B177 
 7141      B998F35E 
 7141      B6F1
 7142 18bb 464349EA 		.ascii	"FCI\352\275\317f\0064M{\334\037\207\327\321(\241\011"
 7142      BDCF6606 
 7142      344D7BDC 
 7142      1F87D7D1 
 7142      28A109
 7143 18ce 5C4B8E63 		.ascii	"\\K\216c\227\360h?\010e\250\224.\310k\204\013\342\301"
 7143      97F0683F 
 7143      0865A894 
 7143      2EC86B84 
 7143      0BE2C1
 7144 18e1 E3A45BF0 		.ascii	"\343\244[\360\222\203/\316\321]-L\321\000\356\012\245"
 7144      92832FCE 
 7144      D15D2D4C 
 7144      D100EE0A 
 7144      A5
ARM GAS  /tmp/ccydMd0r.s 			page 284


 7145 18f2 A91FDF98 		.ascii	"\251\037\337\230\2738B\342\002\020[\366\214\316\215"
 7145      BB3842E2 
 7145      02105BF6 
 7145      8CCE8D
 7146 1901 75920E81 		.ascii	"u\222\016\201i\233\003\031\366\351#\367r~fd1\2719jV"
 7146      699B0319 
 7146      F6E923F7 
 7146      727E6664 
 7146      31B9396A 
 7147 1916 60A65158 		.ascii	"`\246QX?J\005\350\245V\000\252\022\3144=\264\016\370"
 7147      3F4A05E8 
 7147      A55600AA 
 7147      12CC343D 
 7147      B40EF8
 7148 1929 E8206E70 		.ascii	"\350 np\222\325|\336\365\012\"\374\340Ld\275\236\220"
 7148      92D57CDE 
 7148      F50A22FC 
 7148      E04C64BD 
 7148      9E90
 7149 193b D62738EB 		.ascii	"\326'8\353\033\274a\306n\341\366\255\245\335=\203\353"
 7149      1BBC61C6 
 7149      6EE1F6AD 
 7149      A5DD3D83 
 7149      EB
 7150 194c 522CF0EF 		.ascii	"R,\360\357\357&\026\3611\005\320I\246<P\252\321\257"
 7150      EF2616F1 
 7150      3105D049 
 7150      A63C50AA 
 7150      D1AF
 7151 195e 372743F1 		.ascii	"7'C\361\233p\025\220\006\010\367\215\201\361\224\001"
 7151      9B701590 
 7151      0608F78D 
 7151      81F19401 
 7152 196e D9A47791 		.ascii	"\331\244w\221\335]\252\376r\030\272\244\350\3326p\250"
 7152      DD5DAAFE 
 7152      7218BAA4 
 7152      E8DA3670 
 7152      A8
 7153 197f E89F32F1 		.ascii	"\350\2372\361^\302\353\276]\376\321\326Q\342N\022\327"
 7153      5EC2EBBE 
 7153      5DFED1D6 
 7153      51E24E12 
 7153      D7
 7154 1990 FC36E5D1 		.ascii	"\3746\345\321\252+p\357`\246Y\015\205\371\302\321\230"
 7154      AA2B70EF 
 7154      60A6590D 
 7154      85F9C2D1 
 7154      98
 7155 19a1 16F5E4C9 		.ascii	"\026\365\344\311\254R:\373*\347\362\227T\177F,\304_"
 7155      AC523AFB 
 7155      2AE7F297 
 7155      547F462C 
 7155      C45F
 7156 19b3 393350D2 		.ascii	"93P\322\344\207\327\247\374\327\216\020\314_\031'\332"
 7156      E487D7A7 
 7156      FCD78E10 
 7156      CC5F1927 
ARM GAS  /tmp/ccydMd0r.s 			page 285


 7156      DA
 7157 19c4 61BAAFF8 		.ascii	"a\272\257\370\315\225Fx\347\255I\2078G\320Q\267\022"
 7157      CD954678 
 7157      E7AD4987 
 7157      3847D051 
 7157      B712
 7158 19d6 F7AB0021 		.ascii	"\367\253\000!k\222;k\003\031\235\202\227fp\261\374\244"
 7158      6B923B6B 
 7158      03199D82 
 7158      976670B1 
 7158      FCA4
 7159 19e8 5D144CC6 		.ascii	"]\024L\3061\260o<\334\342yP\365}\3204\200|\021\276\254"
 7159      31B06F3C 
 7159      DCE27950 
 7159      F57DD034 
 7159      807C11BE 
 7160 19fd 640B69B7 		.ascii	"d\013i\267T\200V/\001\315U\353\"\002\242\026\020\276"
 7160      5480562F 
 7160      01CD55EB 
 7160      2202A216 
 7160      10BE
 7161 1a0f 32205DB9 		.ascii	"2 ]\271\377n\374\245\306\032\215\255\246\205\324\037"
 7161      FF6EFCA5 
 7161      C61A8DAD 
 7161      A685D41F 
 7162 1a1f D5007FAC 		.ascii	"\325\000\177\254\327\024\351`@^\334\376\303\355F\371"
 7162      D714E960 
 7162      405EDCFE 
 7162      C3ED46F9 
 7163 1a2f 1A254014 		.ascii	"\032%@\024x;H\006\220\376\241\322\331\237\2372CD\032"
 7163      783B4806 
 7163      90FEA1D2 
 7163      D99F9F32 
 7163      43441A
 7164 1a42 EC7A0171 		.ascii	"\354z\001q\024\356\177/)\300U\235\233\011\252\021\317"
 7164      14EE7F2F 
 7164      29C0559D 
 7164      9B09AA11 
 7164      CF
 7165 1a53 33EB6C92 		.ascii	"3\353l\222\327\016|\241 \370\342t\352\211j\305\331\360"
 7165      D70E7CA1 
 7165      20F8E274 
 7165      EA896AC5 
 7165      D9F0
 7166 1a65 BFE2353C 		.ascii	"\277\3425<u\277\010\347\366\210\333\272\017E\254\213"
 7166      75BF08E7 
 7166      F688DBBA 
 7166      0F45AC8B 
 7167 1a75 5B39693E 		.ascii	"[9i>)\306\201\371@\207\352\330\036\356\217\261\361\320"
 7167      29C681F9 
 7167      4087EAD8 
 7167      1EEE8FB1 
 7167      F1D0
 7168 1a87 F3911F12 		.ascii	"\363\221\037\022\363\343\254\201yx\332\232X\002\377"
 7168      F3E3AC81 
 7168      7978DA9A 
 7168      5802FF
ARM GAS  /tmp/ccydMd0r.s 			page 286


 7169 1a96 642BF0FE 		.ascii	"d+\360\376LH\037D\376'\351\032Z\223\241\033\212\232"
 7169      4C481F44 
 7169      FE27E91A 
 7169      5A93A11B 
 7169      8A9A
 7170 1aa8 2E2CEF5C 		.ascii	".,\357\\^\330\262\255JJ\211\244[\222\003y\241\265\324"
 7170      5ED8B2AD 
 7170      4A4A89A4 
 7170      5B920379 
 7170      A1B5D4
 7171 1abb 0095B072 		.ascii	"\000\225\260r+\342\237\353\316A\363\332w*\264\352vO"
 7171      2BE29FEB 
 7171      CE41F3DA 
 7171      772AB4EA 
 7171      764F
 7172 1acd F4559D9A 		.ascii	"\364U\235\232=\312C\374h\374A\337&G\342SD\262Q\\5\243"
 7172      3DCA43FC 
 7172      68FC41DF 
 7172      2647E253 
 7172      44B2515C 
 7173 1ae3 CD2B9EDF 		.ascii	"\315+\236\337qR\310u\306'Vpn\264`uS\\\267\002[\036\266"
 7173      7152C875 
 7173      C6275670 
 7173      6EB46075 
 7173      535CB702 
 7174 1afa FF183D85 		.ascii	"\377\030=\2059?\340\365?\346 \004\224\205\332=\0337"
 7174      393FE0F5 
 7174      3FE62004 
 7174      9485DA3D 
 7174      1B37
 7175 1b0c C0B17187 		.ascii	"\300\261q\207;9\250b\003\240oY\215\261H\361]+\016\377"
 7175      3B39A862 
 7175      03A06F59 
 7175      8DB148F1 
 7175      5D2B0EFF 
 7176 1b20 E8E8B80F 		.ascii	"\350\350\270\017\264(A\324\372\300\220wt\334\305\301"
 7176      B42841D4 
 7176      FAC09077 
 7176      74DCC5C1 
 7177 1b30 5FC865CF 		.ascii	"_\310e\317\007\271\313\345\216V\205\376\200O\245\215"
 7177      07B9CBE5 
 7177      8E5685FE 
 7177      804FA58D 
 7178 1b40 15827AD1 		.ascii	"\025\202z\321\257\225+\037\342\253\003\337\024B@\237"
 7178      AF952B1F 
 7178      E2AB03DF 
 7178      1442409F 
 7179 1b50 E914803F 		.ascii	"\351\024\200?\036\016\326,\3023\024\206\010m\351\365"
 7179      1E0ED62C 
 7179      C2331486 
 7179      086DE9F5 
 7180 1b60 FAC02776 		.ascii	"\372\300'vY\022\035l\263\017\027\370\254y#3\241\"qi"
 7180      59121D6C 
 7180      B30F17F8 
 7180      AC792333 
 7180      A1227169 
 7181 1b74 3BA70AD2 		.ascii	";\247\012\322M\231_G\3663\231\256<\242\321wh\235\034"
ARM GAS  /tmp/ccydMd0r.s 			page 287


 7181      4D995F47 
 7181      F63399AE 
 7181      3CA2D177 
 7181      689D1C
 7182 1b87 A3E79BB5 		.ascii	"\243\347\233\265\277\020\261x\363U\021\311K|\372Trm"
 7182      BF10B178 
 7182      F35511C9 
 7182      4B7CFA54 
 7182      726D
 7183 1b99 3796AE40 		.ascii	"7\226\256@i){\302\023\033\305\202</\321\247\275\361"
 7183      69297BC2 
 7183      131BC582 
 7183      3C2FD1A7 
 7183      BDF1
 7184 1bab 6333396F 		.ascii	"c39oF\327\321\374\336\021\257\236L\250\352s\242'~\240"
 7184      46D7D1FC 
 7184      DE11AF9E 
 7184      4CA8EA73 
 7184      A2277EA0 
 7185 1bbf 943EFFC2 		.ascii	"\224>\377\302L\345{9\321\011\"\033a\300\341\027\261"
 7185      4CE57B39 
 7185      D109221B 
 7185      61C0E117 
 7185      B1
 7186 1bd0 A7981E94 		.ascii	"\247\230\036\2247\302P\023\367\270\270\374\000\2220"
 7186      37C25013 
 7186      F7B8B8FC 
 7186      009230
 7187 1bdf E1ADC099 		.ascii	"\341\255\300\231\303v\024\254h\243E\237@\302\363U\305"
 7187      C37614AC 
 7187      68A3459F 
 7187      40C2F355 
 7187      C5
 7188 1bf0 564D003D 		.ascii	"VM\000=\327\017y\354\251\372\0233O2\034\252N\371\333"
 7188      D70F79EC 
 7188      A9FA1333 
 7188      4F321CAA 
 7188      4EF9DB
 7189 1c03 ABDF41DD 		.ascii	"\253\337A\335\212\367von\261\025\253\024\352\257T\340"
 7189      8AF7766F 
 7189      6EB115AB 
 7189      14EAAF54 
 7189      E0
 7190 1c14 C94E4B9D 		.ascii	"\311NK\235e\002\2253T\357\212\256A\261\260\025\006\343"
 7190      65029533 
 7190      54EF8AAE 
 7190      41B1B015 
 7190      06E3
 7191 1c26 6913892C 		.ascii	"i\023\211,\304\250\216\361\277\244'2\225\200\366\276"
 7191      C4A88EF1 
 7191      BFA42732 
 7191      9580F6BE 
 7192 1c36 985906A4 		.ascii	"\230Y\006\244\005*\204#\361\246[\373\302f\2371x\001"
 7192      052A8423 
 7192      F1A65BFB 
 7192      C2669F31 
 7192      7801
ARM GAS  /tmp/ccydMd0r.s 			page 288


 7193 1c48 4D6F2413 		.ascii	"Mo$\023}\262$\311l\300\245G\213\232'\356<\246\024\333"
 7193      7DB224C9 
 7193      6CC0A547 
 7193      8B9A27EE 
 7193      3CA614DB 
 7194 1c5c DF526BB0 		.ascii	"\337Rk\260\317L\327\260\214DC>\312\247\371\254\335\212"
 7194      CF4CD7B0 
 7194      8C44433E 
 7194      CAA7F9AC 
 7194      DD8A
 7195 1c6e E7C5FD0A 		.ascii	"\347\305\375\012,)\342k\013~\366\247\246\227h}\316\262"
 7195      2C29E26B 
 7195      0B7EF6A7 
 7195      A697687D 
 7195      CEB2
 7196 1c80 805EFAC8 		.ascii	"\200^\372\310\233\214U\012\200\232\240@\237\354\310"
 7196      9B8C550A 
 7196      809AA040 
 7196      9FECC8
 7197 1c8f 423181F1 		.ascii	"B1\201\361\264Z\010\340\201G\304\343\302\333o\347>\343"
 7197      B45A08E0 
 7197      8147C4E3 
 7197      C2DB6FE7 
 7197      3EE3
 7198 1ca1 D97B57AE 		.ascii	"\331{W\256VWb.\017Z$\310K\322`F\307g\023B\251\034\235"
 7198      5657622E 
 7198      0F5A24C8 
 7198      4BD26046 
 7198      C7671342 
 7199 1cb8 ED291AF4 		.ascii	"\355)\032\364\233\272\030\337\004\333\3721z\202\344"
 7199      9BBA18DF 
 7199      04DBFA31 
 7199      7A82E4
 7200 1cc7 4DA5849F 		.ascii	"M\245\204\23735\243\273*\013\237\033\362\273\341'\264"
 7200      3335A3BB 
 7200      2A0B9F1B 
 7200      F2BBE127 
 7200      B4
 7201 1cd8 47C75401 		.ascii	"G\307T\001>\210%s\207\272\203H\254A$X*(\272\342\305"
 7201      3E882573 
 7201      87BA8348 
 7201      AC412458 
 7201      2A28BAE2 
 7202 1ced BE8A2334 		.ascii	"\276\212#4R\227\366\\\323\015\312\012\350\371\245\346"
 7202      5297F65C 
 7202      D30DCA0A 
 7202      E8F9A5E6 
 7203 1cfd 12CD1E3C 		.ascii	"\022\315\036<\255be\340\356T\315\247\251\370_H\270\003"
 7203      AD6265E0 
 7203      EE54CDA7 
 7203      A9F85F48 
 7203      B803
 7204 1d0f BB168142 		.ascii	"\273\026\201B\256{\206\177\377\013\323\325\201\246\356"
 7204      AE7B867F 
 7204      FF0BD3D5 
 7204      81A6EE
 7205 1d1e C90486EF 		.ascii	"\311\004\206\357s(\355K\267L\245\020\365\366N\315n\026"
ARM GAS  /tmp/ccydMd0r.s 			page 289


 7205      7328ED4B 
 7205      B74CA510 
 7205      F5F64ECD 
 7205      6E16
 7206 1d30 F0C73419 		.ascii	"\360\3074\031\035>\3121\321+\212\3376}\344{\301Hg8\244"
 7206      1D3ECA31 
 7206      D12B8ADF 
 7206      367DE47B 
 7206      C1486738 
 7207 1d45 D6162DCB 		.ascii	"\326\026-\313\357\206\015\2621\277\210\020:\261v\247"
 7207      EF860DB2 
 7207      31BF8810 
 7207      3AB176A7 
 7208 1d55 ED74CA1F 		.ascii	"\355t\312\037'\034\3529\224\325\246h\241w\242`\031\324"
 7208      271CEA39 
 7208      94D5A668 
 7208      A177A260 
 7208      19D4
 7209 1d67 9D2CC3DF 		.ascii	"\235,\303\337\032\265L\030K4nf\\w\314\017#\305\343D"
 7209      1AB54C18 
 7209      4B346E66 
 7209      5C77CC0F 
 7209      23C5E344 
 7210 1d7b 525C9BEA 		.ascii	"R\\\233\352Cg\261>\227\277\300Es\320Z\211\315:\275&"
 7210      4367B13E 
 7210      97BFC045 
 7210      73D05A89 
 7210      CD3ABD26 
 7211 1d8f E804363D 		.ascii	"\350\0046=\227e\004\233\355c\262\022\324\025\227`k\036"
 7211      9765049B 
 7211      ED63B212 
 7211      D4159760 
 7211      6B1E
 7212 1da1 F24E4834 		.ascii	"\362NH4\320N2k19\355\253g%U\367\371\024S\273[\360\331"
 7212      D04E326B 
 7212      3139EDAB 
 7212      672555F7 
 7212      F91453BB 
 7213 1db8 064C301E 		.ascii	"\006L0\036\275\357\214\203\337\361\373R\033\360\005"
 7213      BDEF8C83 
 7213      DFF1FB52 
 7213      1BF005
 7214 1dc7 BBEFD5B5 		.ascii	"\273\357\325\265\344\262ft\2169\007Y\215\336\030\334"
 7214      E4B26674 
 7214      8E390759 
 7214      8DDE18DC 
 7215 1dd7 D0FDBF7B 		.ascii	"\320\375\277{\306I]\306\302\360\254\212\340\357 \326"
 7215      C6495DC6 
 7215      C2F0AC8A 
 7215      E0EF20D6 
 7216 1de7 357894DB 		.ascii	"5x\224\333\220\346\346\2449\000\253r\244SB\303\336I"
 7216      90E6E6A4 
 7216      3900AB72 
 7216      A45342C3 
 7216      DE49
 7217 1df9 EA0648B2 		.ascii	"\352\006H\262o\344gS=\324\2514\003A5\246|\320O\254\351"
 7217      6FE46753 
ARM GAS  /tmp/ccydMd0r.s 			page 290


 7217      3DD4A934 
 7217      034135A6 
 7217      7CD04FAC 
 7218 1e0e 4E86600B 		.ascii	"N\206`\013\325\254\276\241l\262\250\245v\306\031\302"
 7218      D5ACBEA1 
 7218      6CB2A8A5 
 7218      76C619C2 
 7219 1e1e BFCF7DD9 		.ascii	"\277\317}\331\353L\010\345\363\222\342q4\312\226\331"
 7219      EB4C08E5 
 7219      F392E271 
 7219      34CA96D9 
 7220 1e2e E5FDE352 		.ascii	"\345\375\343R\201q\031\022\007$\252\217\024\326\316"
 7220      81711912 
 7220      0724AA8F 
 7220      14D6CE
 7221 1e3d 7C439572 		.ascii	"|C\225r\243XU\027q>qZ)\033\001;\275W\212\225q\372\231"
 7221      A3585517 
 7221      713E715A 
 7221      291B013B 
 7221      BD578A95 
 7222 1e54 2E0F6E0C 		.ascii	".\017n\014:x0\015\"\366\203\264\210\266\254\261\202"
 7222      3A78300D 
 7222      22F683B4 
 7222      88B6ACB1 
 7222      82
 7223 1e65 7B627223 		.ascii	"{br#\257\222\250\\\264i\253\357\200\264\325\271l*\275"
 7223      AF92A85C 
 7223      B469ABEF 
 7223      80B4D5B9 
 7223      6C2ABD
 7224 1e78 61C2316A 		.ascii	"a\3021j\307\030\370\016\343\340\361\226m/\3725\310s"
 7224      C718F80E 
 7224      E3E0F196 
 7224      6D2FFA35 
 7224      C873
 7225 1e8a 6D2C1257 		.ascii	"m,\022W\220@\366\266)\2639\263\367\307\350\222\246="
 7225      9040F6B6 
 7225      29B339B3 
 7225      F7C7E892 
 7225      A63D
 7226 1e9c 1A417F20 		.ascii	"\032A\177 \332\020\214\257{\227\016\263\271\304h\010"
 7226      DA108CAF 
 7226      7B970EB3 
 7226      B9C46808 
 7227 1eac 47B5539F 		.ascii	"G\265S\2374\314-\355\211N\254\222\346\264M\321\240\016"
 7227      34CC2DED 
 7227      894EAC92 
 7227      E6B44DD1 
 7227      A00E
 7228 1ebe E3A3FDF7 		.ascii	"\343\243\375\367x\017&@\276\222cp\253g\340t_\203\337"
 7228      780F2640 
 7228      BE926370 
 7228      AB67E074 
 7228      5F83DF
 7229 1ed1 BFBF928D 		.ascii	"\277\277\222\215W\337\214\201\242\027E\005?\227Ps*\340"
 7229      57DF8C81 
 7229      A2174505 
ARM GAS  /tmp/ccydMd0r.s 			page 291


 7229      3F975073 
 7229      2AE0
 7230 1ee3 606585D3 		.ascii	"`e\205\323\357\251\205\234bo3.\252\306\326\304\023\361"
 7230      EFA9859C 
 7230      626F332E 
 7230      AAC6D6C4 
 7230      13F1
 7231 1ef5 E86EDCEB 		.ascii	"\350n\334\353\024\006#l\370\020\242\217\3347\247\250"
 7231      1406236C 
 7231      F810A28F 
 7231      DC37A7A8 
 7232 1f05 1CE55A84 		.ascii	"\034\345Z\204 \241G\313c\357\033\277\3400I\201\003v"
 7232      20A147CB 
 7232      63EF1BBF 
 7232      E0304981 
 7232      0376
 7233 1f17 BB313C31 		.ascii	"\2731<1\336&\312\273\242bB\304\311~H\232.\332\320+<"
 7233      DE26CABB 
 7233      A26242C4 
 7233      C97E489A 
 7233      2EDAD02B 
 7234 1f2c 2C5EBECA 		.ascii	",^\276\312'\235\237ho\302jQ\266x\267A\357\346\235\232"
 7234      279D9F68 
 7234      6FC26A51 
 7234      B678B741 
 7234      EFE69D9A 
 7235 1f40 BECA39D5 		.ascii	"\276\3129\325\226\264\304\005\210W1+F\010 \200\376g"
 7235      96B4C405 
 7235      8857312B 
 7235      46082080 
 7235      FE67
 7236 1f52 952F34F0 		.ascii	"\225/4\3603U\223\213\216\324UW^\241\314\307U\004xcc"
 7236      3355938B 
 7236      8ED45557 
 7236      5EA1CCC7 
 7236      55047863 
 7237 1f67 5901520E 		.ascii	"Y\001R\016\372\013\177'o\342\020\203\352\212W\012o\376"
 7237      FA0B7F27 
 7237      6FE21083 
 7237      EA8A570A 
 7237      6FFE
 7238 1f79 BC42CF9B 		.ascii	"\274B\317\233\357\314cr\324\231fH\034)XI>\034q\271F"
 7238      EFCC6372 
 7238      D4996648 
 7238      1C295849 
 7238      3E1C71B9 
 7239 1f8e 80268D04 		.ascii	"\200&\215\004\356J\233\000K\253\022\344E\347qwk\356"
 7239      EE4A9B00 
 7239      4BAB12E4 
 7239      45E77177 
 7239      6BEE
 7240 1fa0 C343AF38 		.ascii	"\303C\2578\325 ,Kg\357\370\316\211D\347\360\024\212"
 7240      D5202C4B 
 7240      67EFF8CE 
 7240      8944E7F0 
 7240      148A
 7241 1fb2 19847087 		.ascii	"\031\204p\207\342)\275\373\011\353b\224\376\377\263"
ARM GAS  /tmp/ccydMd0r.s 			page 292


 7241      E229BDFB 
 7241      09EB6294 
 7241      FEFFB3
 7242 1fc1 FA924E2C 		.ascii	"\372\222N,cS\326]\030\304AU1~0\025\023\364;\260\347"
 7242      6353D65D 
 7242      18C44155 
 7242      317E3015 
 7242      13F43BB0 
 7243 1fd6 36DE4DBF 		.ascii	"6\336M\277H\212dn\302\232<\327\253\025#\334+\312\212"
 7243      488A646E 
 7243      C29A3CD7 
 7243      AB1523DC 
 7243      2BCA8A
 7244 1fe9 171329F3 		.ascii	"\027\023)\363y\267;\261On\264\0169;\207\377\347qDX\300"
 7244      79B73BB1 
 7244      4F6EB40E 
 7244      393B87FF 
 7244      E7714458 
 7245 1ffe 6D3D2379 		.ascii	"m=#y\200\201;E\375$\226\302x$\367&\302\257e\254i\204"
 7245      80813B45 
 7245      FD2496C2 
 7245      7824F726 
 7245      C2AF65AC 
 7246 2014 D06F3DF0 		.ascii	"\320o=\360p\214\346e~\350^h/\001\021\312\335\216\344"
 7246      708CE665 
 7246      7EE85E68 
 7246      2F0111CA 
 7246      DD8EE4
 7247 2027 1C2179E6 		.ascii	"\034!y\346/\27015\030r\037\365\335\271\376/q\324\224"
 7247      2FB83135 
 7247      18721FF5 
 7247      DDB9FE2F 
 7247      71D494
 7248 203a 41FCD003 		.ascii	"A\374\320\003\\\220\214y\3203\3421E\235\207r\357$\240"
 7248      5C908C79 
 7248      D033E231 
 7248      459D8772 
 7248      EF24A0
 7249 204d 286691D5 		.ascii	"(f\221\325\240l@\302R6\204\265=\010\201\372A\320aR\302"
 7249      A06C40C2 
 7249      523684B5 
 7249      3D0881FA 
 7249      41D06152 
 7250 2062 429F1B3F 		.ascii	"B\237\033?\215\\\232\237\236\2624\203]\2668\215\247"
 7250      8D5C9A9F 
 7250      9EB23483 
 7250      5DB6388D 
 7250      A7
 7251 2073 8C4DF8C8 		.ascii	"\214M\370\310\251f\251\235\261\227I\235\012\013\005"
 7251      A966A99D 
 7251      B197499D 
 7251      0A0B05
 7252 2082 CB0AA53C 		.ascii	"\313\012\245<b\350j\012\264\264,3z}\035\263\202#\237"
 7252      62E86A0A 
 7252      B4B42C33 
 7252      7A7D1DB3 
 7252      82239F
ARM GAS  /tmp/ccydMd0r.s 			page 293


 7253 2095 00C9144B 		.ascii	"\000\311\024K*\206eS\022\262\201+\035\363\265\326\350"
 7253      2A866553 
 7253      12B2812B 
 7253      1DF3B5D6 
 7253      E8
 7254 20a6 519FB066 		.ascii	"Q\237\260f\247\356\257R\037Oa\006X\374\315\375q\275"
 7254      A7EEAF52 
 7254      1F4F6106 
 7254      58FCCDFD 
 7254      71BD
 7255 20b8 045E1B5D 		.ascii	"\004^\033]~\016\217 u\257\2205L\333\325wu\254\306\007"
 7255      7E0E8F20 
 7255      75AF9035 
 7255      4CDBD577 
 7255      75ACC607 
 7256 20cc 59B60BCB 		.ascii	"Y\266\013\313\235\027\"*RO\277Cy\377\350\326\026\251"
 7256      9D17222A 
 7256      524FBF43 
 7256      79FFE8D6 
 7256      16A9
 7257 20de 49120190 		.ascii	"I\022\001\220_\212\202\002G\341\342el\257\265\037\237"
 7257      5F8A8202 
 7257      47E1E265 
 7257      6CAFB51F 
 7257      9F
 7258 20ef 75C766F3 		.ascii	"u\307f\363\301\222\306\311\002;\326\037.\001\374\216"
 7258      C192C6C9 
 7258      023BD61F 
 7258      2E01FC8E 
 7259 20ff BB9796B9 		.ascii	"\273\227\226\271At\265\346@\217\266<\244\206\246\014"
 7259      4174B5E6 
 7259      408FB63C 
 7259      A486A60C 
 7260 210f 7556F5FE 		.ascii	"uV\365\376\356R\243\326\007\311\314L;\251\211 \333\312"
 7260      EE52A3D6 
 7260      07C9CC4C 
 7260      3BA98920 
 7260      DBCA
 7261 2121 C3F15089 		.ascii	"\303\361P\211\006\343<\216\367}\243t\233\203\254\011"
 7261      06E33C8E 
 7261      F77DA374 
 7261      9B83AC09 
 7262 2131 0F6271B8 		.ascii	"\017bq\2708h\354iS=\024^\374\036\211\245:\207 \326J"
 7262      3868EC69 
 7262      533D145E 
 7262      FC1E89A5 
 7262      3A8720D6 
 7263 2146 07611162 		.ascii	"\007a\021b\324N2\314\312\261C\242\257*\264w&y:\273;"
 7263      D44E32CC 
 7263      CAB143A2 
 7263      AF2AB477 
 7263      26793ABB 
 7264 215b C0F7F001 		.ascii	"\300\367\360\001\021)*\304\272\223\030\262\353\3540"
 7264      11292AC4 
 7264      BA9318B2 
 7264      EBEC30
 7265 216a 189A1728 		.ascii	"\030\232\027(@M\256\310\207\371q\233\352#\337Gz\245"
ARM GAS  /tmp/ccydMd0r.s 			page 294


 7265      404DAEC8 
 7265      87F9719B 
 7265      EA23DF47 
 7265      7AA5
 7266 217c F484C094 		.ascii	"\364\204\300\224N\252\3350\277\362E\304\342\323\323"
 7266      4EAADD30 
 7266      BFF245C4 
 7266      E2D3D3
 7267 218b FBFC23B7 		.ascii	"\373\374#\267\240{O\220\2118\0150\311\216q'\027+w\261"
 7267      A07B4F90 
 7267      89380D30 
 7267      C98E7127 
 7267      172B77B1 
 7268 219f 29E07465 		.ascii	")\340tePx\3429a\306\036\027X\375\252{\217\364\323\233"
 7268      5078E239 
 7268      61C61E17 
 7268      58FDAA7B 
 7268      8FF4D39B 
 7269 21b3 4EBAAD89 		.ascii	"N\272\255\211\251Aj\337\260\253R\233\2779#\005+_6\014"
 7269      A9416ADF 
 7269      B0AB529B 
 7269      BF392305 
 7269      2B5F360C 
 7270 21c7 1595F444 		.ascii	"\025\225\364DR\204\200\375N\330\255\376\233)\377\024"
 7270      528480FD 
 7270      4ED8ADFE 
 7270      9B29FF14 
 7271 21d7 0C8FB499 		.ascii	"\014\217\264\231\307\265\013\010\205>\022\014>\2455"
 7271      C7B50B08 
 7271      853E120C 
 7271      3EA535
 7272 21e6 AD0617E8 		.ascii	"\255\006\027\350\277\032\255\236\313\005t\2638\351>"
 7272      BF1AAD9E 
 7272      CB0574B3 
 7272      38E93E
 7273 21f5 5BF9379D 		.ascii	"[\3717\235\315\011\027b`\310\177\245\345\370qr\210\300"
 7273      CD091762 
 7273      60C87FA5 
 7273      E5F87172 
 7273      88C0
 7274 2207 A18CD361 		.ascii	"\241\214\323aYn\004\010\215\224\334\220\207A{\247\360"
 7274      596E0408 
 7274      8D94DC90 
 7274      87417BA7 
 7274      F0
 7275 2218 322510C5 		.ascii	"2%\020\305\317\274\013\332Wc~\247\240\314\335\015\261"
 7275      CFBC0BDA 
 7275      57637EA7 
 7275      A0CCDD0D 
 7275      B1
 7276 2229 43F3F375 		.ascii	"C\363\363u\310\366CI\031\277\213>k\301\322\335\033S"
 7276      C8F64349 
 7276      19BF8B3E 
 7276      6BC1D2DD 
 7276      1B53
 7277 223b 3ECDB10A 		.ascii	">\315\261\012(C\221\251O~\334K~A\177\013\264\336\322"
 7277      284391A9 
ARM GAS  /tmp/ccydMd0r.s 			page 295


 7277      4F7EDC4B 
 7277      7E417F0B 
 7277      B4DED2
 7278 224e 5C1AF522 		.ascii	"\\\032\365\"Wv\007Ze'x\327\305\306\362'\362\334>\036"
 7278      5776075A 
 7278      652778D7 
 7278      C5C6F227 
 7278      F2DC3E1E 
 7279 2262 10C9722E 		.ascii	"\020\311r.\017Y\301\252%x*\312~b\316\374\011V\262B\362"
 7279      0F59C1AA 
 7279      25782ACA 
 7279      7E62CEFC 
 7279      0956B242 
 7280 2277 3B9FC6A1 		.ascii	";\237\306\241L\230.\277\271\345\275\002\232\224D\000"
 7280      4C982EBF 
 7280      B9E5BD02 
 7280      9A944400 
 7281 2287 D1F0F2FE 		.ascii	"\321\360\362\3762\372\026\234\223\011a!\3657\253a0\222"
 7281      32FA169C 
 7281      93096121 
 7281      F537AB61 
 7281      3092
 7282 2299 518798BE 		.ascii	"Q\207\230\276v\027\335ar\323i\242\260\254\265U\017\370"
 7282      7617DD61 
 7282      72D369A2 
 7282      B0ACB555 
 7282      0FF8
 7283 22ab 2D061C29 		.ascii	"-\006\034)\240 \340\004\342mz-\254\353e\252f\245\212"
 7283      A020E004 
 7283      E26D7A2D 
 7283      ACEB65AA 
 7283      66A58A
 7284 22be 434550CC 		.ascii	"CEP\314\362\331Q\262\356\330\301\312\317s+\232\364,"
 7284      F2D951B2 
 7284      EED8C1CA 
 7284      CF732B9A 
 7284      F42C
 7285 22d0 8A15201C 		.ascii	"\212\025 \034@\311iK\276\240\351\214\210\303W\323\373"
 7285      40C9694B 
 7285      BEA0E98C 
 7285      88C357D3 
 7285      FB
 7286 22e1 6A4AAD0A 		.ascii	"jJ\255\012x\202\255\250\0132\302\233d\226T\034\367\245"
 7286      7882ADA8 
 7286      0B32C29B 
 7286      6496541C 
 7286      F7A5
 7287 22f3 9F3FA3FE 		.ascii	"\237?\243\376\363\202\207B\330'\321ou\261\327\241\211"
 7287      F3828742 
 7287      D827D16F 
 7287      75B1D7A1 
 7287      89
 7288 2304 EAACC67A 		.ascii	"\352\254\306z\357e\324\373\260YD\355\350\356|\257Tm"
 7288      EF65D4FB 
 7288      B05944ED 
 7288      E8EE7CAF 
 7288      546D
ARM GAS  /tmp/ccydMd0r.s 			page 296


 7289 2316 980750AF 		.ascii	"\230\007P\257\255\347\344$0\316`{\223\023\025\2421\252"
 7289      ADE7E424 
 7289      30CE607B 
 7289      931315A2 
 7289      31AA
 7290 2328 37564923 		.ascii	"7VI#\2760 NQ\352@u\366g,\017-\312iKv\354\343o\364I\003"
 7290      BE30204E 
 7290      51EA4075 
 7290      F6672C0F 
 7290      2DCA694B 
 7291 2343 A6EB7D82 		.ascii	"\246\353}\202Z\204\017}\237\217\376\302\316&(~i\023"
 7291      5A840F7D 
 7291      9F8FFEC2 
 7291      CE26287E 
 7291      6913
 7292 2355 694A6187 		.ascii	"iJa\207b\004*\247Q}\202\272=\274\002\246\365M\267e\007"
 7292      62042AA7 
 7292      517D82BA 
 7292      3DBC02A6 
 7292      F54DB765 
 7293 236a 51D2252F 		.ascii	"Q\322%/N\224|w\301\036?t\222\306\266-\332\313L\204\350"
 7293      4E947C77 
 7293      C11E3F74 
 7293      92C6B62D 
 7293      DACB4C84 
 7294 237f 8F9CFE0F 		.ascii	"\217\234\376\017@\244#|\303\217\306\333^$\304\031'C"
 7294      40A4237C 
 7294      C38FC6DB 
 7294      5E24C419 
 7294      2743
 7295 2391 7A633861 		.ascii	"zc8a\000M|t:\030!\006\177@\177;]\322\341\332\274\367"
 7295      004D7C74 
 7295      3A182106 
 7295      7F407F3B 
 7295      5DD2E1DA 
 7296 23a7 0C20C080 		.ascii	"\014 \300\200\217\2530\222)\253\255\3242\027S\203A\336"
 7296      8FAB3092 
 7296      29ABADD4 
 7296      32175383 
 7296      41DE
 7297 23b9 FC086C35 		.ascii	"\374\010l5\243\003\177\305\227:\254H\342c\235M\306\361"
 7297      A3037FC5 
 7297      973AAC48 
 7297      E2639D4D 
 7297      C6F1
 7298 23cb AEA4E36C 		.ascii	"\256\244\343l2\336;\2146\360I\274\246\260\025\026#\270"
 7298      32DE3B8C 
 7298      36F049BC 
 7298      A6B01516 
 7298      23B8
 7299 23dd 5DFB5C5D 		.ascii	"]\373\\]D\363\355\234\340\371\361\004V,\027\027(\227"
 7299      44F3ED9C 
 7299      E0F9F104 
 7299      562C1717 
 7299      2897
 7300 23ef 05831081 		.ascii	"\005\203\020\2011y\300|\377\267q\360h`\325\306)\324"
 7300      3179C07C 
ARM GAS  /tmp/ccydMd0r.s 			page 297


 7300      FFB771F0 
 7300      6860D5C6 
 7300      29D4
 7301 2401 A2742108 		.ascii	"\242t!\010\3650)e\026\015X\352\2267\203\215\314e\347"
 7301      F5302965 
 7301      160D58EA 
 7301      9637838D 
 7301      CC65E7
 7302 2414 FF24C2D0 		.ascii	"\377$\302\320Y\021\317\372\376\364S\301\010&\263G\217"
 7302      5911CFFA 
 7302      FEF453C1 
 7302      0826B347 
 7302      8F
 7303 2425 1B2AB7E4 		.ascii	"\033*\267\344\201\206\302\332\316\263\032\323fp\345"
 7303      8186C2DA 
 7303      CEB31AD3 
 7303      6670E5
 7304 2434 62340DAC 		.ascii	"b4\015\254G2\250\260\005\317[\226\371J\350\304*\312"
 7304      4732A8B0 
 7304      05CF5B96 
 7304      F94AE8C4 
 7304      2ACA
 7305 2446 E0858B98 		.ascii	"\340\205\213\230\032\366\314\3533\374\354\220\025\032"
 7305      1AF6CCEB 
 7305      33FCEC90 
 7305      151A
 7306 2454 9869F658 		.ascii	"\230i\366X\254\\I\345Go\320\350\254(0\177\274\036\265"
 7306      AC5C49E5 
 7306      476FD0E8 
 7306      AC28307F 
 7306      BC1EB5
 7307 2467 0400A8EA 		.ascii	"\004\000\250\352\243\234\357\253\232!\007\373mZ\304"
 7307      A39CEFAB 
 7307      9A2107FB 
 7307      6D5AC4
 7308 2476 0E1E5EE5 		.ascii	"\016\036^\3452\305\317h`{\327&\370\017\257f\213\366"
 7308      32C5CF68 
 7308      607BD726 
 7308      F80FAF66 
 7308      8BF6
 7309 2488 A90BCCFB 		.ascii	"\251\013\314\373\217\213\346Vz\010\353\303\030y\267"
 7309      8F8BE656 
 7309      7A08EBC3 
 7309      1879B7
 7310 2497 5938F96D 		.ascii	"Y8\371m\014\022F\341\005\205Z\322yn\225\243\027\\]\346"
 7310      0C1246E1 
 7310      05855AD2 
 7310      796E95A3 
 7310      175C5DE6 
 7311 24ab 82C44584 		.ascii	"\202\304E\204O\215\007d\225\245~\306c`\235~Sg\237\305"
 7311      4F8D0764 
 7311      95A57EC6 
 7311      63609D7E 
 7311      53679FC5 
 7312 24bf 4A600949 		.ascii	"J`\011I\024\224\016\216\224\247\364\341\301\012Hz\030"
 7312      14940E8E 
 7312      94A7F4E1 
ARM GAS  /tmp/ccydMd0r.s 			page 298


 7312      C10A487A 
 7312      18
 7313 24d0 F925BA15 		.ascii	"\371%\272\025\366(\274\374\340\266\312\243C\241\222"
 7313      F628BCFC 
 7313      E0B6CAA3 
 7313      43A192
 7314 24df A9D18D97 		.ascii	"\251\321\215\2277\235v/`i\271\027\023f\311G\302\370"
 7314      379D762F 
 7314      6069B917 
 7314      1366C947 
 7314      C2F8
 7315 24f1 AD9513AB 		.ascii	"\255\225\023\253\211y\236\2750L\212Ov\373D\305\363k"
 7315      89799EBD 
 7315      304C8A4F 
 7315      76FB44C5 
 7315      F36B
 7316 2503 E233CB9F 		.ascii	"\3423\313\237\013\021\252!\3168\262\214\\5\323#\330"
 7316      0B11AA21 
 7316      CE38B28C 
 7316      5C35D323 
 7316      D8
 7317 2514 33FE675C 		.ascii	"3\376g\\\257\253\312\222\350:\372\325Boi\254X\375\005"
 7317      AFABCA92 
 7317      E83AFAD5 
 7317      426F69AC 
 7317      58FD05
 7318 2527 9B04811C 		.ascii	"\233\004\201\034p\267\333|*\343^Xr\036.\205.%\350~Q"
 7318      70B7DB7C 
 7318      2AE35E58 
 7318      721E2E85 
 7318      2E25E87E 
 7319 253c FEBB32AD 		.ascii	"\376\2732\255_g2\377>+@J\324\216Sud\303F\035\001t\237"
 7319      5F6732FF 
 7319      3E2B404A 
 7319      D48E5375 
 7319      64C3461D 
 7320 2553 134DBA86 		.ascii	"\023M\272\206\254\257H:\264\033U\331\367n*\336\330%"
 7320      ACAF483A 
 7320      B41B55D9 
 7320      F76E2ADE 
 7320      D825
 7321 2565 C57EEF23 		.ascii	"\305~\357#\356=\3261\365^B\013Kc\355\342\276n\325\326"
 7321      EE3DD631 
 7321      F55E420B 
 7321      4B63EDE2 
 7321      BE6ED5D6 
 7322 2579 17436099 		.ascii	"\027C`\231\316O\024\362\306\206n(\351\367\266\263\177"
 7322      CE4F14F2 
 7322      C6866E28 
 7322      E9F7B6B3 
 7322      7F
 7323 258a D7F50EDE 		.ascii	"\327\365\016\336\210\375\024KC\223\361\253\"8\267=T"
 7323      88FD144B 
 7323      4393F1AB 
 7323      2238B73D 
 7323      54
 7324 259b 4C1E1146 		.ascii	"L\036\021F\025\236Uj}\343\322\320iFl\034\264\353\021"
ARM GAS  /tmp/ccydMd0r.s 			page 299


 7324      159E556A 
 7324      7DE3D2D0 
 7324      69466C1C 
 7324      B4EB11
 7325 25ae DF44C9B5 		.ascii	"\337D\311\265\034y\0112\031\005\266\336\201\224\277"
 7325      1C790932 
 7325      1905B6DE 
 7325      8194BF
 7326 25bd E1F4D950 		.ascii	"\341\364\331P\353\274\354D\273\341\315\207x\307\333"
 7326      EBBCEC44 
 7326      BBE1CD87 
 7326      78C7DB
 7327 25cc A7AC5F4E 		.ascii	"\247\254_N\207\"\316r\2267\205Ue\267\231\\\000\350\035"
 7327      8722CE72 
 7327      96378555 
 7327      65B7995C 
 7327      00E81D
 7328 25df 8B09D965 		.ascii	"\213\011\331eD\206\226s=\321&\272s\334bS\015HH\006\307"
 7328      44869673 
 7328      3DD126BA 
 7328      73DC6253 
 7328      0D484806 
 7329 25f4 97D95298 		.ascii	"\227\331R\230\363\3679\021)<\006\252'\2349\247\357F"
 7329      F3F73911 
 7329      293C06AA 
 7329      279C39A7 
 7329      EF46
 7330 2606 0AC82E9E 		.ascii	"\012\310.\236\261\005\221Ur\177JD#\254\314\255\3778"
 7330      B1059155 
 7330      727F4A44 
 7330      23ACCCAD 
 7330      FF38
 7331 2618 AAA825CB 		.ascii	"\252\250%\313U)\302HO\012\321\300\211\346\336l`U!KO"
 7331      5529C248 
 7331      4F0AD1C0 
 7331      89E6DE6C 
 7331      6055214B 
 7332 262d 23975A62 		.ascii	"#\227Zb\035W\023\356DK\230!\006\011\027mBm*\002\276"
 7332      1D5713EE 
 7332      444B9821 
 7332      0609176D 
 7332      426D2A02 
 7333 2642 6943CD56 		.ascii	"iC\315V]\260\214\305\353\"\023\251\204\034\244g;\364"
 7333      5DB08CC5 
 7333      EB2213A9 
 7333      841CA467 
 7333      3BF4
 7334 2654 B161A80B 		.ascii	"\261a\250\013w\017?\361\226\210\372\030\365\222\216"
 7334      770F3FF1 
 7334      9688FA18 
 7334      F5928E
 7335 2663 5F1842AA 		.ascii	"_\030B\252\376\250\3357\255\326\373\\2\377&\374\224"
 7335      FEA8DD37 
 7335      ADD6FB5C 
 7335      32FF26FC 
 7335      94
 7336 2674 9B3DA1E8 		.ascii	"\233=\241\350\312\317\024 g\3378;-?>\333\247t\010\224"
ARM GAS  /tmp/ccydMd0r.s 			page 300


 7336      CACF1420 
 7336      67DF383B 
 7336      2D3F3EDB 
 7336      A7740894 
 7337 2688 6B7C9226 		.ascii	"k|\222&\350Z6|\247\303Z4\202\035Vh\326\017\331\371\005"
 7337      E85A367C 
 7337      A7C35A34 
 7337      821D5668 
 7337      D60FD9F9 
 7338 269d BF389C62 		.ascii	"\2778\234b.\027a6\234\207\206\242\344\206n(/F\2371\016"
 7338      2E176136 
 7338      9C8786A2 
 7338      E4866E28 
 7338      2F469F31 
 7339 26b2 8C49EDE7 		.ascii	"\214I\355\347T\226\277\365\312\002\217\026:\023\223"
 7339      5496BFF5 
 7339      CA028F16 
 7339      3A1393
 7340 26c1 6E05F863 		.ascii	"n\005\370c\305\254*\351\021\031g\336-!\234\205\250\277"
 7340      C5AC2AE9 
 7340      111967DE 
 7340      2D219C85 
 7340      A8BF
 7341 26d3 29D53A7D 		.ascii	")\325:}\037\205\216\2707\315##\222\270\332\213\351\300"
 7341      1F858EB8 
 7341      37CD2323 
 7341      92B8DA8B 
 7341      E9C0
 7342 26e5 83897692 		.ascii	"\203\211v\222\261\031n\270\007\035\001T~|!\202\213\325"
 7342      B1196EB8 
 7342      071D0154 
 7342      7E7C2182 
 7342      8BD5
 7343 26f7 C6218D5F 		.ascii	"\306!\215_7\331\203\026'\021.\227\203Lk\360\200\224"
 7343      37D98316 
 7343      27112E97 
 7343      834C6BF0 
 7343      8094
 7344 2709 D84D30F6 		.ascii	"\330M0\366\275\224>"
 7344      BD943E
 7345 2710 156672F3 		.ascii	"\025fr\363N\311rd\010rWC;J\310\205\207\375\0374\235"
 7345      4EC97264 
 7345      08725743 
 7345      3B4AC885 
 7345      87FD1F34 
 7346 2725 BB78A107 		.ascii	"\273x\241\007\237JC\373\012d\006b:0\230|uV\364\255\013"
 7346      9F4A43FB 
 7346      0A640662 
 7346      3A30987C 
 7346      7556F4AD 
 7347 273a 3AFC9572 		.ascii	":\374\225r\331\310Tt\301\200l\205u\377 \273'\345\\\266"
 7347      D9C85474 
 7347      C1806C85 
 7347      75FF20BB 
 7347      27E55CB6 
 7348 274e 7048AFC2 		.ascii	"pH\257\302>owP7\375\264\351\012\"\027y\356\311\365t"
 7348      3E6F7750 
ARM GAS  /tmp/ccydMd0r.s 			page 301


 7348      37FDB4E9 
 7348      0A221779 
 7348      EEC9F574 
 7349 2762 FA7D1F19 		.ascii	"\372}\037\031\260\331\317\302\326\322\322\2103\323\246"
 7349      B0D9CFC2 
 7349      D6D2D288 
 7349      33D3A6
 7350 2771 F8689538 		.ascii	"\370h\2258\213\377\202\372[\251\032\213K\247\344{\223"
 7350      8BFF82FA 
 7350      5BA91A8B 
 7350      4BA7E47B 
 7350      93
 7351 2782 A0B3FC4F 		.ascii	"\240\263\374O\235h\320%\222<d*\250\262q\345-Yp\"\272"
 7351      9D68D025 
 7351      923C642A 
 7351      A8B271E5 
 7351      2D597022 
 7352 2797 01C6BEB9 		.ascii	"\001\306\276\271\336\3051\204\361\277B\331\204\224\204"
 7352      DEC53184 
 7352      F1BF42D9 
 7352      849484
 7353 27a6 A37ABA04 		.ascii	"\243z\272\004\313\015\337\330\220\250Gu)#p\367\272~"
 7353      CB0DDFD8 
 7353      90A84775 
 7353      292370F7 
 7353      BA7E
 7354 27b8 10412D98 		.ascii	"\020A-\230\\\267\221\035t\370\232\254\371\231\027\226"
 7354      5CB7911D 
 7354      74F89AAC 
 7354      F9991796 
 7355 27c8 1C875304 		.ascii	"\034\207S\004\035\031\335\262\216R\224\004\267Q\252"
 7355      1D19DDB2 
 7355      8E529404 
 7355      B751AA
 7356 27d7 8464DD93 		.ascii	"\204d\335\223w\366\321RD%\001r\326\005\370\256\"\177"
 7356      77F6D152 
 7356      44250172 
 7356      D605F8AE 
 7356      227F
 7357 27e9 8CD81412 		.ascii	"\214\330\024\022\315.\252\322<\351\204\013(\304\315"
 7357      CD2EAAD2 
 7357      3CE9840B 
 7357      28C4CD
 7358 27f8 7CA89C19 		.ascii	"|\250\234\031\305\254K\002\344\311\346\034\016\014."
 7358      C5AC4B02 
 7358      E4C9E61C 
 7358      0E0C2E
 7359 2807 9CF6CE62 		.ascii	"\234\366\316bD\306\233+`+\206\350a\270\004\026?\020"
 7359      44C69B2B 
 7359      602B86E8 
 7359      61B80416 
 7359      3F10
 7360 2819 F4DEE4B6 		.ascii	"\364\336\344\266\2507\340\252\355\2229\360\017p\367"
 7360      A837E0AA 
 7360      ED9239F0 
 7360      0F70F7
 7361 2828 DDF6163B 		.ascii	"\335\366\026;\036\354N\252\364T\000`\261\217`PPq9\356"
ARM GAS  /tmp/ccydMd0r.s 			page 302


 7361      1EEC4EAA 
 7361      F4540060 
 7361      B18F6050 
 7361      507139EE 
 7362 283c 4273073C 		.ascii	"Bs\007<\335Ep_<O\035d7 *\245B\353\027\273\331e\260="
 7362      DD45705F 
 7362      3C4F1D64 
 7362      37202AA5 
 7362      42EB17BB 
 7363 2854 53392ECC 		.ascii	"S9.\314o\312\205\216\034\341(\273\270W\276\224\275\301"
 7363      6FCA858E 
 7363      1CE128BB 
 7363      B857BE94 
 7363      BDC1
 7364 2866 CA9D2BCB 		.ascii	"\312\235+\313%T\306\324\330\010\275\177\357\365C\361"
 7364      2554C6D4 
 7364      D808BD7F 
 7364      EFF543F1 
 7365 2876 6B4F86AF 		.ascii	"kO\206\257\276\316\326\204\231\316\337\361\353\"\026"
 7365      BECED684 
 7365      99CEDFF1 
 7365      EB2216
 7366 2885 CDEC5ACB 		.ascii	"\315\354Z\313\333c\006\336\002\263\364W\374\023\324"
 7366      DB6306DE 
 7366      02B3F457 
 7366      FC13D4
 7367 2894 C4A6E38B 		.ascii	"\304\246\343\213w\364\353\375\210u\327\240\036x\022"
 7367      77F4EBFD 
 7367      8875D7A0 
 7367      1E7812
 7368 28a3 20D3F195 		.ascii	" \323\361\225\206\243\317\266\0365B\010bWK\342ZW\242"
 7368      86A3CFB6 
 7368      1E354208 
 7368      62574BE2 
 7368      5A57A2
 7369 28b6 CA7437C3 		.ascii	"\312t7\303\012\235\037\035\350IO\301RR\354\2714\261"
 7369      0A9D1F1D 
 7369      E8494FC1 
 7369      5252ECB9 
 7369      34B1
 7370 28c8 B5A3EDA9 		.ascii	"\265\243\355\251\017\354\007\366\267M\372\254\262\324"
 7370      0FEC07F6 
 7370      B74DFAAC 
 7370      B2D4
 7371 28d6 E7C7D124 		.ascii	"\347\307\321$\001`S\246@u\214\344\275\361\305\326\372"
 7371      016053A6 
 7371      40758CE4 
 7371      BDF1C5D6 
 7371      FA
 7372 28e7 71D678A5 		.ascii	"q\326x\245\215\017\243\306\235\005\236\373\037\3642"
 7372      8D0FA3C6 
 7372      9D059EFB 
 7372      1FF432
 7373 28f6 88116BC2 		.ascii	"\210\021k\302\264$_d\205\324\203\364\316\267/f\211\223"
 7373      B4245F64 
 7373      85D483F4 
 7373      CEB72F66 
ARM GAS  /tmp/ccydMd0r.s 			page 303


 7373      8993
 7374 2908 CCD6B226 		.ascii	"\314\326\262&-\031\202^I\222\021\232a\335\253\011\257"
 7374      2D19825E 
 7374      4992119A 
 7374      61DDAB09 
 7374      AF
 7375 2919 E41C7F0A 		.ascii	"\344\034\177\012\361\341a\3645\263\210\327\033k\241"
 7375      F1E161F4 
 7375      35B388D7 
 7375      1B6BA1
 7376 2928 AE94B090 		.ascii	"\256\224\260\220+\015Z@.\357\240L\257!kv\330>\010c_"
 7376      2B0D5A40 
 7376      2EEFA04C 
 7376      AF216B76 
 7376      D83E0863 
 7377 293d D7D8FA1C 		.ascii	"\327\330\372\034\001\004\025'\372\343\332\321\016h)"
 7377      01041527 
 7377      FAE3DAD1 
 7377      0E6829
 7378 294c FF1F278E 		.ascii	"\377\037'\216>\270l\211\256\032\036\316\327\3361\"7"
 7378      3EB86C89 
 7378      AE1A1ECE 
 7378      D7DE3122 
 7378      37
 7379 295d 9CC97C41 		.ascii	"\234\311|A\210\361\342sTJ\027\316\230\274\340`\036\025"
 7379      88F1E273 
 7379      544A17CE 
 7379      98BCE060 
 7379      1E15
 7380 296f D5FD02DF 		.ascii	"\325\375\002\337|\250qH\352Lf\355\224w(H\300F.\003\315"
 7380      7CA87148 
 7380      EA4C66ED 
 7380      94772848 
 7380      C0462E03 
 7381 2984 7025A6D2 		.ascii	"p%\246\322\240\215\347\237\013\273\252ec\3273\2608H"
 7381      A08DE79F 
 7381      0BBBAA65 
 7381      63D733B0 
 7381      3848
 7382 2996 CD850962 		.ascii	"\315\205\011b?\270\000k\354y\327\266\355\227B\007k\222"
 7382      3FB8006B 
 7382      EC79D7B6 
 7382      ED974207 
 7382      6B92
 7383 29a8 E234ECB4 		.ascii	"\3424\354\2641r6\024\350P\360\022Io\351,\264- >\230"
 7383      31723614 
 7383      E850F012 
 7383      496FE92C 
 7383      B42D203E 
 7384 29bd A5234385 		.ascii	"\245#C\2059FaBe\310\273\312\314w1R[BvD\343\304\273\253"
 7384      39466142 
 7384      65C8BBCA 
 7384      CC773152 
 7384      5B427644 
 7385 29d5 0E86908F 		.ascii	"\016\206\220\217\361\210\251&\372\255\344\233\367\374"
 7385      F188A926 
 7385      FAADE49B 
ARM GAS  /tmp/ccydMd0r.s 			page 304


 7385      F7FC
 7386 29e3 996CF0C9 		.ascii	"\231l\360\311\030\215\014G\221]\251\017U\252]\353\017"
 7386      188D0C47 
 7386      915DA90F 
 7386      55AA5DEB 
 7386      0F
 7387 29f4 28B06AEF 		.ascii	"(\260j\357\360\235S\317\006f\330\212\320\312*~\235R"
 7387      F09D53CF 
 7387      0666D88A 
 7387      D0CA2A7E 
 7387      9D52
 7388 2a06 C686BF25 		.ascii	"\306\206\277%\261f\272\353\010\346\023\210$\001J\036"
 7388      B166BAEB 
 7388      08E61388 
 7388      24014A1E 
 7389 2a16 DD25C6D6 		.ascii	"\335%\306\326=\010H\327\251T\005\323\220T1\206\277\306"
 7389      3D0848D7 
 7389      A95405D3 
 7389      90543186 
 7389      BFC6
 7390 2a28 A841DFF4 		.ascii	"\250A\337\364\2168[\237C:\223\251\001\276\220b\305\330"
 7390      8E385B9F 
 7390      433A93A9 
 7390      01BE9062 
 7390      C5D8
 7391 2a3a 3E933889 		.ascii	">\2238\211\005\361P^$\341\303\360]d/\325\004\245\017"
 7391      05F1505E 
 7391      24E1C3F0 
 7391      5D642FD5 
 7391      04A50F
 7392 2a4d 75AEA808 		.ascii	"u\256\250\010\302\374\240\0113\006\220U\337A]c\336*"
 7392      C2FCA009 
 7392      33069055 
 7392      DF415D63 
 7392      DE2A
 7393 2a5f BE9D28D6 		.ascii	"\276\235(\326e\014\350\376\021\261\000&,\316\316\200"
 7393      650CE8FE 
 7393      11B10026 
 7393      2CCECE80 
 7394 2a6f 13515D9E 		.ascii	"\023Q]\236>jF\233\177-\205I\233\325\231\371\223\257"
 7394      3E6A469B 
 7394      7F2D8549 
 7394      9BD599F9 
 7394      93AF
 7395 2a81 B285BF19 		.ascii	"\262\205\277\031\332\264\215\347\000=\\(g\230=J\303"
 7395      DAB48DE7 
 7395      003D5C28 
 7395      67983D4A 
 7395      C3
 7396 2a92 11D9327D 		.ascii	"\021\3312}\373\261\361PW\206\223\247\310\320\261\256"
 7396      FBB1F150 
 7396      578693A7 
 7396      C8D0B1AE 
 7397 2aa2 7DFC3870 		.ascii	"}\3748p\330\312K\224\226~`\033i\231\356\316\337_\221"
 7397      D8CA4B94 
 7397      967E601B 
 7397      6999EECE 
ARM GAS  /tmp/ccydMd0r.s 			page 305


 7397      DF5F91
 7398 2ab5 69C56EF7 		.ascii	"i\305n\367\015\016\234\012\023\013#\343\322\366\233"
 7398      0D0E9C0A 
 7398      130B23E3 
 7398      D2F69B
 7399 2ac4 4DC07103 		.ascii	"M\300q\003\\\372\363\352\377\002\301\345\346TL\201\310"
 7399      5CFAF3EA 
 7399      FF02C1E5 
 7399      E6544C81 
 7399      C8
 7400 2ad5 4BC3C51A 		.ascii	"K\303\305\032\274\203\033\026?\335\006\372\326\264\001"
 7400      BC831B16 
 7400      3FDD06FA 
 7400      D6B401
 7401 2ae4 CAA9555D 		.ascii	"\312\251U]\222\033\322g\331\345\016\327\231n\226S,\204"
 7401      921BD267 
 7401      D9E50ED7 
 7401      996E9653 
 7401      2C84
 7402 2af6 193F1099 		.ascii	"\031?\020\231\\\257\333y\273\253(\367\236hE\022\361"
 7402      5CAFDB79 
 7402      BBAB28F7 
 7402      9E684512 
 7402      F1
 7403 2b07 5D64C806 		.ascii	"]d\310\006\370I\362(\016)\275\270\252\214\3575e2\023"
 7403      F849F228 
 7403      0E29BDB8 
 7403      AA8CEF35 
 7403      653213
 7404 2b1a AB026AF9 		.ascii	"\253\002j\371\225*@?\273sY\303\332\301\276o\370\206"
 7404      952A403F 
 7404      BB7359C3 
 7404      DAC1BE6F 
 7404      F886
 7405 2b2c 06F1DC45 		.ascii	"\006\361\334E\257\242\012{\024t\313\313\225~*\307\201"
 7405      AFA20A7B 
 7405      1474CBCB 
 7405      957E2AC7 
 7405      81
 7406 2b3d 7BE6E905 		.ascii	"{\346\351\005i\367P\017\342\003{\0133\337\335\237\203"
 7406      69F7500F 
 7406      E2037B0B 
 7406      33DFDD9F 
 7406      83
 7407 2b4e 1A578187 		.ascii	"\032W\201\207\316\016\300\276wRF$x\312*\010)\336\005"
 7407      CE0EC0BE 
 7407      77524624 
 7407      78CA2A08 
 7407      29DE05
 7408 2b61 0E7B8999 		.ascii	"\016{\211\231d\277\300\007&VP\245\300h\241\354\015\375"
 7408      64BFC007 
 7408      265650A5 
 7408      C068A1EC 
 7408      0DFD
 7409 2b73 BA2E6750 		.ascii	"\272.gP-\377\207XT%\331\255\014V\256\022+Q[*\255\301"
 7409      2DFF8758 
 7409      5425D9AD 
ARM GAS  /tmp/ccydMd0r.s 			page 306


 7409      0C56AE12 
 7409      2B515B2A 
 7410 2b89 273B1EBE 		.ascii	"';\036\276\367\376\367E\036\323\012\310yP\236=#F\331"
 7410      F7FEF745 
 7410      1ED30AC8 
 7410      79509E3D 
 7410      2346D9
 7411 2b9c AFA19C97 		.ascii	"\257\241\234\227\327z\372z\014\253u3=\232|\207\307*"
 7411      D77AFA7A 
 7411      0CAB7533 
 7411      3D9A7C87 
 7411      C72A
 7412 2bae 47B8B2D1 		.ascii	"G\270\262\321\216\306\316\216x.\304:\240l\340\304\334"
 7412      8EC6CE8E 
 7412      782EC43A 
 7412      A06CE0C4 
 7412      DC
 7413 2bbf A4FB5C4F 		.ascii	"\244\373\\O\330\022\261\356;\001\012\000\213\017\250"
 7413      D812B1EE 
 7413      3B010A00 
 7413      8B0FA8
 7414 2bce 37430EDC 		.ascii	"7C\016\334W\237vF\242\345\344\"\326:b&\257DB\234\012"
 7414      579F7646 
 7414      A2E5E422 
 7414      D63A6226 
 7414      AF44429C 
 7415 2be3 139104EB 		.ascii	"\023\221\004\353\002\250\374\021x\252\034G\354\012\261"
 7415      02A8FC11 
 7415      78AA1C47 
 7415      EC0AB1
 7416 2bf2 8143AC12 		.ascii	"\201C\254\022\236F`F\303\336/:K\360\001'r\334\022Dj"
 7416      9E466046 
 7416      C3DE2F3A 
 7416      4BF00127 
 7416      72DC1244 
 7417 2c07 97946500 		.ascii	"\227\224e\000\350\013\032#\324_\357\035\216\011\227"
 7417      E80B1A23 
 7417      D45FEF1D 
 7417      8E0997
 7418 2c16 1C2EF0D5 		.ascii	"\034.\360\3251lE\355\2408\3035\333\237\035\357\267\274"
 7418      316C45ED 
 7418      A038C335 
 7418      DB9F1DEF 
 7418      B7BC
 7419 2c28 BB136104 		.ascii	"\273\023a\004\336\021\336\025z\216\025\263\200\"\367"
 7419      DE11DE15 
 7419      7A8E15B3 
 7419      8022F7
 7420 2c37 ED6B5D8E 		.ascii	"\355k]\216\314\344\373Ce\031\211\257\261\240\227\333"
 7420      CCE4FB43 
 7420      651989AF 
 7420      B1A097DB 
 7421 2c47 0613297A 		.ascii	"\006\023)z(\307\336\344&\221\273\252\322\024w\227m1"
 7421      28C7DEE4 
 7421      2691BBAA 
 7421      D2147797 
 7421      6D31
ARM GAS  /tmp/ccydMd0r.s 			page 307


 7422 2c59 6677C43C 		.ascii	"fw\304<\217\2208\242\006\247\366}\014\231\315\366\320"
 7422      8F9038A2 
 7422      06A7F67D 
 7422      0C99CDF6 
 7422      D0
 7423 2c6a A75EE57A 		.ascii	"\247^\345z(Z\321]p:\024\037\240\264}\002\375\027\000"
 7423      285AD15D 
 7423      703A141F 
 7423      A0B47D02 
 7423      FD1700
 7424 2c7d 6A6148CA 		.ascii	"jaH\312'\374\242\250\342\217\233\376;i\013\243\324\023"
 7424      27FCA2A8 
 7424      E28F9BFE 
 7424      3B690BA3 
 7424      D413
 7425 2c8f F3443009 		.ascii	"\363D0\011<\326\227<\220\300%C\032)\016\263\36776\356"
 7425      3CD6973C 
 7425      90C02543 
 7425      1A290EB3 
 7425      F73736EE 
 7426 2ca3 4F69928A 		.ascii	"Oi\222\212~\002\320\247\352\223z\361^\206^\320a4\025"
 7426      7E02D0A7 
 7426      EA937AF1 
 7426      5E865ED0 
 7426      613415
 7427 2cb6 66BD8868 		.ascii	"f\275\210h\206*\260j`\244\321*\222\301B\377\265\314"
 7427      862AB06A 
 7427      60A4D12A 
 7427      92C142FF 
 7427      B5CC
 7428 2cc8 46C65BCF 		.ascii	"F\306[\317\221\2066\3701\274\247\374\2149Te\333.K\254"
 7428      918636F8 
 7428      31BCA7FC 
 7428      8C395465 
 7428      DB2E4BAC 
 7429 2cdc 7D2799B5 		.ascii	"}'\231\265,\033[\377\307\313\303\301\037\226)@\014\331"
 7429      2C1B5BFF 
 7429      C7CBC3C1 
 7429      1F962940 
 7429      0CD9
 7430 2cee E1F40F34 		.ascii	"\341\364\0174\231\225\215\030h\345^\374\023R\335]Y5"
 7430      99958D18 
 7430      68E55EFC 
 7430      1352DD5D 
 7430      5935
 7431 2d00 5B49C46C 		.ascii	"[I\304l).4\312-\322\201B\244O\2476\275!J\351\340\213"
 7431      292E34CA 
 7431      2DD28142 
 7431      A44FA736 
 7431      BD214AE9 
 7432 2d16 476D4F70 		.ascii	"GmOp\2662\20046Lp\372Z\270\354\216\330#M\373\227m\221"
 7432      B6328034 
 7432      364C70FA 
 7432      5AB8EC8E 
 7432      D8234DFB 
 7433 2d2d 246F2241 		.ascii	"$o\"A*\203\011\\\2616S\004TI\236z=}\021F\256\030T7\237"
 7433      2A83095C 
ARM GAS  /tmp/ccydMd0r.s 			page 308


 7433      B1365304 
 7433      54499E7A 
 7433      3D7D1146 
 7434 2d46 433B4263 		.ascii	"C;Bc\2162\206hW\370\267\334/(\037\007x9\232\272\233"
 7434      8E328668 
 7434      57F8B7DC 
 7434      2F281F07 
 7434      78399ABA 
 7435 2d5b 8BE37C2D 		.ascii	"\213\343|-\332\275T\007\372\004Sq\3203\026-\351l(\210"
 7435      DABD5407 
 7435      FA045371 
 7435      D033162D 
 7435      E96C2888 
 7436 2d6f BA63F827 		.ascii	"\272c\370'x\363\271\245X \276\3319\025'b\312\277\237"
 7436      78F3B9A5 
 7436      5820BED9 
 7436      39152762 
 7436      CABF9F
 7437 2d82 EF045497 		.ascii	"\357\004T\227\300\010\"\351\301\206Pi]\210r\256l\300"
 7437      C00822E9 
 7437      C1865069 
 7437      5D8872AE 
 7437      6CC0
 7438 2d94 BCBA9ADE 		.ascii	"\274\272\232\336\251O7\317v\202\254\276\223\334\322"
 7438      A94F37CF 
 7438      7682ACBE 
 7438      93DCD2
 7439 2da3 C4FD8D2D 		.ascii	"\304\375\215-\001\251\261\024[\241\217-\025R\3501B["
 7439      01A9B114 
 7439      5BA18F2D 
 7439      1552E831 
 7439      425B
 7440 2db5 F3CE015D 		.ascii	"\363\316\001]l~cdg\017>\214\373S\265l$\236>\3259\037"
 7440      6C7E6364 
 7440      670F3E8C 
 7440      FB53B56C 
 7440      249E3ED5 
 7441 2dcb 92063AA7 		.ascii	"\222\006:\247\220\216\007\336\216\324\352\242:`14b\377"
 7441      908E07DE 
 7441      8ED4EAA2 
 7441      3A603134 
 7441      62FF
 7442 2ddd DDE7FF1C 		.ascii	"\335\347\377\034\272\203`\2232I&\261\333\231\275\002"
 7442      BA836093 
 7442      324926B1 
 7442      DB99BD02 
 7443 2ded 50C4A25C 		.ascii	"P\304\242\\C\256q\255\275\377\013\242\375\377\2346\327"
 7443      43AE71AD 
 7443      BDFF0BA2 
 7443      FDFF9C36 
 7443      D7
 7444 2dfe BA881483 		.ascii	"\272\210\024\203\211I\325\304\271\350\000\223\012\373"
 7444      8949D5C4 
 7444      B9E80093 
 7444      0AFB
 7445 2e0c F1876787 		.ascii	"\361\207g\207\333\336\376\2045\025\317>O\033\305\224"
 7445      DBDEFE84 
ARM GAS  /tmp/ccydMd0r.s 			page 309


 7445      3515CF3E 
 7445      4F1BC594 
 7446 2e1c F92DC81C 		.ascii	"\371-\310\034\215\225\\D\206\315|\244n\225J\326\273"
 7446      8D955C44 
 7446      86CD7CA4 
 7446      6E954AD6 
 7446      BB
 7447 2e2d 6FB0AEFB 		.ascii	"o\260\256\373GE\327\031\031\232\351&g\241\312y1\225"
 7447      4745D719 
 7447      199AE926 
 7447      67A1CA79 
 7447      3195
 7448 2e3f 257E026D 		.ascii	"%~\002m\376\332\253)\271]\033\321#\014\022\350\257\010"
 7448      FEDAAB29 
 7448      B95D1BD1 
 7448      230C12E8 
 7448      AF08
 7449 2e51 0592F88F 		.ascii	"\005\222\370\217]k\227\353+\202\2320\357\021\331\011"
 7449      5D6B97EB 
 7449      2B829A30 
 7449      EF11D909 
 7450 2e61 9DC63C86 		.ascii	"\235\306<\206\304k\247r\267\0307\302\341\266\020\361"
 7450      C46BA772 
 7450      B71837C2 
 7450      E1B610F1 
 7451 2e71 5C286F63 		.ascii	"\\(oc9\000\305\223\244\3723:\202\207;\015\313\311\374"
 7451      3900C593 
 7451      A4FA333A 
 7451      82873B0D 
 7451      CBC9FC
 7452 2e84 7A9ADF7A 		.ascii	"z\232\337z\273\310\330r\234\200?\026\322\177\005\241"
 7452      BBC8D872 
 7452      9C803F16 
 7452      D27F05A1 
 7453 2e94 517FC22D 		.ascii	"Q\177\302-\301.RBL),\031C\232Gq\241g\212\364\235\332"
 7453      C12E5242 
 7453      4C292C19 
 7453      439A4771 
 7453      A1678AF4 
 7454 2eaa D9DBD0A2 		.ascii	"\331\333\320\242\325\351\024~\224\224<\277q\367D\345"
 7454      D5E9147E 
 7454      94943CBF 
 7454      71F744E5 
 7455 2eba 06467DC0 		.ascii	"\006F}\300\365X\341\255\346V\234}'\010N\246,\377\263"
 7455      F558E1AD 
 7455      E6569C7D 
 7455      27084EA6 
 7455      2CFFB3
 7456 2ecd 629BD08E 		.ascii	"b\233\320\216*)\332\312f\220\031\322x\330V\204\356\344"
 7456      2A29DACA 
 7456      669019D2 
 7456      78D85684 
 7456      EEE4
 7457 2edf 25       		.ascii	"%"
 7458 2ee0 6D94C6F4 		.ascii	"m\224\306\364\015\013\314\340P\272v\026\303\221\357"
 7458      0D0BCCE0 
 7458      50BA7616 
ARM GAS  /tmp/ccydMd0r.s 			page 310


 7458      C391EF
 7459 2eef 7F8D9B47 		.ascii	"\177\215\233G\362\373\023\3703`\333T\277\315\232\210"
 7459      F2FB13F8 
 7459      3360DB54 
 7459      BFCD9A88 
 7460 2eff 079DFF7C 		.ascii	"\007\235\377|\371\314\342\275\241\277\375e\214\024\346"
 7460      F9CCE2BD 
 7460      A1BFFD65 
 7460      8C14E6
 7461 2f0e A2E60923 		.ascii	"\242\346\011#\266\373IzN,\341%\024U\235b\210\251q\240"
 7461      B6FB497A 
 7461      4E2CE125 
 7461      14559D62 
 7461      88A971A0 
 7462 2f22 F9F9302A 		.ascii	"\371\3710*eH\243\255%\177\340>+\025\027\252Aa\362(\355"
 7462      6548A3AD 
 7462      257FE03E 
 7462      2B1517AA 
 7462      4161F228 
 7463 2f37 651D943B 		.ascii	"e\035\224;k,\304k*\374\237\005\013\202E`\240\232>\307"
 7463      6B2CC46B 
 7463      2AFC9F05 
 7463      0B824560 
 7463      A09A3EC7 
 7464 2f4b 5E6D987A 		.ascii	"^m\230z\210.jF\321\036\211\333\222\212\024S}x\237\317"
 7464      882E6A46 
 7464      D11E89DB 
 7464      928A1453 
 7464      7D789FCF 
 7465 2f5f 1ECBDA0A 		.ascii	"\036\313\332\0128\225\360\177\214\336\016\21171\214"
 7465      3895F07F 
 7465      8CDE0E89 
 7465      37318C
 7466 2f6e F80D8C9E 		.ascii	"\370\015\214\236\3317\323\372\351\014\361\373\201\030"
 7466      D937D3FA 
 7466      E90CF1FB 
 7466      8118
 7467 2f7c 7D51640F 		.ascii	"}Qd\017\336\025\006\260s\305\000\316a\030 \370\011\260"
 7467      DE1506B0 
 7467      73C500CE 
 7467      611820F8 
 7467      09B0
 7468 2f8e D64FE918 		.ascii	"\326O\351\030dV^C&\036\271\202\272f\224\275\024\013"
 7468      64565E43 
 7468      261EB982 
 7468      BA6694BD 
 7468      140B
 7469 2fa0 6BEACFA9 		.ascii	"k\352\317\251(1\017\010x\0149\220\213vl\251\004\234"
 7469      28310F08 
 7469      780C3990 
 7469      8B766CA9 
 7469      049C
 7470 2fb2 B487DC56 		.ascii	"\264\207\334V_R\334X\263\276.\377c\026\362a\261\233"
 7470      5F52DC58 
 7470      B3BE2EFF 
 7470      6316F261 
 7470      B19B
ARM GAS  /tmp/ccydMd0r.s 			page 311


 7471 2fc4 64649AB2 		.ascii	"dd\232\262V\346\370\311\350\215\234\025\212\276k\221"
 7471      56E6F8C9 
 7471      E88D9C15 
 7471      8ABE6B91 
 7472 2fd4 84D5D288 		.ascii	"\204\325\322\210\342\336\\\272:\254\376\331\210\260"
 7472      E2DE5CBA 
 7472      3AACFED9 
 7472      88B0
 7473 2fe2 9E1E6383 		.ascii	"\236\036c\203\203\323\217L\246\252\031c\272h\273\340"
 7473      83D38F4C 
 7473      A6AA1963 
 7473      BA68BBE0 
 7474 2ff2 FE5CCCA6 		.ascii	"\376\\\314\246\311\235\350\361W1!\326\241\020\262\226"
 7474      C99DE8F1 
 7474      573121D6 
 7474      A110B296 
 7475 3002 B13F5999 		.ascii	"\261?Y\231\344\207`\300@\227\340\273J\311\267\222\244"
 7475      E48760C0 
 7475      4097E0BB 
 7475      4AC9B792 
 7475      A4
 7476 3013 A8DA0F9E 		.ascii	"\250\332\017\2367\362\324\015\366wL \373\025p\233a\240"
 7476      37F2D40D 
 7476      F6774C20 
 7476      FB15709B 
 7476      61A0
 7477 3025 35EA138B 		.ascii	"5\352\023\213\221f+\007\3313\224\220X\275\343N\360\022"
 7477      91662B07 
 7477      D9339490 
 7477      58BDE34E 
 7477      F012
 7478 3037 EB8AE571 		.ascii	"\353\212\345q\362\322y\367\215D\276\327l\222\261\200"
 7478      F2D279F7 
 7478      8D44BED7 
 7478      6C92B180 
 7479 3047 B805BDB7 		.ascii	"\270\005\275\267\204\357\336z\034*(\332\377\240\032"
 7479      84EFDE7A 
 7479      1C2A28DA 
 7479      FFA01A
 7480 3056 C0B44C81 		.ascii	"\300\264L\201\021o\334\273\334L?\303r\245\302\023\226"
 7480      116FDCBB 
 7480      DC4C3FC3 
 7480      72A5C213 
 7480      96
 7481 3067 6EFA0DD7 		.ascii	"n\372\015\327^%\316.\306\331\277\360\373\305\344\314"
 7481      5E25CE2E 
 7481      C6D9BFF0 
 7481      FBC5E4CC 
 7482 3077 D7804F23 		.ascii	"\327\200O#\363.\234\025'\301\260\005&C\272\320\243\242"
 7482      F32E9C15 
 7482      27C1B005 
 7482      2643BAD0 
 7482      A3A2
 7483 3089 BEB2E172 		.ascii	"\276\262\341riM\232\337@\345\254E\260\305p\230k\233"
 7483      694D9ADF 
 7483      40E5AC45 
 7483      B0C57098 
ARM GAS  /tmp/ccydMd0r.s 			page 312


 7483      6B9B
 7484 309b 0768BA12 		.ascii	"\007h\272\022q3\274\036\242$\232\024P\014\3243B>\256"
 7484      7133BC1E 
 7484      A2249A14 
 7484      500CD433 
 7484      423EAE
 7485 30ae B92049B0 		.ascii	"\271 I\260\334\243\370\214l}\025f\267\335\244)`O\010"
 7485      DCA3F88C 
 7485      6C7D1566 
 7485      B7DDA429 
 7485      604F08
 7486 30c1 37742FB6 		.ascii	"7t/\266\360D\210n1E9\261\336s\206m\022@@f\355\204\333"
 7486      F044886E 
 7486      314539B1 
 7486      DE73866D 
 7486      12404066 
 7487 30d8 01573599 		.ascii	"\001W5\231\341\344+h\036\011\257\220\353\017\304\310"
 7487      E1E42B68 
 7487      1E09AF90 
 7487      EB0FC4C8 
 7488 30e8 4AC819B7 		.ascii	"J\310\031\267\233\244\301]\305\023^7\360\033\232P\003"
 7488      9BA4C15D 
 7488      C5135E37 
 7488      F01B9A50 
 7488      03
 7489 30f9 8EA26231 		.ascii	"\216\242b1\000<o\245\357\010\011\325\240\020\003\271"
 7489      003C6FA5 
 7489      EF0809D5 
 7489      A01003B9 
 7490 3109 21AC9B05 		.ascii	"!\254\233\005fBd\324(\327a\305\315\326wH\025\325\014"
 7490      664264D4 
 7490      28D761C5 
 7490      CDD67748 
 7490      15D50C
 7491 311c 5A88DCB2 		.ascii	"Z\210\334\262\234\322\3460\234|X\205w\037\315i\340\010"
 7491      9CD2E630 
 7491      9C7C5885 
 7491      771FCD69 
 7491      E008
 7492 312e 0FD3F518 		.ascii	"\017\323\365\030\207\250\275\012jD\350T\200\004\251"
 7492      87A8BD0A 
 7492      6A44E854 
 7492      8004A9
 7493 313d 0E487F5D 		.ascii	"\016H\177]\205\272\\\006\000G0\015\336\321\355u:\301"
 7493      85BA5C06 
 7493      0047300D 
 7493      DED1ED75 
 7493      3AC1
 7494 314f AE56A902 		.ascii	"\256V\251\002\371lp@\317\205G\3278\255\311>$\332\263"
 7494      F96C7040 
 7494      CF8547D7 
 7494      38ADC93E 
 7494      24DAB3
 7495 3162 9D5679C1 		.ascii	"\235Vy\301\027\017\014\247\261)\365\023\322\203\375"
 7495      170F0CA7 
 7495      B129F513 
 7495      D283FD
ARM GAS  /tmp/ccydMd0r.s 			page 313


 7496 3171 800BAD61 		.ascii	"\200\013\255a\272\367\235O\333\303[\035{\346O~\004\307"
 7496      BAF79D4F 
 7496      DBC35B1D 
 7496      7BE64F7E 
 7496      04C7
 7497 3183 DE4BF5D3 		.ascii	"\336K\365\3235\327A\341\201\254\277\260UR\344\032?\215"
 7497      35D741E1 
 7497      81ACBFB0 
 7497      5552E41A 
 7497      3F8D
 7498 3195 78DA3537 		.ascii	"x\33257\254\342\273\331Vh\343\240|\243\234z;\230\256"
 7498      ACE2BBD9 
 7498      5668E3A0 
 7498      7CA39C7A 
 7498      3B98AE
 7499 31a8 FB01A9A6 		.ascii	"\373\001\251\246\270\260\232\317b \271g\332+\240\332"
 7499      B8B09ACF 
 7499      6220B967 
 7499      DA2BA0DA 
 7500 31b8 C817036A 		.ascii	"\310\027\003j\253\361\313 VJ\023\306\263\271\240\271"
 7500      ABF1CB20 
 7500      564A13C6 
 7500      B3B9A0B9 
 7501 31c8 6521D205 		.ascii	"e!\322\005p?\214\277\374\"\001nb\227\331%t\235\324Y"
 7501      703F8CBF 
 7501      FC22016E 
 7501      6297D925 
 7501      749DD459 
 7502 31dc 8F359076 		.ascii	"\2175\220v\3648>\353g\211\016\227\253cD\024\253&Z\002"
 7502      F4383EEB 
 7502      67890E97 
 7502      AB634414 
 7502      AB265A02 
 7503 31f0 44881610 		.ascii	"D\210\026\020\030h`#\363q\244}Qg\314\021R\215\230\314"
 7503      18686023 
 7503      F371A47D 
 7503      5167CC11 
 7503      528D98CC 
 7504 3204 57CCFA37 		.ascii	"W\314\3727zQ4\323\213\213\272\2336\331\224\216\300\370"
 7504      7A5134D3 
 7504      8B8BBA9B 
 7504      36D9948E 
 7504      C0F8
 7505 3216 B1AF605C 		.ascii	"\261\257`\\B:\315\267(J\235\314\327J\312-D\036\265\223"
 7505      423ACDB7 
 7505      284A9DCC 
 7505      D74ACA2D 
 7505      441EB593 
 7506 322a ABD6E558 		.ascii	"\253\326\345X\317\3572#\005%\324N\001\356\270p E\317"
 7506      CFEF3223 
 7506      0525D44E 
 7506      01EEB870 
 7506      2045CF
 7507 323d 58B4B2BC 		.ascii	"X\264\262\274\230n\177\004\330\007\013\377\004\347n"
 7507      986E7F04 
 7507      D8070BFF 
 7507      04E76E
ARM GAS  /tmp/ccydMd0r.s 			page 314


 7508 324c D6DAEDB3 		.ascii	"\326\332\355\263\006\016\376\234\320\375\254\274Cm\255"
 7508      060EFE9C 
 7508      D0FDACBC 
 7508      436DAD
 7509 325b 9197D506 		.ascii	"\221\227\325\006C(\206\037\327\263NMa{\027\366)>[\246"
 7509      4328861F 
 7509      D7B34E4D 
 7509      617B17F6 
 7509      293E5BA6 
 7510 326f 8E3A12FE 		.ascii	"\216:\022\376\260\346\207\233Px\024\3469\306\362\010"
 7510      B0E6879B 
 7510      507814E6 
 7510      39C6F208 
 7511 327f 9D74F685 		.ascii	"\235t\366\205B\007\323\200\376\357F5\256O\206\221\242"
 7511      4207D380 
 7511      FEEF4635 
 7511      AE4F8691 
 7511      A2
 7512 3290 8A9C5177 		.ascii	"\212\234Qw\222\276\262\326\200\020b\245\264f\363\337"
 7512      92BEB2D6 
 7512      801062A5 
 7512      B466F3DF 
 7513 32a0 0FCBFF0F 		.ascii	"\017\313\377\017\276a\0106+\303|\254\237\310|\371z\016"
 7513      BE610836 
 7513      2BC37CAC 
 7513      9FC87CF9 
 7513      7A0E
 7514 32b2 BE90C2F5 		.ascii	"\276\220\302\365i1B\377\241\336\017\223\301an\006\241"
 7514      693142FF 
 7514      A1DE0F93 
 7514      C1616E06 
 7514      A1
 7515 32c3 EEF41F0E 		.ascii	"\356\364\037\016\222b*\221 \013\315\260\371\211\252"
 7515      92622A91 
 7515      200BCDB0 
 7515      F989AA
 7516 32d2 09CA0270 		.ascii	"\011\312\002p\305\226\241W\320\264xQ\270\335\251\311"
 7516      C596A157 
 7516      D0B47851 
 7516      B8DDA9C9 
 7517 32e2 4084C582 		.ascii	"@\204\305\202\3355\370\315\370\372\207\027\021\325\205"
 7517      DD35F8CD 
 7517      F8FA8717 
 7517      11D585
 7518 32f1 B9951D88 		.ascii	"\271\225\035\210d\003jR\334\201;^vn\0179\310C\362\226"
 7518      64036A52 
 7518      DC813B5E 
 7518      766E0F39 
 7518      C843F296 
 7519 3305 5002F41A 		.ascii	"P\002\364\032?\322\010\203^\030U\035+4\247\001M\215"
 7519      3FD20883 
 7519      5E18551D 
 7519      2B34A701 
 7519      4D8D
 7520 3317 657CEB24 		.ascii	"e|\353$\204U\014c\023.c\245M\255Iz$\327\025\"\244:\001"
 7520      84550C63 
 7520      132E63A5 
ARM GAS  /tmp/ccydMd0r.s 			page 315


 7520      4DAD497A 
 7520      24D71522 
 7521 332e A73BE819 		.ascii	"\247;\350\031\000\377\306\010\246\031\033\372;p:O=\327"
 7521      00FFC608 
 7521      A6191BFA 
 7521      3B703A4F 
 7521      3DD7
 7522 3340 107B5D82 		.ascii	"\020{]\202k\301\341Y\372\261\321\023\345(f\256{\342"
 7522      6BC1E159 
 7522      FAB1D113 
 7522      E52866AE 
 7522      7BE2
 7523 3352 70DA8B83 		.ascii	"p\332\213\203\254\336W\221\264*i\3350Lr\204\000\304"
 7523      ACDE5791 
 7523      B42A69DD 
 7523      304C7284 
 7523      00C4
 7524 3364 948D336B 		.ascii	"\224\2153k,\035\371\036\253(\366\246\275\207wgL\217"
 7524      2C1DF91E 
 7524      AB28F6A6 
 7524      BD877767 
 7524      4C8F
 7525 3376 DB34F688 		.ascii	"\3334\366\21036o0\241\322\235@\024UI\341\3340\275H!"
 7525      33366F30 
 7525      A1D29D40 
 7525      145549E1 
 7525      DC30BD48 
 7526 338b DF300DBA 		.ascii	"\3370\015\272\232*\313\003m\021V9\351\007\347zY\230"
 7526      9A2ACB03 
 7526      6D115639 
 7526      E907E77A 
 7526      5998
 7527 339d 82E45A09 		.ascii	"\202\344Z\011\311\350\200\024\"\332j?1\252\334\"w\353"
 7527      C9E88014 
 7527      22DA6A3F 
 7527      31AADC22 
 7527      77EB
 7528 33af 255366F2 		.ascii	"%Sf\362\325@\022\271\202\251\301\022Z!?\324\302\212"
 7528      D54012B9 
 7528      82A9C112 
 7528      5A213FD4 
 7528      C28A
 7529 33c1 15D40632 		.ascii	"\025\324\0062\274nCU\003\240~\0175\370d\204\227\220"
 7529      BC6E4355 
 7529      03A07E0F 
 7529      35F86484 
 7529      9790
 7530 33d3 8B48EC0B 		.ascii	"\213H\354\013`e\333\3763\221oSN\351\220'\212\316+,\177"
 7530      6065DBFE 
 7530      33916F53 
 7530      4EE99027 
 7530      8ACE2B2C 
 7531 33e8 78658608 		.ascii	"xe\206\010\327:\304px*\263\367k\233@\352\0101\017\177"
 7531      D73AC470 
 7531      782AB3F7 
 7531      6B9B40EA 
 7531      08310F7F 
ARM GAS  /tmp/ccydMd0r.s 			page 316


 7532 33fc 8A0883C1 		.ascii	"\212\010\203\301\273\371e\363@\014\236\202ci\010n7\217"
 7532      BBF965F3 
 7532      400C9E82 
 7532      6369086E 
 7532      378F
 7533 340e C780158E 		.ascii	"\307\200\025\216\036\302\035Y5\212\202\226\253\"\230"
 7533      1EC21D59 
 7533      358A8296 
 7533      AB2298
 7534 341d D39F791B 		.ascii	"\323\237y\033-E \305Bf\000\371\322\256\245\351\220\377"
 7534      2D4520C5 
 7534      426600F9 
 7534      D2AEA5E9 
 7534      90FF
 7535 342f A7B8B1DC 		.ascii	"\247\270\261\334\323G\236\227\325\002\0020\263\006W"
 7535      D3479E97 
 7535      D5020230 
 7535      B30657
 7536 343e F6857A41 		.ascii	"\366\205zA'\026~\033\235\365\240\020\235\321\233\005"
 7536      27167E1B 
 7536      9DF5A010 
 7536      9DD19B05 
 7537 344e 3354C983 		.ascii	"3T\311\203,\012\003(\010\3264p(\256\357\256\037\266"
 7537      2C0A0328 
 7537      08D63470 
 7537      28AEEFAE 
 7537      1FB6
 7538 3460 782826EB 		.ascii	"x(&\353b\351\253\314\346\245\260\342\233\374\026\033"
 7538      62E9ABCC 
 7538      E6A5B0E2 
 7538      9BFC161B 
 7539 3470 9945C2D4 		.ascii	"\231E\302\324\357\362\345\351\035=t\334\256Y\177Y\255"
 7539      EFF2E5E9 
 7539      1D3D74DC 
 7539      AE597F59 
 7539      AD
 7540 3481 0BCEC088 		.ascii	"\013\316\300\210\350\012\334\306G\012c\367\311\235\012"
 7540      E80ADCC6 
 7540      470A63F7 
 7540      C99D0A
 7541 3490 96787A00 		.ascii	"\226xz\0002\231\3161\347\214\317XnO\274\366\262\256"
 7541      3299CE31 
 7541      E78CCF58 
 7541      6E4FBCF6 
 7541      B2AE
 7542 34a2 9DFB05FA 		.ascii	"\235\373\005\372/|N\334\263\345\336\202\024\244\231"
 7542      2F7C4EDC 
 7542      B3E5DE82 
 7542      14A499
 7543 34b1 C56DFDDC 		.ascii	"\305m\375\334\001\0264\010I\244\006\022|z\214\243\370"
 7543      01163408 
 7543      49A40612 
 7543      7C7A8CA3 
 7543      F8
 7544 34c2 E5283AEF 		.ascii	"\345(:\357o\231\022\233\235\037\343]\343\334\254\026"
 7544      6F99129B 
 7544      9D1FE35D 
ARM GAS  /tmp/ccydMd0r.s 			page 317


 7544      E3DCAC16 
 7545 34d2 769CFF9A 		.ascii	"v\234\377\232.{\013\234\2708\377M\211J\265\314\377\366"
 7545      2E7B0B9C 
 7545      B838FF4D 
 7545      894AB5CC 
 7545      FFF6
 7546 34e4 4DA067DD 		.ascii	"M\240g\335\015\325jd\360\033\326\222\236\325\324u\317"
 7546      0DD56A64 
 7546      F01BD692 
 7546      9ED5D475 
 7546      CF
 7547 34f5 A6957F63 		.ascii	"\246\225\177cv\003#^\266\362\247\204v\027\246 \032%"
 7547      7603235E 
 7547      B6F2A784 
 7547      7617A620 
 7547      1A25
 7548 3507 B1C3B980 		.ascii	"\261\303\271\200\346\314\222\3444E\321\306\336\313\021"
 7548      E6CC92E4 
 7548      3445D1C6 
 7548      DECB11
 7549 3516 71894EE2 		.ascii	"q\211N\342\027\232u>\332\346\363H\303\335d\011<,\034"
 7549      179A753E 
 7549      DAE6F348 
 7549      C3DD6409 
 7549      3C2C1C
 7550 3529 03798E13 		.ascii	"\003y\216\023\373\303\217\253\266\015!B\\\"o3\223\256"
 7550      FBC38FAB 
 7550      B60D2142 
 7550      5C226F33 
 7550      93AE
 7551 353b 297FDD6A 		.ascii	")\177\335j0\022\340-\277>G5\323@d\344\025\243`Zf\374"
 7551      3012E02D 
 7551      BF3E4735 
 7551      D34064E4 
 7551      15A3605A 
 7552 3551 581C052B 		.ascii	"X\034\005+F\263B`\036\001\335x\343\341RW\276+<}7\206"
 7552      46B34260 
 7552      1E01DD78 
 7552      E3E15257 
 7552      BE2B3C7D 
 7553 3567 066691DE 		.ascii	"\006f\221\336y\023\355\357\0303\322\243k\207\006\361"
 7553      7913EDEF 
 7553      1833D2A3 
 7553      6B8706F1 
 7554 3577 71F9973D 		.ascii	"q\371\227=\304;\201PbZ\031\024\322\317:\236\231\337"
 7554      C43B8150 
 7554      625A1914 
 7554      D2CF3A9E 
 7554      99DF
 7555 3589 8E519D3A 		.ascii	"\216Q\235:\034Y\375\237\317|\221\016Z\334\234\221\304"
 7555      1C59FD9F 
 7555      CF7C910E 
 7555      5ADC9C91 
 7555      C4
 7556 359a D8B73FB5 		.ascii	"\330\267?\265G\177\314;\237F\377\333\374i\375\345\251"
 7556      477FCC3B 
 7556      9F46FFDB 
ARM GAS  /tmp/ccydMd0r.s 			page 318


 7556      FC69FDE5 
 7556      A9
 7557 35ab B5E2A3F4 		.ascii	"\265\342\243\364A\265\000\017Z\300\225}\014\324\267"
 7557      41B5000F 
 7557      5AC0957D 
 7557      0CD4B7
 7558 35ba 04C3C37B 		.ascii	"\004\303\303{=\020\343\204\273L\225\207\212\331\266"
 7558      3D10E384 
 7558      BB4C9587 
 7558      8AD9B6
 7559 35c9 763D4B92 		.ascii	"v=K\222\034\362\370\321\237\234x\216T\374~\331\220\320"
 7559      1CF2F8D1 
 7559      9F9C788E 
 7559      54FC7ED9 
 7559      90D0
 7560 35db 7E57616C 		.ascii	"~Wal\243\246s5\312X's\311\027\237\3247Wf\276\371P@\304"
 7560      A3A67335 
 7560      CA582773 
 7560      C9179FD4 
 7560      375766BE 
 7561 35f3 BA7D63C6 		.ascii	"\272}c\306\236\032C\022\306\3168_\206\026\357\342\003"
 7561      9E1A4312 
 7561      C6CE385F 
 7561      8616EFE2 
 7561      03
 7562 3604 A4E5C0F1 		.ascii	"\244\345\300\361\346'\213\200L\273\036\326\300\023w"
 7562      E6278B80 
 7562      4CBB1ED6 
 7562      C01377
 7563 3613 FAB8CFFB 		.ascii	"\372\270\317\373\213\001\2516\373\207\016\204\000\321"
 7563      8B01A936 
 7563      FB870E84 
 7563      00D1
 7564 3621 0D2F2773 		.ascii	"\015/'s\266`\225\206\352\341\0142\265\260\220_O\026"
 7564      B6609586 
 7564      EAE10C32 
 7564      B5B0905F 
 7564      4F16
 7565 3633 EE4D1990 		.ascii	"\356M\031\220\265\015\013\014k\277y\242'\225\304\331"
 7565      B50D0B0C 
 7565      6BBF79A2 
 7565      2795C4D9 
 7566 3643 B2B359E3 		.ascii	"\262\263Y\343t}\342&z\0330\225\355=\333\030\267\202"
 7566      747DE226 
 7566      7A1B3095 
 7566      ED3DDB18 
 7566      B782
 7567 3655 6830D578 		.ascii	"h0\325x\273\3000\364\373q\322t\030\203\325i\347r\033"
 7567      BBC030F4 
 7567      FB71D274 
 7567      1883D569 
 7567      E7721B
 7568 3668 D4FEDFBB 		.ascii	"\324\376\337\273}\213\225\316-\207\330\245\006\345\255"
 7568      7D8B95CE 
 7568      2D87D8A5 
 7568      06E5AD
 7569 3677 DC568764 		.ascii	"\334V\207d\351:\231\302\266r\030\223\012\242IJ\351f"
ARM GAS  /tmp/ccydMd0r.s 			page 319


 7569      E93A99C2 
 7569      B6721893 
 7569      0AA2494A 
 7569      E966
 7570 3689 79DA81E4 		.ascii	"y\332\201\344\015\340\264+\344\365'\242\010\002E\325"
 7570      0DE0B42B 
 7570      E4F527A2 
 7570      080245D5 
 7571 3699 0E2A337F 		.ascii	"\016*3\177\3343\334\\\245\017a\205'bD\207\3638}=\210"
 7571      DC33DC5C 
 7571      A50F6185 
 7571      27624487 
 7571      F3387D3D 
 7572 36ae F300     		.ascii	"\363\000"
 7573 36b0 ABAB1F2D 		.ascii	"\253\253\037-j\005\252R\247\344\301'\337\335\207=_\323"
 7573      6A05AA52 
 7573      A7E4C127 
 7573      DFDD873D 
 7573      5FD3
 7574 36c2 335132AA 		.ascii	"3Q2\252\316\245\372#*~\373\202\344\001\231>Zj\017;u"
 7574      CEA5FA23 
 7574      2A7EFB82 
 7574      E401993E 
 7574      5A6A0F3B 
 7575 36d7 329F77EB 		.ascii	"2\237w\353\356\260Z\330\320qR\363\264\204\005\251\\"
 7575      EEB05AD8 
 7575      D07152F3 
 7575      B48405A9 
 7575      5C
 7576 36e8 CCBF1292 		.ascii	"\314\277\022\222\213P8]\222\016g{\024\312\246r1\345"
 7576      8B50385D 
 7576      920E677B 
 7576      14CAA672 
 7576      31E5
 7577 36fa 8973A187 		.ascii	"\211s\241\207\213\3773\260\357Y\267\016x\327\357\364"
 7577      8BFF33B0 
 7577      EF59B70E 
 7577      78D7EFF4 
 7578 370a D2513839 		.ascii	"\322Q897`\260\030\204\001\013U\022\243\020\360h\003"
 7578      3760B018 
 7578      84010B55 
 7578      12A310F0 
 7578      6803
 7579 371c E6A4F59B 		.ascii	"\346\244\365\233\360\032\"$\234\274\277\240\327\016"
 7579      F01A2224 
 7579      9CBCBFA0 
 7579      D70E
 7580 372a 76E84CAD 		.ascii	"v\350L\255H\030\222A@\221=\277\237\017xd\243Vk7\037"
 7580      48189241 
 7580      40913DBF 
 7580      9F0F7864 
 7580      A3566B37 
 7581 373f 2DD803AD 		.ascii	"-\330\003\2555\254r\3522\274l+\326\332\026\203\275\204"
 7581      35AC72EA 
 7581      32BC6C2B 
 7581      D6DA1683 
 7581      BD84
ARM GAS  /tmp/ccydMd0r.s 			page 320


 7582 3751 9B961362 		.ascii	"\233\226\023b\012K+\031\212\331\341\177I[\360`\001\341"
 7582      0A4B2B19 
 7582      8AD9E17F 
 7582      495BF060 
 7582      01E1
 7583 3763 EF16458F 		.ascii	"\357\026E\217Zp\345\002y\3130\363Q\246\323\303\327\035"
 7583      5A70E502 
 7583      79CB30F3 
 7583      51A6D3C3 
 7583      D71D
 7584 3775 9927B8CF 		.ascii	"\231'\270\317\203\225\251V\245\355T\306!\211\330{\362"
 7584      8395A956 
 7584      A5ED54C6 
 7584      2189D87B 
 7584      F2
 7585 3786 A3E831E4 		.ascii	"\243\3501\344\3715l\340\007-\276\323?}\344\337\032\310"
 7585      F9356CE0 
 7585      072DBED3 
 7585      3F7DE4DF 
 7585      1AC8
 7586 3798 6F42C902 		.ascii	"oB\311\002$\031\322{\317\316\216aY\333S/q\237\000\304"
 7586      2419D27B 
 7586      CFCE8E61 
 7586      59DB532F 
 7586      719F00C4 
 7587 37ac E3D932CB 		.ascii	"\343\3312\313_\307\216e\372%\335\014\233\233\273\366"
 7587      5FC78E65 
 7587      FA25DD0C 
 7587      9B9BBBF6 
 7588 37bc AA869ED9 		.ascii	"\252\206\236\331\377Xl\352\003\365\306\016\320\377K"
 7588      FF586CEA 
 7588      03F5C60E 
 7588      D0FF4B
 7589 37cb 878802BC 		.ascii	"\207\210\002\274X\317\326\360G\027\000\\\322\3722\315"
 7589      58CFD6F0 
 7589      4717005C 
 7589      D2FA32CD 
 7590 37db 57991CB8 		.ascii	"W\231\034\270O.*\320\357`'\020\200\323l\234\225\017"
 7590      4F2E2AD0 
 7590      EF602710 
 7590      80D36C9C 
 7590      950F
 7591 37ed 229CDF7A 		.ascii	"\"\234\337z\030#\356\240t\356E\214\237\202\271*\010"
 7591      1823EEA0 
 7591      74EE458C 
 7591      9F82B92A 
 7591      08
 7592 37fe F5837D3B 		.ascii	"\365\203};M_\2508,\017\257\266KA\266\266\025\260\242"
 7592      4D5FA838 
 7592      2C0FAFB6 
 7592      4B41B6B6 
 7592      15B0A2
 7593 3811 3CC27009 		.ascii	"<\302p\011\222BK\354\266\253\026r\215\221\254\243\227"
 7593      92424BEC 
 7593      B6AB1672 
 7593      8D91ACA3 
 7593      97
ARM GAS  /tmp/ccydMd0r.s 			page 321


 7594 3822 C95932C3 		.ascii	"\311Y2\303\360\\\362\021p\251w8w\316<\006\3537\341]"
 7594      F05CF211 
 7594      70A97738 
 7594      77CE3C06 
 7594      EB37E15D 
 7595 3836 0C4C8417 		.ascii	"\014L\204\027\2373\361e@\237{\376\254\222zq\375/\236"
 7595      9F33F165 
 7595      409F7BFE 
 7595      AC927A71 
 7595      FD2F9E
 7596 3849 491C0B2D 		.ascii	"I\034\013-p8\270\217\214)s\334\307\033\037o\276\330"
 7596      7038B88F 
 7596      8C2973DC 
 7596      C71B1F6F 
 7596      BED8
 7597 385b E4945801 		.ascii	"\344\224X\001\331Xh\210\012\245\030\261w\304\232DJ\261"
 7597      D9586888 
 7597      0AA518B1 
 7597      77C49A44 
 7597      4AB1
 7598 386d 2FDA43E1 		.ascii	"/\332C\341\306\235\305\237\033\022\005\327IV\222=\227"
 7598      C69DC59F 
 7598      1B1205D7 
 7598      4956923D 
 7598      97
 7599 387e 04B134C7 		.ascii	"\004\2614\307\2410\031\301I\016\361\342H\026%~\306\200"
 7599      A13019C1 
 7599      490EF1E2 
 7599      4816257E 
 7599      C680
 7600 3890 5EFAED25 		.ascii	"^\372\355%~jK_\355 \355\032Y\274!VV\231\356j\020\310"
 7600      7E6A4B5F 
 7600      ED20ED1A 
 7600      59BC2156 
 7600      5699EE6A 
 7601 38a6 E83B47DB 		.ascii	"\350;G\333?T\034nL-\357\316\350\302@\262\233\002\032"
 7601      3F541C6E 
 7601      4C2DEFCE 
 7601      E8C240B2 
 7601      9B021A
 7602 38b9 9E9FD8BB 		.ascii	"\236\237\330\273\377\274\004\364\015G@\341\005\202\366"
 7602      FFBC04F4 
 7602      0D4740E1 
 7602      0582F6
 7603 38c8 AF4B1CDC 		.ascii	"\257K\034\334\315\375\356\340)AY\361\363\313@0\374\264"
 7603      CDFDEEE0 
 7603      294159F1 
 7603      F3CB4030 
 7603      FCB4
 7604 38da 0486E91C 		.ascii	"\004\206\351\0341)\220-\201\316\360;)\220u\236\345\015"
 7604      3129902D 
 7604      81CEF03B 
 7604      2990759E 
 7604      E50D
 7605 38ec 03FD3642 		.ascii	"\003\3756B\217\260`\227\245vx\024U\317a\355E\024%\215"
 7605      8FB06097 
 7605      A5767814 
ARM GAS  /tmp/ccydMd0r.s 			page 322


 7605      55CF61ED 
 7605      4514258D 
 7606 3900 C52DD48B 		.ascii	"\305-\324\213>\312N&iO\211\260\214a\337\2247H\010\006"
 7606      3ECA4E26 
 7606      694F89B0 
 7606      8C61DF94 
 7606      37480806 
 7607 3914 60650560 		.ascii	"`e\005`\254\007\221D\207o\211Oa*\332\371\006\344B\344"
 7607      AC079144 
 7607      876F894F 
 7607      612ADAF9 
 7607      06E442E4 
 7608 3928 35488069 		.ascii	"5H\200i.'\374\252F\214J\264\037g\332\363\011o\247\336"
 7608      2E27FCAA 
 7608      468C4AB4 
 7608      1F67DAF3 
 7608      096FA7DE 
 7609 393c 8CFDB187 		.ascii	"\214\375\261\207G\206\373\224\210\025,\323c\232\254"
 7609      4786FB94 
 7609      88152CD3 
 7609      639AAC
 7610 394b 34E3B0FD 		.ascii	"4\343\260\375\372\3757\300\242\336\356\333Q\207\216"
 7610      FAFD37C0 
 7610      A2DEEEDB 
 7610      51878E
 7611 395a 1AE2E1CC 		.ascii	"\032\342\341\314\367y\307\315l\303\301T\251\014\323"
 7611      F779C7CD 
 7611      6CC3C154 
 7611      A90CD3
 7612 3969 CC3C6C21 		.ascii	"\314<l!\365Mq:+\014\356\3166\0100(\256\025i\230YB%\231"
 7612      F54D713A 
 7612      2B0CEECE 
 7612      36083028 
 7612      AE156998 
 7613 3981 AFC6DB45 		.ascii	"\257\306\333E5\227\302\231\307\200 \021i,\203\347%y"
 7613      3597C299 
 7613      C7802011 
 7613      692C83E7 
 7613      2579
 7614 3993 4FBD8D86 		.ascii	"O\275\215\206\223\227\341\021g\000\224K\355\311V6*\020"
 7614      9397E111 
 7614      6700944B 
 7614      EDC95636 
 7614      2A10
 7615 39a5 6DD68BAD 		.ascii	"m\326\213\255O\223\005<\362\026\022B7i\327A_\235{\306"
 7615      4F93053C 
 7615      F2161242 
 7615      3769D741 
 7615      5F9D7BC6 
 7616 39b9 7B1DBC27 		.ascii	"{\035\274'p\016ZT\262\337\010\254\356\341\213w\207\230"
 7616      700E5A54 
 7616      B2DF08AC 
 7616      EEE18B77 
 7616      8798
 7617 39cb D4D1884D 		.ascii	"\324\321\210M\037\036~\2002?\274\214\255\267\317v\311"
 7617      1F1E7E80 
 7617      323FBC8C 
ARM GAS  /tmp/ccydMd0r.s 			page 323


 7617      ADB7CF76 
 7617      C9
 7618 39dc 8E855FCB 		.ascii	"\216\205_\313\344\3079d\355\213\241\203\343]\243V\261"
 7618      E4C73964 
 7618      ED8BA183 
 7618      E35DA356 
 7618      B1
 7619 39ed 7E623EBA 		.ascii	"~b>\272\373C\225\014_v\230\324\205\243\241\304\365\034"
 7619      FB43950C 
 7619      5F7698D4 
 7619      85A3A1C4 
 7619      F51C
 7620 39ff BFD14968 		.ascii	"\277\321Ih\201\246\323\"\342v%0\325\323\322\002e\022"
 7620      81A6D322 
 7620      E2762530 
 7620      D5D3D202 
 7620      6512
 7621 3a11 A5E45B43 		.ascii	"\245\344[C\250\022\317\233\243\234S\\e_\320z;\032\350"
 7621      A812CF9B 
 7621      A39C535C 
 7621      655FD07A 
 7621      3B1AE8
 7622 3a24 17C3F0C4 		.ascii	"\027\303\360\304\366t\177\000\257\303\247\325j\006\303"
 7622      F6747F00 
 7622      AFC3A7D5 
 7622      6A06C3
 7623 3a33 F3842814 		.ascii	"\363\204(\024\3636\012\035\330\317Y[{{\247\373\024\237"
 7623      F3360A1D 
 7623      D8CF595B 
 7623      7B7BA7FB 
 7623      149F
 7624 3a45 95B7532E 		.ascii	"\225\267S.\350\016\030\3152\255\260\240\010\353\270"
 7624      E80E18CD 
 7624      32ADB0A0 
 7624      08EBB8
 7625 3a54 006CAA30 		.ascii	"\000l\2520\371K\000`%\033\031\307\246Q\276=\305X\244"
 7625      F94B0060 
 7625      251B19C7 
 7625      A651BE3D 
 7625      C558A4
 7626 3a67 751ABD65 		.ascii	"u\032\275e\200O\226?>\252\347M\223<\330\207\014K\367"
 7626      804F963F 
 7626      3EAAE74D 
 7626      933CD887 
 7626      0C4BF7
 7627 3a7a 15FC7472 		.ascii	"\025\374tr\374\304+\364\274\333\306\220\022\324/\034"
 7627      FCC42BF4 
 7627      BCDBC690 
 7627      12D42F1C 
 7628 3a8a FDF88992 		.ascii	"\375\370\211\222\023\257\304.\032\022?.\005{O\031\226"
 7628      13AFC42E 
 7628      1A123F2E 
 7628      057B4F19 
 7628      96
 7629 3a9b 561F5051 		.ascii	"V\037PQ9\033}\213\3101\343\302\273&\034:\030q\225\332"
 7629      391B7D8B 
 7629      C831E3C2 
ARM GAS  /tmp/ccydMd0r.s 			page 324


 7629      BB261C3A 
 7629      187195DA 
 7630 3aaf EBB96685 		.ascii	"\353\271f\205\232\3454\031\347\377\274\317j\331\272"
 7630      9AE53419 
 7630      E7FFBCCF 
 7630      6AD9BA
 7631 3abe 34714BB6 		.ascii	"4qK\266\331&$S\306\361\221\231\354\307\320i\221\030"
 7631      D9262453 
 7631      C6F19199 
 7631      ECC7D069 
 7631      9118
 7632 3ad0 2B1CAECC 		.ascii	"+\034\256\314#\200\312a\021*\225n|\347O\237\003\257"
 7632      2380CA61 
 7632      112A956E 
 7632      7CE74F9F 
 7632      03AF
 7633 3ae2 80EFDAF1 		.ascii	"\200\357\332\361w\201H\310\202Z\243R\032\376\235\260"
 7633      778148C8 
 7633      825AA352 
 7633      1AFE9DB0 
 7634 3af2 F4FD69C0 		.ascii	"\364\375i\3009\037\2764Kba\201HC+w@\362\224\362\241"
 7634      391FBE34 
 7634      4B626181 
 7634      48432B77 
 7634      40F294F2 
 7635 3b07 4F028859 		.ascii	"O\002\210Y \236\273\223\225\210\3715W?\200H\177b\375"
 7635      209EBB93 
 7635      9588F935 
 7635      573F8048 
 7635      7F62FD
 7636 3b1a 6555AB04 		.ascii	"eU\253\004\321\315_\250}\205:3M#\251|\251\315\273_\200"
 7636      D1CD5FA8 
 7636      7D853A33 
 7636      4D23A97C 
 7636      A9CDBB5F 
 7637 3b2f 1C440E08 		.ascii	"\034D\016\010@\350o\325*},_\007Z(\216G\020?Gk-\177m"
 7637      40E86FD5 
 7637      2A7D2C5F 
 7637      075A288E 
 7637      47103F47 
 7638 3b47 C230905E 		.ascii	"\3020\220^\032es\3474\012\252\244\3676\000~\326\357"
 7638      1A6573E7 
 7638      340AAAA4 
 7638      F736007E 
 7638      D6EF
 7639 3b59 5FC3EC6E 		.ascii	"_\303\354n\256\214\267\002Gg,\245\244\274\354t\003\026"
 7639      AE8CB702 
 7639      47672CA5 
 7639      A4BCEC74 
 7639      0316
 7640 3b6b 0DA97E0D 		.ascii	"\015\251~\015\015G\346\342t2\375\276!\305/\375\275m"
 7640      0D47E6E2 
 7640      7432FDBE 
 7640      21C52FFD 
 7640      BD6D
 7641 3b7d 71B11B56 		.ascii	"q\261\033V\2114\247\233\277\224\017#2\364\032\017o\260"
 7641      8934A79B 
ARM GAS  /tmp/ccydMd0r.s 			page 325


 7641      BF940F23 
 7641      32F41A0F 
 7641      6FB0
 7642 3b8f 3F79660D 		.ascii	"?yf\015\330\370\256\224\006\000\251M\"NT\371\263&\033"
 7642      D8F8AE94 
 7642      0600A94D 
 7642      224E54F9 
 7642      B3261B
 7643 3ba2 FC93C04D 		.ascii	"\374\223\300M\367\251\355tJ\301\307O.\250e\216\304\334"
 7643      F7A9ED74 
 7643      4AC1C74F 
 7643      2EA8658E 
 7643      C4DC
 7644 3bb4 84E145EB 		.ascii	"\204\341E\353\002\225:\242\311\214\011\324a\\>\020\256"
 7644      02953AA2 
 7644      C98C09D4 
 7644      615C3E10 
 7644      AE
 7645 3bc5 E4521E32 		.ascii	"\344R\0362<FB\006\205\252\371\341\327\012\323\010\015"
 7645      3C464206 
 7645      85AAF9E1 
 7645      D70AD308 
 7645      0D
 7646 3bd6 C5552C47 		.ascii	"\305U,G\253\220\232\361\240X\232\022\216\325\201}\237"
 7646      AB909AF1 
 7646      A0589A12 
 7646      8ED5817D 
 7646      9F
 7647 3be7 90E7E609 		.ascii	"\220\347\346\011\242\274J\216\230\2713\036\353Z\\\""
 7647      A2BC4A8E 
 7647      98B9331E 
 7647      EB5A5C22 
 7648 3bf7 433F10B3 		.ascii	"C?\020\263\224 \331\357\335\334x\305k\325\337\036_5"
 7648      9420D9EF 
 7648      DDDC78C5 
 7648      6BD5DF1E 
 7648      5F35
 7649 3c09 19A112FE 		.ascii	"\031\241\022\376\312\223\232\014\013\237/\030`O\205"
 7649      CA939A0C 
 7649      0B9F2F18 
 7649      604F85
 7650 3c18 70CF885F 		.ascii	"p\317\210_\372\266\365hid\375\340\3369\336\021\203Z"
 7650      FAB6F568 
 7650      6964FDE0 
 7650      DE39DE11 
 7650      835A
 7651 3c2a BCF06658 		.ascii	"\274\360fX\223F\364\356\026Xa*\203\345\313`w\235\377"
 7651      9346F4EE 
 7651      1658612A 
 7651      83E5CB60 
 7651      779DFF
 7652 3c3d FCF228C8 		.ascii	"\374\362(\310\254\036|\351\241\027\337f`\243^\370\026"
 7652      AC1E7CE9 
 7652      A117DF66 
 7652      60A35EF8 
 7652      16
 7653 3c4e 8E34D77A 		.ascii	"\2164\327z\361i\244YiO?\"\307\352\237\364i\377\233w"
ARM GAS  /tmp/ccydMd0r.s 			page 326


 7653      F169A459 
 7653      694F3F22 
 7653      C7EA9FF4 
 7653      69FF9B77 
 7654 3c62 68DCA265 		.ascii	"h\334\242e\025\003A\310\243\342\222\020\263\275m\322"
 7654      150341C8 
 7654      A3E29210 
 7654      B3BD6DD2 
 7655 3c72 772C8A27 		.ascii	"w,\212'\272\177\241\214\320\332\266\207S\353\246\332"
 7655      BA7FA18C 
 7655      D0DAB687 
 7655      53EBA6DA 
 7656 3c82 05BFDE76 		.ascii	"\005\277\336v\243\235\260p\331\267z\276\015\313\025"
 7656      A39DB070 
 7656      D9B77ABE 
 7656      0DCB15
 7657 3c91 B079CA54 		.ascii	"\260y\312T\365\327:C\177\216\324\337_\221t19\231\224"
 7657      F5D73A43 
 7657      7F8ED4DF 
 7657      5F917431 
 7657      399994
 7658 3ca4 3A9386AC 		.ascii	":\223\206\254\007!\306l\262\235\266\322\353$k\255lN"
 7658      0721C66C 
 7658      B29DB6D2 
 7658      EB246BAD 
 7658      6C4E
 7659 3cb6 2C343AA7 		.ascii	",4:\247\010\231\201vik^{\201\264\273\254`\256\012\207"
 7659      08998176 
 7659      696B5E7B 
 7659      81B4BBAC 
 7659      60AE0A87 
 7660 3cca 5E163A00 		.ascii	"^\026:\000\015\2677\200\2168\222\002\232\016P^\220Y"
 7660      0DB73780 
 7660      8E389202 
 7660      9A0E505E 
 7660      9059
 7661 3cdc E2D52690 		.ascii	"\342\325&\220<\375\332\351\007\216\211\216p\015G\023"
 7661      3CFDDAE9 
 7661      078E898E 
 7661      700D4713 
 7662 3cec 779677D1 		.ascii	"w\226w\321\030n\343\222U:\346k\017\326\202\271\276)"
 7662      186EE392 
 7662      553AE66B 
 7662      0FD682B9 
 7662      BE29
 7663 3cfe E8001FE2 		.ascii	"\350\000\037\342o\264\311\354\276\034)@\314\206Xo\315"
 7663      6FB4C9EC 
 7663      BE1C2940 
 7663      CC86586F 
 7663      CD
 7664 3d0f 3634D877 		.ascii	"64\330w\200\371\363\013J\205\266^\30258+0\246\302\266"
 7664      80F9F30B 
 7664      4A85B65E 
 7664      C235382B 
 7664      30A6C2B6 
 7665 3d23 85465526 		.ascii	"\205FU&\3474\222\225x\227\224\234)\231\224\313\203c"
 7665      E7349295 
ARM GAS  /tmp/ccydMd0r.s 			page 327


 7665      7897949C 
 7665      299994CB 
 7665      8363
 7666 3d35 74433CDA 		.ascii	"tC<\332\253\032\374\011m\307\203\233\005~]j\301\252"
 7666      AB1AFC09 
 7666      6DC7839B 
 7666      057E5D6A 
 7666      C1AA
 7667 3d47 F86093D8 		.ascii	"\370`\223\330\332\242l\034\336>\202\311@]f\235\251\347"
 7667      DAA26C1C 
 7667      DE3E82C9 
 7667      405D669D 
 7667      A9E7
 7668 3d59 A42DCF9B 		.ascii	"\244-\317\233r\301\274j\004\013\005\361\034\317:\027"
 7668      72C1BC6A 
 7668      040B05F1 
 7668      1CCF3A17 
 7669 3d69 A138ED12 		.ascii	"\2418\355\022\256\301D8\305\217{\"\025a\027n\246\231"
 7669      AEC14438 
 7669      C58F7B22 
 7669      1561176E 
 7669      A699
 7670 3d7b 246FFD4B 		.ascii	"$o\375K/\204\310\356n\2470w\217\257\177~d\252L\241\263"
 7670      2F84C8EE 
 7670      6EA73077 
 7670      8FAF7F7E 
 7670      64AA4CA1 
 7671 3d90 C9DF1219 		.ascii	"\311\337\022\031P\305\210\363}\264ZLk\010\227\316 6"
 7671      50C588F3 
 7671      7DB45A4C 
 7671      6B0897CE 
 7671      2036
 7672 3da2 1060D063 		.ascii	"\020`\320c\234\340\346\271\334\2367\240\301\3227z\234"
 7672      9CE0E6B9 
 7672      DC9E37A0 
 7672      C1D2377A 
 7672      9C
 7673 3db3 4A14BD7A 		.ascii	"J\024\275z\3413gP&\014\352u\034\327c\021s\313\243l@"
 7673      E1336750 
 7673      260CEA75 
 7673      1CD76311 
 7673      73CBA36C 
 7674 3dc8 091144A8 		.ascii	"\011\021D\250\370\014\311\234Y)\177\266\326\206\345"
 7674      F80CC99C 
 7674      59297FB6 
 7674      D686E5
 7675 3dd7 308E329F 		.ascii	"0\2162\237\253\205\270\006r\254I\213\360\312\302\303"
 7675      AB85B806 
 7675      72AC498B 
 7675      F0CAC2C3 
 7676 3de7 F8786F3C 		.ascii	"\370xo<\370\327\037\217\253\213l&\230\276\271\367\300"
 7676      F8D71F8F 
 7676      AB8B6C26 
 7676      98BEB9F7 
 7676      C0
 7677 3df8 D93B019B 		.ascii	"\331;\001\233\342\21619/\321\321\212.Z?\257j\204\243"
 7677      E28E3139 
ARM GAS  /tmp/ccydMd0r.s 			page 328


 7677      2FD1D18A 
 7677      2E5A3FAF 
 7677      6A84A3
 7678 3e0b 10F296B2 		.ascii	"\020\362\226\262\324L\226\260\011\306\265\315\267pw"
 7678      D44C96B0 
 7678      09C6B5CD 
 7678      B77077
 7679 3e1a 2F290F93 		.ascii	"/)\017\223\202{\246\275\267\001\240K\311\211\315\366"
 7679      827BA6BD 
 7679      B701A04B 
 7679      C989CDF6 
 7680 3e2a 2287CAC2 		.ascii	"\"\207\312\302\301\213@\"\226?\200a\230\011L\367\025"
 7680      C18B4022 
 7680      963F8061 
 7680      98094CF7 
 7680      15
 7681 3e3b 40CAD22A 		.ascii	"@\312\322*4\377\376\351n\243eG\304K\023\372\235Awh\312"
 7681      34FFFEE9 
 7681      6EA36547 
 7681      C44B13FA 
 7681      9D417768 
 7682 3e50 354B2258 		.ascii	"5K\"X\241j\2014\337x\301l\034\330(\3102\272\367\276"
 7682      A16A8134 
 7682      DF78C16C 
 7682      1CD828C8 
 7682      32BAF7BE 
 7683 3e64 011E508F 		.ascii	"\001\036P\217\253\367\272\323\017\305\270{,\325\341"
 7683      ABF7BAD3 
 7683      0FC5B87B 
 7683      2CD5E1
 7684 3e73 2C       		.ascii	","
 7685              		.text
 7686              	.Letext0:
 7687              		.file 2 "/opt/st/stm32cubeclt_1.21.0/GNU-tools-for-STM32/lib/gcc/arm-none-eabi/14.3.1/include/stda
 7688              		.file 3 "/opt/st/stm32cubeclt_1.21.0/GNU-tools-for-STM32/arm-none-eabi/include/machine/_default_ty
 7689              		.file 4 "/opt/st/stm32cubeclt_1.21.0/GNU-tools-for-STM32/arm-none-eabi/include/sys/_stdint.h"
 7690              		.file 5 "../Middlewares/stm32-mw-camera/sensors/vd1943/vd1943.h"
 7691              		.file 6 "../Middlewares/stm32-mw-camera/sensors/vd1943/vd1943_patch_cut_13.c"
 7692              		.file 7 "../Middlewares/stm32-mw-camera/sensors/vd1943/vd5943_patch_cut_13.c"
 7693              		.file 8 "../Middlewares/stm32-mw-camera/sensors/vd1943/vd1943_vt_patch.c"
 7694              		.file 9 "<built-in>"
 7695              		.file 10 "/opt/st/stm32cubeclt_1.21.0/GNU-tools-for-STM32/arm-none-eabi/include/assert.h"
ARM GAS  /tmp/ccydMd0r.s 			page 329


DEFINED SYMBOLS
                            *ABS*:00000000 vd1943.c
     /tmp/ccydMd0r.s:26     .text.VD1943_log_impl:00000000 $t
     /tmp/ccydMd0r.s:31     .text.VD1943_log_impl:00000000 VD1943_log_impl
     /tmp/ccydMd0r.s:83     .text.VD1943_PollReg8:00000000 $t
     /tmp/ccydMd0r.s:88     .text.VD1943_PollReg8:00000000 VD1943_PollReg8
     /tmp/ccydMd0r.s:185    .text.VD1943_PollReg8:00000054 $d
     /tmp/ccydMd0r.s:198    .text.display_error:00000000 $t
     /tmp/ccydMd0r.s:203    .text.display_error:00000000 display_error
     /tmp/ccydMd0r.s:270    .text.display_error:00000038 $d
     /tmp/ccydMd0r.s:5444   .rodata.__func__.34:00000000 __func__.34
     /tmp/ccydMd0r.s:284    .text.VD1943_ComputeFrameLength:00000000 $t
     /tmp/ccydMd0r.s:289    .text.VD1943_ComputeFrameLength:00000000 VD1943_ComputeFrameLength
     /tmp/ccydMd0r.s:523    .text.VD1943_ComputeFrameLength:000000ec $d
     /tmp/ccydMd0r.s:5449   .rodata.__func__.35:00000000 __func__.35
     /tmp/ccydMd0r.s:530    .text.VD1943_GetExpoCommon:00000000 $t
     /tmp/ccydMd0r.s:535    .text.VD1943_GetExpoCommon:00000000 VD1943_GetExpoCommon
     /tmp/ccydMd0r.s:621    .text.VD1943_GetExpoCommon:00000050 $d
     /tmp/ccydMd0r.s:5429   .rodata.__func__.31:00000000 __func__.31
     /tmp/ccydMd0r.s:627    .text.VD1943_GetExpo_GS:00000000 $t
     /tmp/ccydMd0r.s:632    .text.VD1943_GetExpo_GS:00000000 VD1943_GetExpo_GS
     /tmp/ccydMd0r.s:649    .text.VD1943_SetExpo_RS:00000000 $t
     /tmp/ccydMd0r.s:654    .text.VD1943_SetExpo_RS:00000000 VD1943_SetExpo_RS
     /tmp/ccydMd0r.s:741    .text.VD1943_SetExpo_RS:00000058 $d
     /tmp/ccydMd0r.s:5424   .rodata.__func__.30:00000000 __func__.30
     /tmp/ccydMd0r.s:747    .text.VD1943_SetExpo_RS_HDR:00000000 $t
     /tmp/ccydMd0r.s:752    .text.VD1943_SetExpo_RS_HDR:00000000 VD1943_SetExpo_RS_HDR
     /tmp/ccydMd0r.s:842    .text.VD1943_SetExpo_RS_HDR:00000058 $d
     /tmp/ccydMd0r.s:5434   .rodata.__func__.32:00000000 __func__.32
     /tmp/ccydMd0r.s:848    .text.VD1943_SetDigitalGain_IR:00000000 $t
     /tmp/ccydMd0r.s:853    .text.VD1943_SetDigitalGain_IR:00000000 VD1943_SetDigitalGain_IR
     /tmp/ccydMd0r.s:918    .text.VD1943_SetDigitalGain_IR:00000038 $d
     /tmp/ccydMd0r.s:5419   .rodata.__func__.29:00000000 __func__.29
     /tmp/ccydMd0r.s:924    .text.VD1943_SetDigitalGain_RGB:00000000 $t
     /tmp/ccydMd0r.s:929    .text.VD1943_SetDigitalGain_RGB:00000000 VD1943_SetDigitalGain_RGB
     /tmp/ccydMd0r.s:1045   .text.VD1943_SetDigitalGain_RGB:00000068 $d
     /tmp/ccydMd0r.s:5414   .rodata.__func__.28:00000000 __func__.28
     /tmp/ccydMd0r.s:1051   .text.VD1943_SetDigitalGain_RGBNIR:00000000 $t
     /tmp/ccydMd0r.s:1056   .text.VD1943_SetDigitalGain_RGBNIR:00000000 VD1943_SetDigitalGain_RGBNIR
     /tmp/ccydMd0r.s:1107   .text.VD1943_SetExpoSplit_GS:00000000 $t
     /tmp/ccydMd0r.s:1112   .text.VD1943_SetExpoSplit_GS:00000000 VD1943_SetExpoSplit_GS
     /tmp/ccydMd0r.s:1226   .text.VD1943_SetExpoSplit_GS:00000070 $d
     /tmp/ccydMd0r.s:5409   .rodata.__func__.27:00000000 __func__.27
     /tmp/ccydMd0r.s:1232   .text.VD1943_SetExpo_GS:00000000 $t
     /tmp/ccydMd0r.s:1237   .text.VD1943_SetExpo_GS:00000000 VD1943_SetExpo_GS
     /tmp/ccydMd0r.s:1324   .text.VD1943_SetExpo_GS:00000058 $d
     /tmp/ccydMd0r.s:5404   .rodata.__func__.26:00000000 __func__.26
     /tmp/ccydMd0r.s:1333   .text.VD1943_ApplyCmdAndWait:00000000 $t
     /tmp/ccydMd0r.s:1338   .text.VD1943_ApplyCmdAndWait:00000000 VD1943_ApplyCmdAndWait
     /tmp/ccydMd0r.s:1445   .text.VD1943_ApplyCmdAndWait:00000064 $d
     /tmp/ccydMd0r.s:5394   .rodata.__func__.24:00000000 __func__.24
     /tmp/ccydMd0r.s:1457   .text.VD1943_WaitState:00000000 $t
     /tmp/ccydMd0r.s:1462   .text.VD1943_WaitState:00000000 VD1943_WaitState
     /tmp/ccydMd0r.s:1543   .text.VD1943_WaitState:00000040 $d
     /tmp/ccydMd0r.s:1549   .text.VD1943_GetExpo_RS:00000000 $t
     /tmp/ccydMd0r.s:1554   .text.VD1943_GetExpo_RS:00000000 VD1943_GetExpo_RS
     /tmp/ccydMd0r.s:1566   .text.VD1943_GetExposureRange:00000000 $t
ARM GAS  /tmp/ccydMd0r.s 			page 330


     /tmp/ccydMd0r.s:1572   .text.VD1943_GetExposureRange:00000000 VD1943_GetExposureRange
     /tmp/ccydMd0r.s:1681   .text.VD1943_Init:00000000 $t
     /tmp/ccydMd0r.s:1687   .text.VD1943_Init:00000000 VD1943_Init
     /tmp/ccydMd0r.s:1863   .text.VD1943_Init:000000aa $d
     /tmp/ccydMd0r.s:2403   .text.VD1943_Init:00000294 $d
     /tmp/ccydMd0r.s:5399   .rodata.__func__.25:00000000 __func__.25
     /tmp/ccydMd0r.s:5439   .rodata.__func__.33:00000000 __func__.33
     /tmp/ccydMd0r.s:5784   .rodata.fw_patch_13_mono_cert:00000000 fw_patch_13_mono_cert
     /tmp/ccydMd0r.s:5389   .rodata.__func__.23:00000000 __func__.23
     /tmp/ccydMd0r.s:6756   .rodata.fw_patch_13_rgbnir_cert:00000000 fw_patch_13_rgbnir_cert
     /tmp/ccydMd0r.s:2441   .text.VD1943_Init:00000314 $t
     /tmp/ccydMd0r.s:2975   .text.VD1943_Init:0000053e $d
     /tmp/ccydMd0r.s:2980   .text.VD1943_Init:00000542 $t
     /tmp/ccydMd0r.s:2997   .text.VD1943_Init:0000054e $d
     /tmp/ccydMd0r.s:3001   .text.VD1943_Init:00000552 $t
     /tmp/ccydMd0r.s:3086   .text.VD1943_Init:0000058c $d
     /tmp/ccydMd0r.s:5816   .rodata.fw_patch_13_mono_array:00000000 fw_patch_13_mono_array
     /tmp/ccydMd0r.s:5384   .rodata.__func__.22:00000000 __func__.22
     /tmp/ccydMd0r.s:6788   .rodata.fw_patch_13_rgbnir_array:00000000 fw_patch_13_rgbnir_array
     /tmp/ccydMd0r.s:5379   .rodata.__func__.21:00000000 __func__.21
     /tmp/ccydMd0r.s:5734   .rodata.gt_ram_pat_content:00000000 gt_ram_pat_content
     /tmp/ccydMd0r.s:5374   .rodata.__func__.20:00000000 __func__.20
     /tmp/ccydMd0r.s:5709   .rodata.gt_ram_seq1_content:00000000 gt_ram_seq1_content
     /tmp/ccydMd0r.s:5689   .rodata.gt_ram_seq2_content:00000000 gt_ram_seq2_content
     /tmp/ccydMd0r.s:5673   .rodata.gt_ram_seq3_content:00000000 gt_ram_seq3_content
     /tmp/ccydMd0r.s:5657   .rodata.gt_ram_seq4_content:00000000 gt_ram_seq4_content
     /tmp/ccydMd0r.s:5548   .rodata.rd_ram_pat_content:00000000 rd_ram_pat_content
     /tmp/ccydMd0r.s:5499   .rodata.rd_ram_seq1_content:00000000 rd_ram_seq1_content
     /tmp/ccydMd0r.s:5369   .rodata.__func__.19:00000000 __func__.19
     /tmp/ccydMd0r.s:5364   .rodata.__func__.18:00000000 __func__.18
     /tmp/ccydMd0r.s:5359   .rodata.__func__.17:00000000 __func__.17
     /tmp/ccydMd0r.s:3115   .text.VD1943_DeInit:00000000 $t
     /tmp/ccydMd0r.s:3121   .text.VD1943_DeInit:00000000 VD1943_DeInit
     /tmp/ccydMd0r.s:3174   .text.VD1943_Stop:00000000 $t
     /tmp/ccydMd0r.s:3180   .text.VD1943_Stop:00000000 VD1943_Stop
     /tmp/ccydMd0r.s:3266   .text.VD1943_Stop:0000003c $d
     /tmp/ccydMd0r.s:3271   .text.VD1943_Hold:00000000 $t
     /tmp/ccydMd0r.s:3277   .text.VD1943_Hold:00000000 VD1943_Hold
     /tmp/ccydMd0r.s:3345   .text.VD1943_Hold:0000003c $d
     /tmp/ccydMd0r.s:5299   .rodata.__func__.5:00000000 __func__.5
     /tmp/ccydMd0r.s:3351   .text.VD1943_SetAnalogGain:00000000 $t
     /tmp/ccydMd0r.s:3357   .text.VD1943_SetAnalogGain:00000000 VD1943_SetAnalogGain
     /tmp/ccydMd0r.s:3430   .text.VD1943_SetAnalogGain:00000040 $d
     /tmp/ccydMd0r.s:5294   .rodata.__func__.4:00000000 __func__.4
     /tmp/ccydMd0r.s:3436   .text.VD1943_GetAnalogGain:00000000 $t
     /tmp/ccydMd0r.s:3442   .text.VD1943_GetAnalogGain:00000000 VD1943_GetAnalogGain
     /tmp/ccydMd0r.s:3522   .text.VD1943_GetAnalogGain:00000044 $d
     /tmp/ccydMd0r.s:5289   .rodata.__func__.3:00000000 __func__.3
     /tmp/ccydMd0r.s:3531   .text.VD1943_SetDigitalGain:00000000 $t
     /tmp/ccydMd0r.s:3537   .text.VD1943_SetDigitalGain:00000000 VD1943_SetDigitalGain
     /tmp/ccydMd0r.s:3601   .text.VD1943_SetDigitalGain:00000030 $d
     /tmp/ccydMd0r.s:5284   .rodata.__func__.2:00000000 __func__.2
     /tmp/ccydMd0r.s:3608   .text.VD1943_GetDigitalGain:00000000 $t
     /tmp/ccydMd0r.s:3614   .text.VD1943_GetDigitalGain:00000000 VD1943_GetDigitalGain
     /tmp/ccydMd0r.s:3635   .text.VD1943_SetExpo:00000000 $t
     /tmp/ccydMd0r.s:3641   .text.VD1943_SetExpo:00000000 VD1943_SetExpo
     /tmp/ccydMd0r.s:3683   .text.VD1943_SetExpo:0000001c $d
ARM GAS  /tmp/ccydMd0r.s 			page 331


     /tmp/ccydMd0r.s:5279   .rodata.__func__.1:00000000 __func__.1
     /tmp/ccydMd0r.s:3693   .text.VD1943_GetExpo:00000000 $t
     /tmp/ccydMd0r.s:3699   .text.VD1943_GetExpo:00000000 VD1943_GetExpo
     /tmp/ccydMd0r.s:3741   .text.VD1943_GetExpo:0000001c $d
     /tmp/ccydMd0r.s:5274   .rodata.__func__.0:00000000 __func__.0
     /tmp/ccydMd0r.s:3748   .text.VD1943_GetPixelDepth:00000000 $t
     /tmp/ccydMd0r.s:3754   .text.VD1943_GetPixelDepth:00000000 VD1943_GetPixelDepth
     /tmp/ccydMd0r.s:3782   .text.VD1943_GetPixelDepth:0000001a $d
     /tmp/ccydMd0r.s:3826   .text.VD1943_GetPixelDepth:00000050 $d
     /tmp/ccydMd0r.s:3848   .text.VD1943_Start:00000000 $t
     /tmp/ccydMd0r.s:3854   .text.VD1943_Start:00000000 VD1943_Start
     /tmp/ccydMd0r.s:4252   .text.VD1943_Start:00000136 $d
     /tmp/ccydMd0r.s:4627   .text.VD1943_Start:000002c8 $d
     /tmp/ccydMd0r.s:5349   .rodata.__func__.15:00000000 __func__.15
     /tmp/ccydMd0r.s:5354   .rodata.__func__.16:00000000 __func__.16
     /tmp/ccydMd0r.s:5344   .rodata.__func__.14:00000000 __func__.14
     /tmp/ccydMd0r.s:5455   .rodata.vd1943_supported_modes:00000000 vd1943_supported_modes
     /tmp/ccydMd0r.s:5339   .rodata.__func__.13:00000000 __func__.13
     /tmp/ccydMd0r.s:5329   .rodata.__func__.11:00000000 __func__.11
     /tmp/ccydMd0r.s:4648   .text.VD1943_Start:00000304 $t
     /tmp/ccydMd0r.s:5239   .text.VD1943_Start:0000055c $d
     /tmp/ccydMd0r.s:5266   .rodata.CSWTCH.67:00000000 CSWTCH.67
     /tmp/ccydMd0r.s:5259   .rodata.CSWTCH.69:00000000 CSWTCH.69
     /tmp/ccydMd0r.s:5319   .rodata.__func__.9:00000000 __func__.9
     /tmp/ccydMd0r.s:5334   .rodata.__func__.12:00000000 __func__.12
     /tmp/ccydMd0r.s:5324   .rodata.__func__.10:00000000 __func__.10
     /tmp/ccydMd0r.s:5314   .rodata.__func__.8:00000000 __func__.8
     /tmp/ccydMd0r.s:5304   .rodata.__func__.6:00000000 __func__.6
     /tmp/ccydMd0r.s:5309   .rodata.__func__.7:00000000 __func__.7
     /tmp/ccydMd0r.s:5256   .rodata.CSWTCH.69:00000000 $d
     /tmp/ccydMd0r.s:5452   .rodata.vd1943_supported_modes:00000000 $d
     /tmp/ccydMd0r.s:1899   .text.VD1943_Init:000000cd $d
     /tmp/ccydMd0r.s:1899   .text.VD1943_Init:000000ce $t
     /tmp/ccydMd0r.s:3785   .text.VD1943_GetPixelDepth:0000001d $d
     /tmp/ccydMd0r.s:3785   .text.VD1943_GetPixelDepth:0000001e $t
     /tmp/ccydMd0r.s:4255   .text.VD1943_Start:00000139 $d
     /tmp/ccydMd0r.s:4255   .text.VD1943_Start:0000013a $t
                           .group:00000000 wm4.0.43608cab4da50df6ba2dfee95636a2b5
                           .group:00000000 wm4.stdarg.h.31.f7f4f3bfddce9ed034956076d59396f7
                           .group:00000000 wm4._newlib_version.h.4.0eb654b64686e2bd29646258853f6c22
                           .group:00000000 wm4.features.h.33.d554620bb17bd3b714c3fb5c268772bc
                           .group:00000000 wm4._default_types.h.15.247e5cd201eca3442cbf5404108c4935
                           .group:00000000 wm4._intsup.h.10.48bafbb683905c4daa4565a85aeeb264
                           .group:00000000 wm4._stdint.h.10.c24fa3af3bc1706662bb5593a907e841
                           .group:00000000 wm4.stdint.h.23.d53047a68f4a85177f80b422d52785ed
                           .group:00000000 wm4.vd1943.h.28.c5d178894003394385ca43a45deb141f
                           .group:00000000 wm4.newlib.h.7.decd5b9657e2c5df625d9eac6e10520c
                           .group:00000000 wm4.ieeefp.h.77.99029d7b8220a2cd73dd257e2bbe825d
                           .group:00000000 wm4.config.h.224.10ee1ad185d877c6e334e6581faab44d
                           .group:00000000 wm4._ansi.h.31.de524f58584151836e90d8620a16f8e8
                           .group:00000000 wm4.assert.h.11.db24e541f16414db224bf986d21017e2

UNDEFINED SYMBOLS
__assert_func
memcpy
__aeabi_uldivmod
