ARM GAS  /tmp/ccydMd0r.s 			page 1


   1              		.arch armv8.1-m.main
   2              		.fpu fpv5-d16
   3              		.arch_extension dsp
   4              		.arch_extension fp
   5              		.arch_extension fp.dp
   6              		.arch_extension mve
   7              		.arch_extension mve.fp
   8              		.eabi_attribute 5, "cortex-m55"
   9              		.eabi_attribute 28, 1
  10              		.eabi_attribute 20, 1
  11              		.eabi_attribute 21, 1
  12              		.eabi_attribute 23, 3
  13              		.eabi_attribute 24, 1
  14              		.eabi_attribute 25, 1
  15              		.eabi_attribute 26, 1
  16              		.eabi_attribute 30, 4
  17              		.eabi_attribute 34, 1
  18              		.eabi_attribute 38, 1
  19              		.eabi_attribute 18, 4
  20              		.file	"vd1943.c"
  21              		.text
  22              	.Ltext0:
  23              		.cfi_sections	.debug_frame
  24              		.file 1 "../Middlewares/stm32-mw-camera/sensors/vd1943/vd1943.c"
  25              		.section	.text.VD1943_log_impl,"ax",%progbits
  26              		.align	1
  27              		.syntax unified
  28              		.thumb
  29              		.thumb_func
  31              	VD1943_log_impl:
  32              	.LVL0:
  33              	.LFB0:
   1:../Middlewares/stm32-mw-camera/sensors/vd1943/vd1943.c **** /**
   2:../Middlewares/stm32-mw-camera/sensors/vd1943/vd1943.c ****   ******************************************************************************
   3:../Middlewares/stm32-mw-camera/sensors/vd1943/vd1943.c ****   * @file    vd1943.c
   4:../Middlewares/stm32-mw-camera/sensors/vd1943/vd1943.c ****   * @author  MDG Application Team
   5:../Middlewares/stm32-mw-camera/sensors/vd1943/vd1943.c ****   ******************************************************************************
   6:../Middlewares/stm32-mw-camera/sensors/vd1943/vd1943.c ****   * @attention
   7:../Middlewares/stm32-mw-camera/sensors/vd1943/vd1943.c ****   *
   8:../Middlewares/stm32-mw-camera/sensors/vd1943/vd1943.c ****   * Copyright (c) 2024 STMicroelectronics.
   9:../Middlewares/stm32-mw-camera/sensors/vd1943/vd1943.c ****   * All rights reserved.
  10:../Middlewares/stm32-mw-camera/sensors/vd1943/vd1943.c ****   *
  11:../Middlewares/stm32-mw-camera/sensors/vd1943/vd1943.c ****   * This software is licensed under terms that can be found in the LICENSE file
  12:../Middlewares/stm32-mw-camera/sensors/vd1943/vd1943.c ****   * in the root directory of this software component.
  13:../Middlewares/stm32-mw-camera/sensors/vd1943/vd1943.c ****   * If no LICENSE file comes with this software, it is provided AS-IS.
  14:../Middlewares/stm32-mw-camera/sensors/vd1943/vd1943.c ****   *
  15:../Middlewares/stm32-mw-camera/sensors/vd1943/vd1943.c ****   ******************************************************************************
  16:../Middlewares/stm32-mw-camera/sensors/vd1943/vd1943.c ****   */
  17:../Middlewares/stm32-mw-camera/sensors/vd1943/vd1943.c **** 
  18:../Middlewares/stm32-mw-camera/sensors/vd1943/vd1943.c **** #include "vd1943.h"
  19:../Middlewares/stm32-mw-camera/sensors/vd1943/vd1943.c **** 
  20:../Middlewares/stm32-mw-camera/sensors/vd1943/vd1943.c **** #include <assert.h>
  21:../Middlewares/stm32-mw-camera/sensors/vd1943/vd1943.c **** #include <stdint.h>
  22:../Middlewares/stm32-mw-camera/sensors/vd1943/vd1943.c **** 
  23:../Middlewares/stm32-mw-camera/sensors/vd1943/vd1943.c **** #include "vd1943_patch_cut_13.c"
  24:../Middlewares/stm32-mw-camera/sensors/vd1943/vd1943.c **** #include "vd5943_patch_cut_13.c"
  25:../Middlewares/stm32-mw-camera/sensors/vd1943/vd1943.c **** #include "vd1943_vt_patch.c"
ARM GAS  /tmp/ccydMd0r.s 			page 2


  26:../Middlewares/stm32-mw-camera/sensors/vd1943/vd1943.c **** 
  27:../Middlewares/stm32-mw-camera/sensors/vd1943/vd1943.c **** /* STATUS */
  28:../Middlewares/stm32-mw-camera/sensors/vd1943/vd1943.c **** #define VD1943_REG_MODEL_ID                                   0x0000
  29:../Middlewares/stm32-mw-camera/sensors/vd1943/vd1943.c ****   #define VD1943_MODEL_ID_1_3                                 0x53393430
  30:../Middlewares/stm32-mw-camera/sensors/vd1943/vd1943.c ****   #define VD1943_MODEL_ID_1_4                                 0x53393431
  31:../Middlewares/stm32-mw-camera/sensors/vd1943/vd1943.c **** #define VD1943_REG_ROM_REVISION                               0x000c
  32:../Middlewares/stm32-mw-camera/sensors/vd1943/vd1943.c ****   #define VD1943_ROM_REVISION_13                              0x0400
  33:../Middlewares/stm32-mw-camera/sensors/vd1943/vd1943.c ****   #define VD1943_ROM_REVISION_14                              0x0540
  34:../Middlewares/stm32-mw-camera/sensors/vd1943/vd1943.c **** #define VD1943_REG_CFA_SELECTION                              0x000e
  35:../Middlewares/stm32-mw-camera/sensors/vd1943/vd1943.c ****   #define VD1943_OPTICAL_RGBIR                                0x00
  36:../Middlewares/stm32-mw-camera/sensors/vd1943/vd1943.c ****   #define VD1943_OPTICAL_MONO                                 0x01
  37:../Middlewares/stm32-mw-camera/sensors/vd1943/vd1943.c **** #define VD1943_REG_SYSTEM_FSM_STATE                           0x0044
  38:../Middlewares/stm32-mw-camera/sensors/vd1943/vd1943.c ****   #define VD1943_HW_STBY                                      0
  39:../Middlewares/stm32-mw-camera/sensors/vd1943/vd1943.c ****   #define VD1943_SYSTEM_UP                                    1
  40:../Middlewares/stm32-mw-camera/sensors/vd1943/vd1943.c ****   #define VD1943_BOOT                                         2
  41:../Middlewares/stm32-mw-camera/sensors/vd1943/vd1943.c ****   #define VD1943_SW_STBY                                      3
  42:../Middlewares/stm32-mw-camera/sensors/vd1943/vd1943.c ****   #define VD1943_STREAMING                                    4
  43:../Middlewares/stm32-mw-camera/sensors/vd1943/vd1943.c ****   #define VD1943_HALT                                         6
  44:../Middlewares/stm32-mw-camera/sensors/vd1943/vd1943.c **** #define VD1943_REG_SYSTEM_ERROR                               0x0048
  45:../Middlewares/stm32-mw-camera/sensors/vd1943/vd1943.c **** #define VD1943_FWPATCH_REVISION                               0x004a
  46:../Middlewares/stm32-mw-camera/sensors/vd1943/vd1943.c **** #define VD1943_REG_SYSTEM_PLL_CLK                             0x0228
  47:../Middlewares/stm32-mw-camera/sensors/vd1943/vd1943.c **** #define VD1943_REG_PIXEL_CLK                                  0x022c
  48:../Middlewares/stm32-mw-camera/sensors/vd1943/vd1943.c **** /* CMD */
  49:../Middlewares/stm32-mw-camera/sensors/vd1943/vd1943.c ****   #define VD1943_CMD_ACK                                      0
  50:../Middlewares/stm32-mw-camera/sensors/vd1943/vd1943.c **** #define VD1943_REG_SYSTEM_UP                                  0x0514
  51:../Middlewares/stm32-mw-camera/sensors/vd1943/vd1943.c ****   #define VD1943_CMD_START_SENSOR                             1
  52:../Middlewares/stm32-mw-camera/sensors/vd1943/vd1943.c **** #define VD1943_REG_BOOT                                       0x0515
  53:../Middlewares/stm32-mw-camera/sensors/vd1943/vd1943.c ****   #define VD1943_CMD_LOAD_CERTIFICATE                         1
  54:../Middlewares/stm32-mw-camera/sensors/vd1943/vd1943.c ****   #define VD1943_CMD_LOAD_FWP                                 2
  55:../Middlewares/stm32-mw-camera/sensors/vd1943/vd1943.c ****   #define VD1943_CMD_END_BOOT                                 0x10
  56:../Middlewares/stm32-mw-camera/sensors/vd1943/vd1943.c **** #define VD1943_REG_SW_STBY                                    0x0516
  57:../Middlewares/stm32-mw-camera/sensors/vd1943/vd1943.c ****   #define VD1943_CMD_START_STREAMING                          1
  58:../Middlewares/stm32-mw-camera/sensors/vd1943/vd1943.c ****   #define VD1943_CMD_UPDATE_VT_RAM_START                      3
  59:../Middlewares/stm32-mw-camera/sensors/vd1943/vd1943.c ****   #define VD1943_CMD_UPDATE_VT_RAM_END                        4
  60:../Middlewares/stm32-mw-camera/sensors/vd1943/vd1943.c **** #define VD1943_REG_STREAMING                                  0x0517
  61:../Middlewares/stm32-mw-camera/sensors/vd1943/vd1943.c ****   #define VD1943_CMD_STOP_STREAMING                           1
  62:../Middlewares/stm32-mw-camera/sensors/vd1943/vd1943.c **** /* SENSOR SETTINGS */
  63:../Middlewares/stm32-mw-camera/sensors/vd1943/vd1943.c **** #define VD1943_REG_EXT_CLOCK                                  0x0734
  64:../Middlewares/stm32-mw-camera/sensors/vd1943/vd1943.c **** #define VD1943_REG_MIPI_DATA_RATE                             0x0738
  65:../Middlewares/stm32-mw-camera/sensors/vd1943/vd1943.c **** #define VD1943_REG_LANE_NB_SEL                                0x0743
  66:../Middlewares/stm32-mw-camera/sensors/vd1943/vd1943.c ****   #define VD1943_LANE_NB_SEL_4                                0
  67:../Middlewares/stm32-mw-camera/sensors/vd1943/vd1943.c ****   #define VD1943_LANE_NB_SEL_2                                1
  68:../Middlewares/stm32-mw-camera/sensors/vd1943/vd1943.c **** /* DIAG SETTINGS */
  69:../Middlewares/stm32-mw-camera/sensors/vd1943/vd1943.c **** #define VD1943_REG_DIAG_DISABLE_FW_0_ERR                      0x078d
  70:../Middlewares/stm32-mw-camera/sensors/vd1943/vd1943.c ****   #define VD1943_DIAG_DISABLE_FW_0_ERR_UI_CRC                 1
  71:../Middlewares/stm32-mw-camera/sensors/vd1943/vd1943.c **** #define VD1943_REG_DIAG_DISABLE_FW_1_ERR                      0x078e
  72:../Middlewares/stm32-mw-camera/sensors/vd1943/vd1943.c ****   #define VD1943_DIAG_DISABLE_FW_1_ERR_TASK_MONITOR           4
  73:../Middlewares/stm32-mw-camera/sensors/vd1943/vd1943.c **** #define VD1943_REG_DIAG_DISABLE_STREAMING_ERR                 0x078f
  74:../Middlewares/stm32-mw-camera/sensors/vd1943/vd1943.c ****   #define VD1943_DIAG_DISABLE_STREAMING_ERR_ALL               0xff
  75:../Middlewares/stm32-mw-camera/sensors/vd1943/vd1943.c **** /* STREAM STATICS */
  76:../Middlewares/stm32-mw-camera/sensors/vd1943/vd1943.c **** #define VD1943_REG_ROI_A_WIDTH_OFFSET                         0x090c
  77:../Middlewares/stm32-mw-camera/sensors/vd1943/vd1943.c **** #define VD1943_REG_ROI_A_HEIGHT_OFFSET                        0x090e
  78:../Middlewares/stm32-mw-camera/sensors/vd1943/vd1943.c **** #define VD1943_REG_ROI_A_WIDTH                                0x0910
  79:../Middlewares/stm32-mw-camera/sensors/vd1943/vd1943.c **** #define VD1943_REG_ROI_A_HEIGHT                               0x0912
  80:../Middlewares/stm32-mw-camera/sensors/vd1943/vd1943.c **** #define VD1943_REG_ROI_A_DT                                   0x0914
  81:../Middlewares/stm32-mw-camera/sensors/vd1943/vd1943.c **** #define VD1943_REG_LINE_LENGTH                                0x0934
  82:../Middlewares/stm32-mw-camera/sensors/vd1943/vd1943.c **** #define VD1943_REG_ORIENTATION                                0x0937
ARM GAS  /tmp/ccydMd0r.s 			page 3


  83:../Middlewares/stm32-mw-camera/sensors/vd1943/vd1943.c **** #define VD1943_REG_PATGEN_CTRL                                0x0938
  84:../Middlewares/stm32-mw-camera/sensors/vd1943/vd1943.c ****  #define VD1943_PATGEN_CTRL_DISABLE                           0x0000
  85:../Middlewares/stm32-mw-camera/sensors/vd1943/vd1943.c ****  #define VD1943_PATGEN_CTRL_DGREY                             0x2201
  86:../Middlewares/stm32-mw-camera/sensors/vd1943/vd1943.c ****  #define VD1943_PATGEN_CTRL_PN28                              0x2801
  87:../Middlewares/stm32-mw-camera/sensors/vd1943/vd1943.c **** #define VD1943_REG_OIF_LANE_PHY_MAP                           0x093a
  88:../Middlewares/stm32-mw-camera/sensors/vd1943/vd1943.c **** #define VD1943_REG_OIF_LANE_PHY_SWAP                          0x093b
  89:../Middlewares/stm32-mw-camera/sensors/vd1943/vd1943.c **** #define VD1943_REG_OIF_INTERPACKET_DELAY                      0x093c
  90:../Middlewares/stm32-mw-camera/sensors/vd1943/vd1943.c **** #define VD1943_REG_VT_CTRL                                    0x0ac6
  91:../Middlewares/stm32-mw-camera/sensors/vd1943/vd1943.c ****   #define VD1943_VT_CTRL_MASTER                               0
  92:../Middlewares/stm32-mw-camera/sensors/vd1943/vd1943.c ****   #define VD1943_VT_CTRL_SLAVE                                1
  93:../Middlewares/stm32-mw-camera/sensors/vd1943/vd1943.c **** #define VD1943_REG_OIF_ISL_ENABLE                             0x0ac7
  94:../Middlewares/stm32-mw-camera/sensors/vd1943/vd1943.c **** #define VD1943_REG_GPIO_x_CTRL(_i_)                           (0xad4 + (_i_))
  95:../Middlewares/stm32-mw-camera/sensors/vd1943/vd1943.c **** #define VD1943_REG_CFA_BLENDER_ALPHA_CTRL                     0x0aed
  96:../Middlewares/stm32-mw-camera/sensors/vd1943/vd1943.c ****   #define VD1943_CFA_BLENDER_NORMAL                           0
  97:../Middlewares/stm32-mw-camera/sensors/vd1943/vd1943.c ****   #define VD1943_CFA_BLENDER_ZERO                             2
  98:../Middlewares/stm32-mw-camera/sensors/vd1943/vd1943.c **** #define VD1943_REG_OIF_DT_ISL                                 0x0afc
  99:../Middlewares/stm32-mw-camera/sensors/vd1943/vd1943.c **** /* STREAM_CTXx_STATIC */
 100:../Middlewares/stm32-mw-camera/sensors/vd1943/vd1943.c **** #define VD1943_REG_CTXx_STATIC_OFFSET(_x_, _addr_)            (0x0b40 + (_x_) * 72 + (_addr_))
 101:../Middlewares/stm32-mw-camera/sensors/vd1943/vd1943.c **** #define VD1943_REG_SENSOR_CONFIGURATION(_x_)                  VD1943_REG_CTXx_STATIC_OFFSET(_x_, 0x
 102:../Middlewares/stm32-mw-camera/sensors/vd1943/vd1943.c **** #define VD1943_REG_FRAME_LENGTH(_x_)                          VD1943_REG_CTXx_STATIC_OFFSET(_x_, 0x
 103:../Middlewares/stm32-mw-camera/sensors/vd1943/vd1943.c **** #define VD1943_REG_GPIO_CTRL(_x_)                             VD1943_REG_CTXx_STATIC_OFFSET(_x_, 0x
 104:../Middlewares/stm32-mw-camera/sensors/vd1943/vd1943.c ****  #define VD1943_GPIO_DISABLE                                  0
 105:../Middlewares/stm32-mw-camera/sensors/vd1943/vd1943.c ****  #define VD1943_GPIO_ENABLE                                   1
 106:../Middlewares/stm32-mw-camera/sensors/vd1943/vd1943.c **** /* STREAM DYNAMICS */
 107:../Middlewares/stm32-mw-camera/sensors/vd1943/vd1943.c **** /* STREAM_CTXx_DYNAMIC */
 108:../Middlewares/stm32-mw-camera/sensors/vd1943/vd1943.c **** #define VD1943_REG_CTXx_DYNAMIC_OFFSET(_x_, _addr_)           (0x0c78 + (_x_) * 40 + (_addr_))
 109:../Middlewares/stm32-mw-camera/sensors/vd1943/vd1943.c **** 
 110:../Middlewares/stm32-mw-camera/sensors/vd1943/vd1943.c **** #define VD1943_REG_GROUP_PARAMETER_HOLD(_x_)                  VD1943_REG_CTXx_DYNAMIC_OFFSET(_x_, 0
 111:../Middlewares/stm32-mw-camera/sensors/vd1943/vd1943.c ****  #define VD1943_GROUP_PARAMETER_HOLD_DISABLE                  0
 112:../Middlewares/stm32-mw-camera/sensors/vd1943/vd1943.c ****  #define VD1943_GROUP_PARAMETER_HOLD_ENABLE                   1
 113:../Middlewares/stm32-mw-camera/sensors/vd1943/vd1943.c **** #define VD1943_REG_ANALOG_GAIN(_x_)                           VD1943_REG_CTXx_DYNAMIC_OFFSET(_x_, 0
 114:../Middlewares/stm32-mw-camera/sensors/vd1943/vd1943.c **** #define VD1943_REG_INTEGRATION_TIME_PRIMARY(_x_)              VD1943_REG_CTXx_DYNAMIC_OFFSET(_x_, 0
 115:../Middlewares/stm32-mw-camera/sensors/vd1943/vd1943.c **** #define VD1943_REG_INTEGRATION_TIME_IR(_x_)                   VD1943_REG_CTXx_DYNAMIC_OFFSET(_x_, 0
 116:../Middlewares/stm32-mw-camera/sensors/vd1943/vd1943.c **** #define VD1943_REG_INTEGRATION_TIME_SHORT(_x_)                VD1943_REG_CTXx_DYNAMIC_OFFSET(_x_, 0
 117:../Middlewares/stm32-mw-camera/sensors/vd1943/vd1943.c **** #define VD1943_DIGITAL_GAIN_R(_x_)                            VD1943_REG_CTXx_DYNAMIC_OFFSET(_x_, 0
 118:../Middlewares/stm32-mw-camera/sensors/vd1943/vd1943.c **** #define VD1943_DIGITAL_GAIN_G(_x_)                            VD1943_REG_CTXx_DYNAMIC_OFFSET(_x_, 0
 119:../Middlewares/stm32-mw-camera/sensors/vd1943/vd1943.c **** #define VD1943_DIGITAL_GAIN_B(_x_)                            VD1943_REG_CTXx_DYNAMIC_OFFSET(_x_, 0
 120:../Middlewares/stm32-mw-camera/sensors/vd1943/vd1943.c **** #define VD1943_DIGITAL_GAIN_IR(_x_)                           VD1943_REG_CTXx_DYNAMIC_OFFSET(_x_, 0
 121:../Middlewares/stm32-mw-camera/sensors/vd1943/vd1943.c **** 
 122:../Middlewares/stm32-mw-camera/sensors/vd1943/vd1943.c **** /* DEBUG */
 123:../Middlewares/stm32-mw-camera/sensors/vd1943/vd1943.c **** #define VD1943_REG_DPHYTX_CTRL                                0x108c
 124:../Middlewares/stm32-mw-camera/sensors/vd1943/vd1943.c **** #define VD1943_REG_BOTTOM_STATUS_LINE_DISABLE                 0x110c
 125:../Middlewares/stm32-mw-camera/sensors/vd1943/vd1943.c **** /* CERTIFICATE */
 126:../Middlewares/stm32-mw-camera/sensors/vd1943/vd1943.c **** #define VD1943_REG_CERTIFICATE_AREA_START_ADDR                0x1aa8
 127:../Middlewares/stm32-mw-camera/sensors/vd1943/vd1943.c **** /* PATCH AREA */
 128:../Middlewares/stm32-mw-camera/sensors/vd1943/vd1943.c **** #define VD1943_REG_FWPATCH_START_ADDR                         0x2000
 129:../Middlewares/stm32-mw-camera/sensors/vd1943/vd1943.c **** 
 130:../Middlewares/stm32-mw-camera/sensors/vd1943/vd1943.c **** #define VD1943_MIN_VBLANK                                     60
 131:../Middlewares/stm32-mw-camera/sensors/vd1943/vd1943.c **** 
 132:../Middlewares/stm32-mw-camera/sensors/vd1943/vd1943.c **** /* Yes we are above maximum recommended line time duration. But this value allow to output a 10 bit
 133:../Middlewares/stm32-mw-camera/sensors/vd1943/vd1943.c ****  * global shutter mode in a 2 lanes configuration.
 134:../Middlewares/stm32-mw-camera/sensors/vd1943/vd1943.c ****  */
 135:../Middlewares/stm32-mw-camera/sensors/vd1943/vd1943.c **** #define VD1943_LINE_TIME_IN_NS                                14500
 136:../Middlewares/stm32-mw-camera/sensors/vd1943/vd1943.c **** #define VD1943_LINE_LENGTH_MIN                                3375
 137:../Middlewares/stm32-mw-camera/sensors/vd1943/vd1943.c **** 
 138:../Middlewares/stm32-mw-camera/sensors/vd1943/vd1943.c **** /* FIXME : Need characterization */
 139:../Middlewares/stm32-mw-camera/sensors/vd1943/vd1943.c **** #define VD1943_EXPOSURE_MARGIN                                100
ARM GAS  /tmp/ccydMd0r.s 			page 4


 140:../Middlewares/stm32-mw-camera/sensors/vd1943/vd1943.c **** 
 141:../Middlewares/stm32-mw-camera/sensors/vd1943/vd1943.c **** #ifndef MIN
 142:../Middlewares/stm32-mw-camera/sensors/vd1943/vd1943.c **** #define MIN(a,b) ((a)<(b)?(a):(b))
 143:../Middlewares/stm32-mw-camera/sensors/vd1943/vd1943.c **** #endif
 144:../Middlewares/stm32-mw-camera/sensors/vd1943/vd1943.c **** 
 145:../Middlewares/stm32-mw-camera/sensors/vd1943/vd1943.c **** #ifndef MAX
 146:../Middlewares/stm32-mw-camera/sensors/vd1943/vd1943.c **** #define MAX(a,b) ((a)>(b)?(a):(b))
 147:../Middlewares/stm32-mw-camera/sensors/vd1943/vd1943.c **** #endif
 148:../Middlewares/stm32-mw-camera/sensors/vd1943/vd1943.c **** 
 149:../Middlewares/stm32-mw-camera/sensors/vd1943/vd1943.c **** #define VD1943_COMPUTE_LEFT(_w_)                              ((VD1943_MAX_WIDTH - (_w_)) / 2)
 150:../Middlewares/stm32-mw-camera/sensors/vd1943/vd1943.c **** #define VD1943_COMPUTE_TOP(_h_)                               ((VD1943_MAX_HEIGHT - (_h_)) / 2)
 151:../Middlewares/stm32-mw-camera/sensors/vd1943/vd1943.c **** 
 152:../Middlewares/stm32-mw-camera/sensors/vd1943/vd1943.c **** struct vd1943_rect {
 153:../Middlewares/stm32-mw-camera/sensors/vd1943/vd1943.c ****   int32_t left;
 154:../Middlewares/stm32-mw-camera/sensors/vd1943/vd1943.c ****   int32_t top;
 155:../Middlewares/stm32-mw-camera/sensors/vd1943/vd1943.c ****   uint32_t width;
 156:../Middlewares/stm32-mw-camera/sensors/vd1943/vd1943.c ****   uint32_t height;
 157:../Middlewares/stm32-mw-camera/sensors/vd1943/vd1943.c **** };
 158:../Middlewares/stm32-mw-camera/sensors/vd1943/vd1943.c **** 
 159:../Middlewares/stm32-mw-camera/sensors/vd1943/vd1943.c **** static const struct vd1943_rect vd1943_supported_modes[] = {
 160:../Middlewares/stm32-mw-camera/sensors/vd1943/vd1943.c ****   /* VD1943_RES_QVGA_320_240 */
 161:../Middlewares/stm32-mw-camera/sensors/vd1943/vd1943.c ****   {
 162:../Middlewares/stm32-mw-camera/sensors/vd1943/vd1943.c ****     .left = VD1943_COMPUTE_LEFT(320),
 163:../Middlewares/stm32-mw-camera/sensors/vd1943/vd1943.c ****     .top = VD1943_COMPUTE_TOP(240),
 164:../Middlewares/stm32-mw-camera/sensors/vd1943/vd1943.c ****     .width = 320,
 165:../Middlewares/stm32-mw-camera/sensors/vd1943/vd1943.c ****     .height = 240,
 166:../Middlewares/stm32-mw-camera/sensors/vd1943/vd1943.c ****   },
 167:../Middlewares/stm32-mw-camera/sensors/vd1943/vd1943.c ****   /* VD1943_RES_VGA_640_480 */
 168:../Middlewares/stm32-mw-camera/sensors/vd1943/vd1943.c ****   {
 169:../Middlewares/stm32-mw-camera/sensors/vd1943/vd1943.c ****     .left = VD1943_COMPUTE_LEFT(640),
 170:../Middlewares/stm32-mw-camera/sensors/vd1943/vd1943.c ****     .top = VD1943_COMPUTE_TOP(480),
 171:../Middlewares/stm32-mw-camera/sensors/vd1943/vd1943.c ****     .width = 640,
 172:../Middlewares/stm32-mw-camera/sensors/vd1943/vd1943.c ****     .height = 480,
 173:../Middlewares/stm32-mw-camera/sensors/vd1943/vd1943.c ****   },
 174:../Middlewares/stm32-mw-camera/sensors/vd1943/vd1943.c ****   /* VD1943_RES_VGA_800_600 */
 175:../Middlewares/stm32-mw-camera/sensors/vd1943/vd1943.c ****   {
 176:../Middlewares/stm32-mw-camera/sensors/vd1943/vd1943.c ****     .left = VD1943_COMPUTE_LEFT(800),
 177:../Middlewares/stm32-mw-camera/sensors/vd1943/vd1943.c ****     .top = VD1943_COMPUTE_TOP(600),
 178:../Middlewares/stm32-mw-camera/sensors/vd1943/vd1943.c ****     .width = 800,
 179:../Middlewares/stm32-mw-camera/sensors/vd1943/vd1943.c ****     .height = 600,
 180:../Middlewares/stm32-mw-camera/sensors/vd1943/vd1943.c ****   },
 181:../Middlewares/stm32-mw-camera/sensors/vd1943/vd1943.c ****   /* VD1943_RES_XGA_1024_768 */
 182:../Middlewares/stm32-mw-camera/sensors/vd1943/vd1943.c ****   {
 183:../Middlewares/stm32-mw-camera/sensors/vd1943/vd1943.c ****     .left = VD1943_COMPUTE_LEFT(1024),
 184:../Middlewares/stm32-mw-camera/sensors/vd1943/vd1943.c ****     .top = VD1943_COMPUTE_TOP(768),
 185:../Middlewares/stm32-mw-camera/sensors/vd1943/vd1943.c ****     .width = 1024,
 186:../Middlewares/stm32-mw-camera/sensors/vd1943/vd1943.c ****     .height = 768,
 187:../Middlewares/stm32-mw-camera/sensors/vd1943/vd1943.c ****   },
 188:../Middlewares/stm32-mw-camera/sensors/vd1943/vd1943.c ****   /* VD1943_RES_720P_1280_720 */
 189:../Middlewares/stm32-mw-camera/sensors/vd1943/vd1943.c ****   {
 190:../Middlewares/stm32-mw-camera/sensors/vd1943/vd1943.c ****     .left = VD1943_COMPUTE_LEFT(1280),
 191:../Middlewares/stm32-mw-camera/sensors/vd1943/vd1943.c ****     .top = VD1943_COMPUTE_TOP(720),
 192:../Middlewares/stm32-mw-camera/sensors/vd1943/vd1943.c ****     .width = 1280,
 193:../Middlewares/stm32-mw-camera/sensors/vd1943/vd1943.c ****     .height = 720,
 194:../Middlewares/stm32-mw-camera/sensors/vd1943/vd1943.c ****   },
 195:../Middlewares/stm32-mw-camera/sensors/vd1943/vd1943.c ****   /* VD1943_RES_SXGA_1280_1024 */
 196:../Middlewares/stm32-mw-camera/sensors/vd1943/vd1943.c ****   {
ARM GAS  /tmp/ccydMd0r.s 			page 5


 197:../Middlewares/stm32-mw-camera/sensors/vd1943/vd1943.c ****     .left = VD1943_COMPUTE_LEFT(1280),
 198:../Middlewares/stm32-mw-camera/sensors/vd1943/vd1943.c ****     .top = VD1943_COMPUTE_TOP(1024),
 199:../Middlewares/stm32-mw-camera/sensors/vd1943/vd1943.c ****     .width = 1280,
 200:../Middlewares/stm32-mw-camera/sensors/vd1943/vd1943.c ****     .height = 1024,
 201:../Middlewares/stm32-mw-camera/sensors/vd1943/vd1943.c ****   },
 202:../Middlewares/stm32-mw-camera/sensors/vd1943/vd1943.c ****   /* VD1943_RES_1080P_1920_1080 */
 203:../Middlewares/stm32-mw-camera/sensors/vd1943/vd1943.c ****   {
 204:../Middlewares/stm32-mw-camera/sensors/vd1943/vd1943.c ****     .left = VD1943_COMPUTE_LEFT(1920),
 205:../Middlewares/stm32-mw-camera/sensors/vd1943/vd1943.c ****     .top = VD1943_COMPUTE_TOP(1080),
 206:../Middlewares/stm32-mw-camera/sensors/vd1943/vd1943.c ****     .width = 1920,
 207:../Middlewares/stm32-mw-camera/sensors/vd1943/vd1943.c ****     .height = 1080,
 208:../Middlewares/stm32-mw-camera/sensors/vd1943/vd1943.c ****   },
 209:../Middlewares/stm32-mw-camera/sensors/vd1943/vd1943.c ****   /* VD1943_RES_QXGA_2048_1536 */
 210:../Middlewares/stm32-mw-camera/sensors/vd1943/vd1943.c ****   {
 211:../Middlewares/stm32-mw-camera/sensors/vd1943/vd1943.c ****     .left = VD1943_COMPUTE_LEFT(2048),
 212:../Middlewares/stm32-mw-camera/sensors/vd1943/vd1943.c ****     .top = VD1943_COMPUTE_TOP(1536),
 213:../Middlewares/stm32-mw-camera/sensors/vd1943/vd1943.c ****     .width = 2048,
 214:../Middlewares/stm32-mw-camera/sensors/vd1943/vd1943.c ****     .height = 1536,
 215:../Middlewares/stm32-mw-camera/sensors/vd1943/vd1943.c ****   },
 216:../Middlewares/stm32-mw-camera/sensors/vd1943/vd1943.c ****   /* VD1943_RES_FULL43_2560_1920 */
 217:../Middlewares/stm32-mw-camera/sensors/vd1943/vd1943.c ****   {
 218:../Middlewares/stm32-mw-camera/sensors/vd1943/vd1943.c ****     .left = VD1943_COMPUTE_LEFT(2560),
 219:../Middlewares/stm32-mw-camera/sensors/vd1943/vd1943.c ****     .top = VD1943_COMPUTE_TOP(1920),
 220:../Middlewares/stm32-mw-camera/sensors/vd1943/vd1943.c ****     .width = 2560,
 221:../Middlewares/stm32-mw-camera/sensors/vd1943/vd1943.c ****     .height = 1920,
 222:../Middlewares/stm32-mw-camera/sensors/vd1943/vd1943.c ****   },
 223:../Middlewares/stm32-mw-camera/sensors/vd1943/vd1943.c ****   /* VD1943_RES_FULL_2560_1984 */
 224:../Middlewares/stm32-mw-camera/sensors/vd1943/vd1943.c ****   {
 225:../Middlewares/stm32-mw-camera/sensors/vd1943/vd1943.c ****     .left = VD1943_COMPUTE_LEFT(2560),
 226:../Middlewares/stm32-mw-camera/sensors/vd1943/vd1943.c ****     .top = VD1943_COMPUTE_TOP(1984),
 227:../Middlewares/stm32-mw-camera/sensors/vd1943/vd1943.c ****     .width = 2560,
 228:../Middlewares/stm32-mw-camera/sensors/vd1943/vd1943.c ****     .height = 1984,
 229:../Middlewares/stm32-mw-camera/sensors/vd1943/vd1943.c ****   },
 230:../Middlewares/stm32-mw-camera/sensors/vd1943/vd1943.c **** };
 231:../Middlewares/stm32-mw-camera/sensors/vd1943/vd1943.c **** 
 232:../Middlewares/stm32-mw-camera/sensors/vd1943/vd1943.c **** #define VD1943_TraceError(_ctx_,_ret_) do { \
 233:../Middlewares/stm32-mw-camera/sensors/vd1943/vd1943.c ****   if (_ret_) VD1943_error(_ctx_, "Error on %s:%d : %d\n", __func__, __LINE__, _ret_); \
 234:../Middlewares/stm32-mw-camera/sensors/vd1943/vd1943.c ****   if (_ret_) display_error(_ctx_); \
 235:../Middlewares/stm32-mw-camera/sensors/vd1943/vd1943.c ****   if (_ret_) return _ret_; \
 236:../Middlewares/stm32-mw-camera/sensors/vd1943/vd1943.c **** } while(0)
 237:../Middlewares/stm32-mw-camera/sensors/vd1943/vd1943.c **** 
 238:../Middlewares/stm32-mw-camera/sensors/vd1943/vd1943.c **** static void VD1943_log_impl(VD1943_Ctx_t *ctx, int lvl, const char *format, ...)
 239:../Middlewares/stm32-mw-camera/sensors/vd1943/vd1943.c **** {
  34              		.loc 1 239 1 view -0
  35              		.cfi_startproc
  36              		@ args = 4, pretend = 8, frame = 8
  37              		@ frame_needed = 0, uses_anonymous_args = 1
 240:../Middlewares/stm32-mw-camera/sensors/vd1943/vd1943.c ****   va_list ap;
  38              		.loc 1 240 3 view .LVU1
 241:../Middlewares/stm32-mw-camera/sensors/vd1943/vd1943.c **** 
 242:../Middlewares/stm32-mw-camera/sensors/vd1943/vd1943.c ****   if (!ctx->log)
  39              		.loc 1 242 3 view .LVU2
 239:../Middlewares/stm32-mw-camera/sensors/vd1943/vd1943.c ****   va_list ap;
  40              		.loc 1 239 1 is_stmt 0 view .LVU3
  41 0000 0CB4     		push	{r2, r3}
  42              		.cfi_def_cfa_offset 8
  43              		.cfi_offset 2, -8
ARM GAS  /tmp/ccydMd0r.s 			page 6


  44              		.cfi_offset 3, -4
  45 0002 13B5     		push	{r0, r1, r4, lr}
  46              		.cfi_def_cfa_offset 24
  47              		.cfi_offset 4, -16
  48              		.cfi_offset 14, -12
  49              		.loc 1 242 6 view .LVU4
  50 0004 446A     		ldr	r4, [r0, #36]
  51 0006 1CB1     		cbz	r4, .L1
 243:../Middlewares/stm32-mw-camera/sensors/vd1943/vd1943.c ****     return ;
 244:../Middlewares/stm32-mw-camera/sensors/vd1943/vd1943.c **** 
 245:../Middlewares/stm32-mw-camera/sensors/vd1943/vd1943.c ****   va_start(ap, format);
  52              		.loc 1 245 3 is_stmt 1 view .LVU5
  53 0008 05AB     		add	r3, sp, #20
 246:../Middlewares/stm32-mw-camera/sensors/vd1943/vd1943.c ****   ctx->log(ctx, lvl, format, ap);
  54              		.loc 1 246 3 is_stmt 0 view .LVU6
  55 000a 049A     		ldr	r2, [sp, #16]
 245:../Middlewares/stm32-mw-camera/sensors/vd1943/vd1943.c ****   ctx->log(ctx, lvl, format, ap);
  56              		.loc 1 245 3 view .LVU7
  57 000c 0193     		str	r3, [sp, #4]
  58              		.loc 1 246 3 is_stmt 1 view .LVU8
  59 000e A047     		blx	r4
  60              	.LVL1:
 247:../Middlewares/stm32-mw-camera/sensors/vd1943/vd1943.c ****   va_end(ap);
  61              		.loc 1 247 3 view .LVU9
  62              	.L1:
 248:../Middlewares/stm32-mw-camera/sensors/vd1943/vd1943.c **** }
  63              		.loc 1 248 1 is_stmt 0 view .LVU10
  64 0010 02B0     		add	sp, sp, #8
  65              		.cfi_def_cfa_offset 16
  66              		@ sp needed
  67 0012 BDE81040 		pop	{r4, lr}
  68              		.cfi_restore 14
  69              		.cfi_restore 4
  70              		.cfi_def_cfa_offset 8
  71 0016 02B0     		add	sp, sp, #8
  72              		.cfi_restore 3
  73              		.cfi_restore 2
  74              		.cfi_def_cfa_offset 0
  75 0018 7047     		bx	lr
  76              		.cfi_endproc
  77              	.LFE0:
  79              		.section	.rodata.VD1943_PollReg8.str1.1,"aMS",%progbits,1
  80              	.LC0:
  81 0000 56443139 		.ascii	"VD1943_DG%d-%d : current state %d\012\000"
  81      34335F44 
  81      4725642D 
  81      2564203A 
  81      20637572 
  82              		.section	.text.VD1943_PollReg8,"ax",%progbits
  83              		.align	1
  84              		.syntax unified
  85              		.thumb
  86              		.thumb_func
  88              	VD1943_PollReg8:
  89              	.LVL2:
  90              	.LFB2:
 249:../Middlewares/stm32-mw-camera/sensors/vd1943/vd1943.c **** 
ARM GAS  /tmp/ccydMd0r.s 			page 7


 250:../Middlewares/stm32-mw-camera/sensors/vd1943/vd1943.c **** #define VD1943_dbg(_ctx_, _lvl_, _fmt_, ...) do { \
 251:../Middlewares/stm32-mw-camera/sensors/vd1943/vd1943.c ****   VD1943_log_impl(_ctx_, VD1943_LVL_DBG(_lvl_), "VD1943_DG%d-%d : " _fmt_, _lvl_, __LINE__, ##__VA_
 252:../Middlewares/stm32-mw-camera/sensors/vd1943/vd1943.c **** } while(0)
 253:../Middlewares/stm32-mw-camera/sensors/vd1943/vd1943.c **** 
 254:../Middlewares/stm32-mw-camera/sensors/vd1943/vd1943.c **** #define VD1943_notice(_ctx_, _fmt_, ...) do { \
 255:../Middlewares/stm32-mw-camera/sensors/vd1943/vd1943.c ****   VD1943_log_impl(_ctx_, VD1943_LVL_NOTICE, "VD1943_NOT-%d : " _fmt_, __LINE__, ##__VA_ARGS__); \
 256:../Middlewares/stm32-mw-camera/sensors/vd1943/vd1943.c **** } while(0)
 257:../Middlewares/stm32-mw-camera/sensors/vd1943/vd1943.c **** 
 258:../Middlewares/stm32-mw-camera/sensors/vd1943/vd1943.c **** #define VD1943_warn(_ctx_, _fmt_, ...) do { \
 259:../Middlewares/stm32-mw-camera/sensors/vd1943/vd1943.c ****   VD1943_log_impl(_ctx_, VD1943_LVL_WARNING, "VD1943_WRN-%d : " _fmt_, __LINE__, ##__VA_ARGS__); \
 260:../Middlewares/stm32-mw-camera/sensors/vd1943/vd1943.c **** } while(0)
 261:../Middlewares/stm32-mw-camera/sensors/vd1943/vd1943.c **** 
 262:../Middlewares/stm32-mw-camera/sensors/vd1943/vd1943.c **** #define VD1943_error(_ctx_, _fmt_, ...) do { \
 263:../Middlewares/stm32-mw-camera/sensors/vd1943/vd1943.c ****   VD1943_log_impl(_ctx_, VD1943_LVL_ERROR, "VD1943_ERR-%d : " _fmt_, __LINE__, ##__VA_ARGS__); \
 264:../Middlewares/stm32-mw-camera/sensors/vd1943/vd1943.c **** } while(0)
 265:../Middlewares/stm32-mw-camera/sensors/vd1943/vd1943.c **** 
 266:../Middlewares/stm32-mw-camera/sensors/vd1943/vd1943.c **** static void display_error(VD1943_Ctx_t *ctx)
 267:../Middlewares/stm32-mw-camera/sensors/vd1943/vd1943.c **** {
 268:../Middlewares/stm32-mw-camera/sensors/vd1943/vd1943.c ****   uint16_t reg16;
 269:../Middlewares/stm32-mw-camera/sensors/vd1943/vd1943.c ****   int ret;
 270:../Middlewares/stm32-mw-camera/sensors/vd1943/vd1943.c **** 
 271:../Middlewares/stm32-mw-camera/sensors/vd1943/vd1943.c ****   ret = ctx->read16(ctx, VD1943_REG_SYSTEM_ERROR, &reg16);
 272:../Middlewares/stm32-mw-camera/sensors/vd1943/vd1943.c ****   assert(ret == 0);
 273:../Middlewares/stm32-mw-camera/sensors/vd1943/vd1943.c ****   VD1943_error(ctx, "ERROR_CODE : 0x%04x\n", reg16);
 274:../Middlewares/stm32-mw-camera/sensors/vd1943/vd1943.c **** }
 275:../Middlewares/stm32-mw-camera/sensors/vd1943/vd1943.c **** 
 276:../Middlewares/stm32-mw-camera/sensors/vd1943/vd1943.c **** static int VD1943_PollReg8(VD1943_Ctx_t *ctx, uint16_t addr, uint8_t poll_val)
 277:../Middlewares/stm32-mw-camera/sensors/vd1943/vd1943.c **** {
  91              		.loc 1 277 1 is_stmt 1 view -0
  92              		.cfi_startproc
  93              		@ args = 0, pretend = 0, frame = 8
  94              		@ frame_needed = 0, uses_anonymous_args = 0
 278:../Middlewares/stm32-mw-camera/sensors/vd1943/vd1943.c ****   const unsigned int loop_delay_ms = 10;
  95              		.loc 1 278 3 view .LVU12
 279:../Middlewares/stm32-mw-camera/sensors/vd1943/vd1943.c ****   const unsigned int timeout_ms = 500;
  96              		.loc 1 279 3 view .LVU13
 280:../Middlewares/stm32-mw-camera/sensors/vd1943/vd1943.c ****   int loop_nb = timeout_ms / loop_delay_ms;
  97              		.loc 1 280 3 view .LVU14
 281:../Middlewares/stm32-mw-camera/sensors/vd1943/vd1943.c ****   uint8_t val;
  98              		.loc 1 281 3 view .LVU15
 282:../Middlewares/stm32-mw-camera/sensors/vd1943/vd1943.c ****   int ret;
  99              		.loc 1 282 3 view .LVU16
 283:../Middlewares/stm32-mw-camera/sensors/vd1943/vd1943.c **** 
 284:../Middlewares/stm32-mw-camera/sensors/vd1943/vd1943.c ****   while (--loop_nb) {
 100              		.loc 1 284 3 view .LVU17
 101              		.loc 1 284 10 view .LVU18
 277:../Middlewares/stm32-mw-camera/sensors/vd1943/vd1943.c ****   const unsigned int loop_delay_ms = 10;
 102              		.loc 1 277 1 is_stmt 0 view .LVU19
 103 0000 F0B5     		push	{r4, r5, r6, r7, lr}
 104              		.cfi_def_cfa_offset 20
 105              		.cfi_offset 4, -20
 106              		.cfi_offset 5, -16
 107              		.cfi_offset 6, -12
 108              		.cfi_offset 7, -8
 109              		.cfi_offset 14, -4
 110 0002 0446     		mov	r4, r0
 111 0004 0E46     		mov	r6, r1
ARM GAS  /tmp/ccydMd0r.s 			page 8


 112 0006 1746     		mov	r7, r2
 113 0008 3125     		movs	r5, #49
 114 000a 85B0     		sub	sp, sp, #20
 115              		.cfi_def_cfa_offset 40
 116              	.LVL3:
 117              	.L8:
 285:../Middlewares/stm32-mw-camera/sensors/vd1943/vd1943.c ****     ret = ctx->read8(ctx, addr, &val);
 118              		.loc 1 285 5 is_stmt 1 view .LVU20
 119              		.loc 1 285 11 is_stmt 0 view .LVU21
 120 000c 3146     		mov	r1, r6
 121 000e 2046     		mov	r0, r4
 122 0010 6368     		ldr	r3, [r4, #4]
 123 0012 0DF10F02 		add	r2, sp, #15
 124 0016 9847     		blx	r3
 125              	.LVL4:
 286:../Middlewares/stm32-mw-camera/sensors/vd1943/vd1943.c ****     if (ret < 0)
 126              		.loc 1 286 5 is_stmt 1 view .LVU22
 127              		.loc 1 286 8 is_stmt 0 view .LVU23
 128 0018 0028     		cmp	r0, #0
 129              		.loc 1 286 8 view .LVU24
 130 001a 17DB     		blt	.L6
 287:../Middlewares/stm32-mw-camera/sensors/vd1943/vd1943.c ****       return ret;
 288:../Middlewares/stm32-mw-camera/sensors/vd1943/vd1943.c ****     if (val == poll_val)
 131              		.loc 1 288 5 is_stmt 1 view .LVU25
 132              		.loc 1 288 8 is_stmt 0 view .LVU26
 133 001c 9DF80F30 		ldrb	r3, [sp, #15]	@ zero_extendqisi2
 134 0020 BB42     		cmp	r3, r7
 135 0022 15D0     		beq	.L9
 289:../Middlewares/stm32-mw-camera/sensors/vd1943/vd1943.c ****       return 0;
 290:../Middlewares/stm32-mw-camera/sensors/vd1943/vd1943.c ****     ctx->delay(ctx, loop_delay_ms);
 136              		.loc 1 290 5 is_stmt 1 view .LVU27
 137 0024 0A21     		movs	r1, #10
 138 0026 2046     		mov	r0, r4
 139              	.LVL5:
 140              		.loc 1 290 5 is_stmt 0 view .LVU28
 141 0028 236A     		ldr	r3, [r4, #32]
 142 002a 9847     		blx	r3
 143              	.LVL6:
 284:../Middlewares/stm32-mw-camera/sensors/vd1943/vd1943.c ****     ret = ctx->read8(ctx, addr, &val);
 144              		.loc 1 284 10 is_stmt 1 view .LVU29
 284:../Middlewares/stm32-mw-camera/sensors/vd1943/vd1943.c ****     ret = ctx->read8(ctx, addr, &val);
 145              		.loc 1 284 10 is_stmt 0 view .LVU30
 146 002c 013D     		subs	r5, r5, #1
 147              	.LVL7:
 284:../Middlewares/stm32-mw-camera/sensors/vd1943/vd1943.c ****     ret = ctx->read8(ctx, addr, &val);
 148              		.loc 1 284 10 view .LVU31
 149 002e EDD1     		bne	.L8
 291:../Middlewares/stm32-mw-camera/sensors/vd1943/vd1943.c ****   }
 292:../Middlewares/stm32-mw-camera/sensors/vd1943/vd1943.c **** 
 293:../Middlewares/stm32-mw-camera/sensors/vd1943/vd1943.c ****   VD1943_dbg(ctx, 0, "current state %d\n", val);
 150              		.loc 1 293 3 is_stmt 1 view .LVU32
 151              		.loc 1 293 3 view .LVU33
 152 0030 9DF80F30 		ldrb	r3, [sp, #15]	@ zero_extendqisi2
 153 0034 2046     		mov	r0, r4
 154 0036 0193     		str	r3, [sp, #4]
 155 0038 40F22513 		movw	r3, #293
 156 003c 0321     		movs	r1, #3
ARM GAS  /tmp/ccydMd0r.s 			page 9


 157 003e 0093     		str	r3, [sp]
 158 0040 044A     		ldr	r2, .L11
 159 0042 2B46     		mov	r3, r5
 160 0044 FFF7FEFF 		bl	VD1943_log_impl
 161              	.LVL8:
 162              		.loc 1 293 3 discriminator 1 view .LVU34
 294:../Middlewares/stm32-mw-camera/sensors/vd1943/vd1943.c **** 
 295:../Middlewares/stm32-mw-camera/sensors/vd1943/vd1943.c ****   return -1;
 163              		.loc 1 295 3 view .LVU35
 164              		.loc 1 295 10 is_stmt 0 view .LVU36
 165 0048 4FF0FF30 		mov	r0, #-1
 166              	.LVL9:
 167              	.L6:
 296:../Middlewares/stm32-mw-camera/sensors/vd1943/vd1943.c **** }
 168              		.loc 1 296 1 view .LVU37
 169 004c 05B0     		add	sp, sp, #20
 170              		.cfi_remember_state
 171              		.cfi_def_cfa_offset 20
 172              		@ sp needed
 173 004e F0BD     		pop	{r4, r5, r6, r7, pc}
 174              	.LVL10:
 175              	.L9:
 176              		.cfi_restore_state
 289:../Middlewares/stm32-mw-camera/sensors/vd1943/vd1943.c ****     ctx->delay(ctx, loop_delay_ms);
 177              		.loc 1 289 14 view .LVU38
 178 0050 0020     		movs	r0, #0
 179              	.LVL11:
 289:../Middlewares/stm32-mw-camera/sensors/vd1943/vd1943.c ****     ctx->delay(ctx, loop_delay_ms);
 180              		.loc 1 289 14 view .LVU39
 181 0052 FBE7     		b	.L6
 182              	.L12:
 183              		.align	2
 184              	.L11:
 185 0054 00000000 		.word	.LC0
 186              		.cfi_endproc
 187              	.LFE2:
 189              		.section	.rodata.display_error.str1.1,"aMS",%progbits,1
 190              	.LC1:
 191 0000 72657420 		.ascii	"ret == 0\000"
 191      3D3D2030 
 191      00
 192              	.LC2:
 193 0009 2E2E2F4D 		.ascii	"../Middlewares/stm32-mw-camera/sensors/vd1943/vd194"
 193      6964646C 
 193      65776172 
 193      65732F73 
 193      746D3332 
 194 003c 332E6300 		.ascii	"3.c\000"
 195              	.LC3:
 196 0040 56443139 		.ascii	"VD1943_ERR-%d : ERROR_CODE : 0x%04x\012\000"
 196      34335F45 
 196      52522D25 
 196      64203A20 
 196      4552524F 
 197              		.section	.text.display_error,"ax",%progbits
 198              		.align	1
 199              		.syntax unified
ARM GAS  /tmp/ccydMd0r.s 			page 10


 200              		.thumb
 201              		.thumb_func
 203              	display_error:
 204              	.LVL12:
 205              	.LFB1:
 267:../Middlewares/stm32-mw-camera/sensors/vd1943/vd1943.c ****   uint16_t reg16;
 206              		.loc 1 267 1 is_stmt 1 view -0
 207              		.cfi_startproc
 208              		@ args = 0, pretend = 0, frame = 8
 209              		@ frame_needed = 0, uses_anonymous_args = 0
 268:../Middlewares/stm32-mw-camera/sensors/vd1943/vd1943.c ****   int ret;
 210              		.loc 1 268 3 view .LVU41
 269:../Middlewares/stm32-mw-camera/sensors/vd1943/vd1943.c **** 
 211              		.loc 1 269 3 view .LVU42
 271:../Middlewares/stm32-mw-camera/sensors/vd1943/vd1943.c ****   assert(ret == 0);
 212              		.loc 1 271 3 view .LVU43
 267:../Middlewares/stm32-mw-camera/sensors/vd1943/vd1943.c ****   uint16_t reg16;
 213              		.loc 1 267 1 is_stmt 0 view .LVU44
 214 0000 1FB5     		push	{r0, r1, r2, r3, r4, lr}
 215              		.cfi_def_cfa_offset 24
 216              		.cfi_offset 4, -8
 217              		.cfi_offset 14, -4
 271:../Middlewares/stm32-mw-camera/sensors/vd1943/vd1943.c ****   assert(ret == 0);
 218              		.loc 1 271 9 view .LVU45
 219 0002 4821     		movs	r1, #72
 220 0004 8368     		ldr	r3, [r0, #8]
 221 0006 0DF10E02 		add	r2, sp, #14
 267:../Middlewares/stm32-mw-camera/sensors/vd1943/vd1943.c ****   uint16_t reg16;
 222              		.loc 1 267 1 view .LVU46
 223 000a 0446     		mov	r4, r0
 271:../Middlewares/stm32-mw-camera/sensors/vd1943/vd1943.c ****   assert(ret == 0);
 224              		.loc 1 271 9 view .LVU47
 225 000c 9847     		blx	r3
 226              	.LVL13:
 272:../Middlewares/stm32-mw-camera/sensors/vd1943/vd1943.c ****   VD1943_error(ctx, "ERROR_CODE : 0x%04x\n", reg16);
 227              		.loc 1 272 3 is_stmt 1 view .LVU48
 228 000e 0146     		mov	r1, r0
 229 0010 30B1     		cbz	r0, .L14
 230              	.LBB4:
 231              	.LBI4:
 266:../Middlewares/stm32-mw-camera/sensors/vd1943/vd1943.c **** {
 232              		.loc 1 266 13 view .LVU49
 233              	.LVL14:
 234              	.LBB5:
 272:../Middlewares/stm32-mw-camera/sensors/vd1943/vd1943.c ****   VD1943_error(ctx, "ERROR_CODE : 0x%04x\n", reg16);
 235              		.loc 1 272 3 is_stmt 0 discriminator 1 view .LVU50
 236 0012 4FF48871 		mov	r1, #272
 237 0016 084B     		ldr	r3, .L15
 238 0018 084A     		ldr	r2, .L15+4
 239 001a 0948     		ldr	r0, .L15+8
 240              	.LVL15:
 272:../Middlewares/stm32-mw-camera/sensors/vd1943/vd1943.c ****   VD1943_error(ctx, "ERROR_CODE : 0x%04x\n", reg16);
 241              		.loc 1 272 3 discriminator 1 view .LVU51
 242 001c FFF7FEFF 		bl	__assert_func
 243              	.LVL16:
 244              	.L14:
 272:../Middlewares/stm32-mw-camera/sensors/vd1943/vd1943.c ****   VD1943_error(ctx, "ERROR_CODE : 0x%04x\n", reg16);
ARM GAS  /tmp/ccydMd0r.s 			page 11


 245              		.loc 1 272 3 discriminator 1 view .LVU52
 246              	.LBE5:
 247              	.LBE4:
 273:../Middlewares/stm32-mw-camera/sensors/vd1943/vd1943.c **** }
 248              		.loc 1 273 3 is_stmt 1 view .LVU53
 273:../Middlewares/stm32-mw-camera/sensors/vd1943/vd1943.c **** }
 249              		.loc 1 273 3 view .LVU54
 250 0020 BDF80E30 		ldrh	r3, [sp, #14]
 251 0024 2046     		mov	r0, r4
 252              	.LVL17:
 273:../Middlewares/stm32-mw-camera/sensors/vd1943/vd1943.c **** }
 253              		.loc 1 273 3 is_stmt 0 view .LVU55
 254 0026 0093     		str	r3, [sp]
 255 0028 064A     		ldr	r2, .L15+12
 256 002a 40F21113 		movw	r3, #273
 257 002e FFF7FEFF 		bl	VD1943_log_impl
 258              	.LVL18:
 273:../Middlewares/stm32-mw-camera/sensors/vd1943/vd1943.c **** }
 259              		.loc 1 273 3 is_stmt 1 discriminator 1 view .LVU56
 274:../Middlewares/stm32-mw-camera/sensors/vd1943/vd1943.c **** 
 260              		.loc 1 274 1 is_stmt 0 view .LVU57
 261 0032 04B0     		add	sp, sp, #16
 262              		.cfi_def_cfa_offset 8
 263              		@ sp needed
 264 0034 10BD     		pop	{r4, pc}
 265              	.LVL19:
 266              	.L16:
 274:../Middlewares/stm32-mw-camera/sensors/vd1943/vd1943.c **** 
 267              		.loc 1 274 1 view .LVU58
 268 0036 00BF     		.align	2
 269              	.L15:
 270 0038 00000000 		.word	.LC1
 271 003c 00000000 		.word	__func__.34
 272 0040 09000000 		.word	.LC2
 273 0044 40000000 		.word	.LC3
 274              		.cfi_endproc
 275              	.LFE1:
 277              		.section	.rodata.VD1943_ComputeFrameLength.str1.1,"aMS",%progbits,1
 278              	.LC4:
 279 0000 56443139 		.ascii	"VD1943_ERR-%d : Error on %s:%d : %d\012\000"
 279      34335F45 
 279      52522D25 
 279      64203A20 
 279      4572726F 
 280              	.LC5:
 281 0025 56443139 		.ascii	"VD1943_DG%d-%d : frame_length to MAX(%d, %d) = %d t"
 281      34335F44 
 281      4725642D 
 281      2564203A 
 281      20667261 
 282 0058 6F207265 		.ascii	"o reach %d fps\012\000"
 282      61636820 
 282      25642066 
 282      70730A00 
 283              		.section	.text.VD1943_ComputeFrameLength,"ax",%progbits
 284              		.align	1
 285              		.syntax unified
ARM GAS  /tmp/ccydMd0r.s 			page 12


 286              		.thumb
 287              		.thumb_func
 289              	VD1943_ComputeFrameLength:
 290              	.LVL20:
 291              	.LFB33:
 297:../Middlewares/stm32-mw-camera/sensors/vd1943/vd1943.c **** 
 298:../Middlewares/stm32-mw-camera/sensors/vd1943/vd1943.c **** static int VD1943_WaitState(VD1943_Ctx_t *ctx, int state)
 299:../Middlewares/stm32-mw-camera/sensors/vd1943/vd1943.c **** {
 300:../Middlewares/stm32-mw-camera/sensors/vd1943/vd1943.c ****   int ret = VD1943_PollReg8(ctx, VD1943_REG_SYSTEM_FSM_STATE, state);
 301:../Middlewares/stm32-mw-camera/sensors/vd1943/vd1943.c **** 
 302:../Middlewares/stm32-mw-camera/sensors/vd1943/vd1943.c ****   if (ret)
 303:../Middlewares/stm32-mw-camera/sensors/vd1943/vd1943.c ****     VD1943_warn(ctx, "Unable to reach state %d\n", state);
 304:../Middlewares/stm32-mw-camera/sensors/vd1943/vd1943.c ****   else
 305:../Middlewares/stm32-mw-camera/sensors/vd1943/vd1943.c ****     VD1943_dbg(ctx, 0, "reach state %d\n", state);
 306:../Middlewares/stm32-mw-camera/sensors/vd1943/vd1943.c **** 
 307:../Middlewares/stm32-mw-camera/sensors/vd1943/vd1943.c ****   return ret;
 308:../Middlewares/stm32-mw-camera/sensors/vd1943/vd1943.c **** }
 309:../Middlewares/stm32-mw-camera/sensors/vd1943/vd1943.c **** 
 310:../Middlewares/stm32-mw-camera/sensors/vd1943/vd1943.c **** static int VD1943_ApplyCmdAndWait(VD1943_Ctx_t *ctx, uint16_t addr, uint8_t cmd)
 311:../Middlewares/stm32-mw-camera/sensors/vd1943/vd1943.c **** {
 312:../Middlewares/stm32-mw-camera/sensors/vd1943/vd1943.c ****   int ret;
 313:../Middlewares/stm32-mw-camera/sensors/vd1943/vd1943.c **** 
 314:../Middlewares/stm32-mw-camera/sensors/vd1943/vd1943.c ****   VD1943_dbg(ctx, 0, "Apply cmd %d to 0x%04x\n", cmd, addr);
 315:../Middlewares/stm32-mw-camera/sensors/vd1943/vd1943.c ****   ret = ctx->write8(ctx, addr, cmd);
 316:../Middlewares/stm32-mw-camera/sensors/vd1943/vd1943.c ****   VD1943_TraceError(ctx, ret);
 317:../Middlewares/stm32-mw-camera/sensors/vd1943/vd1943.c **** 
 318:../Middlewares/stm32-mw-camera/sensors/vd1943/vd1943.c ****   ret = VD1943_PollReg8(ctx, addr, VD1943_CMD_ACK);
 319:../Middlewares/stm32-mw-camera/sensors/vd1943/vd1943.c ****   VD1943_TraceError(ctx, ret);
 320:../Middlewares/stm32-mw-camera/sensors/vd1943/vd1943.c **** 
 321:../Middlewares/stm32-mw-camera/sensors/vd1943/vd1943.c ****   return 0;
 322:../Middlewares/stm32-mw-camera/sensors/vd1943/vd1943.c **** }
 323:../Middlewares/stm32-mw-camera/sensors/vd1943/vd1943.c **** 
 324:../Middlewares/stm32-mw-camera/sensors/vd1943/vd1943.c **** static int VD1943_CheckModelId(VD1943_Ctx_t *ctx)
 325:../Middlewares/stm32-mw-camera/sensors/vd1943/vd1943.c **** {
 326:../Middlewares/stm32-mw-camera/sensors/vd1943/vd1943.c ****   uint32_t reg32;
 327:../Middlewares/stm32-mw-camera/sensors/vd1943/vd1943.c ****   uint16_t reg16;
 328:../Middlewares/stm32-mw-camera/sensors/vd1943/vd1943.c ****   int ret;
 329:../Middlewares/stm32-mw-camera/sensors/vd1943/vd1943.c **** 
 330:../Middlewares/stm32-mw-camera/sensors/vd1943/vd1943.c ****   ret = ctx->read32(ctx, VD1943_REG_MODEL_ID, &reg32);
 331:../Middlewares/stm32-mw-camera/sensors/vd1943/vd1943.c ****   VD1943_TraceError(ctx, ret);
 332:../Middlewares/stm32-mw-camera/sensors/vd1943/vd1943.c ****   VD1943_dbg(ctx, 0, "model_id = 0x%08x\n", reg32);
 333:../Middlewares/stm32-mw-camera/sensors/vd1943/vd1943.c ****   if (reg32 != VD1943_MODEL_ID_1_3 && reg32 != VD1943_MODEL_ID_1_4) {
 334:../Middlewares/stm32-mw-camera/sensors/vd1943/vd1943.c ****     VD1943_error(ctx, "Unsupported model id: 0x%08x\n", reg32);
 335:../Middlewares/stm32-mw-camera/sensors/vd1943/vd1943.c ****     return -1;
 336:../Middlewares/stm32-mw-camera/sensors/vd1943/vd1943.c ****   }
 337:../Middlewares/stm32-mw-camera/sensors/vd1943/vd1943.c **** 
 338:../Middlewares/stm32-mw-camera/sensors/vd1943/vd1943.c ****   ret = ctx->read16(ctx, VD1943_REG_ROM_REVISION, &reg16);
 339:../Middlewares/stm32-mw-camera/sensors/vd1943/vd1943.c ****   VD1943_TraceError(ctx, ret);
 340:../Middlewares/stm32-mw-camera/sensors/vd1943/vd1943.c ****   VD1943_dbg(ctx, 0, "rom revision = 0x%08x\n", reg16);
 341:../Middlewares/stm32-mw-camera/sensors/vd1943/vd1943.c ****   if (reg16 == VD1943_ROM_REVISION_13) {
 342:../Middlewares/stm32-mw-camera/sensors/vd1943/vd1943.c ****     ctx->ctx.is_fastboot = 0;
 343:../Middlewares/stm32-mw-camera/sensors/vd1943/vd1943.c ****   } else if (reg16 == VD1943_ROM_REVISION_14) {
 344:../Middlewares/stm32-mw-camera/sensors/vd1943/vd1943.c ****     ctx->ctx.is_fastboot = 1;
 345:../Middlewares/stm32-mw-camera/sensors/vd1943/vd1943.c ****   } else {
 346:../Middlewares/stm32-mw-camera/sensors/vd1943/vd1943.c ****     VD1943_error(ctx, "Unsupported rom revision: 0x%08x\n", reg16);
 347:../Middlewares/stm32-mw-camera/sensors/vd1943/vd1943.c ****     return -1;
 348:../Middlewares/stm32-mw-camera/sensors/vd1943/vd1943.c ****   }
ARM GAS  /tmp/ccydMd0r.s 			page 13


 349:../Middlewares/stm32-mw-camera/sensors/vd1943/vd1943.c **** 
 350:../Middlewares/stm32-mw-camera/sensors/vd1943/vd1943.c ****   if (ctx->ctx.is_fastboot) {
 351:../Middlewares/stm32-mw-camera/sensors/vd1943/vd1943.c ****     ret = ctx->read16(ctx, VD1943_REG_CFA_SELECTION, &reg16);
 352:../Middlewares/stm32-mw-camera/sensors/vd1943/vd1943.c ****     VD1943_TraceError(ctx, ret);
 353:../Middlewares/stm32-mw-camera/sensors/vd1943/vd1943.c ****     VD1943_dbg(ctx, 0, "optical revision = 0x%04x\n", reg16);
 354:../Middlewares/stm32-mw-camera/sensors/vd1943/vd1943.c ****     ctx->ctx.is_mono = (reg16 == VD1943_OPTICAL_MONO);
 355:../Middlewares/stm32-mw-camera/sensors/vd1943/vd1943.c ****   } else {
 356:../Middlewares/stm32-mw-camera/sensors/vd1943/vd1943.c ****     /* On cut 1.3 it's not possible to differentiate versions */
 357:../Middlewares/stm32-mw-camera/sensors/vd1943/vd1943.c **** #ifdef USE_VD5943_SENSOR
 358:../Middlewares/stm32-mw-camera/sensors/vd1943/vd1943.c ****     ctx->ctx.is_mono = 1;
 359:../Middlewares/stm32-mw-camera/sensors/vd1943/vd1943.c **** #else
 360:../Middlewares/stm32-mw-camera/sensors/vd1943/vd1943.c ****     ctx->ctx.is_mono = 0;
 361:../Middlewares/stm32-mw-camera/sensors/vd1943/vd1943.c **** #endif
 362:../Middlewares/stm32-mw-camera/sensors/vd1943/vd1943.c ****   }
 363:../Middlewares/stm32-mw-camera/sensors/vd1943/vd1943.c **** 
 364:../Middlewares/stm32-mw-camera/sensors/vd1943/vd1943.c ****   return 0;
 365:../Middlewares/stm32-mw-camera/sensors/vd1943/vd1943.c **** }
 366:../Middlewares/stm32-mw-camera/sensors/vd1943/vd1943.c **** 
 367:../Middlewares/stm32-mw-camera/sensors/vd1943/vd1943.c **** static int VD1943_GoToBootState(VD1943_Ctx_t *ctx)
 368:../Middlewares/stm32-mw-camera/sensors/vd1943/vd1943.c **** {
 369:../Middlewares/stm32-mw-camera/sensors/vd1943/vd1943.c ****   int ret;
 370:../Middlewares/stm32-mw-camera/sensors/vd1943/vd1943.c **** 
 371:../Middlewares/stm32-mw-camera/sensors/vd1943/vd1943.c ****   ret = VD1943_ApplyCmdAndWait(ctx, VD1943_REG_SYSTEM_UP, VD1943_CMD_START_SENSOR);
 372:../Middlewares/stm32-mw-camera/sensors/vd1943/vd1943.c ****   if (ret)
 373:../Middlewares/stm32-mw-camera/sensors/vd1943/vd1943.c ****     return ret;
 374:../Middlewares/stm32-mw-camera/sensors/vd1943/vd1943.c **** 
 375:../Middlewares/stm32-mw-camera/sensors/vd1943/vd1943.c ****   ret = VD1943_WaitState(ctx, VD1943_BOOT);
 376:../Middlewares/stm32-mw-camera/sensors/vd1943/vd1943.c ****   if (ret)
 377:../Middlewares/stm32-mw-camera/sensors/vd1943/vd1943.c ****     return ret;
 378:../Middlewares/stm32-mw-camera/sensors/vd1943/vd1943.c **** 
 379:../Middlewares/stm32-mw-camera/sensors/vd1943/vd1943.c ****   return 0;
 380:../Middlewares/stm32-mw-camera/sensors/vd1943/vd1943.c **** }
 381:../Middlewares/stm32-mw-camera/sensors/vd1943/vd1943.c **** 
 382:../Middlewares/stm32-mw-camera/sensors/vd1943/vd1943.c **** static int VD1943_ApplyCertificate(VD1943_Ctx_t *ctx)
 383:../Middlewares/stm32-mw-camera/sensors/vd1943/vd1943.c **** {
 384:../Middlewares/stm32-mw-camera/sensors/vd1943/vd1943.c ****   struct drv_vd1943_ctx *drv_vd1943_ctx = &ctx->ctx;
 385:../Middlewares/stm32-mw-camera/sensors/vd1943/vd1943.c ****   int ret;
 386:../Middlewares/stm32-mw-camera/sensors/vd1943/vd1943.c **** 
 387:../Middlewares/stm32-mw-camera/sensors/vd1943/vd1943.c ****   if (drv_vd1943_ctx->is_mono) {
 388:../Middlewares/stm32-mw-camera/sensors/vd1943/vd1943.c ****       ret = ctx->write_array(ctx, VD1943_REG_CERTIFICATE_AREA_START_ADDR, (uint8_t *)fw_patch_13_mo
 389:../Middlewares/stm32-mw-camera/sensors/vd1943/vd1943.c ****                              sizeof(fw_patch_13_mono_cert));
 390:../Middlewares/stm32-mw-camera/sensors/vd1943/vd1943.c ****   } else {
 391:../Middlewares/stm32-mw-camera/sensors/vd1943/vd1943.c ****       ret = ctx->write_array(ctx, VD1943_REG_CERTIFICATE_AREA_START_ADDR, (uint8_t *)fw_patch_13_rg
 392:../Middlewares/stm32-mw-camera/sensors/vd1943/vd1943.c ****                              sizeof(fw_patch_13_rgbnir_cert));
 393:../Middlewares/stm32-mw-camera/sensors/vd1943/vd1943.c ****   }
 394:../Middlewares/stm32-mw-camera/sensors/vd1943/vd1943.c ****   VD1943_TraceError(ctx, ret);
 395:../Middlewares/stm32-mw-camera/sensors/vd1943/vd1943.c **** 
 396:../Middlewares/stm32-mw-camera/sensors/vd1943/vd1943.c ****   ret = VD1943_ApplyCmdAndWait(ctx, VD1943_REG_BOOT, VD1943_CMD_LOAD_CERTIFICATE);
 397:../Middlewares/stm32-mw-camera/sensors/vd1943/vd1943.c ****   if (ret)
 398:../Middlewares/stm32-mw-camera/sensors/vd1943/vd1943.c ****     return ret;
 399:../Middlewares/stm32-mw-camera/sensors/vd1943/vd1943.c **** 
 400:../Middlewares/stm32-mw-camera/sensors/vd1943/vd1943.c ****   return 0;
 401:../Middlewares/stm32-mw-camera/sensors/vd1943/vd1943.c **** }
 402:../Middlewares/stm32-mw-camera/sensors/vd1943/vd1943.c **** 
 403:../Middlewares/stm32-mw-camera/sensors/vd1943/vd1943.c **** static int VD1943_ApplyFwPatch(VD1943_Ctx_t *ctx)
 404:../Middlewares/stm32-mw-camera/sensors/vd1943/vd1943.c **** {
 405:../Middlewares/stm32-mw-camera/sensors/vd1943/vd1943.c ****   struct drv_vd1943_ctx *drv_vd1943_ctx = &ctx->ctx;
ARM GAS  /tmp/ccydMd0r.s 			page 14


 406:../Middlewares/stm32-mw-camera/sensors/vd1943/vd1943.c ****   uint16_t reg16;
 407:../Middlewares/stm32-mw-camera/sensors/vd1943/vd1943.c ****   int ret;
 408:../Middlewares/stm32-mw-camera/sensors/vd1943/vd1943.c **** 
 409:../Middlewares/stm32-mw-camera/sensors/vd1943/vd1943.c ****   if (drv_vd1943_ctx->is_mono) {
 410:../Middlewares/stm32-mw-camera/sensors/vd1943/vd1943.c ****       ret = ctx->write_array(ctx, VD1943_REG_FWPATCH_START_ADDR, (uint8_t *)fw_patch_13_mono_array,
 411:../Middlewares/stm32-mw-camera/sensors/vd1943/vd1943.c ****                              sizeof(fw_patch_13_mono_array));
 412:../Middlewares/stm32-mw-camera/sensors/vd1943/vd1943.c ****   } else {
 413:../Middlewares/stm32-mw-camera/sensors/vd1943/vd1943.c ****       ret = ctx->write_array(ctx, VD1943_REG_FWPATCH_START_ADDR, (uint8_t *)fw_patch_13_rgbnir_arra
 414:../Middlewares/stm32-mw-camera/sensors/vd1943/vd1943.c ****                              sizeof(fw_patch_13_rgbnir_array));
 415:../Middlewares/stm32-mw-camera/sensors/vd1943/vd1943.c ****   }
 416:../Middlewares/stm32-mw-camera/sensors/vd1943/vd1943.c ****   VD1943_TraceError(ctx, ret);
 417:../Middlewares/stm32-mw-camera/sensors/vd1943/vd1943.c **** 
 418:../Middlewares/stm32-mw-camera/sensors/vd1943/vd1943.c ****   ret = VD1943_ApplyCmdAndWait(ctx, VD1943_REG_BOOT, VD1943_CMD_LOAD_FWP);
 419:../Middlewares/stm32-mw-camera/sensors/vd1943/vd1943.c ****   if (ret)
 420:../Middlewares/stm32-mw-camera/sensors/vd1943/vd1943.c ****     return ret;
 421:../Middlewares/stm32-mw-camera/sensors/vd1943/vd1943.c **** 
 422:../Middlewares/stm32-mw-camera/sensors/vd1943/vd1943.c ****   ret = ctx->read16(ctx, VD1943_FWPATCH_REVISION, &reg16);
 423:../Middlewares/stm32-mw-camera/sensors/vd1943/vd1943.c ****   VD1943_TraceError(ctx, ret);
 424:../Middlewares/stm32-mw-camera/sensors/vd1943/vd1943.c ****   VD1943_notice(ctx, "patch = %d.%d\n", reg16 >> 8, reg16 & 0xff);
 425:../Middlewares/stm32-mw-camera/sensors/vd1943/vd1943.c **** 
 426:../Middlewares/stm32-mw-camera/sensors/vd1943/vd1943.c ****   return 0;
 427:../Middlewares/stm32-mw-camera/sensors/vd1943/vd1943.c **** }
 428:../Middlewares/stm32-mw-camera/sensors/vd1943/vd1943.c **** 
 429:../Middlewares/stm32-mw-camera/sensors/vd1943/vd1943.c **** static int VD1943_GoToStandbyState(VD1943_Ctx_t *ctx)
 430:../Middlewares/stm32-mw-camera/sensors/vd1943/vd1943.c **** {
 431:../Middlewares/stm32-mw-camera/sensors/vd1943/vd1943.c ****   struct drv_vd1943_ctx *drv_vd1943_ctx = &ctx->ctx;
 432:../Middlewares/stm32-mw-camera/sensors/vd1943/vd1943.c ****   int ret;
 433:../Middlewares/stm32-mw-camera/sensors/vd1943/vd1943.c **** 
 434:../Middlewares/stm32-mw-camera/sensors/vd1943/vd1943.c ****   /* Need to setup input clock before boot */
 435:../Middlewares/stm32-mw-camera/sensors/vd1943/vd1943.c ****   ret = ctx->write32(ctx, VD1943_REG_EXT_CLOCK, drv_vd1943_ctx->config_save.ext_clock_freq_in_hz);
 436:../Middlewares/stm32-mw-camera/sensors/vd1943/vd1943.c ****   VD1943_TraceError(ctx, ret);
 437:../Middlewares/stm32-mw-camera/sensors/vd1943/vd1943.c **** 
 438:../Middlewares/stm32-mw-camera/sensors/vd1943/vd1943.c ****   ret = VD1943_ApplyCmdAndWait(ctx, VD1943_REG_BOOT, VD1943_CMD_END_BOOT);
 439:../Middlewares/stm32-mw-camera/sensors/vd1943/vd1943.c ****   if (ret)
 440:../Middlewares/stm32-mw-camera/sensors/vd1943/vd1943.c ****     return ret;
 441:../Middlewares/stm32-mw-camera/sensors/vd1943/vd1943.c **** 
 442:../Middlewares/stm32-mw-camera/sensors/vd1943/vd1943.c ****   ret = VD1943_WaitState(ctx, VD1943_SW_STBY);
 443:../Middlewares/stm32-mw-camera/sensors/vd1943/vd1943.c ****   if (ret)
 444:../Middlewares/stm32-mw-camera/sensors/vd1943/vd1943.c ****     return ret;
 445:../Middlewares/stm32-mw-camera/sensors/vd1943/vd1943.c **** 
 446:../Middlewares/stm32-mw-camera/sensors/vd1943/vd1943.c ****   return 0;
 447:../Middlewares/stm32-mw-camera/sensors/vd1943/vd1943.c **** }
 448:../Middlewares/stm32-mw-camera/sensors/vd1943/vd1943.c **** 
 449:../Middlewares/stm32-mw-camera/sensors/vd1943/vd1943.c **** static int VD1943_ApplyVTPatch(VD1943_Ctx_t *ctx)
 450:../Middlewares/stm32-mw-camera/sensors/vd1943/vd1943.c **** {
 451:../Middlewares/stm32-mw-camera/sensors/vd1943/vd1943.c ****   int ret;
 452:../Middlewares/stm32-mw-camera/sensors/vd1943/vd1943.c **** 
 453:../Middlewares/stm32-mw-camera/sensors/vd1943/vd1943.c ****   ret = VD1943_ApplyCmdAndWait(ctx, VD1943_REG_SW_STBY, VD1943_CMD_UPDATE_VT_RAM_START);
 454:../Middlewares/stm32-mw-camera/sensors/vd1943/vd1943.c ****   if (ret)
 455:../Middlewares/stm32-mw-camera/sensors/vd1943/vd1943.c ****     return ret;
 456:../Middlewares/stm32-mw-camera/sensors/vd1943/vd1943.c **** 
 457:../Middlewares/stm32-mw-camera/sensors/vd1943/vd1943.c ****   ret = ctx->write_array(ctx, 0x5bc0, (uint8_t *) gt_ram_pat_content, sizeof(gt_ram_pat_content));
 458:../Middlewares/stm32-mw-camera/sensors/vd1943/vd1943.c ****   VD1943_TraceError(ctx, ret);
 459:../Middlewares/stm32-mw-camera/sensors/vd1943/vd1943.c **** 
 460:../Middlewares/stm32-mw-camera/sensors/vd1943/vd1943.c ****   ret = ctx->write_array(ctx, 0x5e40, (uint8_t *) gt_ram_seq1_content, sizeof(gt_ram_seq1_content))
 461:../Middlewares/stm32-mw-camera/sensors/vd1943/vd1943.c ****   VD1943_TraceError(ctx, ret);
 462:../Middlewares/stm32-mw-camera/sensors/vd1943/vd1943.c **** 
ARM GAS  /tmp/ccydMd0r.s 			page 15


 463:../Middlewares/stm32-mw-camera/sensors/vd1943/vd1943.c ****   ret = ctx->write_array(ctx, 0x5f80, (uint8_t *) gt_ram_seq2_content, sizeof(gt_ram_seq2_content))
 464:../Middlewares/stm32-mw-camera/sensors/vd1943/vd1943.c ****   VD1943_TraceError(ctx, ret);
 465:../Middlewares/stm32-mw-camera/sensors/vd1943/vd1943.c **** 
 466:../Middlewares/stm32-mw-camera/sensors/vd1943/vd1943.c ****   ret = ctx->write_array(ctx, 0x60c0, (uint8_t *) gt_ram_seq3_content, sizeof(gt_ram_seq3_content))
 467:../Middlewares/stm32-mw-camera/sensors/vd1943/vd1943.c ****   VD1943_TraceError(ctx, ret);
 468:../Middlewares/stm32-mw-camera/sensors/vd1943/vd1943.c **** 
 469:../Middlewares/stm32-mw-camera/sensors/vd1943/vd1943.c ****   ret = ctx->write_array(ctx, 0x6160, (uint8_t *) gt_ram_seq4_content, sizeof(gt_ram_seq4_content))
 470:../Middlewares/stm32-mw-camera/sensors/vd1943/vd1943.c ****   VD1943_TraceError(ctx, ret);
 471:../Middlewares/stm32-mw-camera/sensors/vd1943/vd1943.c **** 
 472:../Middlewares/stm32-mw-camera/sensors/vd1943/vd1943.c ****   ret = ctx->write_array(ctx, 0x6ac0, (uint8_t *) rd_ram_pat_content, sizeof(rd_ram_pat_content));
 473:../Middlewares/stm32-mw-camera/sensors/vd1943/vd1943.c ****   VD1943_TraceError(ctx, ret);
 474:../Middlewares/stm32-mw-camera/sensors/vd1943/vd1943.c **** 
 475:../Middlewares/stm32-mw-camera/sensors/vd1943/vd1943.c ****   ret = ctx->write_array(ctx, 0x5000, (uint8_t *) rd_ram_seq1_content, sizeof(rd_ram_seq1_content))
 476:../Middlewares/stm32-mw-camera/sensors/vd1943/vd1943.c ****   VD1943_TraceError(ctx, ret);
 477:../Middlewares/stm32-mw-camera/sensors/vd1943/vd1943.c **** 
 478:../Middlewares/stm32-mw-camera/sensors/vd1943/vd1943.c ****   ret = VD1943_ApplyCmdAndWait(ctx, VD1943_REG_SW_STBY, VD1943_CMD_UPDATE_VT_RAM_END);
 479:../Middlewares/stm32-mw-camera/sensors/vd1943/vd1943.c ****   if (ret)
 480:../Middlewares/stm32-mw-camera/sensors/vd1943/vd1943.c ****     return ret;
 481:../Middlewares/stm32-mw-camera/sensors/vd1943/vd1943.c **** 
 482:../Middlewares/stm32-mw-camera/sensors/vd1943/vd1943.c ****   return 0;
 483:../Middlewares/stm32-mw-camera/sensors/vd1943/vd1943.c **** }
 484:../Middlewares/stm32-mw-camera/sensors/vd1943/vd1943.c **** 
 485:../Middlewares/stm32-mw-camera/sensors/vd1943/vd1943.c **** static int VD1943_SetDigitalGain_RGB(VD1943_Ctx_t *ctx, unsigned int gain)
 486:../Middlewares/stm32-mw-camera/sensors/vd1943/vd1943.c **** {
 487:../Middlewares/stm32-mw-camera/sensors/vd1943/vd1943.c ****   int ret;
 488:../Middlewares/stm32-mw-camera/sensors/vd1943/vd1943.c **** 
 489:../Middlewares/stm32-mw-camera/sensors/vd1943/vd1943.c ****   ret = ctx->write16(ctx, VD1943_DIGITAL_GAIN_R(0), gain);
 490:../Middlewares/stm32-mw-camera/sensors/vd1943/vd1943.c ****   VD1943_TraceError(ctx, ret);
 491:../Middlewares/stm32-mw-camera/sensors/vd1943/vd1943.c ****   ret = ctx->write16(ctx, VD1943_DIGITAL_GAIN_G(0), gain);
 492:../Middlewares/stm32-mw-camera/sensors/vd1943/vd1943.c ****   VD1943_TraceError(ctx, ret);
 493:../Middlewares/stm32-mw-camera/sensors/vd1943/vd1943.c ****   ret = ctx->write16(ctx, VD1943_DIGITAL_GAIN_B(0), gain);
 494:../Middlewares/stm32-mw-camera/sensors/vd1943/vd1943.c ****   VD1943_TraceError(ctx, ret);
 495:../Middlewares/stm32-mw-camera/sensors/vd1943/vd1943.c **** 
 496:../Middlewares/stm32-mw-camera/sensors/vd1943/vd1943.c ****   return 0;
 497:../Middlewares/stm32-mw-camera/sensors/vd1943/vd1943.c **** }
 498:../Middlewares/stm32-mw-camera/sensors/vd1943/vd1943.c **** 
 499:../Middlewares/stm32-mw-camera/sensors/vd1943/vd1943.c **** static int VD1943_SetDigitalGain_IR(VD1943_Ctx_t *ctx, unsigned int gain)
 500:../Middlewares/stm32-mw-camera/sensors/vd1943/vd1943.c **** {
 501:../Middlewares/stm32-mw-camera/sensors/vd1943/vd1943.c ****   int ret;
 502:../Middlewares/stm32-mw-camera/sensors/vd1943/vd1943.c **** 
 503:../Middlewares/stm32-mw-camera/sensors/vd1943/vd1943.c ****   ret = ctx->write16(ctx, VD1943_DIGITAL_GAIN_IR(0), gain);
 504:../Middlewares/stm32-mw-camera/sensors/vd1943/vd1943.c ****   VD1943_TraceError(ctx, ret);
 505:../Middlewares/stm32-mw-camera/sensors/vd1943/vd1943.c **** 
 506:../Middlewares/stm32-mw-camera/sensors/vd1943/vd1943.c ****   return 0;
 507:../Middlewares/stm32-mw-camera/sensors/vd1943/vd1943.c **** }
 508:../Middlewares/stm32-mw-camera/sensors/vd1943/vd1943.c **** 
 509:../Middlewares/stm32-mw-camera/sensors/vd1943/vd1943.c **** static int VD1943_SetDigitalGain_RGBNIR(VD1943_Ctx_t *ctx, unsigned int gain)
 510:../Middlewares/stm32-mw-camera/sensors/vd1943/vd1943.c **** {
 511:../Middlewares/stm32-mw-camera/sensors/vd1943/vd1943.c ****   int ret;
 512:../Middlewares/stm32-mw-camera/sensors/vd1943/vd1943.c **** 
 513:../Middlewares/stm32-mw-camera/sensors/vd1943/vd1943.c ****   ret = VD1943_SetDigitalGain_RGB(ctx, gain);
 514:../Middlewares/stm32-mw-camera/sensors/vd1943/vd1943.c ****   if (ret)
 515:../Middlewares/stm32-mw-camera/sensors/vd1943/vd1943.c ****     return ret;
 516:../Middlewares/stm32-mw-camera/sensors/vd1943/vd1943.c ****   ret = VD1943_SetDigitalGain_IR(ctx, gain);
 517:../Middlewares/stm32-mw-camera/sensors/vd1943/vd1943.c ****   if (ret)
 518:../Middlewares/stm32-mw-camera/sensors/vd1943/vd1943.c ****     return ret;
 519:../Middlewares/stm32-mw-camera/sensors/vd1943/vd1943.c **** 
ARM GAS  /tmp/ccydMd0r.s 			page 16


 520:../Middlewares/stm32-mw-camera/sensors/vd1943/vd1943.c ****   return 0;
 521:../Middlewares/stm32-mw-camera/sensors/vd1943/vd1943.c **** }
 522:../Middlewares/stm32-mw-camera/sensors/vd1943/vd1943.c **** 
 523:../Middlewares/stm32-mw-camera/sensors/vd1943/vd1943.c **** static int VD1943_GetExpoCommon(VD1943_Ctx_t *ctx, unsigned int *expo_in_us)
 524:../Middlewares/stm32-mw-camera/sensors/vd1943/vd1943.c **** {
 525:../Middlewares/stm32-mw-camera/sensors/vd1943/vd1943.c ****   uint16_t reg16;
 526:../Middlewares/stm32-mw-camera/sensors/vd1943/vd1943.c ****   int ret;
 527:../Middlewares/stm32-mw-camera/sensors/vd1943/vd1943.c **** 
 528:../Middlewares/stm32-mw-camera/sensors/vd1943/vd1943.c ****   ret = ctx->read16(ctx, VD1943_REG_INTEGRATION_TIME_PRIMARY(0), &reg16);
 529:../Middlewares/stm32-mw-camera/sensors/vd1943/vd1943.c ****   VD1943_TraceError(ctx, ret);
 530:../Middlewares/stm32-mw-camera/sensors/vd1943/vd1943.c ****   *expo_in_us = (reg16 * VD1943_LINE_TIME_IN_NS) / 1000;
 531:../Middlewares/stm32-mw-camera/sensors/vd1943/vd1943.c **** 
 532:../Middlewares/stm32-mw-camera/sensors/vd1943/vd1943.c ****   return 0;
 533:../Middlewares/stm32-mw-camera/sensors/vd1943/vd1943.c **** }
 534:../Middlewares/stm32-mw-camera/sensors/vd1943/vd1943.c **** 
 535:../Middlewares/stm32-mw-camera/sensors/vd1943/vd1943.c **** static int VD1943_SetExpo_GS(VD1943_Ctx_t *ctx, unsigned int expo_in_us)
 536:../Middlewares/stm32-mw-camera/sensors/vd1943/vd1943.c **** {
 537:../Middlewares/stm32-mw-camera/sensors/vd1943/vd1943.c ****   unsigned int expo_in_line = (expo_in_us * 1000 + VD1943_LINE_TIME_IN_NS - 1) / VD1943_LINE_TIME_I
 538:../Middlewares/stm32-mw-camera/sensors/vd1943/vd1943.c ****   int ret;
 539:../Middlewares/stm32-mw-camera/sensors/vd1943/vd1943.c **** 
 540:../Middlewares/stm32-mw-camera/sensors/vd1943/vd1943.c ****   if (expo_in_line < 4)
 541:../Middlewares/stm32-mw-camera/sensors/vd1943/vd1943.c ****     return -1;
 542:../Middlewares/stm32-mw-camera/sensors/vd1943/vd1943.c **** 
 543:../Middlewares/stm32-mw-camera/sensors/vd1943/vd1943.c ****   ret = ctx->write16(ctx, VD1943_REG_INTEGRATION_TIME_PRIMARY(0), expo_in_line);
 544:../Middlewares/stm32-mw-camera/sensors/vd1943/vd1943.c ****   VD1943_TraceError(ctx, ret);
 545:../Middlewares/stm32-mw-camera/sensors/vd1943/vd1943.c **** 
 546:../Middlewares/stm32-mw-camera/sensors/vd1943/vd1943.c ****   return 0;
 547:../Middlewares/stm32-mw-camera/sensors/vd1943/vd1943.c **** }
 548:../Middlewares/stm32-mw-camera/sensors/vd1943/vd1943.c **** 
 549:../Middlewares/stm32-mw-camera/sensors/vd1943/vd1943.c **** static int VD1943_SetExpoSplit_GS(VD1943_Ctx_t *ctx, unsigned int expo_in_us)
 550:../Middlewares/stm32-mw-camera/sensors/vd1943/vd1943.c **** {
 551:../Middlewares/stm32-mw-camera/sensors/vd1943/vd1943.c ****   unsigned int expo_in_line = (expo_in_us * 1000 + VD1943_LINE_TIME_IN_NS - 1) / VD1943_LINE_TIME_I
 552:../Middlewares/stm32-mw-camera/sensors/vd1943/vd1943.c ****   int ret;
 553:../Middlewares/stm32-mw-camera/sensors/vd1943/vd1943.c **** 
 554:../Middlewares/stm32-mw-camera/sensors/vd1943/vd1943.c ****   if (expo_in_line < 4)
 555:../Middlewares/stm32-mw-camera/sensors/vd1943/vd1943.c ****     return -1;
 556:../Middlewares/stm32-mw-camera/sensors/vd1943/vd1943.c **** 
 557:../Middlewares/stm32-mw-camera/sensors/vd1943/vd1943.c ****   ret = ctx->write16(ctx, VD1943_REG_INTEGRATION_TIME_PRIMARY(0), expo_in_line);
 558:../Middlewares/stm32-mw-camera/sensors/vd1943/vd1943.c ****   VD1943_TraceError(ctx, ret);
 559:../Middlewares/stm32-mw-camera/sensors/vd1943/vd1943.c **** 
 560:../Middlewares/stm32-mw-camera/sensors/vd1943/vd1943.c ****   ret = ctx->write16(ctx, VD1943_REG_INTEGRATION_TIME_IR(0), expo_in_line);
 561:../Middlewares/stm32-mw-camera/sensors/vd1943/vd1943.c ****   VD1943_TraceError(ctx, ret);
 562:../Middlewares/stm32-mw-camera/sensors/vd1943/vd1943.c **** 
 563:../Middlewares/stm32-mw-camera/sensors/vd1943/vd1943.c ****   return 0;
 564:../Middlewares/stm32-mw-camera/sensors/vd1943/vd1943.c **** }
 565:../Middlewares/stm32-mw-camera/sensors/vd1943/vd1943.c **** 
 566:../Middlewares/stm32-mw-camera/sensors/vd1943/vd1943.c **** static int VD1943_GetExpo_GS(VD1943_Ctx_t *ctx, unsigned int *expo_in_us)
 567:../Middlewares/stm32-mw-camera/sensors/vd1943/vd1943.c **** {
 568:../Middlewares/stm32-mw-camera/sensors/vd1943/vd1943.c ****   return VD1943_GetExpoCommon(ctx, expo_in_us);
 569:../Middlewares/stm32-mw-camera/sensors/vd1943/vd1943.c **** }
 570:../Middlewares/stm32-mw-camera/sensors/vd1943/vd1943.c **** 
 571:../Middlewares/stm32-mw-camera/sensors/vd1943/vd1943.c **** static int VD1943_SetExpo_RS(VD1943_Ctx_t *ctx, unsigned int expo_in_us)
 572:../Middlewares/stm32-mw-camera/sensors/vd1943/vd1943.c **** {
 573:../Middlewares/stm32-mw-camera/sensors/vd1943/vd1943.c ****   unsigned int expo_in_line = (expo_in_us * 1000 + VD1943_LINE_TIME_IN_NS - 1) / VD1943_LINE_TIME_I
 574:../Middlewares/stm32-mw-camera/sensors/vd1943/vd1943.c ****   int ret;
 575:../Middlewares/stm32-mw-camera/sensors/vd1943/vd1943.c **** 
 576:../Middlewares/stm32-mw-camera/sensors/vd1943/vd1943.c ****   if (expo_in_line < 2)
ARM GAS  /tmp/ccydMd0r.s 			page 17


 577:../Middlewares/stm32-mw-camera/sensors/vd1943/vd1943.c ****     return -1;
 578:../Middlewares/stm32-mw-camera/sensors/vd1943/vd1943.c **** 
 579:../Middlewares/stm32-mw-camera/sensors/vd1943/vd1943.c ****   ret = ctx->write16(ctx, VD1943_REG_INTEGRATION_TIME_PRIMARY(0), expo_in_line);
 580:../Middlewares/stm32-mw-camera/sensors/vd1943/vd1943.c ****   VD1943_TraceError(ctx, ret);
 581:../Middlewares/stm32-mw-camera/sensors/vd1943/vd1943.c **** 
 582:../Middlewares/stm32-mw-camera/sensors/vd1943/vd1943.c ****   return 0;
 583:../Middlewares/stm32-mw-camera/sensors/vd1943/vd1943.c **** }
 584:../Middlewares/stm32-mw-camera/sensors/vd1943/vd1943.c **** 
 585:../Middlewares/stm32-mw-camera/sensors/vd1943/vd1943.c **** static int VD1943_GetExpo_RS(VD1943_Ctx_t *ctx, unsigned int *expo_in_us)
 586:../Middlewares/stm32-mw-camera/sensors/vd1943/vd1943.c **** {
 587:../Middlewares/stm32-mw-camera/sensors/vd1943/vd1943.c ****   return VD1943_GetExpoCommon(ctx, expo_in_us);
 588:../Middlewares/stm32-mw-camera/sensors/vd1943/vd1943.c **** }
 589:../Middlewares/stm32-mw-camera/sensors/vd1943/vd1943.c **** 
 590:../Middlewares/stm32-mw-camera/sensors/vd1943/vd1943.c **** static int VD1943_SetExpo_RS_HDR(VD1943_Ctx_t *ctx, unsigned int expo_in_us)
 591:../Middlewares/stm32-mw-camera/sensors/vd1943/vd1943.c **** {
 592:../Middlewares/stm32-mw-camera/sensors/vd1943/vd1943.c ****   /* we use a short expo ratio of 1/20 */
 593:../Middlewares/stm32-mw-camera/sensors/vd1943/vd1943.c ****   unsigned int expo_short_in_line = (expo_in_us * 50 + VD1943_LINE_TIME_IN_NS - 1) / VD1943_LINE_TI
 594:../Middlewares/stm32-mw-camera/sensors/vd1943/vd1943.c ****   int ret;
 595:../Middlewares/stm32-mw-camera/sensors/vd1943/vd1943.c **** 
 596:../Middlewares/stm32-mw-camera/sensors/vd1943/vd1943.c ****   ret = VD1943_SetExpo_RS(ctx, expo_in_us);
 597:../Middlewares/stm32-mw-camera/sensors/vd1943/vd1943.c ****   if (ret)
 598:../Middlewares/stm32-mw-camera/sensors/vd1943/vd1943.c ****     return ret;
 599:../Middlewares/stm32-mw-camera/sensors/vd1943/vd1943.c **** 
 600:../Middlewares/stm32-mw-camera/sensors/vd1943/vd1943.c ****   expo_short_in_line = MAX(2, expo_short_in_line);
 601:../Middlewares/stm32-mw-camera/sensors/vd1943/vd1943.c ****   ret = ctx->write16(ctx, VD1943_REG_INTEGRATION_TIME_SHORT(0), expo_short_in_line);
 602:../Middlewares/stm32-mw-camera/sensors/vd1943/vd1943.c ****   VD1943_TraceError(ctx, ret);
 603:../Middlewares/stm32-mw-camera/sensors/vd1943/vd1943.c **** 
 604:../Middlewares/stm32-mw-camera/sensors/vd1943/vd1943.c ****   return 0;
 605:../Middlewares/stm32-mw-camera/sensors/vd1943/vd1943.c **** }
 606:../Middlewares/stm32-mw-camera/sensors/vd1943/vd1943.c **** 
 607:../Middlewares/stm32-mw-camera/sensors/vd1943/vd1943.c **** static int VD1943_SetBayerType_RGB(VD1943_Ctx_t *ctx)
 608:../Middlewares/stm32-mw-camera/sensors/vd1943/vd1943.c **** {
 609:../Middlewares/stm32-mw-camera/sensors/vd1943/vd1943.c ****   struct drv_vd1943_ctx *drv_vd1943_ctx = &ctx->ctx;
 610:../Middlewares/stm32-mw-camera/sensors/vd1943/vd1943.c **** 
 611:../Middlewares/stm32-mw-camera/sensors/vd1943/vd1943.c ****   switch (drv_vd1943_ctx->config_save.flip_mirror_mode) {
 612:../Middlewares/stm32-mw-camera/sensors/vd1943/vd1943.c ****   case VD1943_MIRROR_FLIP_NONE:
 613:../Middlewares/stm32-mw-camera/sensors/vd1943/vd1943.c ****     ctx->bayer = VD1943_BAYER_GBRG;
 614:../Middlewares/stm32-mw-camera/sensors/vd1943/vd1943.c ****     break;
 615:../Middlewares/stm32-mw-camera/sensors/vd1943/vd1943.c ****   case VD1943_FLIP:
 616:../Middlewares/stm32-mw-camera/sensors/vd1943/vd1943.c ****     ctx->bayer = VD1943_BAYER_RGGB;
 617:../Middlewares/stm32-mw-camera/sensors/vd1943/vd1943.c ****     break;
 618:../Middlewares/stm32-mw-camera/sensors/vd1943/vd1943.c ****   case VD1943_MIRROR:
 619:../Middlewares/stm32-mw-camera/sensors/vd1943/vd1943.c ****     ctx->bayer = VD1943_BAYER_BGGR;
 620:../Middlewares/stm32-mw-camera/sensors/vd1943/vd1943.c ****     break;
 621:../Middlewares/stm32-mw-camera/sensors/vd1943/vd1943.c ****   case VD1943_MIRROR_FLIP:
 622:../Middlewares/stm32-mw-camera/sensors/vd1943/vd1943.c ****     ctx->bayer = VD1943_BAYER_GBRG;
 623:../Middlewares/stm32-mw-camera/sensors/vd1943/vd1943.c ****     break;
 624:../Middlewares/stm32-mw-camera/sensors/vd1943/vd1943.c ****   default:
 625:../Middlewares/stm32-mw-camera/sensors/vd1943/vd1943.c ****     assert(0);
 626:../Middlewares/stm32-mw-camera/sensors/vd1943/vd1943.c ****   }
 627:../Middlewares/stm32-mw-camera/sensors/vd1943/vd1943.c **** 
 628:../Middlewares/stm32-mw-camera/sensors/vd1943/vd1943.c ****   return 0;
 629:../Middlewares/stm32-mw-camera/sensors/vd1943/vd1943.c **** }
 630:../Middlewares/stm32-mw-camera/sensors/vd1943/vd1943.c **** 
 631:../Middlewares/stm32-mw-camera/sensors/vd1943/vd1943.c **** static int VD1943_SetBayerType_RGBNIR(VD1943_Ctx_t *ctx)
 632:../Middlewares/stm32-mw-camera/sensors/vd1943/vd1943.c **** {
 633:../Middlewares/stm32-mw-camera/sensors/vd1943/vd1943.c ****   struct drv_vd1943_ctx *drv_vd1943_ctx = &ctx->ctx;
ARM GAS  /tmp/ccydMd0r.s 			page 18


 634:../Middlewares/stm32-mw-camera/sensors/vd1943/vd1943.c **** 
 635:../Middlewares/stm32-mw-camera/sensors/vd1943/vd1943.c ****   switch (drv_vd1943_ctx->config_save.flip_mirror_mode) {
 636:../Middlewares/stm32-mw-camera/sensors/vd1943/vd1943.c ****   case VD1943_MIRROR_FLIP_NONE:
 637:../Middlewares/stm32-mw-camera/sensors/vd1943/vd1943.c ****     ctx->bayer = VD1943_BAYER_RGBNIR;
 638:../Middlewares/stm32-mw-camera/sensors/vd1943/vd1943.c ****     break;
 639:../Middlewares/stm32-mw-camera/sensors/vd1943/vd1943.c ****   case VD1943_FLIP:
 640:../Middlewares/stm32-mw-camera/sensors/vd1943/vd1943.c ****     ctx->bayer = VD1943_BAYER_RGBNIR_FLIP;
 641:../Middlewares/stm32-mw-camera/sensors/vd1943/vd1943.c ****     break;
 642:../Middlewares/stm32-mw-camera/sensors/vd1943/vd1943.c ****   case VD1943_MIRROR:
 643:../Middlewares/stm32-mw-camera/sensors/vd1943/vd1943.c ****     ctx->bayer = VD1943_BAYER_RGBNIR_MIRROR;
 644:../Middlewares/stm32-mw-camera/sensors/vd1943/vd1943.c ****     break;
 645:../Middlewares/stm32-mw-camera/sensors/vd1943/vd1943.c ****   case VD1943_MIRROR_FLIP:
 646:../Middlewares/stm32-mw-camera/sensors/vd1943/vd1943.c ****     ctx->bayer = VD1943_BAYER_RGBNIR_FLIP_MIRROR;
 647:../Middlewares/stm32-mw-camera/sensors/vd1943/vd1943.c ****     break;
 648:../Middlewares/stm32-mw-camera/sensors/vd1943/vd1943.c ****   default:
 649:../Middlewares/stm32-mw-camera/sensors/vd1943/vd1943.c ****     assert(0);
 650:../Middlewares/stm32-mw-camera/sensors/vd1943/vd1943.c ****   }
 651:../Middlewares/stm32-mw-camera/sensors/vd1943/vd1943.c **** 
 652:../Middlewares/stm32-mw-camera/sensors/vd1943/vd1943.c ****   return 0;
 653:../Middlewares/stm32-mw-camera/sensors/vd1943/vd1943.c **** }
 654:../Middlewares/stm32-mw-camera/sensors/vd1943/vd1943.c **** 
 655:../Middlewares/stm32-mw-camera/sensors/vd1943/vd1943.c **** static int VD1943_SetBayerType(VD1943_Ctx_t *ctx)
 656:../Middlewares/stm32-mw-camera/sensors/vd1943/vd1943.c **** {
 657:../Middlewares/stm32-mw-camera/sensors/vd1943/vd1943.c ****   struct drv_vd1943_ctx *drv_vd1943_ctx = &ctx->ctx;
 658:../Middlewares/stm32-mw-camera/sensors/vd1943/vd1943.c **** 
 659:../Middlewares/stm32-mw-camera/sensors/vd1943/vd1943.c ****   if (drv_vd1943_ctx->is_mono)
 660:../Middlewares/stm32-mw-camera/sensors/vd1943/vd1943.c ****     // Monochrom variant, force Bayer None (= Mono)  
 661:../Middlewares/stm32-mw-camera/sensors/vd1943/vd1943.c ****     return VD1943_BAYER_NONE;
 662:../Middlewares/stm32-mw-camera/sensors/vd1943/vd1943.c **** 
 663:../Middlewares/stm32-mw-camera/sensors/vd1943/vd1943.c ****   switch (drv_vd1943_ctx->config_save.image_processing_mode) {
 664:../Middlewares/stm32-mw-camera/sensors/vd1943/vd1943.c ****   case VD1943_GS_SS1_RGB_8:
 665:../Middlewares/stm32-mw-camera/sensors/vd1943/vd1943.c ****   case VD1943_GS_SS1_RGB_10:
 666:../Middlewares/stm32-mw-camera/sensors/vd1943/vd1943.c ****   case VD1943_RS_SDR_RGB_8:
 667:../Middlewares/stm32-mw-camera/sensors/vd1943/vd1943.c ****   case VD1943_RS_SDR_RGB_10:
 668:../Middlewares/stm32-mw-camera/sensors/vd1943/vd1943.c ****   case VD1943_RS_SDR_RGB_12:
 669:../Middlewares/stm32-mw-camera/sensors/vd1943/vd1943.c ****   case VD1943_RS_HDR_RGB_10:
 670:../Middlewares/stm32-mw-camera/sensors/vd1943/vd1943.c ****   case VD1943_RS_HDR_RGB_12:
 671:../Middlewares/stm32-mw-camera/sensors/vd1943/vd1943.c ****     return VD1943_SetBayerType_RGB(ctx);
 672:../Middlewares/stm32-mw-camera/sensors/vd1943/vd1943.c ****     break;
 673:../Middlewares/stm32-mw-camera/sensors/vd1943/vd1943.c ****   case VD1943_GS_SS1_NATIVE_8:
 674:../Middlewares/stm32-mw-camera/sensors/vd1943/vd1943.c ****   case VD1943_GS_SS1_NATIVE_10:
 675:../Middlewares/stm32-mw-camera/sensors/vd1943/vd1943.c ****   case VD1943_GS_SS1_SPLIT_NATIVE_8:
 676:../Middlewares/stm32-mw-camera/sensors/vd1943/vd1943.c ****   case VD1943_GS_SS1_SPLIT_NATIVE_10:
 677:../Middlewares/stm32-mw-camera/sensors/vd1943/vd1943.c ****   case VD1943_RS_SDR_NATIVE_8:
 678:../Middlewares/stm32-mw-camera/sensors/vd1943/vd1943.c ****   case VD1943_RS_SDR_NATIVE_10:
 679:../Middlewares/stm32-mw-camera/sensors/vd1943/vd1943.c ****   case VD1943_RS_SDR_NATIVE_12:
 680:../Middlewares/stm32-mw-camera/sensors/vd1943/vd1943.c ****   case VD1943_RS_HDR_NATIVE_10:
 681:../Middlewares/stm32-mw-camera/sensors/vd1943/vd1943.c ****   case VD1943_RS_HDR_NATIVE_12:
 682:../Middlewares/stm32-mw-camera/sensors/vd1943/vd1943.c ****     return VD1943_SetBayerType_RGBNIR(ctx);
 683:../Middlewares/stm32-mw-camera/sensors/vd1943/vd1943.c ****     break;
 684:../Middlewares/stm32-mw-camera/sensors/vd1943/vd1943.c ****   case VD1943_GS_SS1_IR_8:
 685:../Middlewares/stm32-mw-camera/sensors/vd1943/vd1943.c ****   case VD1943_GS_SS1_IR_10:
 686:../Middlewares/stm32-mw-camera/sensors/vd1943/vd1943.c ****   case VD1943_GS_SS1_SPLIT_IR_8:
 687:../Middlewares/stm32-mw-camera/sensors/vd1943/vd1943.c ****   case VD1943_GS_SS1_SPLIT_IR_10:
 688:../Middlewares/stm32-mw-camera/sensors/vd1943/vd1943.c ****   case VD1943_GS_SS2_MONO_8:
 689:../Middlewares/stm32-mw-camera/sensors/vd1943/vd1943.c ****   case VD1943_GS_SS2_MONO_10:
 690:../Middlewares/stm32-mw-camera/sensors/vd1943/vd1943.c ****   case VD1943_GS_SS4_MONO_8:
ARM GAS  /tmp/ccydMd0r.s 			page 19


 691:../Middlewares/stm32-mw-camera/sensors/vd1943/vd1943.c ****   case VD1943_GS_SS4_MONO_10:
 692:../Middlewares/stm32-mw-camera/sensors/vd1943/vd1943.c ****   case VD1943_GS_SS32_MONO_8:
 693:../Middlewares/stm32-mw-camera/sensors/vd1943/vd1943.c ****   case VD1943_GS_SS32_MONO_10:
 694:../Middlewares/stm32-mw-camera/sensors/vd1943/vd1943.c ****     return VD1943_BAYER_NONE;
 695:../Middlewares/stm32-mw-camera/sensors/vd1943/vd1943.c ****   default:
 696:../Middlewares/stm32-mw-camera/sensors/vd1943/vd1943.c ****     assert(0);
 697:../Middlewares/stm32-mw-camera/sensors/vd1943/vd1943.c ****   }
 698:../Middlewares/stm32-mw-camera/sensors/vd1943/vd1943.c **** 
 699:../Middlewares/stm32-mw-camera/sensors/vd1943/vd1943.c ****   return 0;
 700:../Middlewares/stm32-mw-camera/sensors/vd1943/vd1943.c **** }
 701:../Middlewares/stm32-mw-camera/sensors/vd1943/vd1943.c **** 
 702:../Middlewares/stm32-mw-camera/sensors/vd1943/vd1943.c **** static int VD1943_GetSubSamplingFactor(VD1943_Ctx_t *ctx, int *ss_factor)
 703:../Middlewares/stm32-mw-camera/sensors/vd1943/vd1943.c **** {
 704:../Middlewares/stm32-mw-camera/sensors/vd1943/vd1943.c ****   struct drv_vd1943_ctx *drv_vd1943_ctx = &ctx->ctx;
 705:../Middlewares/stm32-mw-camera/sensors/vd1943/vd1943.c **** 
 706:../Middlewares/stm32-mw-camera/sensors/vd1943/vd1943.c ****   switch (drv_vd1943_ctx->config_save.image_processing_mode) {
 707:../Middlewares/stm32-mw-camera/sensors/vd1943/vd1943.c ****   case VD1943_GS_SS32_MONO_8:
 708:../Middlewares/stm32-mw-camera/sensors/vd1943/vd1943.c ****   case VD1943_GS_SS32_MONO_10:
 709:../Middlewares/stm32-mw-camera/sensors/vd1943/vd1943.c ****     *ss_factor = 32;
 710:../Middlewares/stm32-mw-camera/sensors/vd1943/vd1943.c ****     break;
 711:../Middlewares/stm32-mw-camera/sensors/vd1943/vd1943.c ****   case VD1943_GS_SS2_MONO_8:
 712:../Middlewares/stm32-mw-camera/sensors/vd1943/vd1943.c ****   case VD1943_GS_SS2_MONO_10:
 713:../Middlewares/stm32-mw-camera/sensors/vd1943/vd1943.c ****     *ss_factor = 2;
 714:../Middlewares/stm32-mw-camera/sensors/vd1943/vd1943.c ****     break;
 715:../Middlewares/stm32-mw-camera/sensors/vd1943/vd1943.c ****   case VD1943_GS_SS4_MONO_8:
 716:../Middlewares/stm32-mw-camera/sensors/vd1943/vd1943.c ****   case VD1943_GS_SS4_MONO_10:
 717:../Middlewares/stm32-mw-camera/sensors/vd1943/vd1943.c ****     *ss_factor = 4;
 718:../Middlewares/stm32-mw-camera/sensors/vd1943/vd1943.c ****     break;
 719:../Middlewares/stm32-mw-camera/sensors/vd1943/vd1943.c ****   default:
 720:../Middlewares/stm32-mw-camera/sensors/vd1943/vd1943.c ****     *ss_factor = 1;
 721:../Middlewares/stm32-mw-camera/sensors/vd1943/vd1943.c ****   }
 722:../Middlewares/stm32-mw-camera/sensors/vd1943/vd1943.c **** 
 723:../Middlewares/stm32-mw-camera/sensors/vd1943/vd1943.c ****   return 0;
 724:../Middlewares/stm32-mw-camera/sensors/vd1943/vd1943.c **** }
 725:../Middlewares/stm32-mw-camera/sensors/vd1943/vd1943.c **** 
 726:../Middlewares/stm32-mw-camera/sensors/vd1943/vd1943.c **** static int VD1943_Boot(VD1943_Ctx_t *ctx)
 727:../Middlewares/stm32-mw-camera/sensors/vd1943/vd1943.c **** {
 728:../Middlewares/stm32-mw-camera/sensors/vd1943/vd1943.c ****   int ret;
 729:../Middlewares/stm32-mw-camera/sensors/vd1943/vd1943.c **** 
 730:../Middlewares/stm32-mw-camera/sensors/vd1943/vd1943.c ****   ret = VD1943_WaitState(ctx, VD1943_SYSTEM_UP);
 731:../Middlewares/stm32-mw-camera/sensors/vd1943/vd1943.c ****   if (ret)
 732:../Middlewares/stm32-mw-camera/sensors/vd1943/vd1943.c ****     return ret;
 733:../Middlewares/stm32-mw-camera/sensors/vd1943/vd1943.c **** 
 734:../Middlewares/stm32-mw-camera/sensors/vd1943/vd1943.c ****   ret = VD1943_CheckModelId(ctx);
 735:../Middlewares/stm32-mw-camera/sensors/vd1943/vd1943.c ****   if (ret)
 736:../Middlewares/stm32-mw-camera/sensors/vd1943/vd1943.c ****     return ret;
 737:../Middlewares/stm32-mw-camera/sensors/vd1943/vd1943.c **** 
 738:../Middlewares/stm32-mw-camera/sensors/vd1943/vd1943.c ****   ret = VD1943_GoToBootState(ctx);
 739:../Middlewares/stm32-mw-camera/sensors/vd1943/vd1943.c ****   if (ret)
 740:../Middlewares/stm32-mw-camera/sensors/vd1943/vd1943.c ****     return ret;
 741:../Middlewares/stm32-mw-camera/sensors/vd1943/vd1943.c **** 
 742:../Middlewares/stm32-mw-camera/sensors/vd1943/vd1943.c ****   if (!ctx->ctx.is_fastboot) {
 743:../Middlewares/stm32-mw-camera/sensors/vd1943/vd1943.c ****     ret = VD1943_ApplyCertificate(ctx);
 744:../Middlewares/stm32-mw-camera/sensors/vd1943/vd1943.c ****     if (ret)
 745:../Middlewares/stm32-mw-camera/sensors/vd1943/vd1943.c ****       return ret;
 746:../Middlewares/stm32-mw-camera/sensors/vd1943/vd1943.c **** 
 747:../Middlewares/stm32-mw-camera/sensors/vd1943/vd1943.c ****     ret = VD1943_ApplyFwPatch(ctx);
ARM GAS  /tmp/ccydMd0r.s 			page 20


 748:../Middlewares/stm32-mw-camera/sensors/vd1943/vd1943.c ****     if (ret)
 749:../Middlewares/stm32-mw-camera/sensors/vd1943/vd1943.c ****       return ret;
 750:../Middlewares/stm32-mw-camera/sensors/vd1943/vd1943.c ****   }
 751:../Middlewares/stm32-mw-camera/sensors/vd1943/vd1943.c **** 
 752:../Middlewares/stm32-mw-camera/sensors/vd1943/vd1943.c ****   ret = VD1943_GoToStandbyState(ctx);
 753:../Middlewares/stm32-mw-camera/sensors/vd1943/vd1943.c ****   if (ret)
 754:../Middlewares/stm32-mw-camera/sensors/vd1943/vd1943.c ****     return ret;
 755:../Middlewares/stm32-mw-camera/sensors/vd1943/vd1943.c **** 
 756:../Middlewares/stm32-mw-camera/sensors/vd1943/vd1943.c ****   if (!ctx->ctx.is_fastboot) {
 757:../Middlewares/stm32-mw-camera/sensors/vd1943/vd1943.c ****     ret = VD1943_ApplyVTPatch(ctx);
 758:../Middlewares/stm32-mw-camera/sensors/vd1943/vd1943.c ****     if (ret)
 759:../Middlewares/stm32-mw-camera/sensors/vd1943/vd1943.c ****       return ret;
 760:../Middlewares/stm32-mw-camera/sensors/vd1943/vd1943.c ****   }
 761:../Middlewares/stm32-mw-camera/sensors/vd1943/vd1943.c **** 
 762:../Middlewares/stm32-mw-camera/sensors/vd1943/vd1943.c ****   ret = VD1943_SetBayerType(ctx);
 763:../Middlewares/stm32-mw-camera/sensors/vd1943/vd1943.c ****   if (ret)
 764:../Middlewares/stm32-mw-camera/sensors/vd1943/vd1943.c ****     return ret;
 765:../Middlewares/stm32-mw-camera/sensors/vd1943/vd1943.c **** 
 766:../Middlewares/stm32-mw-camera/sensors/vd1943/vd1943.c ****   return 0;
 767:../Middlewares/stm32-mw-camera/sensors/vd1943/vd1943.c **** }
 768:../Middlewares/stm32-mw-camera/sensors/vd1943/vd1943.c **** 
 769:../Middlewares/stm32-mw-camera/sensors/vd1943/vd1943.c **** static uint8_t VD1943_GetLaneNb(VD1943_OutItf_Config_t *out_itf)
 770:../Middlewares/stm32-mw-camera/sensors/vd1943/vd1943.c **** {
 771:../Middlewares/stm32-mw-camera/sensors/vd1943/vd1943.c ****   switch (out_itf->datalane_nb) {
 772:../Middlewares/stm32-mw-camera/sensors/vd1943/vd1943.c ****   case 2:
 773:../Middlewares/stm32-mw-camera/sensors/vd1943/vd1943.c ****     return VD1943_LANE_NB_SEL_2;
 774:../Middlewares/stm32-mw-camera/sensors/vd1943/vd1943.c ****     break;
 775:../Middlewares/stm32-mw-camera/sensors/vd1943/vd1943.c ****   case 4:
 776:../Middlewares/stm32-mw-camera/sensors/vd1943/vd1943.c ****     return VD1943_LANE_NB_SEL_4;
 777:../Middlewares/stm32-mw-camera/sensors/vd1943/vd1943.c ****     break;
 778:../Middlewares/stm32-mw-camera/sensors/vd1943/vd1943.c ****   default:
 779:../Middlewares/stm32-mw-camera/sensors/vd1943/vd1943.c ****     assert(0);
 780:../Middlewares/stm32-mw-camera/sensors/vd1943/vd1943.c ****   }
 781:../Middlewares/stm32-mw-camera/sensors/vd1943/vd1943.c **** 
 782:../Middlewares/stm32-mw-camera/sensors/vd1943/vd1943.c ****   return VD1943_LANE_NB_SEL_2;
 783:../Middlewares/stm32-mw-camera/sensors/vd1943/vd1943.c **** }
 784:../Middlewares/stm32-mw-camera/sensors/vd1943/vd1943.c **** 
 785:../Middlewares/stm32-mw-camera/sensors/vd1943/vd1943.c **** static uint8_t VD1943_GetLogicalPhysicalMapping(VD1943_OutItf_Config_t *out_itf)
 786:../Middlewares/stm32-mw-camera/sensors/vd1943/vd1943.c **** {
 787:../Middlewares/stm32-mw-camera/sensors/vd1943/vd1943.c ****   return (out_itf->logic_lane_mapping[0] << 0) |
 788:../Middlewares/stm32-mw-camera/sensors/vd1943/vd1943.c ****          (out_itf->logic_lane_mapping[1] << 2) |
 789:../Middlewares/stm32-mw-camera/sensors/vd1943/vd1943.c ****          (out_itf->logic_lane_mapping[2] << 4) |
 790:../Middlewares/stm32-mw-camera/sensors/vd1943/vd1943.c ****          (out_itf->logic_lane_mapping[3] << 6);
 791:../Middlewares/stm32-mw-camera/sensors/vd1943/vd1943.c **** }
 792:../Middlewares/stm32-mw-camera/sensors/vd1943/vd1943.c **** 
 793:../Middlewares/stm32-mw-camera/sensors/vd1943/vd1943.c **** static uint8_t VD1943_GetLaneSwap(VD1943_OutItf_Config_t *out_itf)
 794:../Middlewares/stm32-mw-camera/sensors/vd1943/vd1943.c **** {
 795:../Middlewares/stm32-mw-camera/sensors/vd1943/vd1943.c ****   return (out_itf->physical_lane_swap_enable[0] << 0) |
 796:../Middlewares/stm32-mw-camera/sensors/vd1943/vd1943.c ****          (out_itf->physical_lane_swap_enable[1] << 1) |
 797:../Middlewares/stm32-mw-camera/sensors/vd1943/vd1943.c ****          (out_itf->physical_lane_swap_enable[2] << 2) |
 798:../Middlewares/stm32-mw-camera/sensors/vd1943/vd1943.c ****          (out_itf->physical_lane_swap_enable[3] << 3) |
 799:../Middlewares/stm32-mw-camera/sensors/vd1943/vd1943.c ****          (out_itf->clock_lane_swap_enable << 4);
 800:../Middlewares/stm32-mw-camera/sensors/vd1943/vd1943.c **** }
 801:../Middlewares/stm32-mw-camera/sensors/vd1943/vd1943.c **** 
 802:../Middlewares/stm32-mw-camera/sensors/vd1943/vd1943.c **** static int VD1943_SetupOutputDataType(VD1943_Ctx_t *ctx)
 803:../Middlewares/stm32-mw-camera/sensors/vd1943/vd1943.c **** {
 804:../Middlewares/stm32-mw-camera/sensors/vd1943/vd1943.c ****   uint8_t dt;
ARM GAS  /tmp/ccydMd0r.s 			page 21


 805:../Middlewares/stm32-mw-camera/sensors/vd1943/vd1943.c ****   int ret;
 806:../Middlewares/stm32-mw-camera/sensors/vd1943/vd1943.c **** 
 807:../Middlewares/stm32-mw-camera/sensors/vd1943/vd1943.c ****   switch (ctx->ctx.config_save.image_processing_mode) {
 808:../Middlewares/stm32-mw-camera/sensors/vd1943/vd1943.c ****   case VD1943_GS_SS1_NATIVE_8:
 809:../Middlewares/stm32-mw-camera/sensors/vd1943/vd1943.c ****   case VD1943_GS_SS1_SPLIT_NATIVE_8:
 810:../Middlewares/stm32-mw-camera/sensors/vd1943/vd1943.c ****   case VD1943_GS_SS1_RGB_8:
 811:../Middlewares/stm32-mw-camera/sensors/vd1943/vd1943.c ****   case VD1943_GS_SS1_IR_8:
 812:../Middlewares/stm32-mw-camera/sensors/vd1943/vd1943.c ****   case VD1943_GS_SS1_SPLIT_IR_8:
 813:../Middlewares/stm32-mw-camera/sensors/vd1943/vd1943.c ****   case VD1943_GS_SS2_MONO_8:
 814:../Middlewares/stm32-mw-camera/sensors/vd1943/vd1943.c ****   case VD1943_GS_SS4_MONO_8:
 815:../Middlewares/stm32-mw-camera/sensors/vd1943/vd1943.c ****   case VD1943_GS_SS32_MONO_8:
 816:../Middlewares/stm32-mw-camera/sensors/vd1943/vd1943.c ****   case VD1943_RS_SDR_NATIVE_8:
 817:../Middlewares/stm32-mw-camera/sensors/vd1943/vd1943.c ****   case VD1943_RS_SDR_RGB_8:
 818:../Middlewares/stm32-mw-camera/sensors/vd1943/vd1943.c ****     dt = 0x2a;
 819:../Middlewares/stm32-mw-camera/sensors/vd1943/vd1943.c ****     break;
 820:../Middlewares/stm32-mw-camera/sensors/vd1943/vd1943.c ****   case VD1943_GS_SS1_NATIVE_10:
 821:../Middlewares/stm32-mw-camera/sensors/vd1943/vd1943.c ****   case VD1943_GS_SS1_SPLIT_NATIVE_10:
 822:../Middlewares/stm32-mw-camera/sensors/vd1943/vd1943.c ****   case VD1943_GS_SS1_RGB_10:
 823:../Middlewares/stm32-mw-camera/sensors/vd1943/vd1943.c ****   case VD1943_GS_SS1_IR_10:
 824:../Middlewares/stm32-mw-camera/sensors/vd1943/vd1943.c ****   case VD1943_GS_SS1_SPLIT_IR_10:
 825:../Middlewares/stm32-mw-camera/sensors/vd1943/vd1943.c ****   case VD1943_GS_SS2_MONO_10:
 826:../Middlewares/stm32-mw-camera/sensors/vd1943/vd1943.c ****   case VD1943_GS_SS4_MONO_10:
 827:../Middlewares/stm32-mw-camera/sensors/vd1943/vd1943.c ****   case VD1943_GS_SS32_MONO_10:
 828:../Middlewares/stm32-mw-camera/sensors/vd1943/vd1943.c ****   case VD1943_RS_SDR_NATIVE_10:
 829:../Middlewares/stm32-mw-camera/sensors/vd1943/vd1943.c ****   case VD1943_RS_SDR_RGB_10:
 830:../Middlewares/stm32-mw-camera/sensors/vd1943/vd1943.c ****   case VD1943_RS_HDR_NATIVE_10:
 831:../Middlewares/stm32-mw-camera/sensors/vd1943/vd1943.c ****   case VD1943_RS_HDR_RGB_10:
 832:../Middlewares/stm32-mw-camera/sensors/vd1943/vd1943.c ****     dt = 0x2b;
 833:../Middlewares/stm32-mw-camera/sensors/vd1943/vd1943.c ****     break;
 834:../Middlewares/stm32-mw-camera/sensors/vd1943/vd1943.c ****   case VD1943_RS_SDR_NATIVE_12:
 835:../Middlewares/stm32-mw-camera/sensors/vd1943/vd1943.c ****   case VD1943_RS_SDR_RGB_12:
 836:../Middlewares/stm32-mw-camera/sensors/vd1943/vd1943.c ****   case VD1943_RS_HDR_NATIVE_12:
 837:../Middlewares/stm32-mw-camera/sensors/vd1943/vd1943.c ****   case VD1943_RS_HDR_RGB_12:
 838:../Middlewares/stm32-mw-camera/sensors/vd1943/vd1943.c ****     dt = 0x2c;
 839:../Middlewares/stm32-mw-camera/sensors/vd1943/vd1943.c ****     break;
 840:../Middlewares/stm32-mw-camera/sensors/vd1943/vd1943.c ****   default:
 841:../Middlewares/stm32-mw-camera/sensors/vd1943/vd1943.c ****     assert(0);
 842:../Middlewares/stm32-mw-camera/sensors/vd1943/vd1943.c ****     return -1;
 843:../Middlewares/stm32-mw-camera/sensors/vd1943/vd1943.c ****   }
 844:../Middlewares/stm32-mw-camera/sensors/vd1943/vd1943.c **** 
 845:../Middlewares/stm32-mw-camera/sensors/vd1943/vd1943.c ****   ret = ctx->write8(ctx, VD1943_REG_ROI_A_DT, dt);
 846:../Middlewares/stm32-mw-camera/sensors/vd1943/vd1943.c ****   VD1943_TraceError(ctx, ret);
 847:../Middlewares/stm32-mw-camera/sensors/vd1943/vd1943.c **** 
 848:../Middlewares/stm32-mw-camera/sensors/vd1943/vd1943.c ****   return ret;
 849:../Middlewares/stm32-mw-camera/sensors/vd1943/vd1943.c **** }
 850:../Middlewares/stm32-mw-camera/sensors/vd1943/vd1943.c **** 
 851:../Middlewares/stm32-mw-camera/sensors/vd1943/vd1943.c **** static int VD1943_SetupOutput(VD1943_Ctx_t *ctx)
 852:../Middlewares/stm32-mw-camera/sensors/vd1943/vd1943.c **** {
 853:../Middlewares/stm32-mw-camera/sensors/vd1943/vd1943.c ****   VD1943_OutItf_Config_t *out_itf = &ctx->ctx.config_save.out_itf;
 854:../Middlewares/stm32-mw-camera/sensors/vd1943/vd1943.c ****   int ret;
 855:../Middlewares/stm32-mw-camera/sensors/vd1943/vd1943.c **** 
 856:../Middlewares/stm32-mw-camera/sensors/vd1943/vd1943.c ****   /* setup sensor mode */
 857:../Middlewares/stm32-mw-camera/sensors/vd1943/vd1943.c ****   ret = ctx->write32(ctx, VD1943_REG_SENSOR_CONFIGURATION(0), ctx->ctx.config_save.image_processing
 858:../Middlewares/stm32-mw-camera/sensors/vd1943/vd1943.c ****   VD1943_TraceError(ctx, ret);
 859:../Middlewares/stm32-mw-camera/sensors/vd1943/vd1943.c **** 
 860:../Middlewares/stm32-mw-camera/sensors/vd1943/vd1943.c ****   /* Disable CFA_BLENDER when used in RGB. Note that this approach consider that
 861:../Middlewares/stm32-mw-camera/sensors/vd1943/vd1943.c ****      when RGB is in use there's a pure RGB lens - which is not systematic.
ARM GAS  /tmp/ccydMd0r.s 			page 22


 862:../Middlewares/stm32-mw-camera/sensors/vd1943/vd1943.c ****      Proper approach (TODO) would be to make it a controllable setting. */
 863:../Middlewares/stm32-mw-camera/sensors/vd1943/vd1943.c ****   if (ctx->bayer == VD1943_BAYER_GBRG || ctx->bayer == VD1943_BAYER_RGGB ||
 864:../Middlewares/stm32-mw-camera/sensors/vd1943/vd1943.c ****       ctx->bayer == VD1943_BAYER_BGGR || ctx->bayer == VD1943_BAYER_GBRG)
 865:../Middlewares/stm32-mw-camera/sensors/vd1943/vd1943.c ****   {
 866:../Middlewares/stm32-mw-camera/sensors/vd1943/vd1943.c ****     ret = ctx->write8(ctx, VD1943_REG_CFA_BLENDER_ALPHA_CTRL, VD1943_CFA_BLENDER_ZERO);
 867:../Middlewares/stm32-mw-camera/sensors/vd1943/vd1943.c ****   } else {
 868:../Middlewares/stm32-mw-camera/sensors/vd1943/vd1943.c ****     ret = ctx->write8(ctx, VD1943_REG_CFA_BLENDER_ALPHA_CTRL, VD1943_CFA_BLENDER_NORMAL);
 869:../Middlewares/stm32-mw-camera/sensors/vd1943/vd1943.c ****   }
 870:../Middlewares/stm32-mw-camera/sensors/vd1943/vd1943.c ****   VD1943_TraceError(ctx, ret);
 871:../Middlewares/stm32-mw-camera/sensors/vd1943/vd1943.c **** 
 872:../Middlewares/stm32-mw-camera/sensors/vd1943/vd1943.c ****   /* csi-2 output itf */
 873:../Middlewares/stm32-mw-camera/sensors/vd1943/vd1943.c ****    /* lane number */
 874:../Middlewares/stm32-mw-camera/sensors/vd1943/vd1943.c ****   ret = ctx->write8(ctx, VD1943_REG_LANE_NB_SEL, VD1943_GetLaneNb(out_itf));
 875:../Middlewares/stm32-mw-camera/sensors/vd1943/vd1943.c ****   VD1943_TraceError(ctx, ret);
 876:../Middlewares/stm32-mw-camera/sensors/vd1943/vd1943.c ****   /* logical / physical mapping */
 877:../Middlewares/stm32-mw-camera/sensors/vd1943/vd1943.c ****   ret = ctx->write8(ctx, VD1943_REG_OIF_LANE_PHY_MAP, VD1943_GetLogicalPhysicalMapping(out_itf));
 878:../Middlewares/stm32-mw-camera/sensors/vd1943/vd1943.c ****   VD1943_TraceError(ctx, ret);
 879:../Middlewares/stm32-mw-camera/sensors/vd1943/vd1943.c ****   /* lane swap */
 880:../Middlewares/stm32-mw-camera/sensors/vd1943/vd1943.c ****   ret = ctx->write8(ctx, VD1943_REG_OIF_LANE_PHY_SWAP, VD1943_GetLaneSwap(out_itf));
 881:../Middlewares/stm32-mw-camera/sensors/vd1943/vd1943.c ****   VD1943_TraceError(ctx, ret);
 882:../Middlewares/stm32-mw-camera/sensors/vd1943/vd1943.c ****    /* data rate */
 883:../Middlewares/stm32-mw-camera/sensors/vd1943/vd1943.c ****   ret = ctx->write32(ctx, VD1943_REG_MIPI_DATA_RATE, out_itf->data_rate_in_mps);
 884:../Middlewares/stm32-mw-camera/sensors/vd1943/vd1943.c ****   VD1943_TraceError(ctx, ret);
 885:../Middlewares/stm32-mw-camera/sensors/vd1943/vd1943.c ****    /* data type / RAW8*/
 886:../Middlewares/stm32-mw-camera/sensors/vd1943/vd1943.c ****   ret = VD1943_SetupOutputDataType(ctx);
 887:../Middlewares/stm32-mw-camera/sensors/vd1943/vd1943.c ****   if (ret)
 888:../Middlewares/stm32-mw-camera/sensors/vd1943/vd1943.c ****     return ret;
 889:../Middlewares/stm32-mw-camera/sensors/vd1943/vd1943.c ****    /* Force ISL Datatype to 0x12 (not the default value on Cut1.4) */
 890:../Middlewares/stm32-mw-camera/sensors/vd1943/vd1943.c ****   ret = ctx->write8(ctx, VD1943_REG_OIF_DT_ISL, 0x12);
 891:../Middlewares/stm32-mw-camera/sensors/vd1943/vd1943.c ****   VD1943_TraceError(ctx, ret);
 892:../Middlewares/stm32-mw-camera/sensors/vd1943/vd1943.c **** 
 893:../Middlewares/stm32-mw-camera/sensors/vd1943/vd1943.c ****   return 0;
 894:../Middlewares/stm32-mw-camera/sensors/vd1943/vd1943.c **** }
 895:../Middlewares/stm32-mw-camera/sensors/vd1943/vd1943.c **** 
 896:../Middlewares/stm32-mw-camera/sensors/vd1943/vd1943.c **** static int VD1943_SetupSize(VD1943_Ctx_t *ctx)
 897:../Middlewares/stm32-mw-camera/sensors/vd1943/vd1943.c **** {
 898:../Middlewares/stm32-mw-camera/sensors/vd1943/vd1943.c ****   const struct vd1943_rect *rect = &vd1943_supported_modes[ctx->ctx.config_save.resolution];
 899:../Middlewares/stm32-mw-camera/sensors/vd1943/vd1943.c ****   int ss_factor;
 900:../Middlewares/stm32-mw-camera/sensors/vd1943/vd1943.c ****   int ret;
 901:../Middlewares/stm32-mw-camera/sensors/vd1943/vd1943.c **** 
 902:../Middlewares/stm32-mw-camera/sensors/vd1943/vd1943.c ****   assert(rect->left % 4 == 0);
 903:../Middlewares/stm32-mw-camera/sensors/vd1943/vd1943.c ****   assert(rect->top % 4 == 0);
 904:../Middlewares/stm32-mw-camera/sensors/vd1943/vd1943.c ****   assert(rect->width % 4 == 0);
 905:../Middlewares/stm32-mw-camera/sensors/vd1943/vd1943.c ****   assert(rect->height % 4 == 0);
 906:../Middlewares/stm32-mw-camera/sensors/vd1943/vd1943.c **** 
 907:../Middlewares/stm32-mw-camera/sensors/vd1943/vd1943.c ****   ret = VD1943_GetSubSamplingFactor(ctx, &ss_factor);
 908:../Middlewares/stm32-mw-camera/sensors/vd1943/vd1943.c ****   if (ret)
 909:../Middlewares/stm32-mw-camera/sensors/vd1943/vd1943.c ****     return ret;
 910:../Middlewares/stm32-mw-camera/sensors/vd1943/vd1943.c **** 
 911:../Middlewares/stm32-mw-camera/sensors/vd1943/vd1943.c ****   ret = ctx->write16(ctx, VD1943_REG_ROI_A_WIDTH_OFFSET, rect->left);
 912:../Middlewares/stm32-mw-camera/sensors/vd1943/vd1943.c ****   VD1943_TraceError(ctx, ret);
 913:../Middlewares/stm32-mw-camera/sensors/vd1943/vd1943.c ****   ret = ctx->write16(ctx, VD1943_REG_ROI_A_HEIGHT_OFFSET, rect->top);
 914:../Middlewares/stm32-mw-camera/sensors/vd1943/vd1943.c ****   VD1943_TraceError(ctx, ret);
 915:../Middlewares/stm32-mw-camera/sensors/vd1943/vd1943.c ****   ret = ctx->write16(ctx, VD1943_REG_ROI_A_WIDTH, rect->width / ss_factor);
 916:../Middlewares/stm32-mw-camera/sensors/vd1943/vd1943.c ****   VD1943_TraceError(ctx, ret);
 917:../Middlewares/stm32-mw-camera/sensors/vd1943/vd1943.c ****   ret = ctx->write16(ctx, VD1943_REG_ROI_A_HEIGHT, rect->height / ss_factor);
 918:../Middlewares/stm32-mw-camera/sensors/vd1943/vd1943.c ****   VD1943_TraceError(ctx, ret);
ARM GAS  /tmp/ccydMd0r.s 			page 23


 919:../Middlewares/stm32-mw-camera/sensors/vd1943/vd1943.c **** 
 920:../Middlewares/stm32-mw-camera/sensors/vd1943/vd1943.c ****   return 0;
 921:../Middlewares/stm32-mw-camera/sensors/vd1943/vd1943.c **** }
 922:../Middlewares/stm32-mw-camera/sensors/vd1943/vd1943.c **** 
 923:../Middlewares/stm32-mw-camera/sensors/vd1943/vd1943.c **** static int VD1943_SetupLineLen(VD1943_Ctx_t *ctx)
 924:../Middlewares/stm32-mw-camera/sensors/vd1943/vd1943.c **** {
 925:../Middlewares/stm32-mw-camera/sensors/vd1943/vd1943.c ****   uint8_t gs_mode;
 926:../Middlewares/stm32-mw-camera/sensors/vd1943/vd1943.c ****   uint32_t system_pll_clk;
 927:../Middlewares/stm32-mw-camera/sensors/vd1943/vd1943.c ****   uint32_t vt_pixelrate;
 928:../Middlewares/stm32-mw-camera/sensors/vd1943/vd1943.c ****   unsigned int bpp;
 929:../Middlewares/stm32-mw-camera/sensors/vd1943/vd1943.c ****   uint32_t mipi_bandwidth;
 930:../Middlewares/stm32-mw-camera/sensors/vd1943/vd1943.c ****   uint32_t mipi_pixelrate;
 931:../Middlewares/stm32-mw-camera/sensors/vd1943/vd1943.c ****   uint16_t line_length;
 932:../Middlewares/stm32-mw-camera/sensors/vd1943/vd1943.c ****   uint32_t mipi_transition_cst_in_px;
 933:../Middlewares/stm32-mw-camera/sensors/vd1943/vd1943.c ****   uint32_t mipi_interpacket_delay_in_px;
 934:../Middlewares/stm32-mw-camera/sensors/vd1943/vd1943.c ****   uint64_t mipi_virtual_linelength = 0;
 935:../Middlewares/stm32-mw-camera/sensors/vd1943/vd1943.c ****   int ret;
 936:../Middlewares/stm32-mw-camera/sensors/vd1943/vd1943.c **** 
 937:../Middlewares/stm32-mw-camera/sensors/vd1943/vd1943.c ****   /* Shutter mode directly impact linelength */
 938:../Middlewares/stm32-mw-camera/sensors/vd1943/vd1943.c ****   switch (ctx->ctx.config_save.image_processing_mode)
 939:../Middlewares/stm32-mw-camera/sensors/vd1943/vd1943.c ****   {
 940:../Middlewares/stm32-mw-camera/sensors/vd1943/vd1943.c ****   case VD1943_GS_SS1_NATIVE_8:
 941:../Middlewares/stm32-mw-camera/sensors/vd1943/vd1943.c ****   case VD1943_GS_SS1_NATIVE_10:
 942:../Middlewares/stm32-mw-camera/sensors/vd1943/vd1943.c ****   case VD1943_GS_SS1_SPLIT_NATIVE_8:
 943:../Middlewares/stm32-mw-camera/sensors/vd1943/vd1943.c ****   case VD1943_GS_SS1_SPLIT_NATIVE_10:
 944:../Middlewares/stm32-mw-camera/sensors/vd1943/vd1943.c ****   case VD1943_GS_SS1_SPLIT_IR_8:
 945:../Middlewares/stm32-mw-camera/sensors/vd1943/vd1943.c ****   case VD1943_GS_SS1_SPLIT_IR_10:
 946:../Middlewares/stm32-mw-camera/sensors/vd1943/vd1943.c ****   case VD1943_GS_SS1_RGB_8:
 947:../Middlewares/stm32-mw-camera/sensors/vd1943/vd1943.c ****   case VD1943_GS_SS1_RGB_10:
 948:../Middlewares/stm32-mw-camera/sensors/vd1943/vd1943.c ****   case VD1943_GS_SS1_IR_8:
 949:../Middlewares/stm32-mw-camera/sensors/vd1943/vd1943.c ****   case VD1943_GS_SS1_IR_10:
 950:../Middlewares/stm32-mw-camera/sensors/vd1943/vd1943.c ****   case VD1943_GS_SS2_MONO_8:
 951:../Middlewares/stm32-mw-camera/sensors/vd1943/vd1943.c ****   case VD1943_GS_SS2_MONO_10:
 952:../Middlewares/stm32-mw-camera/sensors/vd1943/vd1943.c ****   case VD1943_GS_SS4_MONO_8:
 953:../Middlewares/stm32-mw-camera/sensors/vd1943/vd1943.c ****   case VD1943_GS_SS4_MONO_10:
 954:../Middlewares/stm32-mw-camera/sensors/vd1943/vd1943.c ****   case VD1943_GS_SS32_MONO_8:
 955:../Middlewares/stm32-mw-camera/sensors/vd1943/vd1943.c ****   case VD1943_GS_SS32_MONO_10:
 956:../Middlewares/stm32-mw-camera/sensors/vd1943/vd1943.c ****     gs_mode = 1;
 957:../Middlewares/stm32-mw-camera/sensors/vd1943/vd1943.c ****     break;
 958:../Middlewares/stm32-mw-camera/sensors/vd1943/vd1943.c ****   case VD1943_RS_SDR_NATIVE_8:
 959:../Middlewares/stm32-mw-camera/sensors/vd1943/vd1943.c ****   case VD1943_RS_SDR_NATIVE_10:
 960:../Middlewares/stm32-mw-camera/sensors/vd1943/vd1943.c ****   case VD1943_RS_SDR_NATIVE_12:
 961:../Middlewares/stm32-mw-camera/sensors/vd1943/vd1943.c ****   case VD1943_RS_SDR_RGB_8:
 962:../Middlewares/stm32-mw-camera/sensors/vd1943/vd1943.c ****   case VD1943_RS_SDR_RGB_10:
 963:../Middlewares/stm32-mw-camera/sensors/vd1943/vd1943.c ****   case VD1943_RS_SDR_RGB_12:
 964:../Middlewares/stm32-mw-camera/sensors/vd1943/vd1943.c ****   case VD1943_RS_HDR_NATIVE_10:
 965:../Middlewares/stm32-mw-camera/sensors/vd1943/vd1943.c ****   case VD1943_RS_HDR_NATIVE_12:
 966:../Middlewares/stm32-mw-camera/sensors/vd1943/vd1943.c ****   case VD1943_RS_HDR_RGB_10:
 967:../Middlewares/stm32-mw-camera/sensors/vd1943/vd1943.c ****   case VD1943_RS_HDR_RGB_12:
 968:../Middlewares/stm32-mw-camera/sensors/vd1943/vd1943.c ****     gs_mode = 0;
 969:../Middlewares/stm32-mw-camera/sensors/vd1943/vd1943.c ****     break;
 970:../Middlewares/stm32-mw-camera/sensors/vd1943/vd1943.c ****   default:
 971:../Middlewares/stm32-mw-camera/sensors/vd1943/vd1943.c ****     return -1;
 972:../Middlewares/stm32-mw-camera/sensors/vd1943/vd1943.c ****   }
 973:../Middlewares/stm32-mw-camera/sensors/vd1943/vd1943.c **** 
 974:../Middlewares/stm32-mw-camera/sensors/vd1943/vd1943.c ****   ret = ctx->read32(ctx, VD1943_REG_SYSTEM_PLL_CLK, &system_pll_clk);
 975:../Middlewares/stm32-mw-camera/sensors/vd1943/vd1943.c ****   VD1943_TraceError(ctx, ret);
ARM GAS  /tmp/ccydMd0r.s 			page 24


 976:../Middlewares/stm32-mw-camera/sensors/vd1943/vd1943.c ****   VD1943_dbg(ctx, 0, "system pll clock = %d hz\n", system_pll_clk);
 977:../Middlewares/stm32-mw-camera/sensors/vd1943/vd1943.c **** 
 978:../Middlewares/stm32-mw-camera/sensors/vd1943/vd1943.c ****   /* With 2 rows of ADC used in GS mode, the VT pixel rate is doubled */
 979:../Middlewares/stm32-mw-camera/sensors/vd1943/vd1943.c ****   if (gs_mode)
 980:../Middlewares/stm32-mw-camera/sensors/vd1943/vd1943.c ****   {
 981:../Middlewares/stm32-mw-camera/sensors/vd1943/vd1943.c ****     vt_pixelrate = system_pll_clk / 2;
 982:../Middlewares/stm32-mw-camera/sensors/vd1943/vd1943.c ****   }
 983:../Middlewares/stm32-mw-camera/sensors/vd1943/vd1943.c ****   else
 984:../Middlewares/stm32-mw-camera/sensors/vd1943/vd1943.c ****   {
 985:../Middlewares/stm32-mw-camera/sensors/vd1943/vd1943.c ****     vt_pixelrate = system_pll_clk / 4;
 986:../Middlewares/stm32-mw-camera/sensors/vd1943/vd1943.c ****   }
 987:../Middlewares/stm32-mw-camera/sensors/vd1943/vd1943.c **** 
 988:../Middlewares/stm32-mw-camera/sensors/vd1943/vd1943.c ****   /* Compute the max pixelrate on the mipi link based on pixel depth */
 989:../Middlewares/stm32-mw-camera/sensors/vd1943/vd1943.c ****   ret = VD1943_GetPixelDepth(ctx, &bpp);
 990:../Middlewares/stm32-mw-camera/sensors/vd1943/vd1943.c ****   if (ret)
 991:../Middlewares/stm32-mw-camera/sensors/vd1943/vd1943.c ****     return ret;
 992:../Middlewares/stm32-mw-camera/sensors/vd1943/vd1943.c **** 
 993:../Middlewares/stm32-mw-camera/sensors/vd1943/vd1943.c ****   mipi_bandwidth = ctx->ctx.config_save.out_itf.data_rate_in_mps * ctx->ctx.config_save.out_itf.dat
 994:../Middlewares/stm32-mw-camera/sensors/vd1943/vd1943.c ****   mipi_pixelrate = mipi_bandwidth / bpp;
 995:../Middlewares/stm32-mw-camera/sensors/vd1943/vd1943.c **** 
 996:../Middlewares/stm32-mw-camera/sensors/vd1943/vd1943.c ****   /* Compute the mins linelength given the mipi bandwidth */
 997:../Middlewares/stm32-mw-camera/sensors/vd1943/vd1943.c ****   if (mipi_pixelrate < vt_pixelrate)
 998:../Middlewares/stm32-mw-camera/sensors/vd1943/vd1943.c ****   {
 999:../Middlewares/stm32-mw-camera/sensors/vd1943/vd1943.c ****     /*
1000:../Middlewares/stm32-mw-camera/sensors/vd1943/vd1943.c ****      * Compute a virtual (mipi-equivalent) linelength that could fit
1001:../Middlewares/stm32-mw-camera/sensors/vd1943/vd1943.c ****      * with MIPI limitation (MIPI link being the bottleneck here).
1002:../Middlewares/stm32-mw-camera/sensors/vd1943/vd1943.c ****      */
1003:../Middlewares/stm32-mw-camera/sensors/vd1943/vd1943.c ****     mipi_transition_cst_in_px = mipi_pixelrate / 1000000 / 4;
1004:../Middlewares/stm32-mw-camera/sensors/vd1943/vd1943.c ****     mipi_interpacket_delay_in_px = 30 * 8 * ctx->ctx.config_save.out_itf.datalane_nb / bpp;
1005:../Middlewares/stm32-mw-camera/sensors/vd1943/vd1943.c ****     mipi_virtual_linelength = mipi_transition_cst_in_px +
1006:../Middlewares/stm32-mw-camera/sensors/vd1943/vd1943.c ****                               vd1943_supported_modes[ctx->ctx.config_save.resolution].width +
1007:../Middlewares/stm32-mw-camera/sensors/vd1943/vd1943.c ****                               mipi_interpacket_delay_in_px;
1008:../Middlewares/stm32-mw-camera/sensors/vd1943/vd1943.c ****     mipi_virtual_linelength = mipi_virtual_linelength * vt_pixelrate / mipi_pixelrate;
1009:../Middlewares/stm32-mw-camera/sensors/vd1943/vd1943.c ****   }
1010:../Middlewares/stm32-mw-camera/sensors/vd1943/vd1943.c ****   line_length = MAX(VD1943_LINE_LENGTH_MIN, (uint16_t)mipi_virtual_linelength);
1011:../Middlewares/stm32-mw-camera/sensors/vd1943/vd1943.c **** 
1012:../Middlewares/stm32-mw-camera/sensors/vd1943/vd1943.c ****   /* Ensure linelength is a multiple of 4 */
1013:../Middlewares/stm32-mw-camera/sensors/vd1943/vd1943.c ****   line_length = ((line_length + 3) / 4) * 4;
1014:../Middlewares/stm32-mw-camera/sensors/vd1943/vd1943.c **** 
1015:../Middlewares/stm32-mw-camera/sensors/vd1943/vd1943.c ****   VD1943_dbg(ctx, 0, "line_length = %d\n", line_length);
1016:../Middlewares/stm32-mw-camera/sensors/vd1943/vd1943.c **** 
1017:../Middlewares/stm32-mw-camera/sensors/vd1943/vd1943.c ****   ret = ctx->write16(ctx, VD1943_REG_LINE_LENGTH, line_length);
1018:../Middlewares/stm32-mw-camera/sensors/vd1943/vd1943.c ****   VD1943_TraceError(ctx, ret);
1019:../Middlewares/stm32-mw-camera/sensors/vd1943/vd1943.c **** 
1020:../Middlewares/stm32-mw-camera/sensors/vd1943/vd1943.c ****   return 0;
1021:../Middlewares/stm32-mw-camera/sensors/vd1943/vd1943.c **** }
1022:../Middlewares/stm32-mw-camera/sensors/vd1943/vd1943.c **** 
1023:../Middlewares/stm32-mw-camera/sensors/vd1943/vd1943.c **** static int VD1943_ComputeFrameLength(VD1943_Ctx_t *ctx, int fps, uint16_t *frame_length)
1024:../Middlewares/stm32-mw-camera/sensors/vd1943/vd1943.c **** {
 292              		.loc 1 1024 1 is_stmt 1 view -0
 293              		.cfi_startproc
 294              		@ args = 0, pretend = 0, frame = 8
 295              		@ frame_needed = 0, uses_anonymous_args = 0
1025:../Middlewares/stm32-mw-camera/sensors/vd1943/vd1943.c ****   uint8_t gs_mode;
 296              		.loc 1 1025 3 view .LVU60
1026:../Middlewares/stm32-mw-camera/sensors/vd1943/vd1943.c ****   struct drv_vd1943_ctx *drv_vd1943_ctx = &ctx->ctx;
 297              		.loc 1 1026 3 view .LVU61
ARM GAS  /tmp/ccydMd0r.s 			page 25


1027:../Middlewares/stm32-mw-camera/sensors/vd1943/vd1943.c ****   int min_frame_length;
 298              		.loc 1 1027 3 view .LVU62
1028:../Middlewares/stm32-mw-camera/sensors/vd1943/vd1943.c ****   int req_frame_length;
 299              		.loc 1 1028 3 view .LVU63
1029:../Middlewares/stm32-mw-camera/sensors/vd1943/vd1943.c ****   uint32_t system_pll_clk;
 300              		.loc 1 1029 3 view .LVU64
1030:../Middlewares/stm32-mw-camera/sensors/vd1943/vd1943.c ****   uint16_t line_length;
 301              		.loc 1 1030 3 view .LVU65
1031:../Middlewares/stm32-mw-camera/sensors/vd1943/vd1943.c ****   uint16_t height;
 302              		.loc 1 1031 3 view .LVU66
1032:../Middlewares/stm32-mw-camera/sensors/vd1943/vd1943.c ****   int ret;
 303              		.loc 1 1032 3 view .LVU67
1033:../Middlewares/stm32-mw-camera/sensors/vd1943/vd1943.c **** 
1034:../Middlewares/stm32-mw-camera/sensors/vd1943/vd1943.c ****   /* Shutter mode directly impact linelength */
1035:../Middlewares/stm32-mw-camera/sensors/vd1943/vd1943.c ****   switch (ctx->ctx.config_save.image_processing_mode)
 304              		.loc 1 1035 3 view .LVU68
1024:../Middlewares/stm32-mw-camera/sensors/vd1943/vd1943.c ****   uint8_t gs_mode;
 305              		.loc 1 1024 1 is_stmt 0 view .LVU69
 306 0000 2DE9F041 		push	{r4, r5, r6, r7, r8, lr}
 307              		.cfi_def_cfa_offset 24
 308              		.cfi_offset 4, -24
 309              		.cfi_offset 5, -20
 310              		.cfi_offset 6, -16
 311              		.cfi_offset 7, -12
 312              		.cfi_offset 8, -8
 313              		.cfi_offset 14, -4
 314              		.loc 1 1035 31 view .LVU70
 315 0004 90F84430 		ldrb	r3, [r0, #68]	@ zero_extendqisi2
1024:../Middlewares/stm32-mw-camera/sensors/vd1943/vd1943.c ****   uint8_t gs_mode;
 316              		.loc 1 1024 1 view .LVU71
 317 0008 0546     		mov	r5, r0
 318              		.loc 1 1035 3 view .LVU72
 319 000a 122B     		cmp	r3, #18
1024:../Middlewares/stm32-mw-camera/sensors/vd1943/vd1943.c ****   uint8_t gs_mode;
 320              		.loc 1 1024 1 view .LVU73
 321 000c 0E46     		mov	r6, r1
 322 000e 1746     		mov	r7, r2
 323 0010 88B0     		sub	sp, sp, #32
 324              		.cfi_def_cfa_offset 56
 325              		.loc 1 1035 3 view .LVU74
 326 0012 07D8     		bhi	.L18
 327 0014 082B     		cmp	r3, #8
 328 0016 02D8     		bhi	.L28
 329 0018 013B     		subs	r3, r3, #1
 330 001a 052B     		cmp	r3, #5
 331 001c 63D8     		bhi	.L30
 332              	.L28:
1036:../Middlewares/stm32-mw-camera/sensors/vd1943/vd1943.c ****   {
1037:../Middlewares/stm32-mw-camera/sensors/vd1943/vd1943.c ****   case VD1943_GS_SS1_NATIVE_8:
1038:../Middlewares/stm32-mw-camera/sensors/vd1943/vd1943.c ****   case VD1943_GS_SS1_NATIVE_10:
1039:../Middlewares/stm32-mw-camera/sensors/vd1943/vd1943.c ****   case VD1943_GS_SS1_SPLIT_NATIVE_8:
1040:../Middlewares/stm32-mw-camera/sensors/vd1943/vd1943.c ****   case VD1943_GS_SS1_SPLIT_NATIVE_10:
1041:../Middlewares/stm32-mw-camera/sensors/vd1943/vd1943.c ****   case VD1943_GS_SS1_SPLIT_IR_8:
1042:../Middlewares/stm32-mw-camera/sensors/vd1943/vd1943.c ****   case VD1943_GS_SS1_SPLIT_IR_10:
1043:../Middlewares/stm32-mw-camera/sensors/vd1943/vd1943.c ****   case VD1943_GS_SS1_RGB_8:
1044:../Middlewares/stm32-mw-camera/sensors/vd1943/vd1943.c ****   case VD1943_GS_SS1_RGB_10:
1045:../Middlewares/stm32-mw-camera/sensors/vd1943/vd1943.c ****   case VD1943_GS_SS1_IR_8:
ARM GAS  /tmp/ccydMd0r.s 			page 26


1046:../Middlewares/stm32-mw-camera/sensors/vd1943/vd1943.c ****   case VD1943_GS_SS1_IR_10:
1047:../Middlewares/stm32-mw-camera/sensors/vd1943/vd1943.c ****   case VD1943_GS_SS2_MONO_8:
1048:../Middlewares/stm32-mw-camera/sensors/vd1943/vd1943.c ****   case VD1943_GS_SS2_MONO_10:
1049:../Middlewares/stm32-mw-camera/sensors/vd1943/vd1943.c ****   case VD1943_GS_SS4_MONO_8:
1050:../Middlewares/stm32-mw-camera/sensors/vd1943/vd1943.c ****   case VD1943_GS_SS4_MONO_10:
1051:../Middlewares/stm32-mw-camera/sensors/vd1943/vd1943.c ****   case VD1943_GS_SS32_MONO_8:
1052:../Middlewares/stm32-mw-camera/sensors/vd1943/vd1943.c ****   case VD1943_GS_SS32_MONO_10:
1053:../Middlewares/stm32-mw-camera/sensors/vd1943/vd1943.c ****     gs_mode = 1;
 333              		.loc 1 1053 13 view .LVU75
 334 001e 4FF00108 		mov	r8, #1
 335 0022 04E0     		b	.L19
 336              	.L18:
1035:../Middlewares/stm32-mw-camera/sensors/vd1943/vd1943.c ****   {
 337              		.loc 1 1035 3 view .LVU76
 338 0024 1A3B     		subs	r3, r3, #26
 339 0026 092B     		cmp	r3, #9
 340 0028 5DD8     		bhi	.L30
 341 002a 4FF00008 		mov	r8, #0
 342              	.L19:
 343              	.LVL21:
1054:../Middlewares/stm32-mw-camera/sensors/vd1943/vd1943.c ****     break;
1055:../Middlewares/stm32-mw-camera/sensors/vd1943/vd1943.c ****   case VD1943_RS_SDR_NATIVE_8:
1056:../Middlewares/stm32-mw-camera/sensors/vd1943/vd1943.c ****   case VD1943_RS_SDR_NATIVE_10:
1057:../Middlewares/stm32-mw-camera/sensors/vd1943/vd1943.c ****   case VD1943_RS_SDR_NATIVE_12:
1058:../Middlewares/stm32-mw-camera/sensors/vd1943/vd1943.c ****   case VD1943_RS_SDR_RGB_8:
1059:../Middlewares/stm32-mw-camera/sensors/vd1943/vd1943.c ****   case VD1943_RS_SDR_RGB_10:
1060:../Middlewares/stm32-mw-camera/sensors/vd1943/vd1943.c ****   case VD1943_RS_SDR_RGB_12:
1061:../Middlewares/stm32-mw-camera/sensors/vd1943/vd1943.c ****   case VD1943_RS_HDR_NATIVE_10:
1062:../Middlewares/stm32-mw-camera/sensors/vd1943/vd1943.c ****   case VD1943_RS_HDR_NATIVE_12:
1063:../Middlewares/stm32-mw-camera/sensors/vd1943/vd1943.c ****   case VD1943_RS_HDR_RGB_10:
1064:../Middlewares/stm32-mw-camera/sensors/vd1943/vd1943.c ****   case VD1943_RS_HDR_RGB_12:
1065:../Middlewares/stm32-mw-camera/sensors/vd1943/vd1943.c ****     gs_mode = 0;
1066:../Middlewares/stm32-mw-camera/sensors/vd1943/vd1943.c ****     break;
1067:../Middlewares/stm32-mw-camera/sensors/vd1943/vd1943.c ****   default:
1068:../Middlewares/stm32-mw-camera/sensors/vd1943/vd1943.c ****     return -1;
1069:../Middlewares/stm32-mw-camera/sensors/vd1943/vd1943.c ****   }
1070:../Middlewares/stm32-mw-camera/sensors/vd1943/vd1943.c **** 
1071:../Middlewares/stm32-mw-camera/sensors/vd1943/vd1943.c ****   ret = ctx->read32(ctx, VD1943_REG_SYSTEM_PLL_CLK, &system_pll_clk);
 344              		.loc 1 1071 3 is_stmt 1 view .LVU77
 345              		.loc 1 1071 9 is_stmt 0 view .LVU78
 346 002e 4FF40A71 		mov	r1, #552
 347              	.LVL22:
 348              		.loc 1 1071 9 view .LVU79
 349 0032 2846     		mov	r0, r5
 350              	.LVL23:
 351              		.loc 1 1071 9 view .LVU80
 352 0034 EB68     		ldr	r3, [r5, #12]
 353 0036 07AA     		add	r2, sp, #28
 354              	.LVL24:
 355              		.loc 1 1071 9 view .LVU81
 356 0038 9847     		blx	r3
 357              	.LVL25:
1072:../Middlewares/stm32-mw-camera/sensors/vd1943/vd1943.c ****   VD1943_TraceError(ctx, ret);
 358              		.loc 1 1072 3 is_stmt 1 view .LVU82
 359              		.loc 1 1072 3 view .LVU83
 360 003a 0446     		mov	r4, r0
 361 003c 58B9     		cbnz	r0, .L21
ARM GAS  /tmp/ccydMd0r.s 			page 27


 362              		.loc 1 1072 3 discriminator 6 view .LVU84
 363              		.loc 1 1072 3 view .LVU85
1073:../Middlewares/stm32-mw-camera/sensors/vd1943/vd1943.c ****   ret = ctx->read16(ctx, VD1943_REG_LINE_LENGTH, &line_length);
 364              		.loc 1 1073 3 view .LVU86
 365              		.loc 1 1073 9 is_stmt 0 view .LVU87
 366 003e 40F63411 		movw	r1, #2356
 367 0042 2846     		mov	r0, r5
 368              	.LVL26:
 369              		.loc 1 1073 9 view .LVU88
 370 0044 AB68     		ldr	r3, [r5, #8]
 371 0046 06AA     		add	r2, sp, #24
 372 0048 9847     		blx	r3
 373              	.LVL27:
1074:../Middlewares/stm32-mw-camera/sensors/vd1943/vd1943.c ****   VD1943_TraceError(ctx, ret);
 374              		.loc 1 1074 3 is_stmt 1 view .LVU89
 375              		.loc 1 1074 3 view .LVU90
 376 004a 0446     		mov	r4, r0
 377 004c A8B1     		cbz	r0, .L31
 378              		.loc 1 1074 3 discriminator 1 view .LVU91
 379              		.loc 1 1074 3 discriminator 1 view .LVU92
 380 004e 40F23243 		movw	r3, #1074
 381 0052 0290     		str	r0, [sp, #8]
 382 0054 02E0     		b	.L33
 383              	.L21:
1072:../Middlewares/stm32-mw-camera/sensors/vd1943/vd1943.c ****   VD1943_TraceError(ctx, ret);
 384              		.loc 1 1072 3 discriminator 1 view .LVU93
1072:../Middlewares/stm32-mw-camera/sensors/vd1943/vd1943.c ****   VD1943_TraceError(ctx, ret);
 385              		.loc 1 1072 3 discriminator 1 view .LVU94
 386 0056 4FF48663 		mov	r3, #1072
 387 005a 0290     		str	r0, [sp, #8]
 388              	.L33:
 389              		.loc 1 1074 3 is_stmt 0 discriminator 1 view .LVU95
 390 005c 234A     		ldr	r2, .L34
 391 005e 2846     		mov	r0, r5
 392              	.LVL28:
 393              		.loc 1 1074 3 discriminator 1 view .LVU96
 394 0060 0092     		str	r2, [sp]
 395 0062 0021     		movs	r1, #0
 396 0064 224A     		ldr	r2, .L34+4
 397 0066 0193     		str	r3, [sp, #4]
 398 0068 FFF7FEFF 		bl	VD1943_log_impl
 399              	.LVL29:
 400              		.loc 1 1074 3 is_stmt 1 discriminator 3 view .LVU97
 401              		.loc 1 1074 3 discriminator 3 view .LVU98
 402              		.loc 1 1074 3 discriminator 4 view .LVU99
 403 006c 2846     		mov	r0, r5
 404 006e FFF7FEFF 		bl	display_error
 405              	.LVL30:
 406              		.loc 1 1074 3 discriminator 6 view .LVU100
 407              		.loc 1 1074 3 discriminator 7 view .LVU101
 408              	.L17:
1075:../Middlewares/stm32-mw-camera/sensors/vd1943/vd1943.c ****   ret = ctx->read16(ctx, VD1943_REG_ROI_A_HEIGHT, &height);
1076:../Middlewares/stm32-mw-camera/sensors/vd1943/vd1943.c ****   VD1943_TraceError(ctx, ret);
1077:../Middlewares/stm32-mw-camera/sensors/vd1943/vd1943.c **** 
1078:../Middlewares/stm32-mw-camera/sensors/vd1943/vd1943.c ****   min_frame_length = height + VD1943_MIN_VBLANK;
1079:../Middlewares/stm32-mw-camera/sensors/vd1943/vd1943.c ****   if (gs_mode)
1080:../Middlewares/stm32-mw-camera/sensors/vd1943/vd1943.c ****     min_frame_length = min_frame_length / 2;
ARM GAS  /tmp/ccydMd0r.s 			page 28


1081:../Middlewares/stm32-mw-camera/sensors/vd1943/vd1943.c ****   req_frame_length =  system_pll_clk / (4 * line_length * drv_vd1943_ctx->config_save.frame_rate);
1082:../Middlewares/stm32-mw-camera/sensors/vd1943/vd1943.c ****   *frame_length = MIN(MAX(min_frame_length, req_frame_length), 65535);
1083:../Middlewares/stm32-mw-camera/sensors/vd1943/vd1943.c **** 
1084:../Middlewares/stm32-mw-camera/sensors/vd1943/vd1943.c ****   VD1943_dbg(ctx, 0, "frame_length to MAX(%d, %d) = %d to reach %d fps\n", min_frame_length, req_fr
1085:../Middlewares/stm32-mw-camera/sensors/vd1943/vd1943.c ****              *frame_length, fps);
1086:../Middlewares/stm32-mw-camera/sensors/vd1943/vd1943.c **** 
1087:../Middlewares/stm32-mw-camera/sensors/vd1943/vd1943.c ****   return 0;
1088:../Middlewares/stm32-mw-camera/sensors/vd1943/vd1943.c **** }
 409              		.loc 1 1088 1 is_stmt 0 view .LVU102
 410 0072 2046     		mov	r0, r4
 411 0074 08B0     		add	sp, sp, #32
 412              		.cfi_remember_state
 413              		.cfi_def_cfa_offset 24
 414              		@ sp needed
 415 0076 BDE8F081 		pop	{r4, r5, r6, r7, r8, pc}
 416              	.LVL31:
 417              	.L31:
 418              		.cfi_restore_state
1074:../Middlewares/stm32-mw-camera/sensors/vd1943/vd1943.c ****   VD1943_TraceError(ctx, ret);
 419              		.loc 1 1074 3 is_stmt 1 discriminator 3 view .LVU103
1074:../Middlewares/stm32-mw-camera/sensors/vd1943/vd1943.c ****   VD1943_TraceError(ctx, ret);
 420              		.loc 1 1074 3 discriminator 3 view .LVU104
1074:../Middlewares/stm32-mw-camera/sensors/vd1943/vd1943.c ****   VD1943_TraceError(ctx, ret);
 421              		.loc 1 1074 3 discriminator 6 view .LVU105
1074:../Middlewares/stm32-mw-camera/sensors/vd1943/vd1943.c ****   VD1943_TraceError(ctx, ret);
 422              		.loc 1 1074 3 view .LVU106
1075:../Middlewares/stm32-mw-camera/sensors/vd1943/vd1943.c ****   ret = ctx->read16(ctx, VD1943_REG_ROI_A_HEIGHT, &height);
 423              		.loc 1 1075 3 view .LVU107
1075:../Middlewares/stm32-mw-camera/sensors/vd1943/vd1943.c ****   ret = ctx->read16(ctx, VD1943_REG_ROI_A_HEIGHT, &height);
 424              		.loc 1 1075 9 is_stmt 0 view .LVU108
 425 007a 40F61211 		movw	r1, #2322
 426 007e 2846     		mov	r0, r5
 427              	.LVL32:
1075:../Middlewares/stm32-mw-camera/sensors/vd1943/vd1943.c ****   ret = ctx->read16(ctx, VD1943_REG_ROI_A_HEIGHT, &height);
 428              		.loc 1 1075 9 view .LVU109
 429 0080 AB68     		ldr	r3, [r5, #8]
 430 0082 0DF11A02 		add	r2, sp, #26
 431 0086 9847     		blx	r3
 432              	.LVL33:
1076:../Middlewares/stm32-mw-camera/sensors/vd1943/vd1943.c **** 
 433              		.loc 1 1076 3 is_stmt 1 view .LVU110
1076:../Middlewares/stm32-mw-camera/sensors/vd1943/vd1943.c **** 
 434              		.loc 1 1076 3 view .LVU111
 435 0088 0446     		mov	r4, r0
 436 008a 18B1     		cbz	r0, .L32
1076:../Middlewares/stm32-mw-camera/sensors/vd1943/vd1943.c **** 
 437              		.loc 1 1076 3 discriminator 1 view .LVU112
1076:../Middlewares/stm32-mw-camera/sensors/vd1943/vd1943.c **** 
 438              		.loc 1 1076 3 discriminator 1 view .LVU113
 439 008c 40F23443 		movw	r3, #1076
 440 0090 0290     		str	r0, [sp, #8]
 441 0092 E3E7     		b	.L33
 442              	.L32:
1076:../Middlewares/stm32-mw-camera/sensors/vd1943/vd1943.c **** 
 443              		.loc 1 1076 3 discriminator 3 view .LVU114
1076:../Middlewares/stm32-mw-camera/sensors/vd1943/vd1943.c **** 
 444              		.loc 1 1076 3 discriminator 3 view .LVU115
ARM GAS  /tmp/ccydMd0r.s 			page 29


1076:../Middlewares/stm32-mw-camera/sensors/vd1943/vd1943.c **** 
 445              		.loc 1 1076 3 discriminator 6 view .LVU116
1076:../Middlewares/stm32-mw-camera/sensors/vd1943/vd1943.c **** 
 446              		.loc 1 1076 3 view .LVU117
1078:../Middlewares/stm32-mw-camera/sensors/vd1943/vd1943.c ****   if (gs_mode)
 447              		.loc 1 1078 3 view .LVU118
1078:../Middlewares/stm32-mw-camera/sensors/vd1943/vd1943.c ****   if (gs_mode)
 448              		.loc 1 1078 29 is_stmt 0 view .LVU119
 449 0094 BDF81A30 		ldrh	r3, [sp, #26]
 450              	.LVL34:
1079:../Middlewares/stm32-mw-camera/sensors/vd1943/vd1943.c ****     min_frame_length = min_frame_length / 2;
 451              		.loc 1 1079 3 is_stmt 1 view .LVU120
1079:../Middlewares/stm32-mw-camera/sensors/vd1943/vd1943.c ****     min_frame_length = min_frame_length / 2;
 452              		.loc 1 1079 6 is_stmt 0 view .LVU121
 453 0098 B8F1000F 		cmp	r8, #0
 454 009c 20D1     		bne	.L26
1078:../Middlewares/stm32-mw-camera/sensors/vd1943/vd1943.c ****   if (gs_mode)
 455              		.loc 1 1078 20 view .LVU122
 456 009e 3C33     		adds	r3, r3, #60
 457              	.LVL35:
 458              	.L27:
1081:../Middlewares/stm32-mw-camera/sensors/vd1943/vd1943.c ****   *frame_length = MIN(MAX(min_frame_length, req_frame_length), 65535);
 459              		.loc 1 1081 3 is_stmt 1 view .LVU123
1081:../Middlewares/stm32-mw-camera/sensors/vd1943/vd1943.c ****   *frame_length = MIN(MAX(min_frame_length, req_frame_length), 65535);
 460              		.loc 1 1081 57 is_stmt 0 view .LVU124
 461 00a0 296C     		ldr	r1, [r5, #64]
 462 00a2 BDF81820 		ldrh	r2, [sp, #24]
1082:../Middlewares/stm32-mw-camera/sensors/vd1943/vd1943.c **** 
 463              		.loc 1 1082 19 view .LVU125
 464 00a6 4FF6FF70 		movw	r0, #65535
 465              	.LVL36:
1081:../Middlewares/stm32-mw-camera/sensors/vd1943/vd1943.c ****   *frame_length = MIN(MAX(min_frame_length, req_frame_length), 65535);
 466              		.loc 1 1081 57 view .LVU126
 467 00aa 4A43     		muls	r2, r1, r2
1081:../Middlewares/stm32-mw-camera/sensors/vd1943/vd1943.c ****   *frame_length = MIN(MAX(min_frame_length, req_frame_length), 65535);
 468              		.loc 1 1081 38 view .LVU127
 469 00ac 0799     		ldr	r1, [sp, #28]
1081:../Middlewares/stm32-mw-camera/sensors/vd1943/vd1943.c ****   *frame_length = MIN(MAX(min_frame_length, req_frame_length), 65535);
 470              		.loc 1 1081 57 view .LVU128
 471 00ae 9200     		lsls	r2, r2, #2
1081:../Middlewares/stm32-mw-camera/sensors/vd1943/vd1943.c ****   *frame_length = MIN(MAX(min_frame_length, req_frame_length), 65535);
 472              		.loc 1 1081 38 view .LVU129
 473 00b0 B1FBF2F2 		udiv	r2, r1, r2
 474              	.LVL37:
1082:../Middlewares/stm32-mw-camera/sensors/vd1943/vd1943.c **** 
 475              		.loc 1 1082 3 is_stmt 1 view .LVU130
1082:../Middlewares/stm32-mw-camera/sensors/vd1943/vd1943.c **** 
 476              		.loc 1 1082 19 is_stmt 0 view .LVU131
 477 00b4 9342     		cmp	r3, r2
 478 00b6 1946     		mov	r1, r3
 479 00b8 B8BF     		it	lt
 480 00ba 1146     		movlt	r1, r2
 481 00bc 8142     		cmp	r1, r0
 482 00be A8BF     		it	ge
 483 00c0 0146     		movge	r1, r0
1082:../Middlewares/stm32-mw-camera/sensors/vd1943/vd1943.c **** 
 484              		.loc 1 1082 17 view .LVU132
ARM GAS  /tmp/ccydMd0r.s 			page 30


 485 00c2 3980     		strh	r1, [r7]	@ movhi
1084:../Middlewares/stm32-mw-camera/sensors/vd1943/vd1943.c ****              *frame_length, fps);
 486              		.loc 1 1084 3 is_stmt 1 view .LVU133
1084:../Middlewares/stm32-mw-camera/sensors/vd1943/vd1943.c ****              *frame_length, fps);
 487              		.loc 1 1084 3 view .LVU134
 488 00c4 CDE90132 		strd	r3, r2, [sp, #4]
 489 00c8 40F23C43 		movw	r3, #1084
 490              	.LVL38:
1084:../Middlewares/stm32-mw-camera/sensors/vd1943/vd1943.c ****              *frame_length, fps);
 491              		.loc 1 1084 3 is_stmt 0 view .LVU135
 492 00cc CDE90316 		strd	r1, r6, [sp, #12]
 493 00d0 0093     		str	r3, [sp]
 494 00d2 0321     		movs	r1, #3
 495 00d4 0023     		movs	r3, #0
 496 00d6 2846     		mov	r0, r5
 497 00d8 064A     		ldr	r2, .L34+8
 498              	.LVL39:
1084:../Middlewares/stm32-mw-camera/sensors/vd1943/vd1943.c ****              *frame_length, fps);
 499              		.loc 1 1084 3 view .LVU136
 500 00da FFF7FEFF 		bl	VD1943_log_impl
 501              	.LVL40:
1084:../Middlewares/stm32-mw-camera/sensors/vd1943/vd1943.c ****              *frame_length, fps);
 502              		.loc 1 1084 3 is_stmt 1 discriminator 1 view .LVU137
1087:../Middlewares/stm32-mw-camera/sensors/vd1943/vd1943.c **** }
 503              		.loc 1 1087 3 view .LVU138
1087:../Middlewares/stm32-mw-camera/sensors/vd1943/vd1943.c **** }
 504              		.loc 1 1087 10 is_stmt 0 view .LVU139
 505 00de C8E7     		b	.L17
 506              	.LVL41:
 507              	.L26:
1080:../Middlewares/stm32-mw-camera/sensors/vd1943/vd1943.c ****   req_frame_length =  system_pll_clk / (4 * line_length * drv_vd1943_ctx->config_save.frame_rate);
 508              		.loc 1 1080 5 is_stmt 1 view .LVU140
1080:../Middlewares/stm32-mw-camera/sensors/vd1943/vd1943.c ****   req_frame_length =  system_pll_clk / (4 * line_length * drv_vd1943_ctx->config_save.frame_rate);
 509              		.loc 1 1080 22 is_stmt 0 view .LVU141
 510 00e0 5B10     		asrs	r3, r3, #1
 511              	.LVL42:
1080:../Middlewares/stm32-mw-camera/sensors/vd1943/vd1943.c ****   req_frame_length =  system_pll_clk / (4 * line_length * drv_vd1943_ctx->config_save.frame_rate);
 512              		.loc 1 1080 22 view .LVU142
 513 00e2 1E33     		adds	r3, r3, #30
 514 00e4 DCE7     		b	.L27
 515              	.LVL43:
 516              	.L30:
1035:../Middlewares/stm32-mw-camera/sensors/vd1943/vd1943.c ****   {
 517              		.loc 1 1035 3 view .LVU143
 518 00e6 4FF0FF34 		mov	r4, #-1
 519 00ea C2E7     		b	.L17
 520              	.L35:
 521              		.align	2
 522              	.L34:
 523 00ec 00000000 		.word	__func__.35
 524 00f0 00000000 		.word	.LC4
 525 00f4 25000000 		.word	.LC5
 526              		.cfi_endproc
 527              	.LFE33:
 529              		.section	.text.VD1943_GetExpoCommon,"ax",%progbits
 530              		.align	1
 531              		.syntax unified
ARM GAS  /tmp/ccydMd0r.s 			page 31


 532              		.thumb
 533              		.thumb_func
 535              	VD1943_GetExpoCommon:
 536              	.LVL44:
 537              	.LFB14:
 524:../Middlewares/stm32-mw-camera/sensors/vd1943/vd1943.c ****   uint16_t reg16;
 538              		.loc 1 524 1 is_stmt 1 view -0
 539              		.cfi_startproc
 540              		@ args = 0, pretend = 0, frame = 8
 541              		@ frame_needed = 0, uses_anonymous_args = 0
 525:../Middlewares/stm32-mw-camera/sensors/vd1943/vd1943.c ****   int ret;
 542              		.loc 1 525 3 view .LVU145
 526:../Middlewares/stm32-mw-camera/sensors/vd1943/vd1943.c **** 
 543              		.loc 1 526 3 view .LVU146
 528:../Middlewares/stm32-mw-camera/sensors/vd1943/vd1943.c ****   VD1943_TraceError(ctx, ret);
 544              		.loc 1 528 3 view .LVU147
 524:../Middlewares/stm32-mw-camera/sensors/vd1943/vd1943.c ****   uint16_t reg16;
 545              		.loc 1 524 1 is_stmt 0 view .LVU148
 546 0000 70B5     		push	{r4, r5, r6, lr}
 547              		.cfi_def_cfa_offset 16
 548              		.cfi_offset 4, -16
 549              		.cfi_offset 5, -12
 550              		.cfi_offset 6, -8
 551              		.cfi_offset 14, -4
 552 0002 86B0     		sub	sp, sp, #24
 553              		.cfi_def_cfa_offset 40
 524:../Middlewares/stm32-mw-camera/sensors/vd1943/vd1943.c ****   uint16_t reg16;
 554              		.loc 1 524 1 view .LVU149
 555 0004 0E46     		mov	r6, r1
 528:../Middlewares/stm32-mw-camera/sensors/vd1943/vd1943.c ****   VD1943_TraceError(ctx, ret);
 556              		.loc 1 528 9 view .LVU150
 557 0006 8368     		ldr	r3, [r0, #8]
 558 0008 40F67A41 		movw	r1, #3194
 559              	.LVL45:
 528:../Middlewares/stm32-mw-camera/sensors/vd1943/vd1943.c ****   VD1943_TraceError(ctx, ret);
 560              		.loc 1 528 9 view .LVU151
 561 000c 0DF11602 		add	r2, sp, #22
 524:../Middlewares/stm32-mw-camera/sensors/vd1943/vd1943.c ****   uint16_t reg16;
 562              		.loc 1 524 1 view .LVU152
 563 0010 0546     		mov	r5, r0
 528:../Middlewares/stm32-mw-camera/sensors/vd1943/vd1943.c ****   VD1943_TraceError(ctx, ret);
 564              		.loc 1 528 9 view .LVU153
 565 0012 9847     		blx	r3
 566              	.LVL46:
 529:../Middlewares/stm32-mw-camera/sensors/vd1943/vd1943.c ****   *expo_in_us = (reg16 * VD1943_LINE_TIME_IN_NS) / 1000;
 567              		.loc 1 529 3 is_stmt 1 view .LVU154
 529:../Middlewares/stm32-mw-camera/sensors/vd1943/vd1943.c ****   *expo_in_us = (reg16 * VD1943_LINE_TIME_IN_NS) / 1000;
 568              		.loc 1 529 3 view .LVU155
 569 0014 0446     		mov	r4, r0
 570 0016 60B9     		cbnz	r0, .L37
 529:../Middlewares/stm32-mw-camera/sensors/vd1943/vd1943.c ****   *expo_in_us = (reg16 * VD1943_LINE_TIME_IN_NS) / 1000;
 571              		.loc 1 529 3 discriminator 6 view .LVU156
 529:../Middlewares/stm32-mw-camera/sensors/vd1943/vd1943.c ****   *expo_in_us = (reg16 * VD1943_LINE_TIME_IN_NS) / 1000;
 572              		.loc 1 529 3 view .LVU157
 530:../Middlewares/stm32-mw-camera/sensors/vd1943/vd1943.c **** 
 573              		.loc 1 530 3 view .LVU158
 530:../Middlewares/stm32-mw-camera/sensors/vd1943/vd1943.c **** 
ARM GAS  /tmp/ccydMd0r.s 			page 32


 574              		.loc 1 530 24 is_stmt 0 view .LVU159
 575 0018 43F6A402 		movw	r2, #14500
 576 001c BDF81630 		ldrh	r3, [sp, #22]
 577 0020 5343     		muls	r3, r2, r3
 530:../Middlewares/stm32-mw-camera/sensors/vd1943/vd1943.c **** 
 578              		.loc 1 530 50 view .LVU160
 579 0022 4FF47A72 		mov	r2, #1000
 580 0026 B3FBF2F3 		udiv	r3, r3, r2
 530:../Middlewares/stm32-mw-camera/sensors/vd1943/vd1943.c **** 
 581              		.loc 1 530 15 view .LVU161
 582 002a 3360     		str	r3, [r6]
 532:../Middlewares/stm32-mw-camera/sensors/vd1943/vd1943.c **** }
 583              		.loc 1 532 3 is_stmt 1 view .LVU162
 584              	.LVL47:
 585              	.L36:
 533:../Middlewares/stm32-mw-camera/sensors/vd1943/vd1943.c **** 
 586              		.loc 1 533 1 is_stmt 0 view .LVU163
 587 002c 2046     		mov	r0, r4
 588 002e 06B0     		add	sp, sp, #24
 589              		.cfi_remember_state
 590              		.cfi_def_cfa_offset 16
 591              		@ sp needed
 592 0030 70BD     		pop	{r4, r5, r6, pc}
 593              	.LVL48:
 594              	.L37:
 595              		.cfi_restore_state
 529:../Middlewares/stm32-mw-camera/sensors/vd1943/vd1943.c ****   *expo_in_us = (reg16 * VD1943_LINE_TIME_IN_NS) / 1000;
 596              		.loc 1 529 3 is_stmt 1 discriminator 1 view .LVU164
 529:../Middlewares/stm32-mw-camera/sensors/vd1943/vd1943.c ****   *expo_in_us = (reg16 * VD1943_LINE_TIME_IN_NS) / 1000;
 597              		.loc 1 529 3 discriminator 1 view .LVU165
 598 0032 40F21123 		movw	r3, #529
 599 0036 064A     		ldr	r2, .L39
 600 0038 0290     		str	r0, [sp, #8]
 601 003a 0092     		str	r2, [sp]
 602 003c 2846     		mov	r0, r5
 603              	.LVL49:
 529:../Middlewares/stm32-mw-camera/sensors/vd1943/vd1943.c ****   *expo_in_us = (reg16 * VD1943_LINE_TIME_IN_NS) / 1000;
 604              		.loc 1 529 3 is_stmt 0 discriminator 1 view .LVU166
 605 003e 0021     		movs	r1, #0
 606 0040 044A     		ldr	r2, .L39+4
 607 0042 0193     		str	r3, [sp, #4]
 608 0044 FFF7FEFF 		bl	VD1943_log_impl
 609              	.LVL50:
 529:../Middlewares/stm32-mw-camera/sensors/vd1943/vd1943.c ****   *expo_in_us = (reg16 * VD1943_LINE_TIME_IN_NS) / 1000;
 610              		.loc 1 529 3 is_stmt 1 discriminator 3 view .LVU167
 529:../Middlewares/stm32-mw-camera/sensors/vd1943/vd1943.c ****   *expo_in_us = (reg16 * VD1943_LINE_TIME_IN_NS) / 1000;
 611              		.loc 1 529 3 discriminator 3 view .LVU168
 529:../Middlewares/stm32-mw-camera/sensors/vd1943/vd1943.c ****   *expo_in_us = (reg16 * VD1943_LINE_TIME_IN_NS) / 1000;
 612              		.loc 1 529 3 discriminator 4 view .LVU169
 613 0048 2846     		mov	r0, r5
 614 004a FFF7FEFF 		bl	display_error
 615              	.LVL51:
 529:../Middlewares/stm32-mw-camera/sensors/vd1943/vd1943.c ****   *expo_in_us = (reg16 * VD1943_LINE_TIME_IN_NS) / 1000;
 616              		.loc 1 529 3 discriminator 6 view .LVU170
 617 004e EDE7     		b	.L36
 618              	.L40:
 619              		.align	2
ARM GAS  /tmp/ccydMd0r.s 			page 33


 620              	.L39:
 621 0050 00000000 		.word	__func__.31
 622 0054 00000000 		.word	.LC4
 623              		.cfi_endproc
 624              	.LFE14:
 626              		.section	.text.VD1943_GetExpo_GS,"ax",%progbits
 627              		.align	1
 628              		.syntax unified
 629              		.thumb
 630              		.thumb_func
 632              	VD1943_GetExpo_GS:
 633              	.LVL52:
 634              	.LFB17:
 567:../Middlewares/stm32-mw-camera/sensors/vd1943/vd1943.c ****   return VD1943_GetExpoCommon(ctx, expo_in_us);
 635              		.loc 1 567 1 view -0
 636              		.cfi_startproc
 637              		@ args = 0, pretend = 0, frame = 0
 638              		@ frame_needed = 0, uses_anonymous_args = 0
 639              		@ link register save eliminated.
 568:../Middlewares/stm32-mw-camera/sensors/vd1943/vd1943.c **** }
 640              		.loc 1 568 3 view .LVU172
 568:../Middlewares/stm32-mw-camera/sensors/vd1943/vd1943.c **** }
 641              		.loc 1 568 10 is_stmt 0 view .LVU173
 642 0000 FFF7FEBF 		b	VD1943_GetExpoCommon
 643              	.LVL53:
 568:../Middlewares/stm32-mw-camera/sensors/vd1943/vd1943.c **** }
 644              		.loc 1 568 10 view .LVU174
 645              		.cfi_endproc
 646              	.LFE17:
 648              		.section	.text.VD1943_SetExpo_RS,"ax",%progbits
 649              		.align	1
 650              		.syntax unified
 651              		.thumb
 652              		.thumb_func
 654              	VD1943_SetExpo_RS:
 655              	.LVL54:
 656              	.LFB18:
 572:../Middlewares/stm32-mw-camera/sensors/vd1943/vd1943.c ****   unsigned int expo_in_line = (expo_in_us * 1000 + VD1943_LINE_TIME_IN_NS - 1) / VD1943_LINE_TIME_I
 657              		.loc 1 572 1 is_stmt 1 view -0
 658              		.cfi_startproc
 659              		@ args = 0, pretend = 0, frame = 0
 660              		@ frame_needed = 0, uses_anonymous_args = 0
 573:../Middlewares/stm32-mw-camera/sensors/vd1943/vd1943.c ****   int ret;
 661              		.loc 1 573 3 view .LVU176
 573:../Middlewares/stm32-mw-camera/sensors/vd1943/vd1943.c ****   int ret;
 662              		.loc 1 573 75 is_stmt 0 view .LVU177
 663 0000 4FF47A72 		mov	r2, #1000
 664 0004 43F6A303 		movw	r3, #14499
 665 0008 02FB0131 		mla	r1, r2, r1, r3
 666              	.LVL55:
 576:../Middlewares/stm32-mw-camera/sensors/vd1943/vd1943.c ****     return -1;
 667              		.loc 1 576 6 view .LVU178
 668 000c 47F24713 		movw	r3, #28999
 573:../Middlewares/stm32-mw-camera/sensors/vd1943/vd1943.c ****   int ret;
 669              		.loc 1 573 16 view .LVU179
 670 0010 43F6A402 		movw	r2, #14500
 572:../Middlewares/stm32-mw-camera/sensors/vd1943/vd1943.c ****   unsigned int expo_in_line = (expo_in_us * 1000 + VD1943_LINE_TIME_IN_NS - 1) / VD1943_LINE_TIME_I
ARM GAS  /tmp/ccydMd0r.s 			page 34


 671              		.loc 1 572 1 view .LVU180
 672 0014 30B5     		push	{r4, r5, lr}
 673              		.cfi_def_cfa_offset 12
 674              		.cfi_offset 4, -12
 675              		.cfi_offset 5, -8
 676              		.cfi_offset 14, -4
 576:../Middlewares/stm32-mw-camera/sensors/vd1943/vd1943.c ****     return -1;
 677              		.loc 1 576 6 view .LVU181
 678 0016 9942     		cmp	r1, r3
 572:../Middlewares/stm32-mw-camera/sensors/vd1943/vd1943.c ****   unsigned int expo_in_line = (expo_in_us * 1000 + VD1943_LINE_TIME_IN_NS - 1) / VD1943_LINE_TIME_I
 679              		.loc 1 572 1 view .LVU182
 680 0018 0546     		mov	r5, r0
 573:../Middlewares/stm32-mw-camera/sensors/vd1943/vd1943.c ****   int ret;
 681              		.loc 1 573 16 view .LVU183
 682 001a B1FBF2F2 		udiv	r2, r1, r2
 683              	.LVL56:
 574:../Middlewares/stm32-mw-camera/sensors/vd1943/vd1943.c **** 
 684              		.loc 1 574 3 is_stmt 1 view .LVU184
 576:../Middlewares/stm32-mw-camera/sensors/vd1943/vd1943.c ****     return -1;
 685              		.loc 1 576 3 view .LVU185
 572:../Middlewares/stm32-mw-camera/sensors/vd1943/vd1943.c ****   unsigned int expo_in_line = (expo_in_us * 1000 + VD1943_LINE_TIME_IN_NS - 1) / VD1943_LINE_TIME_I
 686              		.loc 1 572 1 is_stmt 0 view .LVU186
 687 001e 85B0     		sub	sp, sp, #20
 688              		.cfi_def_cfa_offset 32
 576:../Middlewares/stm32-mw-camera/sensors/vd1943/vd1943.c ****     return -1;
 689              		.loc 1 576 6 view .LVU187
 690 0020 17D9     		bls	.L45
 579:../Middlewares/stm32-mw-camera/sensors/vd1943/vd1943.c ****   VD1943_TraceError(ctx, ret);
 691              		.loc 1 579 3 is_stmt 1 view .LVU188
 579:../Middlewares/stm32-mw-camera/sensors/vd1943/vd1943.c ****   VD1943_TraceError(ctx, ret);
 692              		.loc 1 579 9 is_stmt 0 view .LVU189
 693 0022 40F67A41 		movw	r1, #3194
 694 0026 4369     		ldr	r3, [r0, #20]
 695 0028 92B2     		uxth	r2, r2
 696              	.LVL57:
 579:../Middlewares/stm32-mw-camera/sensors/vd1943/vd1943.c ****   VD1943_TraceError(ctx, ret);
 697              		.loc 1 579 9 view .LVU190
 698 002a 9847     		blx	r3
 699              	.LVL58:
 580:../Middlewares/stm32-mw-camera/sensors/vd1943/vd1943.c **** 
 700              		.loc 1 580 3 is_stmt 1 view .LVU191
 580:../Middlewares/stm32-mw-camera/sensors/vd1943/vd1943.c **** 
 701              		.loc 1 580 3 view .LVU192
 702 002c 0446     		mov	r4, r0
 703 002e 68B1     		cbz	r0, .L42
 580:../Middlewares/stm32-mw-camera/sensors/vd1943/vd1943.c **** 
 704              		.loc 1 580 3 discriminator 1 view .LVU193
 580:../Middlewares/stm32-mw-camera/sensors/vd1943/vd1943.c **** 
 705              		.loc 1 580 3 discriminator 1 view .LVU194
 706 0030 4FF41173 		mov	r3, #580
 707 0034 084A     		ldr	r2, .L49
 708 0036 0290     		str	r0, [sp, #8]
 709 0038 0092     		str	r2, [sp]
 710 003a 2846     		mov	r0, r5
 711              	.LVL59:
 580:../Middlewares/stm32-mw-camera/sensors/vd1943/vd1943.c **** 
 712              		.loc 1 580 3 is_stmt 0 discriminator 1 view .LVU195
ARM GAS  /tmp/ccydMd0r.s 			page 35


 713 003c 0021     		movs	r1, #0
 714 003e 074A     		ldr	r2, .L49+4
 715 0040 0193     		str	r3, [sp, #4]
 716 0042 FFF7FEFF 		bl	VD1943_log_impl
 717              	.LVL60:
 580:../Middlewares/stm32-mw-camera/sensors/vd1943/vd1943.c **** 
 718              		.loc 1 580 3 is_stmt 1 discriminator 3 view .LVU196
 580:../Middlewares/stm32-mw-camera/sensors/vd1943/vd1943.c **** 
 719              		.loc 1 580 3 discriminator 3 view .LVU197
 580:../Middlewares/stm32-mw-camera/sensors/vd1943/vd1943.c **** 
 720              		.loc 1 580 3 discriminator 4 view .LVU198
 721 0046 2846     		mov	r0, r5
 722 0048 FFF7FEFF 		bl	display_error
 723              	.LVL61:
 724              	.L42:
 583:../Middlewares/stm32-mw-camera/sensors/vd1943/vd1943.c **** 
 725              		.loc 1 583 1 is_stmt 0 view .LVU199
 726 004c 2046     		mov	r0, r4
 727 004e 05B0     		add	sp, sp, #20
 728              		.cfi_remember_state
 729              		.cfi_def_cfa_offset 12
 730              		@ sp needed
 731 0050 30BD     		pop	{r4, r5, pc}
 732              	.LVL62:
 733              	.L45:
 734              		.cfi_restore_state
 577:../Middlewares/stm32-mw-camera/sensors/vd1943/vd1943.c **** 
 735              		.loc 1 577 12 view .LVU200
 736 0052 4FF0FF34 		mov	r4, #-1
 737 0056 F9E7     		b	.L42
 738              	.L50:
 739              		.align	2
 740              	.L49:
 741 0058 00000000 		.word	__func__.30
 742 005c 00000000 		.word	.LC4
 743              		.cfi_endproc
 744              	.LFE18:
 746              		.section	.text.VD1943_SetExpo_RS_HDR,"ax",%progbits
 747              		.align	1
 748              		.syntax unified
 749              		.thumb
 750              		.thumb_func
 752              	VD1943_SetExpo_RS_HDR:
 753              	.LVL63:
 754              	.LFB20:
 591:../Middlewares/stm32-mw-camera/sensors/vd1943/vd1943.c ****   /* we use a short expo ratio of 1/20 */
 755              		.loc 1 591 1 is_stmt 1 view -0
 756              		.cfi_startproc
 757              		@ args = 0, pretend = 0, frame = 0
 758              		@ frame_needed = 0, uses_anonymous_args = 0
 593:../Middlewares/stm32-mw-camera/sensors/vd1943/vd1943.c ****   int ret;
 759              		.loc 1 593 3 view .LVU202
 591:../Middlewares/stm32-mw-camera/sensors/vd1943/vd1943.c ****   /* we use a short expo ratio of 1/20 */
 760              		.loc 1 591 1 is_stmt 0 view .LVU203
 761 0000 7FB5     		push	{r0, r1, r2, r3, r4, r5, r6, lr}
 762              		.cfi_def_cfa_offset 32
 763              		.cfi_offset 4, -16
ARM GAS  /tmp/ccydMd0r.s 			page 36


 764              		.cfi_offset 5, -12
 765              		.cfi_offset 6, -8
 766              		.cfi_offset 14, -4
 591:../Middlewares/stm32-mw-camera/sensors/vd1943/vd1943.c ****   /* we use a short expo ratio of 1/20 */
 767              		.loc 1 591 1 view .LVU204
 768 0002 0546     		mov	r5, r0
 769 0004 0E46     		mov	r6, r1
 770              	.LVL64:
 594:../Middlewares/stm32-mw-camera/sensors/vd1943/vd1943.c **** 
 771              		.loc 1 594 3 is_stmt 1 view .LVU205
 596:../Middlewares/stm32-mw-camera/sensors/vd1943/vd1943.c ****   if (ret)
 772              		.loc 1 596 3 view .LVU206
 596:../Middlewares/stm32-mw-camera/sensors/vd1943/vd1943.c ****   if (ret)
 773              		.loc 1 596 9 is_stmt 0 view .LVU207
 774 0006 FFF7FEFF 		bl	VD1943_SetExpo_RS
 775              	.LVL65:
 597:../Middlewares/stm32-mw-camera/sensors/vd1943/vd1943.c ****     return ret;
 776              		.loc 1 597 3 is_stmt 1 view .LVU208
 597:../Middlewares/stm32-mw-camera/sensors/vd1943/vd1943.c ****     return ret;
 777              		.loc 1 597 6 is_stmt 0 view .LVU209
 778 000a 0446     		mov	r4, r0
 779 000c 08BB     		cbnz	r0, .L51
 600:../Middlewares/stm32-mw-camera/sensors/vd1943/vd1943.c ****   ret = ctx->write16(ctx, VD1943_REG_INTEGRATION_TIME_SHORT(0), expo_short_in_line);
 780              		.loc 1 600 3 is_stmt 1 view .LVU210
 593:../Middlewares/stm32-mw-camera/sensors/vd1943/vd1943.c ****   int ret;
 781              		.loc 1 593 79 is_stmt 0 view .LVU211
 782 000e 3223     		movs	r3, #50
 783 0010 43F6A302 		movw	r2, #14499
 784 0014 03FB0622 		mla	r2, r3, r6, r2
 593:../Middlewares/stm32-mw-camera/sensors/vd1943/vd1943.c ****   int ret;
 785              		.loc 1 593 16 view .LVU212
 786 0018 43F6A403 		movw	r3, #14500
 787 001c B2FBF3F2 		udiv	r2, r2, r3
 788              	.LVL66:
 601:../Middlewares/stm32-mw-camera/sensors/vd1943/vd1943.c ****   VD1943_TraceError(ctx, ret);
 789              		.loc 1 601 3 is_stmt 1 view .LVU213
 600:../Middlewares/stm32-mw-camera/sensors/vd1943/vd1943.c ****   ret = ctx->write16(ctx, VD1943_REG_INTEGRATION_TIME_SHORT(0), expo_short_in_line);
 790              		.loc 1 600 22 is_stmt 0 view .LVU214
 791 0020 022A     		cmp	r2, #2
 792 0022 38BF     		it	cc
 793 0024 0222     		movcc	r2, #2
 794              	.LVL67:
 601:../Middlewares/stm32-mw-camera/sensors/vd1943/vd1943.c ****   VD1943_TraceError(ctx, ret);
 795              		.loc 1 601 9 view .LVU215
 796 0026 40F67E41 		movw	r1, #3198
 797 002a 2846     		mov	r0, r5
 798              	.LVL68:
 601:../Middlewares/stm32-mw-camera/sensors/vd1943/vd1943.c ****   VD1943_TraceError(ctx, ret);
 799              		.loc 1 601 9 view .LVU216
 800 002c 6B69     		ldr	r3, [r5, #20]
 801              	.LVL69:
 601:../Middlewares/stm32-mw-camera/sensors/vd1943/vd1943.c ****   VD1943_TraceError(ctx, ret);
 802              		.loc 1 601 9 view .LVU217
 803 002e 92B2     		uxth	r2, r2
 804 0030 9847     		blx	r3
 805              	.LVL70:
 602:../Middlewares/stm32-mw-camera/sensors/vd1943/vd1943.c **** 
ARM GAS  /tmp/ccydMd0r.s 			page 37


 806              		.loc 1 602 3 is_stmt 1 view .LVU218
 602:../Middlewares/stm32-mw-camera/sensors/vd1943/vd1943.c **** 
 807              		.loc 1 602 3 view .LVU219
 808 0032 0446     		mov	r4, r0
 809 0034 68B1     		cbz	r0, .L51
 602:../Middlewares/stm32-mw-camera/sensors/vd1943/vd1943.c **** 
 810              		.loc 1 602 3 discriminator 1 view .LVU220
 602:../Middlewares/stm32-mw-camera/sensors/vd1943/vd1943.c **** 
 811              		.loc 1 602 3 discriminator 1 view .LVU221
 812 0036 40F25A23 		movw	r3, #602
 813 003a 074A     		ldr	r2, .L57
 814 003c 0290     		str	r0, [sp, #8]
 815 003e 0092     		str	r2, [sp]
 816 0040 2846     		mov	r0, r5
 817              	.LVL71:
 602:../Middlewares/stm32-mw-camera/sensors/vd1943/vd1943.c **** 
 818              		.loc 1 602 3 is_stmt 0 discriminator 1 view .LVU222
 819 0042 0021     		movs	r1, #0
 820 0044 054A     		ldr	r2, .L57+4
 821 0046 0193     		str	r3, [sp, #4]
 822 0048 FFF7FEFF 		bl	VD1943_log_impl
 823              	.LVL72:
 602:../Middlewares/stm32-mw-camera/sensors/vd1943/vd1943.c **** 
 824              		.loc 1 602 3 is_stmt 1 discriminator 3 view .LVU223
 602:../Middlewares/stm32-mw-camera/sensors/vd1943/vd1943.c **** 
 825              		.loc 1 602 3 discriminator 3 view .LVU224
 602:../Middlewares/stm32-mw-camera/sensors/vd1943/vd1943.c **** 
 826              		.loc 1 602 3 discriminator 4 view .LVU225
 827 004c 2846     		mov	r0, r5
 828 004e FFF7FEFF 		bl	display_error
 829              	.LVL73:
 830              	.L51:
 605:../Middlewares/stm32-mw-camera/sensors/vd1943/vd1943.c **** 
 831              		.loc 1 605 1 is_stmt 0 view .LVU226
 832 0052 2046     		mov	r0, r4
 833 0054 04B0     		add	sp, sp, #16
 834              		.cfi_def_cfa_offset 16
 835              		@ sp needed
 836 0056 70BD     		pop	{r4, r5, r6, pc}
 837              	.LVL74:
 838              	.L58:
 605:../Middlewares/stm32-mw-camera/sensors/vd1943/vd1943.c **** 
 839              		.loc 1 605 1 view .LVU227
 840              		.align	2
 841              	.L57:
 842 0058 00000000 		.word	__func__.32
 843 005c 00000000 		.word	.LC4
 844              		.cfi_endproc
 845              	.LFE20:
 847              		.section	.text.VD1943_SetDigitalGain_IR,"ax",%progbits
 848              		.align	1
 849              		.syntax unified
 850              		.thumb
 851              		.thumb_func
 853              	VD1943_SetDigitalGain_IR:
 854              	.LVL75:
 855              	.LFB12:
ARM GAS  /tmp/ccydMd0r.s 			page 38


 500:../Middlewares/stm32-mw-camera/sensors/vd1943/vd1943.c ****   int ret;
 856              		.loc 1 500 1 is_stmt 1 view -0
 857              		.cfi_startproc
 858              		@ args = 0, pretend = 0, frame = 0
 859              		@ frame_needed = 0, uses_anonymous_args = 0
 501:../Middlewares/stm32-mw-camera/sensors/vd1943/vd1943.c **** 
 860              		.loc 1 501 3 view .LVU229
 503:../Middlewares/stm32-mw-camera/sensors/vd1943/vd1943.c ****   VD1943_TraceError(ctx, ret);
 861              		.loc 1 503 3 view .LVU230
 500:../Middlewares/stm32-mw-camera/sensors/vd1943/vd1943.c ****   int ret;
 862              		.loc 1 500 1 is_stmt 0 view .LVU231
 863 0000 30B5     		push	{r4, r5, lr}
 864              		.cfi_def_cfa_offset 12
 865              		.cfi_offset 4, -12
 866              		.cfi_offset 5, -8
 867              		.cfi_offset 14, -4
 503:../Middlewares/stm32-mw-camera/sensors/vd1943/vd1943.c ****   VD1943_TraceError(ctx, ret);
 868              		.loc 1 503 9 view .LVU232
 869 0002 8AB2     		uxth	r2, r1
 870 0004 4369     		ldr	r3, [r0, #20]
 871 0006 40F68641 		movw	r1, #3206
 872              	.LVL76:
 500:../Middlewares/stm32-mw-camera/sensors/vd1943/vd1943.c ****   int ret;
 873              		.loc 1 500 1 view .LVU233
 874 000a 85B0     		sub	sp, sp, #20
 875              		.cfi_def_cfa_offset 32
 500:../Middlewares/stm32-mw-camera/sensors/vd1943/vd1943.c ****   int ret;
 876              		.loc 1 500 1 view .LVU234
 877 000c 0546     		mov	r5, r0
 503:../Middlewares/stm32-mw-camera/sensors/vd1943/vd1943.c ****   VD1943_TraceError(ctx, ret);
 878              		.loc 1 503 9 view .LVU235
 879 000e 9847     		blx	r3
 880              	.LVL77:
 504:../Middlewares/stm32-mw-camera/sensors/vd1943/vd1943.c **** 
 881              		.loc 1 504 3 is_stmt 1 view .LVU236
 504:../Middlewares/stm32-mw-camera/sensors/vd1943/vd1943.c **** 
 882              		.loc 1 504 3 view .LVU237
 883 0010 0446     		mov	r4, r0
 884 0012 68B1     		cbz	r0, .L59
 504:../Middlewares/stm32-mw-camera/sensors/vd1943/vd1943.c **** 
 885              		.loc 1 504 3 discriminator 1 view .LVU238
 504:../Middlewares/stm32-mw-camera/sensors/vd1943/vd1943.c **** 
 886              		.loc 1 504 3 discriminator 1 view .LVU239
 887 0014 4FF4FC73 		mov	r3, #504
 888 0018 074A     		ldr	r2, .L64
 889 001a 0290     		str	r0, [sp, #8]
 890 001c 0092     		str	r2, [sp]
 891 001e 2846     		mov	r0, r5
 892              	.LVL78:
 504:../Middlewares/stm32-mw-camera/sensors/vd1943/vd1943.c **** 
 893              		.loc 1 504 3 is_stmt 0 discriminator 1 view .LVU240
 894 0020 0021     		movs	r1, #0
 895 0022 064A     		ldr	r2, .L64+4
 896 0024 0193     		str	r3, [sp, #4]
 897 0026 FFF7FEFF 		bl	VD1943_log_impl
 898              	.LVL79:
 504:../Middlewares/stm32-mw-camera/sensors/vd1943/vd1943.c **** 
ARM GAS  /tmp/ccydMd0r.s 			page 39


 899              		.loc 1 504 3 is_stmt 1 discriminator 3 view .LVU241
 504:../Middlewares/stm32-mw-camera/sensors/vd1943/vd1943.c **** 
 900              		.loc 1 504 3 discriminator 3 view .LVU242
 504:../Middlewares/stm32-mw-camera/sensors/vd1943/vd1943.c **** 
 901              		.loc 1 504 3 discriminator 4 view .LVU243
 902 002a 2846     		mov	r0, r5
 903 002c FFF7FEFF 		bl	display_error
 904              	.LVL80:
 504:../Middlewares/stm32-mw-camera/sensors/vd1943/vd1943.c **** 
 905              		.loc 1 504 3 discriminator 6 view .LVU244
 906              	.L59:
 507:../Middlewares/stm32-mw-camera/sensors/vd1943/vd1943.c **** 
 907              		.loc 1 507 1 is_stmt 0 view .LVU245
 908 0030 2046     		mov	r0, r4
 909 0032 05B0     		add	sp, sp, #20
 910              		.cfi_def_cfa_offset 12
 911              		@ sp needed
 912 0034 30BD     		pop	{r4, r5, pc}
 913              	.LVL81:
 914              	.L65:
 507:../Middlewares/stm32-mw-camera/sensors/vd1943/vd1943.c **** 
 915              		.loc 1 507 1 view .LVU246
 916 0036 00BF     		.align	2
 917              	.L64:
 918 0038 00000000 		.word	__func__.29
 919 003c 00000000 		.word	.LC4
 920              		.cfi_endproc
 921              	.LFE12:
 923              		.section	.text.VD1943_SetDigitalGain_RGB,"ax",%progbits
 924              		.align	1
 925              		.syntax unified
 926              		.thumb
 927              		.thumb_func
 929              	VD1943_SetDigitalGain_RGB:
 930              	.LVL82:
 931              	.LFB11:
 486:../Middlewares/stm32-mw-camera/sensors/vd1943/vd1943.c ****   int ret;
 932              		.loc 1 486 1 is_stmt 1 view -0
 933              		.cfi_startproc
 934              		@ args = 0, pretend = 0, frame = 0
 935              		@ frame_needed = 0, uses_anonymous_args = 0
 487:../Middlewares/stm32-mw-camera/sensors/vd1943/vd1943.c **** 
 936              		.loc 1 487 3 view .LVU248
 489:../Middlewares/stm32-mw-camera/sensors/vd1943/vd1943.c ****   VD1943_TraceError(ctx, ret);
 937              		.loc 1 489 3 view .LVU249
 486:../Middlewares/stm32-mw-camera/sensors/vd1943/vd1943.c ****   int ret;
 938              		.loc 1 486 1 is_stmt 0 view .LVU250
 939 0000 7FB5     		push	{r0, r1, r2, r3, r4, r5, r6, lr}
 940              		.cfi_def_cfa_offset 32
 941              		.cfi_offset 4, -16
 942              		.cfi_offset 5, -12
 943              		.cfi_offset 6, -8
 944              		.cfi_offset 14, -4
 489:../Middlewares/stm32-mw-camera/sensors/vd1943/vd1943.c ****   VD1943_TraceError(ctx, ret);
 945              		.loc 1 489 9 view .LVU251
 946 0002 8EB2     		uxth	r6, r1
 947 0004 3246     		mov	r2, r6
ARM GAS  /tmp/ccydMd0r.s 			page 40


 948 0006 4FF44861 		mov	r1, #3200
 949              	.LVL83:
 489:../Middlewares/stm32-mw-camera/sensors/vd1943/vd1943.c ****   VD1943_TraceError(ctx, ret);
 950              		.loc 1 489 9 view .LVU252
 951 000a 4369     		ldr	r3, [r0, #20]
 486:../Middlewares/stm32-mw-camera/sensors/vd1943/vd1943.c ****   int ret;
 952              		.loc 1 486 1 view .LVU253
 953 000c 0546     		mov	r5, r0
 489:../Middlewares/stm32-mw-camera/sensors/vd1943/vd1943.c ****   VD1943_TraceError(ctx, ret);
 954              		.loc 1 489 9 view .LVU254
 955 000e 9847     		blx	r3
 956              	.LVL84:
 490:../Middlewares/stm32-mw-camera/sensors/vd1943/vd1943.c ****   ret = ctx->write16(ctx, VD1943_DIGITAL_GAIN_G(0), gain);
 957              		.loc 1 490 3 is_stmt 1 view .LVU255
 490:../Middlewares/stm32-mw-camera/sensors/vd1943/vd1943.c ****   ret = ctx->write16(ctx, VD1943_DIGITAL_GAIN_G(0), gain);
 958              		.loc 1 490 3 view .LVU256
 959 0010 0446     		mov	r4, r0
 960 0012 58B9     		cbnz	r0, .L67
 490:../Middlewares/stm32-mw-camera/sensors/vd1943/vd1943.c ****   ret = ctx->write16(ctx, VD1943_DIGITAL_GAIN_G(0), gain);
 961              		.loc 1 490 3 discriminator 6 view .LVU257
 490:../Middlewares/stm32-mw-camera/sensors/vd1943/vd1943.c ****   ret = ctx->write16(ctx, VD1943_DIGITAL_GAIN_G(0), gain);
 962              		.loc 1 490 3 view .LVU258
 491:../Middlewares/stm32-mw-camera/sensors/vd1943/vd1943.c ****   VD1943_TraceError(ctx, ret);
 963              		.loc 1 491 3 view .LVU259
 491:../Middlewares/stm32-mw-camera/sensors/vd1943/vd1943.c ****   VD1943_TraceError(ctx, ret);
 964              		.loc 1 491 9 is_stmt 0 view .LVU260
 965 0014 3246     		mov	r2, r6
 966 0016 40F68241 		movw	r1, #3202
 967 001a 2846     		mov	r0, r5
 968              	.LVL85:
 491:../Middlewares/stm32-mw-camera/sensors/vd1943/vd1943.c ****   VD1943_TraceError(ctx, ret);
 969              		.loc 1 491 9 view .LVU261
 970 001c 6B69     		ldr	r3, [r5, #20]
 971 001e 9847     		blx	r3
 972              	.LVL86:
 492:../Middlewares/stm32-mw-camera/sensors/vd1943/vd1943.c ****   ret = ctx->write16(ctx, VD1943_DIGITAL_GAIN_B(0), gain);
 973              		.loc 1 492 3 is_stmt 1 view .LVU262
 492:../Middlewares/stm32-mw-camera/sensors/vd1943/vd1943.c ****   ret = ctx->write16(ctx, VD1943_DIGITAL_GAIN_B(0), gain);
 974              		.loc 1 492 3 view .LVU263
 975 0020 0446     		mov	r4, r0
 976 0022 A0B1     		cbz	r0, .L73
 492:../Middlewares/stm32-mw-camera/sensors/vd1943/vd1943.c ****   ret = ctx->write16(ctx, VD1943_DIGITAL_GAIN_B(0), gain);
 977              		.loc 1 492 3 discriminator 1 view .LVU264
 492:../Middlewares/stm32-mw-camera/sensors/vd1943/vd1943.c ****   ret = ctx->write16(ctx, VD1943_DIGITAL_GAIN_B(0), gain);
 978              		.loc 1 492 3 discriminator 1 view .LVU265
 979 0024 4FF4F673 		mov	r3, #492
 980 0028 0290     		str	r0, [sp, #8]
 981 002a 02E0     		b	.L74
 982              	.L67:
 490:../Middlewares/stm32-mw-camera/sensors/vd1943/vd1943.c ****   ret = ctx->write16(ctx, VD1943_DIGITAL_GAIN_G(0), gain);
 983              		.loc 1 490 3 discriminator 1 view .LVU266
 490:../Middlewares/stm32-mw-camera/sensors/vd1943/vd1943.c ****   ret = ctx->write16(ctx, VD1943_DIGITAL_GAIN_G(0), gain);
 984              		.loc 1 490 3 discriminator 1 view .LVU267
 985 002c 4FF4F573 		mov	r3, #490
 986 0030 0290     		str	r0, [sp, #8]
 987              	.L74:
 494:../Middlewares/stm32-mw-camera/sensors/vd1943/vd1943.c **** 
ARM GAS  /tmp/ccydMd0r.s 			page 41


 988              		.loc 1 494 3 is_stmt 0 discriminator 1 view .LVU268
 989 0032 0D4A     		ldr	r2, .L75
 990 0034 2846     		mov	r0, r5
 991              	.LVL87:
 494:../Middlewares/stm32-mw-camera/sensors/vd1943/vd1943.c **** 
 992              		.loc 1 494 3 discriminator 1 view .LVU269
 993 0036 0092     		str	r2, [sp]
 994 0038 0021     		movs	r1, #0
 995 003a 0C4A     		ldr	r2, .L75+4
 996 003c 0193     		str	r3, [sp, #4]
 997 003e FFF7FEFF 		bl	VD1943_log_impl
 998              	.LVL88:
 494:../Middlewares/stm32-mw-camera/sensors/vd1943/vd1943.c **** 
 999              		.loc 1 494 3 is_stmt 1 discriminator 3 view .LVU270
 494:../Middlewares/stm32-mw-camera/sensors/vd1943/vd1943.c **** 
 1000              		.loc 1 494 3 discriminator 3 view .LVU271
 494:../Middlewares/stm32-mw-camera/sensors/vd1943/vd1943.c **** 
 1001              		.loc 1 494 3 discriminator 4 view .LVU272
 1002 0042 2846     		mov	r0, r5
 1003 0044 FFF7FEFF 		bl	display_error
 1004              	.LVL89:
 494:../Middlewares/stm32-mw-camera/sensors/vd1943/vd1943.c **** 
 1005              		.loc 1 494 3 discriminator 6 view .LVU273
 494:../Middlewares/stm32-mw-camera/sensors/vd1943/vd1943.c **** 
 1006              		.loc 1 494 3 discriminator 7 view .LVU274
 1007              	.L66:
 497:../Middlewares/stm32-mw-camera/sensors/vd1943/vd1943.c **** 
 1008              		.loc 1 497 1 is_stmt 0 view .LVU275
 1009 0048 2046     		mov	r0, r4
 1010 004a 04B0     		add	sp, sp, #16
 1011              		.cfi_remember_state
 1012              		.cfi_def_cfa_offset 16
 1013              		@ sp needed
 1014 004c 70BD     		pop	{r4, r5, r6, pc}
 1015              	.LVL90:
 1016              	.L73:
 1017              		.cfi_restore_state
 492:../Middlewares/stm32-mw-camera/sensors/vd1943/vd1943.c ****   ret = ctx->write16(ctx, VD1943_DIGITAL_GAIN_B(0), gain);
 1018              		.loc 1 492 3 is_stmt 1 discriminator 3 view .LVU276
 492:../Middlewares/stm32-mw-camera/sensors/vd1943/vd1943.c ****   ret = ctx->write16(ctx, VD1943_DIGITAL_GAIN_B(0), gain);
 1019              		.loc 1 492 3 discriminator 3 view .LVU277
 492:../Middlewares/stm32-mw-camera/sensors/vd1943/vd1943.c ****   ret = ctx->write16(ctx, VD1943_DIGITAL_GAIN_B(0), gain);
 1020              		.loc 1 492 3 discriminator 6 view .LVU278
 492:../Middlewares/stm32-mw-camera/sensors/vd1943/vd1943.c ****   ret = ctx->write16(ctx, VD1943_DIGITAL_GAIN_B(0), gain);
 1021              		.loc 1 492 3 view .LVU279
 493:../Middlewares/stm32-mw-camera/sensors/vd1943/vd1943.c ****   VD1943_TraceError(ctx, ret);
 1022              		.loc 1 493 3 view .LVU280
 493:../Middlewares/stm32-mw-camera/sensors/vd1943/vd1943.c ****   VD1943_TraceError(ctx, ret);
 1023              		.loc 1 493 9 is_stmt 0 view .LVU281
 1024 004e 3246     		mov	r2, r6
 1025 0050 40F68441 		movw	r1, #3204
 1026 0054 2846     		mov	r0, r5
 1027              	.LVL91:
 493:../Middlewares/stm32-mw-camera/sensors/vd1943/vd1943.c ****   VD1943_TraceError(ctx, ret);
 1028              		.loc 1 493 9 view .LVU282
 1029 0056 6B69     		ldr	r3, [r5, #20]
 1030 0058 9847     		blx	r3
ARM GAS  /tmp/ccydMd0r.s 			page 42


 1031              	.LVL92:
 494:../Middlewares/stm32-mw-camera/sensors/vd1943/vd1943.c **** 
 1032              		.loc 1 494 3 is_stmt 1 view .LVU283
 494:../Middlewares/stm32-mw-camera/sensors/vd1943/vd1943.c **** 
 1033              		.loc 1 494 3 view .LVU284
 1034 005a 0446     		mov	r4, r0
 1035 005c 0028     		cmp	r0, #0
 1036 005e F3D0     		beq	.L66
 494:../Middlewares/stm32-mw-camera/sensors/vd1943/vd1943.c **** 
 1037              		.loc 1 494 3 discriminator 1 view .LVU285
 494:../Middlewares/stm32-mw-camera/sensors/vd1943/vd1943.c **** 
 1038              		.loc 1 494 3 discriminator 1 view .LVU286
 1039 0060 4FF4F773 		mov	r3, #494
 1040 0064 0290     		str	r0, [sp, #8]
 1041 0066 E4E7     		b	.L74
 1042              	.L76:
 1043              		.align	2
 1044              	.L75:
 1045 0068 00000000 		.word	__func__.28
 1046 006c 00000000 		.word	.LC4
 1047              		.cfi_endproc
 1048              	.LFE11:
 1050              		.section	.text.VD1943_SetDigitalGain_RGBNIR,"ax",%progbits
 1051              		.align	1
 1052              		.syntax unified
 1053              		.thumb
 1054              		.thumb_func
 1056              	VD1943_SetDigitalGain_RGBNIR:
 1057              	.LVL93:
 1058              	.LFB13:
 510:../Middlewares/stm32-mw-camera/sensors/vd1943/vd1943.c ****   int ret;
 1059              		.loc 1 510 1 view -0
 1060              		.cfi_startproc
 1061              		@ args = 0, pretend = 0, frame = 0
 1062              		@ frame_needed = 0, uses_anonymous_args = 0
 511:../Middlewares/stm32-mw-camera/sensors/vd1943/vd1943.c **** 
 1063              		.loc 1 511 3 view .LVU288
 513:../Middlewares/stm32-mw-camera/sensors/vd1943/vd1943.c ****   if (ret)
 1064              		.loc 1 513 3 view .LVU289
 510:../Middlewares/stm32-mw-camera/sensors/vd1943/vd1943.c ****   int ret;
 1065              		.loc 1 510 1 is_stmt 0 view .LVU290
 1066 0000 38B5     		push	{r3, r4, r5, lr}
 1067              		.cfi_def_cfa_offset 16
 1068              		.cfi_offset 3, -16
 1069              		.cfi_offset 4, -12
 1070              		.cfi_offset 5, -8
 1071              		.cfi_offset 14, -4
 510:../Middlewares/stm32-mw-camera/sensors/vd1943/vd1943.c ****   int ret;
 1072              		.loc 1 510 1 view .LVU291
 1073 0002 0446     		mov	r4, r0
 1074 0004 0D46     		mov	r5, r1
 513:../Middlewares/stm32-mw-camera/sensors/vd1943/vd1943.c ****   if (ret)
 1075              		.loc 1 513 9 view .LVU292
 1076 0006 FFF7FEFF 		bl	VD1943_SetDigitalGain_RGB
 1077              	.LVL94:
 514:../Middlewares/stm32-mw-camera/sensors/vd1943/vd1943.c ****     return ret;
 1078              		.loc 1 514 3 is_stmt 1 view .LVU293
ARM GAS  /tmp/ccydMd0r.s 			page 43


 514:../Middlewares/stm32-mw-camera/sensors/vd1943/vd1943.c ****     return ret;
 1079              		.loc 1 514 6 is_stmt 0 view .LVU294
 1080 000a 28B9     		cbnz	r0, .L77
 516:../Middlewares/stm32-mw-camera/sensors/vd1943/vd1943.c ****   if (ret)
 1081              		.loc 1 516 3 is_stmt 1 view .LVU295
 516:../Middlewares/stm32-mw-camera/sensors/vd1943/vd1943.c ****   if (ret)
 1082              		.loc 1 516 9 is_stmt 0 view .LVU296
 1083 000c 2946     		mov	r1, r5
 1084 000e 2046     		mov	r0, r4
 1085              	.LVL95:
 521:../Middlewares/stm32-mw-camera/sensors/vd1943/vd1943.c **** 
 1086              		.loc 1 521 1 view .LVU297
 1087 0010 BDE83840 		pop	{r3, r4, r5, lr}
 1088              		.cfi_remember_state
 1089              		.cfi_restore 14
 1090              		.cfi_restore 5
 1091              		.cfi_restore 4
 1092              		.cfi_restore 3
 1093              		.cfi_def_cfa_offset 0
 1094              	.LVL96:
 516:../Middlewares/stm32-mw-camera/sensors/vd1943/vd1943.c ****   if (ret)
 1095              		.loc 1 516 9 view .LVU298
 1096 0014 FFF7FEBF 		b	VD1943_SetDigitalGain_IR
 1097              	.LVL97:
 1098              	.L77:
 1099              		.cfi_restore_state
 521:../Middlewares/stm32-mw-camera/sensors/vd1943/vd1943.c **** 
 1100              		.loc 1 521 1 view .LVU299
 1101 0018 38BD     		pop	{r3, r4, r5, pc}
 521:../Middlewares/stm32-mw-camera/sensors/vd1943/vd1943.c **** 
 1102              		.loc 1 521 1 view .LVU300
 1103              		.cfi_endproc
 1104              	.LFE13:
 1106              		.section	.text.VD1943_SetExpoSplit_GS,"ax",%progbits
 1107              		.align	1
 1108              		.syntax unified
 1109              		.thumb
 1110              		.thumb_func
 1112              	VD1943_SetExpoSplit_GS:
 1113              	.LVL98:
 1114              	.LFB16:
 550:../Middlewares/stm32-mw-camera/sensors/vd1943/vd1943.c ****   unsigned int expo_in_line = (expo_in_us * 1000 + VD1943_LINE_TIME_IN_NS - 1) / VD1943_LINE_TIME_I
 1115              		.loc 1 550 1 is_stmt 1 view -0
 1116              		.cfi_startproc
 1117              		@ args = 0, pretend = 0, frame = 0
 1118              		@ frame_needed = 0, uses_anonymous_args = 0
 551:../Middlewares/stm32-mw-camera/sensors/vd1943/vd1943.c ****   int ret;
 1119              		.loc 1 551 3 view .LVU302
 550:../Middlewares/stm32-mw-camera/sensors/vd1943/vd1943.c ****   unsigned int expo_in_line = (expo_in_us * 1000 + VD1943_LINE_TIME_IN_NS - 1) / VD1943_LINE_TIME_I
 1120              		.loc 1 550 1 is_stmt 0 view .LVU303
 1121 0000 7FB5     		push	{r0, r1, r2, r3, r4, r5, r6, lr}
 1122              		.cfi_def_cfa_offset 32
 1123              		.cfi_offset 4, -16
 1124              		.cfi_offset 5, -12
 1125              		.cfi_offset 6, -8
 1126              		.cfi_offset 14, -4
 551:../Middlewares/stm32-mw-camera/sensors/vd1943/vd1943.c ****   int ret;
ARM GAS  /tmp/ccydMd0r.s 			page 44


 1127              		.loc 1 551 75 view .LVU304
 1128 0002 43F6A303 		movw	r3, #14499
 1129 0006 4FF47A72 		mov	r2, #1000
 1130 000a 02FB0131 		mla	r1, r2, r1, r3
 1131              	.LVL99:
 554:../Middlewares/stm32-mw-camera/sensors/vd1943/vd1943.c ****     return -1;
 1132              		.loc 1 554 6 view .LVU305
 1133 000e 4EF28F23 		movw	r3, #57999
 551:../Middlewares/stm32-mw-camera/sensors/vd1943/vd1943.c ****   int ret;
 1134              		.loc 1 551 16 view .LVU306
 1135 0012 43F6A406 		movw	r6, #14500
 554:../Middlewares/stm32-mw-camera/sensors/vd1943/vd1943.c ****     return -1;
 1136              		.loc 1 554 6 view .LVU307
 1137 0016 9942     		cmp	r1, r3
 550:../Middlewares/stm32-mw-camera/sensors/vd1943/vd1943.c ****   unsigned int expo_in_line = (expo_in_us * 1000 + VD1943_LINE_TIME_IN_NS - 1) / VD1943_LINE_TIME_I
 1138              		.loc 1 550 1 view .LVU308
 1139 0018 0546     		mov	r5, r0
 551:../Middlewares/stm32-mw-camera/sensors/vd1943/vd1943.c ****   int ret;
 1140              		.loc 1 551 16 view .LVU309
 1141 001a B1FBF6F6 		udiv	r6, r1, r6
 1142              	.LVL100:
 552:../Middlewares/stm32-mw-camera/sensors/vd1943/vd1943.c **** 
 1143              		.loc 1 552 3 is_stmt 1 view .LVU310
 554:../Middlewares/stm32-mw-camera/sensors/vd1943/vd1943.c ****     return -1;
 1144              		.loc 1 554 3 view .LVU311
 554:../Middlewares/stm32-mw-camera/sensors/vd1943/vd1943.c ****     return -1;
 1145              		.loc 1 554 6 is_stmt 0 view .LVU312
 1146 001e 24D9     		bls	.L84
 557:../Middlewares/stm32-mw-camera/sensors/vd1943/vd1943.c ****   VD1943_TraceError(ctx, ret);
 1147              		.loc 1 557 3 is_stmt 1 view .LVU313
 557:../Middlewares/stm32-mw-camera/sensors/vd1943/vd1943.c ****   VD1943_TraceError(ctx, ret);
 1148              		.loc 1 557 9 is_stmt 0 view .LVU314
 1149 0020 B6B2     		uxth	r6, r6
 1150              	.LVL101:
 557:../Middlewares/stm32-mw-camera/sensors/vd1943/vd1943.c ****   VD1943_TraceError(ctx, ret);
 1151              		.loc 1 557 9 view .LVU315
 1152 0022 3246     		mov	r2, r6
 1153 0024 40F67A41 		movw	r1, #3194
 1154              	.LVL102:
 557:../Middlewares/stm32-mw-camera/sensors/vd1943/vd1943.c ****   VD1943_TraceError(ctx, ret);
 1155              		.loc 1 557 9 view .LVU316
 1156 0028 4369     		ldr	r3, [r0, #20]
 1157 002a 9847     		blx	r3
 1158              	.LVL103:
 558:../Middlewares/stm32-mw-camera/sensors/vd1943/vd1943.c **** 
 1159              		.loc 1 558 3 is_stmt 1 view .LVU317
 558:../Middlewares/stm32-mw-camera/sensors/vd1943/vd1943.c **** 
 1160              		.loc 1 558 3 view .LVU318
 1161 002c 0446     		mov	r4, r0
 1162 002e 58B9     		cbnz	r0, .L81
 558:../Middlewares/stm32-mw-camera/sensors/vd1943/vd1943.c **** 
 1163              		.loc 1 558 3 discriminator 6 view .LVU319
 558:../Middlewares/stm32-mw-camera/sensors/vd1943/vd1943.c **** 
 1164              		.loc 1 558 3 view .LVU320
 560:../Middlewares/stm32-mw-camera/sensors/vd1943/vd1943.c ****   VD1943_TraceError(ctx, ret);
 1165              		.loc 1 560 3 view .LVU321
 560:../Middlewares/stm32-mw-camera/sensors/vd1943/vd1943.c ****   VD1943_TraceError(ctx, ret);
ARM GAS  /tmp/ccydMd0r.s 			page 45


 1166              		.loc 1 560 9 is_stmt 0 view .LVU322
 1167 0030 3246     		mov	r2, r6
 1168 0032 40F67C41 		movw	r1, #3196
 1169 0036 2846     		mov	r0, r5
 1170              	.LVL104:
 560:../Middlewares/stm32-mw-camera/sensors/vd1943/vd1943.c ****   VD1943_TraceError(ctx, ret);
 1171              		.loc 1 560 9 view .LVU323
 1172 0038 6B69     		ldr	r3, [r5, #20]
 1173 003a 9847     		blx	r3
 1174              	.LVL105:
 561:../Middlewares/stm32-mw-camera/sensors/vd1943/vd1943.c **** 
 1175              		.loc 1 561 3 is_stmt 1 view .LVU324
 561:../Middlewares/stm32-mw-camera/sensors/vd1943/vd1943.c **** 
 1176              		.loc 1 561 3 view .LVU325
 1177 003c 0446     		mov	r4, r0
 1178 003e 88B1     		cbz	r0, .L79
 561:../Middlewares/stm32-mw-camera/sensors/vd1943/vd1943.c **** 
 1179              		.loc 1 561 3 discriminator 1 view .LVU326
 561:../Middlewares/stm32-mw-camera/sensors/vd1943/vd1943.c **** 
 1180              		.loc 1 561 3 discriminator 1 view .LVU327
 1181 0040 40F23123 		movw	r3, #561
 1182 0044 0290     		str	r0, [sp, #8]
 1183 0046 02E0     		b	.L85
 1184              	.L81:
 558:../Middlewares/stm32-mw-camera/sensors/vd1943/vd1943.c **** 
 1185              		.loc 1 558 3 discriminator 1 view .LVU328
 558:../Middlewares/stm32-mw-camera/sensors/vd1943/vd1943.c **** 
 1186              		.loc 1 558 3 discriminator 1 view .LVU329
 1187 0048 40F22E23 		movw	r3, #558
 1188 004c 0290     		str	r0, [sp, #8]
 1189              	.L85:
 561:../Middlewares/stm32-mw-camera/sensors/vd1943/vd1943.c **** 
 1190              		.loc 1 561 3 is_stmt 0 discriminator 1 view .LVU330
 1191 004e 084A     		ldr	r2, .L86
 1192 0050 2846     		mov	r0, r5
 1193              	.LVL106:
 561:../Middlewares/stm32-mw-camera/sensors/vd1943/vd1943.c **** 
 1194              		.loc 1 561 3 discriminator 1 view .LVU331
 1195 0052 0092     		str	r2, [sp]
 1196 0054 0021     		movs	r1, #0
 1197 0056 074A     		ldr	r2, .L86+4
 1198 0058 0193     		str	r3, [sp, #4]
 1199 005a FFF7FEFF 		bl	VD1943_log_impl
 1200              	.LVL107:
 561:../Middlewares/stm32-mw-camera/sensors/vd1943/vd1943.c **** 
 1201              		.loc 1 561 3 is_stmt 1 discriminator 3 view .LVU332
 561:../Middlewares/stm32-mw-camera/sensors/vd1943/vd1943.c **** 
 1202              		.loc 1 561 3 discriminator 3 view .LVU333
 561:../Middlewares/stm32-mw-camera/sensors/vd1943/vd1943.c **** 
 1203              		.loc 1 561 3 discriminator 4 view .LVU334
 1204 005e 2846     		mov	r0, r5
 1205 0060 FFF7FEFF 		bl	display_error
 1206              	.LVL108:
 561:../Middlewares/stm32-mw-camera/sensors/vd1943/vd1943.c **** 
 1207              		.loc 1 561 3 discriminator 6 view .LVU335
 561:../Middlewares/stm32-mw-camera/sensors/vd1943/vd1943.c **** 
 1208              		.loc 1 561 3 discriminator 7 view .LVU336
ARM GAS  /tmp/ccydMd0r.s 			page 46


 1209              	.L79:
 564:../Middlewares/stm32-mw-camera/sensors/vd1943/vd1943.c **** 
 1210              		.loc 1 564 1 is_stmt 0 view .LVU337
 1211 0064 2046     		mov	r0, r4
 1212 0066 04B0     		add	sp, sp, #16
 1213              		.cfi_remember_state
 1214              		.cfi_def_cfa_offset 16
 1215              		@ sp needed
 1216 0068 70BD     		pop	{r4, r5, r6, pc}
 1217              	.LVL109:
 1218              	.L84:
 1219              		.cfi_restore_state
 555:../Middlewares/stm32-mw-camera/sensors/vd1943/vd1943.c **** 
 1220              		.loc 1 555 12 view .LVU338
 1221 006a 4FF0FF34 		mov	r4, #-1
 1222 006e F9E7     		b	.L79
 1223              	.L87:
 1224              		.align	2
 1225              	.L86:
 1226 0070 00000000 		.word	__func__.27
 1227 0074 00000000 		.word	.LC4
 1228              		.cfi_endproc
 1229              	.LFE16:
 1231              		.section	.text.VD1943_SetExpo_GS,"ax",%progbits
 1232              		.align	1
 1233              		.syntax unified
 1234              		.thumb
 1235              		.thumb_func
 1237              	VD1943_SetExpo_GS:
 1238              	.LVL110:
 1239              	.LFB15:
 536:../Middlewares/stm32-mw-camera/sensors/vd1943/vd1943.c ****   unsigned int expo_in_line = (expo_in_us * 1000 + VD1943_LINE_TIME_IN_NS - 1) / VD1943_LINE_TIME_I
 1240              		.loc 1 536 1 is_stmt 1 view -0
 1241              		.cfi_startproc
 1242              		@ args = 0, pretend = 0, frame = 0
 1243              		@ frame_needed = 0, uses_anonymous_args = 0
 537:../Middlewares/stm32-mw-camera/sensors/vd1943/vd1943.c ****   int ret;
 1244              		.loc 1 537 3 view .LVU340
 537:../Middlewares/stm32-mw-camera/sensors/vd1943/vd1943.c ****   int ret;
 1245              		.loc 1 537 75 is_stmt 0 view .LVU341
 1246 0000 4FF47A72 		mov	r2, #1000
 1247 0004 43F6A303 		movw	r3, #14499
 1248 0008 02FB0131 		mla	r1, r2, r1, r3
 1249              	.LVL111:
 540:../Middlewares/stm32-mw-camera/sensors/vd1943/vd1943.c ****     return -1;
 1250              		.loc 1 540 6 view .LVU342
 1251 000c 4EF28F23 		movw	r3, #57999
 537:../Middlewares/stm32-mw-camera/sensors/vd1943/vd1943.c ****   int ret;
 1252              		.loc 1 537 16 view .LVU343
 1253 0010 43F6A402 		movw	r2, #14500
 536:../Middlewares/stm32-mw-camera/sensors/vd1943/vd1943.c ****   unsigned int expo_in_line = (expo_in_us * 1000 + VD1943_LINE_TIME_IN_NS - 1) / VD1943_LINE_TIME_I
 1254              		.loc 1 536 1 view .LVU344
 1255 0014 30B5     		push	{r4, r5, lr}
 1256              		.cfi_def_cfa_offset 12
 1257              		.cfi_offset 4, -12
 1258              		.cfi_offset 5, -8
 1259              		.cfi_offset 14, -4
ARM GAS  /tmp/ccydMd0r.s 			page 47


 540:../Middlewares/stm32-mw-camera/sensors/vd1943/vd1943.c ****     return -1;
 1260              		.loc 1 540 6 view .LVU345
 1261 0016 9942     		cmp	r1, r3
 536:../Middlewares/stm32-mw-camera/sensors/vd1943/vd1943.c ****   unsigned int expo_in_line = (expo_in_us * 1000 + VD1943_LINE_TIME_IN_NS - 1) / VD1943_LINE_TIME_I
 1262              		.loc 1 536 1 view .LVU346
 1263 0018 0546     		mov	r5, r0
 537:../Middlewares/stm32-mw-camera/sensors/vd1943/vd1943.c ****   int ret;
 1264              		.loc 1 537 16 view .LVU347
 1265 001a B1FBF2F2 		udiv	r2, r1, r2
 1266              	.LVL112:
 538:../Middlewares/stm32-mw-camera/sensors/vd1943/vd1943.c **** 
 1267              		.loc 1 538 3 is_stmt 1 view .LVU348
 540:../Middlewares/stm32-mw-camera/sensors/vd1943/vd1943.c ****     return -1;
 1268              		.loc 1 540 3 view .LVU349
 536:../Middlewares/stm32-mw-camera/sensors/vd1943/vd1943.c ****   unsigned int expo_in_line = (expo_in_us * 1000 + VD1943_LINE_TIME_IN_NS - 1) / VD1943_LINE_TIME_I
 1269              		.loc 1 536 1 is_stmt 0 view .LVU350
 1270 001e 85B0     		sub	sp, sp, #20
 1271              		.cfi_def_cfa_offset 32
 540:../Middlewares/stm32-mw-camera/sensors/vd1943/vd1943.c ****     return -1;
 1272              		.loc 1 540 6 view .LVU351
 1273 0020 17D9     		bls	.L91
 543:../Middlewares/stm32-mw-camera/sensors/vd1943/vd1943.c ****   VD1943_TraceError(ctx, ret);
 1274              		.loc 1 543 3 is_stmt 1 view .LVU352
 543:../Middlewares/stm32-mw-camera/sensors/vd1943/vd1943.c ****   VD1943_TraceError(ctx, ret);
 1275              		.loc 1 543 9 is_stmt 0 view .LVU353
 1276 0022 40F67A41 		movw	r1, #3194
 1277 0026 4369     		ldr	r3, [r0, #20]
 1278 0028 92B2     		uxth	r2, r2
 1279              	.LVL113:
 543:../Middlewares/stm32-mw-camera/sensors/vd1943/vd1943.c ****   VD1943_TraceError(ctx, ret);
 1280              		.loc 1 543 9 view .LVU354
 1281 002a 9847     		blx	r3
 1282              	.LVL114:
 544:../Middlewares/stm32-mw-camera/sensors/vd1943/vd1943.c **** 
 1283              		.loc 1 544 3 is_stmt 1 view .LVU355
 544:../Middlewares/stm32-mw-camera/sensors/vd1943/vd1943.c **** 
 1284              		.loc 1 544 3 view .LVU356
 1285 002c 0446     		mov	r4, r0
 1286 002e 68B1     		cbz	r0, .L88
 544:../Middlewares/stm32-mw-camera/sensors/vd1943/vd1943.c **** 
 1287              		.loc 1 544 3 discriminator 1 view .LVU357
 544:../Middlewares/stm32-mw-camera/sensors/vd1943/vd1943.c **** 
 1288              		.loc 1 544 3 discriminator 1 view .LVU358
 1289 0030 4FF40873 		mov	r3, #544
 1290 0034 084A     		ldr	r2, .L95
 1291 0036 0290     		str	r0, [sp, #8]
 1292 0038 0092     		str	r2, [sp]
 1293 003a 2846     		mov	r0, r5
 1294              	.LVL115:
 544:../Middlewares/stm32-mw-camera/sensors/vd1943/vd1943.c **** 
 1295              		.loc 1 544 3 is_stmt 0 discriminator 1 view .LVU359
 1296 003c 0021     		movs	r1, #0
 1297 003e 074A     		ldr	r2, .L95+4
 1298 0040 0193     		str	r3, [sp, #4]
 1299 0042 FFF7FEFF 		bl	VD1943_log_impl
 1300              	.LVL116:
 544:../Middlewares/stm32-mw-camera/sensors/vd1943/vd1943.c **** 
ARM GAS  /tmp/ccydMd0r.s 			page 48


 1301              		.loc 1 544 3 is_stmt 1 discriminator 3 view .LVU360
 544:../Middlewares/stm32-mw-camera/sensors/vd1943/vd1943.c **** 
 1302              		.loc 1 544 3 discriminator 3 view .LVU361
 544:../Middlewares/stm32-mw-camera/sensors/vd1943/vd1943.c **** 
 1303              		.loc 1 544 3 discriminator 4 view .LVU362
 1304 0046 2846     		mov	r0, r5
 1305 0048 FFF7FEFF 		bl	display_error
 1306              	.LVL117:
 1307              	.L88:
 547:../Middlewares/stm32-mw-camera/sensors/vd1943/vd1943.c **** 
 1308              		.loc 1 547 1 is_stmt 0 view .LVU363
 1309 004c 2046     		mov	r0, r4
 1310 004e 05B0     		add	sp, sp, #20
 1311              		.cfi_remember_state
 1312              		.cfi_def_cfa_offset 12
 1313              		@ sp needed
 1314 0050 30BD     		pop	{r4, r5, pc}
 1315              	.LVL118:
 1316              	.L91:
 1317              		.cfi_restore_state
 541:../Middlewares/stm32-mw-camera/sensors/vd1943/vd1943.c **** 
 1318              		.loc 1 541 12 view .LVU364
 1319 0052 4FF0FF34 		mov	r4, #-1
 1320 0056 F9E7     		b	.L88
 1321              	.L96:
 1322              		.align	2
 1323              	.L95:
 1324 0058 00000000 		.word	__func__.26
 1325 005c 00000000 		.word	.LC4
 1326              		.cfi_endproc
 1327              	.LFE15:
 1329              		.section	.rodata.VD1943_ApplyCmdAndWait.str1.1,"aMS",%progbits,1
 1330              	.LC6:
 1331 0000 56443139 		.ascii	"VD1943_DG%d-%d : Apply cmd %d to 0x%04x\012\000"
 1331      34335F44 
 1331      4725642D 
 1331      2564203A 
 1331      20417070 
 1332              		.section	.text.VD1943_ApplyCmdAndWait,"ax",%progbits
 1333              		.align	1
 1334              		.syntax unified
 1335              		.thumb
 1336              		.thumb_func
 1338              	VD1943_ApplyCmdAndWait:
 1339              	.LVL119:
 1340              	.LFB4:
 311:../Middlewares/stm32-mw-camera/sensors/vd1943/vd1943.c ****   int ret;
 1341              		.loc 1 311 1 is_stmt 1 view -0
 1342              		.cfi_startproc
 1343              		@ args = 0, pretend = 0, frame = 0
 1344              		@ frame_needed = 0, uses_anonymous_args = 0
 312:../Middlewares/stm32-mw-camera/sensors/vd1943/vd1943.c **** 
 1345              		.loc 1 312 3 view .LVU366
 314:../Middlewares/stm32-mw-camera/sensors/vd1943/vd1943.c ****   ret = ctx->write8(ctx, addr, cmd);
 1346              		.loc 1 314 3 view .LVU367
 314:../Middlewares/stm32-mw-camera/sensors/vd1943/vd1943.c ****   ret = ctx->write8(ctx, addr, cmd);
 1347              		.loc 1 314 3 view .LVU368
ARM GAS  /tmp/ccydMd0r.s 			page 49


 311:../Middlewares/stm32-mw-camera/sensors/vd1943/vd1943.c ****   int ret;
 1348              		.loc 1 311 1 is_stmt 0 view .LVU369
 1349 0000 7FB5     		push	{r0, r1, r2, r3, r4, r5, r6, lr}
 1350              		.cfi_def_cfa_offset 32
 1351              		.cfi_offset 4, -16
 1352              		.cfi_offset 5, -12
 1353              		.cfi_offset 6, -8
 1354              		.cfi_offset 14, -4
 314:../Middlewares/stm32-mw-camera/sensors/vd1943/vd1943.c ****   ret = ctx->write8(ctx, addr, cmd);
 1355              		.loc 1 314 3 view .LVU370
 1356 0002 4FF49D73 		mov	r3, #314
 311:../Middlewares/stm32-mw-camera/sensors/vd1943/vd1943.c ****   int ret;
 1357              		.loc 1 311 1 view .LVU371
 1358 0006 0546     		mov	r5, r0
 1359 0008 1446     		mov	r4, r2
 1360 000a 0E46     		mov	r6, r1
 314:../Middlewares/stm32-mw-camera/sensors/vd1943/vd1943.c ****   ret = ctx->write8(ctx, addr, cmd);
 1361              		.loc 1 314 3 view .LVU372
 1362 000c CDE90121 		strd	r2, r1, [sp, #4]
 1363 0010 0093     		str	r3, [sp]
 1364 0012 0321     		movs	r1, #3
 1365              	.LVL120:
 314:../Middlewares/stm32-mw-camera/sensors/vd1943/vd1943.c ****   ret = ctx->write8(ctx, addr, cmd);
 1366              		.loc 1 314 3 view .LVU373
 1367 0014 0023     		movs	r3, #0
 1368 0016 134A     		ldr	r2, .L103
 1369              	.LVL121:
 314:../Middlewares/stm32-mw-camera/sensors/vd1943/vd1943.c ****   ret = ctx->write8(ctx, addr, cmd);
 1370              		.loc 1 314 3 view .LVU374
 1371 0018 FFF7FEFF 		bl	VD1943_log_impl
 1372              	.LVL122:
 314:../Middlewares/stm32-mw-camera/sensors/vd1943/vd1943.c ****   ret = ctx->write8(ctx, addr, cmd);
 1373              		.loc 1 314 3 is_stmt 1 discriminator 1 view .LVU375
 315:../Middlewares/stm32-mw-camera/sensors/vd1943/vd1943.c ****   VD1943_TraceError(ctx, ret);
 1374              		.loc 1 315 3 view .LVU376
 315:../Middlewares/stm32-mw-camera/sensors/vd1943/vd1943.c ****   VD1943_TraceError(ctx, ret);
 1375              		.loc 1 315 9 is_stmt 0 view .LVU377
 1376 001c 2246     		mov	r2, r4
 1377 001e 3146     		mov	r1, r6
 1378 0020 2846     		mov	r0, r5
 1379 0022 2B69     		ldr	r3, [r5, #16]
 1380 0024 9847     		blx	r3
 1381              	.LVL123:
 316:../Middlewares/stm32-mw-camera/sensors/vd1943/vd1943.c **** 
 1382              		.loc 1 316 3 is_stmt 1 view .LVU378
 316:../Middlewares/stm32-mw-camera/sensors/vd1943/vd1943.c **** 
 1383              		.loc 1 316 3 view .LVU379
 1384 0026 0446     		mov	r4, r0
 1385              	.LVL124:
 316:../Middlewares/stm32-mw-camera/sensors/vd1943/vd1943.c **** 
 1386              		.loc 1 316 3 is_stmt 0 view .LVU380
 1387 0028 50B9     		cbnz	r0, .L98
 316:../Middlewares/stm32-mw-camera/sensors/vd1943/vd1943.c **** 
 1388              		.loc 1 316 3 is_stmt 1 discriminator 6 view .LVU381
 316:../Middlewares/stm32-mw-camera/sensors/vd1943/vd1943.c **** 
 1389              		.loc 1 316 3 view .LVU382
 318:../Middlewares/stm32-mw-camera/sensors/vd1943/vd1943.c ****   VD1943_TraceError(ctx, ret);
ARM GAS  /tmp/ccydMd0r.s 			page 50


 1390              		.loc 1 318 3 view .LVU383
 318:../Middlewares/stm32-mw-camera/sensors/vd1943/vd1943.c ****   VD1943_TraceError(ctx, ret);
 1391              		.loc 1 318 9 is_stmt 0 view .LVU384
 1392 002a 0246     		mov	r2, r0
 1393 002c 3146     		mov	r1, r6
 1394 002e 2846     		mov	r0, r5
 1395              	.LVL125:
 318:../Middlewares/stm32-mw-camera/sensors/vd1943/vd1943.c ****   VD1943_TraceError(ctx, ret);
 1396              		.loc 1 318 9 view .LVU385
 1397 0030 FFF7FEFF 		bl	VD1943_PollReg8
 1398              	.LVL126:
 319:../Middlewares/stm32-mw-camera/sensors/vd1943/vd1943.c **** 
 1399              		.loc 1 319 3 is_stmt 1 view .LVU386
 319:../Middlewares/stm32-mw-camera/sensors/vd1943/vd1943.c **** 
 1400              		.loc 1 319 3 view .LVU387
 1401 0034 0446     		mov	r4, r0
 1402 0036 88B1     		cbz	r0, .L97
 319:../Middlewares/stm32-mw-camera/sensors/vd1943/vd1943.c **** 
 1403              		.loc 1 319 3 discriminator 1 view .LVU388
 319:../Middlewares/stm32-mw-camera/sensors/vd1943/vd1943.c **** 
 1404              		.loc 1 319 3 discriminator 1 view .LVU389
 1405 0038 40F23F13 		movw	r3, #319
 1406 003c 0290     		str	r0, [sp, #8]
 1407 003e 02E0     		b	.L102
 1408              	.L98:
 316:../Middlewares/stm32-mw-camera/sensors/vd1943/vd1943.c **** 
 1409              		.loc 1 316 3 discriminator 1 view .LVU390
 316:../Middlewares/stm32-mw-camera/sensors/vd1943/vd1943.c **** 
 1410              		.loc 1 316 3 discriminator 1 view .LVU391
 1411 0040 4FF49E73 		mov	r3, #316
 1412 0044 0290     		str	r0, [sp, #8]
 1413              	.L102:
 319:../Middlewares/stm32-mw-camera/sensors/vd1943/vd1943.c **** 
 1414              		.loc 1 319 3 is_stmt 0 discriminator 1 view .LVU392
 1415 0046 084A     		ldr	r2, .L103+4
 1416 0048 2846     		mov	r0, r5
 1417              	.LVL127:
 319:../Middlewares/stm32-mw-camera/sensors/vd1943/vd1943.c **** 
 1418              		.loc 1 319 3 discriminator 1 view .LVU393
 1419 004a 0092     		str	r2, [sp]
 1420 004c 0021     		movs	r1, #0
 1421 004e 074A     		ldr	r2, .L103+8
 1422 0050 0193     		str	r3, [sp, #4]
 1423 0052 FFF7FEFF 		bl	VD1943_log_impl
 1424              	.LVL128:
 319:../Middlewares/stm32-mw-camera/sensors/vd1943/vd1943.c **** 
 1425              		.loc 1 319 3 is_stmt 1 discriminator 3 view .LVU394
 319:../Middlewares/stm32-mw-camera/sensors/vd1943/vd1943.c **** 
 1426              		.loc 1 319 3 discriminator 3 view .LVU395
 319:../Middlewares/stm32-mw-camera/sensors/vd1943/vd1943.c **** 
 1427              		.loc 1 319 3 discriminator 4 view .LVU396
 1428 0056 2846     		mov	r0, r5
 1429 0058 FFF7FEFF 		bl	display_error
 1430              	.LVL129:
 319:../Middlewares/stm32-mw-camera/sensors/vd1943/vd1943.c **** 
 1431              		.loc 1 319 3 discriminator 6 view .LVU397
 319:../Middlewares/stm32-mw-camera/sensors/vd1943/vd1943.c **** 
ARM GAS  /tmp/ccydMd0r.s 			page 51


 1432              		.loc 1 319 3 discriminator 7 view .LVU398
 1433              	.L97:
 322:../Middlewares/stm32-mw-camera/sensors/vd1943/vd1943.c **** 
 1434              		.loc 1 322 1 is_stmt 0 view .LVU399
 1435 005c 2046     		mov	r0, r4
 1436 005e 04B0     		add	sp, sp, #16
 1437              		.cfi_def_cfa_offset 16
 1438              		@ sp needed
 1439 0060 70BD     		pop	{r4, r5, r6, pc}
 1440              	.LVL130:
 1441              	.L104:
 322:../Middlewares/stm32-mw-camera/sensors/vd1943/vd1943.c **** 
 1442              		.loc 1 322 1 view .LVU400
 1443 0062 00BF     		.align	2
 1444              	.L103:
 1445 0064 00000000 		.word	.LC6
 1446 0068 00000000 		.word	__func__.24
 1447 006c 00000000 		.word	.LC4
 1448              		.cfi_endproc
 1449              	.LFE4:
 1451              		.section	.rodata.VD1943_WaitState.str1.1,"aMS",%progbits,1
 1452              	.LC7:
 1453 0000 56443139 		.ascii	"VD1943_WRN-%d : Unable to reach state %d\012\000"
 1453      34335F57 
 1453      524E2D25 
 1453      64203A20 
 1453      556E6162 
 1454              	.LC8:
 1455 002a 56443139 		.ascii	"VD1943_DG%d-%d : reach state %d\012\000"
 1455      34335F44 
 1455      4725642D 
 1455      2564203A 
 1455      20726561 
 1456              		.section	.text.VD1943_WaitState,"ax",%progbits
 1457              		.align	1
 1458              		.syntax unified
 1459              		.thumb
 1460              		.thumb_func
 1462              	VD1943_WaitState:
 1463              	.LVL131:
 1464              	.LFB3:
 299:../Middlewares/stm32-mw-camera/sensors/vd1943/vd1943.c ****   int ret = VD1943_PollReg8(ctx, VD1943_REG_SYSTEM_FSM_STATE, state);
 1465              		.loc 1 299 1 is_stmt 1 view -0
 1466              		.cfi_startproc
 1467              		@ args = 0, pretend = 0, frame = 0
 1468              		@ frame_needed = 0, uses_anonymous_args = 0
 300:../Middlewares/stm32-mw-camera/sensors/vd1943/vd1943.c **** 
 1469              		.loc 1 300 3 view .LVU402
 299:../Middlewares/stm32-mw-camera/sensors/vd1943/vd1943.c ****   int ret = VD1943_PollReg8(ctx, VD1943_REG_SYSTEM_FSM_STATE, state);
 1470              		.loc 1 299 1 is_stmt 0 view .LVU403
 1471 0000 73B5     		push	{r0, r1, r4, r5, r6, lr}
 1472              		.cfi_def_cfa_offset 24
 1473              		.cfi_offset 4, -16
 1474              		.cfi_offset 5, -12
 1475              		.cfi_offset 6, -8
 1476              		.cfi_offset 14, -4
 300:../Middlewares/stm32-mw-camera/sensors/vd1943/vd1943.c **** 
ARM GAS  /tmp/ccydMd0r.s 			page 52


 1477              		.loc 1 300 13 view .LVU404
 1478 0002 CAB2     		uxtb	r2, r1
 299:../Middlewares/stm32-mw-camera/sensors/vd1943/vd1943.c ****   int ret = VD1943_PollReg8(ctx, VD1943_REG_SYSTEM_FSM_STATE, state);
 1479              		.loc 1 299 1 view .LVU405
 1480 0004 0D46     		mov	r5, r1
 300:../Middlewares/stm32-mw-camera/sensors/vd1943/vd1943.c **** 
 1481              		.loc 1 300 13 view .LVU406
 1482 0006 4421     		movs	r1, #68
 1483              	.LVL132:
 299:../Middlewares/stm32-mw-camera/sensors/vd1943/vd1943.c ****   int ret = VD1943_PollReg8(ctx, VD1943_REG_SYSTEM_FSM_STATE, state);
 1484              		.loc 1 299 1 view .LVU407
 1485 0008 0646     		mov	r6, r0
 300:../Middlewares/stm32-mw-camera/sensors/vd1943/vd1943.c **** 
 1486              		.loc 1 300 13 view .LVU408
 1487 000a FFF7FEFF 		bl	VD1943_PollReg8
 1488              	.LVL133:
 302:../Middlewares/stm32-mw-camera/sensors/vd1943/vd1943.c ****     VD1943_warn(ctx, "Unable to reach state %d\n", state);
 1489              		.loc 1 302 3 is_stmt 1 view .LVU409
 302:../Middlewares/stm32-mw-camera/sensors/vd1943/vd1943.c ****     VD1943_warn(ctx, "Unable to reach state %d\n", state);
 1490              		.loc 1 302 6 is_stmt 0 view .LVU410
 1491 000e 0446     		mov	r4, r0
 1492 0010 50B1     		cbz	r0, .L106
 303:../Middlewares/stm32-mw-camera/sensors/vd1943/vd1943.c ****   else
 1493              		.loc 1 303 5 is_stmt 1 view .LVU411
 303:../Middlewares/stm32-mw-camera/sensors/vd1943/vd1943.c ****   else
 1494              		.loc 1 303 5 view .LVU412
 1495 0012 40F22F13 		movw	r3, #303
 1496 0016 0121     		movs	r1, #1
 1497 0018 3046     		mov	r0, r6
 1498              	.LVL134:
 303:../Middlewares/stm32-mw-camera/sensors/vd1943/vd1943.c ****   else
 1499              		.loc 1 303 5 is_stmt 0 view .LVU413
 1500 001a 094A     		ldr	r2, .L108
 1501 001c 0095     		str	r5, [sp]
 1502 001e FFF7FEFF 		bl	VD1943_log_impl
 1503              	.LVL135:
 303:../Middlewares/stm32-mw-camera/sensors/vd1943/vd1943.c ****   else
 1504              		.loc 1 303 5 is_stmt 1 discriminator 1 view .LVU414
 1505              	.L105:
 308:../Middlewares/stm32-mw-camera/sensors/vd1943/vd1943.c **** 
 1506              		.loc 1 308 1 is_stmt 0 view .LVU415
 1507 0022 2046     		mov	r0, r4
 1508 0024 02B0     		add	sp, sp, #8
 1509              		.cfi_remember_state
 1510              		.cfi_def_cfa_offset 16
 1511              		@ sp needed
 1512 0026 70BD     		pop	{r4, r5, r6, pc}
 1513              	.LVL136:
 1514              	.L106:
 1515              		.cfi_restore_state
 1516              	.LBB8:
 1517              	.LBI8:
 298:../Middlewares/stm32-mw-camera/sensors/vd1943/vd1943.c **** {
 1518              		.loc 1 298 12 is_stmt 1 view .LVU416
 1519              	.LBB9:
 305:../Middlewares/stm32-mw-camera/sensors/vd1943/vd1943.c **** 
 1520              		.loc 1 305 5 view .LVU417
ARM GAS  /tmp/ccydMd0r.s 			page 53


 305:../Middlewares/stm32-mw-camera/sensors/vd1943/vd1943.c **** 
 1521              		.loc 1 305 5 view .LVU418
 1522 0028 40F23113 		movw	r3, #305
 1523 002c 0321     		movs	r1, #3
 1524 002e 0093     		str	r3, [sp]
 1525 0030 044A     		ldr	r2, .L108+4
 1526 0032 0346     		mov	r3, r0
 1527 0034 0195     		str	r5, [sp, #4]
 1528 0036 3046     		mov	r0, r6
 1529              	.LVL137:
 305:../Middlewares/stm32-mw-camera/sensors/vd1943/vd1943.c **** 
 1530              		.loc 1 305 5 is_stmt 0 view .LVU419
 1531 0038 FFF7FEFF 		bl	VD1943_log_impl
 1532              	.LVL138:
 305:../Middlewares/stm32-mw-camera/sensors/vd1943/vd1943.c **** 
 1533              		.loc 1 305 5 view .LVU420
 1534              	.LBE9:
 1535              	.LBE8:
 305:../Middlewares/stm32-mw-camera/sensors/vd1943/vd1943.c **** 
 1536              		.loc 1 305 5 is_stmt 1 view .LVU421
 307:../Middlewares/stm32-mw-camera/sensors/vd1943/vd1943.c **** }
 1537              		.loc 1 307 3 view .LVU422
 307:../Middlewares/stm32-mw-camera/sensors/vd1943/vd1943.c **** }
 1538              		.loc 1 307 10 is_stmt 0 view .LVU423
 1539 003c F1E7     		b	.L105
 1540              	.L109:
 1541 003e 00BF     		.align	2
 1542              	.L108:
 1543 0040 00000000 		.word	.LC7
 1544 0044 2A000000 		.word	.LC8
 1545              		.cfi_endproc
 1546              	.LFE3:
 1548              		.section	.text.VD1943_GetExpo_RS,"ax",%progbits
 1549              		.align	1
 1550              		.syntax unified
 1551              		.thumb
 1552              		.thumb_func
 1554              	VD1943_GetExpo_RS:
 1555              	.LFB61:
 1556              		.cfi_startproc
 585:../Middlewares/stm32-mw-camera/sensors/vd1943/vd1943.c **** {
 1557              		.loc 1 585 12 is_stmt 1 view -0
 1558              		@ args = 0, pretend = 0, frame = 0
 1559              		@ frame_needed = 0, uses_anonymous_args = 0
 1560              		@ link register save eliminated.
 1561 0000 FFF7FEBF 		b	VD1943_GetExpoCommon
 1562              		.cfi_endproc
 1563              	.LFE61:
 1565              		.section	.text.VD1943_GetExposureRange,"ax",%progbits
 1566              		.align	1
 1567              		.global	VD1943_GetExposureRange
 1568              		.syntax unified
 1569              		.thumb
 1570              		.thumb_func
 1572              	VD1943_GetExposureRange:
 1573              	.LVL139:
 1574              	.LFB35:
ARM GAS  /tmp/ccydMd0r.s 			page 54


1089:../Middlewares/stm32-mw-camera/sensors/vd1943/vd1943.c **** 
1090:../Middlewares/stm32-mw-camera/sensors/vd1943/vd1943.c **** static int VD1943_SetupFrameRate(VD1943_Ctx_t *ctx)
1091:../Middlewares/stm32-mw-camera/sensors/vd1943/vd1943.c **** {
1092:../Middlewares/stm32-mw-camera/sensors/vd1943/vd1943.c ****   struct drv_vd1943_ctx *drv_vd1943_ctx = &ctx->ctx;
1093:../Middlewares/stm32-mw-camera/sensors/vd1943/vd1943.c ****   uint16_t frame_length;
1094:../Middlewares/stm32-mw-camera/sensors/vd1943/vd1943.c ****   int ret;
1095:../Middlewares/stm32-mw-camera/sensors/vd1943/vd1943.c **** 
1096:../Middlewares/stm32-mw-camera/sensors/vd1943/vd1943.c ****   ret = VD1943_SetupLineLen(ctx);
1097:../Middlewares/stm32-mw-camera/sensors/vd1943/vd1943.c ****   if (ret)
1098:../Middlewares/stm32-mw-camera/sensors/vd1943/vd1943.c ****     return ret;
1099:../Middlewares/stm32-mw-camera/sensors/vd1943/vd1943.c **** 
1100:../Middlewares/stm32-mw-camera/sensors/vd1943/vd1943.c ****   ret = VD1943_ComputeFrameLength(ctx, drv_vd1943_ctx->config_save.frame_rate, &frame_length);
1101:../Middlewares/stm32-mw-camera/sensors/vd1943/vd1943.c ****   if (ret)
1102:../Middlewares/stm32-mw-camera/sensors/vd1943/vd1943.c ****     return ret;
1103:../Middlewares/stm32-mw-camera/sensors/vd1943/vd1943.c **** 
1104:../Middlewares/stm32-mw-camera/sensors/vd1943/vd1943.c ****   VD1943_dbg(ctx, 0, "Set frame_length to %d to reach %d fps\n", frame_length, drv_vd1943_ctx->conf
1105:../Middlewares/stm32-mw-camera/sensors/vd1943/vd1943.c ****   ret = ctx->write16(ctx, VD1943_REG_FRAME_LENGTH(0), frame_length);
1106:../Middlewares/stm32-mw-camera/sensors/vd1943/vd1943.c ****   VD1943_TraceError(ctx, ret);
1107:../Middlewares/stm32-mw-camera/sensors/vd1943/vd1943.c **** 
1108:../Middlewares/stm32-mw-camera/sensors/vd1943/vd1943.c ****  return 0;
1109:../Middlewares/stm32-mw-camera/sensors/vd1943/vd1943.c **** }
1110:../Middlewares/stm32-mw-camera/sensors/vd1943/vd1943.c **** 
1111:../Middlewares/stm32-mw-camera/sensors/vd1943/vd1943.c **** 
1112:../Middlewares/stm32-mw-camera/sensors/vd1943/vd1943.c **** int VD1943_GetExposureRange(VD1943_Ctx_t *ctx, unsigned int *min_us, unsigned int *max_us)
1113:../Middlewares/stm32-mw-camera/sensors/vd1943/vd1943.c **** {
 1575              		.loc 1 1113 1 view -0
 1576              		.cfi_startproc
 1577              		@ args = 0, pretend = 0, frame = 8
 1578              		@ frame_needed = 0, uses_anonymous_args = 0
1114:../Middlewares/stm32-mw-camera/sensors/vd1943/vd1943.c ****   uint16_t frame_length;
 1579              		.loc 1 1114 3 view .LVU426
1115:../Middlewares/stm32-mw-camera/sensors/vd1943/vd1943.c ****   int ret;
 1580              		.loc 1 1115 3 view .LVU427
1116:../Middlewares/stm32-mw-camera/sensors/vd1943/vd1943.c **** 
1117:../Middlewares/stm32-mw-camera/sensors/vd1943/vd1943.c ****   /* Min Exposure is dependant of shutter mode */
1118:../Middlewares/stm32-mw-camera/sensors/vd1943/vd1943.c ****   switch (ctx->ctx.config_save.image_processing_mode) {
 1581              		.loc 1 1118 3 view .LVU428
1113:../Middlewares/stm32-mw-camera/sensors/vd1943/vd1943.c ****   uint16_t frame_length;
 1582              		.loc 1 1113 1 is_stmt 0 view .LVU429
 1583 0000 13B5     		push	{r0, r1, r4, lr}
 1584              		.cfi_def_cfa_offset 16
 1585              		.cfi_offset 4, -8
 1586              		.cfi_offset 14, -4
 1587              		.loc 1 1118 31 view .LVU430
 1588 0002 90F84430 		ldrb	r3, [r0, #68]	@ zero_extendqisi2
1113:../Middlewares/stm32-mw-camera/sensors/vd1943/vd1943.c ****   uint16_t frame_length;
 1589              		.loc 1 1113 1 view .LVU431
 1590 0006 1446     		mov	r4, r2
 1591              		.loc 1 1118 3 view .LVU432
 1592 0008 122B     		cmp	r3, #18
 1593 000a 06D8     		bhi	.L112
 1594 000c 082B     		cmp	r3, #8
 1595 000e 02D8     		bhi	.L117
 1596 0010 013B     		subs	r3, r3, #1
 1597 0012 052B     		cmp	r3, #5
 1598 0014 19D8     		bhi	.L119
 1599              	.L117:
ARM GAS  /tmp/ccydMd0r.s 			page 55


 1600 0016 3A23     		movs	r3, #58
 1601 0018 03E0     		b	.L113
 1602              	.L112:
 1603 001a 1A3B     		subs	r3, r3, #26
 1604 001c 092B     		cmp	r3, #9
 1605 001e 14D8     		bhi	.L119
 1606 0020 1D23     		movs	r3, #29
 1607              	.L113:
1119:../Middlewares/stm32-mw-camera/sensors/vd1943/vd1943.c ****   case VD1943_GS_SS1_NATIVE_8:
1120:../Middlewares/stm32-mw-camera/sensors/vd1943/vd1943.c ****   case VD1943_GS_SS1_NATIVE_10:
1121:../Middlewares/stm32-mw-camera/sensors/vd1943/vd1943.c ****   case VD1943_GS_SS1_SPLIT_NATIVE_8:
1122:../Middlewares/stm32-mw-camera/sensors/vd1943/vd1943.c ****   case VD1943_GS_SS1_SPLIT_NATIVE_10:
1123:../Middlewares/stm32-mw-camera/sensors/vd1943/vd1943.c ****   case VD1943_GS_SS1_SPLIT_IR_8:
1124:../Middlewares/stm32-mw-camera/sensors/vd1943/vd1943.c ****   case VD1943_GS_SS1_SPLIT_IR_10:
1125:../Middlewares/stm32-mw-camera/sensors/vd1943/vd1943.c ****   case VD1943_GS_SS1_RGB_8:
1126:../Middlewares/stm32-mw-camera/sensors/vd1943/vd1943.c ****   case VD1943_GS_SS1_RGB_10:
1127:../Middlewares/stm32-mw-camera/sensors/vd1943/vd1943.c ****   case VD1943_GS_SS1_IR_8:
1128:../Middlewares/stm32-mw-camera/sensors/vd1943/vd1943.c ****   case VD1943_GS_SS1_IR_10:
1129:../Middlewares/stm32-mw-camera/sensors/vd1943/vd1943.c ****   case VD1943_GS_SS2_MONO_8:
1130:../Middlewares/stm32-mw-camera/sensors/vd1943/vd1943.c ****   case VD1943_GS_SS2_MONO_10:
1131:../Middlewares/stm32-mw-camera/sensors/vd1943/vd1943.c ****   case VD1943_GS_SS4_MONO_8:
1132:../Middlewares/stm32-mw-camera/sensors/vd1943/vd1943.c ****   case VD1943_GS_SS4_MONO_10:
1133:../Middlewares/stm32-mw-camera/sensors/vd1943/vd1943.c ****   case VD1943_GS_SS32_MONO_8:
1134:../Middlewares/stm32-mw-camera/sensors/vd1943/vd1943.c ****   case VD1943_GS_SS32_MONO_10:
1135:../Middlewares/stm32-mw-camera/sensors/vd1943/vd1943.c ****     *min_us = (4 * VD1943_LINE_TIME_IN_NS) / 1000;
 1608              		.loc 1 1135 13 view .LVU433
 1609 0022 0B60     		str	r3, [r1]
1136:../Middlewares/stm32-mw-camera/sensors/vd1943/vd1943.c ****     break;
1137:../Middlewares/stm32-mw-camera/sensors/vd1943/vd1943.c ****   case VD1943_RS_SDR_NATIVE_8:
1138:../Middlewares/stm32-mw-camera/sensors/vd1943/vd1943.c ****   case VD1943_RS_SDR_NATIVE_10:
1139:../Middlewares/stm32-mw-camera/sensors/vd1943/vd1943.c ****   case VD1943_RS_SDR_NATIVE_12:
1140:../Middlewares/stm32-mw-camera/sensors/vd1943/vd1943.c ****   case VD1943_RS_SDR_RGB_8:
1141:../Middlewares/stm32-mw-camera/sensors/vd1943/vd1943.c ****   case VD1943_RS_SDR_RGB_10:
1142:../Middlewares/stm32-mw-camera/sensors/vd1943/vd1943.c ****   case VD1943_RS_SDR_RGB_12:
1143:../Middlewares/stm32-mw-camera/sensors/vd1943/vd1943.c ****   case VD1943_RS_HDR_NATIVE_10:
1144:../Middlewares/stm32-mw-camera/sensors/vd1943/vd1943.c ****   case VD1943_RS_HDR_NATIVE_12:
1145:../Middlewares/stm32-mw-camera/sensors/vd1943/vd1943.c ****   case VD1943_RS_HDR_RGB_10:
1146:../Middlewares/stm32-mw-camera/sensors/vd1943/vd1943.c ****   case VD1943_RS_HDR_RGB_12:
1147:../Middlewares/stm32-mw-camera/sensors/vd1943/vd1943.c ****     *min_us = (2 * VD1943_LINE_TIME_IN_NS) / 1000;
1148:../Middlewares/stm32-mw-camera/sensors/vd1943/vd1943.c ****     break;
1149:../Middlewares/stm32-mw-camera/sensors/vd1943/vd1943.c ****   default:
1150:../Middlewares/stm32-mw-camera/sensors/vd1943/vd1943.c ****     return -1;
1151:../Middlewares/stm32-mw-camera/sensors/vd1943/vd1943.c ****   }
1152:../Middlewares/stm32-mw-camera/sensors/vd1943/vd1943.c **** 
1153:../Middlewares/stm32-mw-camera/sensors/vd1943/vd1943.c ****   /* Max Exposure is dependant of framelength */
1154:../Middlewares/stm32-mw-camera/sensors/vd1943/vd1943.c ****   ret = VD1943_ComputeFrameLength(ctx, ctx->ctx.config_save.frame_rate, &frame_length);
 1610              		.loc 1 1154 3 is_stmt 1 view .LVU434
 1611              		.loc 1 1154 9 is_stmt 0 view .LVU435
 1612 0024 016C     		ldr	r1, [r0, #64]
 1613              	.LVL140:
 1614              		.loc 1 1154 9 view .LVU436
 1615 0026 0DF10602 		add	r2, sp, #6
 1616              	.LVL141:
 1617              		.loc 1 1154 9 view .LVU437
 1618 002a FFF7FEFF 		bl	VD1943_ComputeFrameLength
 1619              	.LVL142:
1155:../Middlewares/stm32-mw-camera/sensors/vd1943/vd1943.c ****   if (ret)
ARM GAS  /tmp/ccydMd0r.s 			page 56


 1620              		.loc 1 1155 3 is_stmt 1 view .LVU438
 1621              		.loc 1 1155 6 is_stmt 0 view .LVU439
 1622 002e 50B9     		cbnz	r0, .L111
1156:../Middlewares/stm32-mw-camera/sensors/vd1943/vd1943.c ****     return ret;
1157:../Middlewares/stm32-mw-camera/sensors/vd1943/vd1943.c ****   *max_us = (frame_length - VD1943_EXPOSURE_MARGIN) * VD1943_LINE_TIME_IN_NS / 1000;
 1623              		.loc 1 1157 3 is_stmt 1 view .LVU440
 1624              		.loc 1 1157 53 is_stmt 0 view .LVU441
 1625 0030 43F6A402 		movw	r2, #14500
 1626              		.loc 1 1157 27 view .LVU442
 1627 0034 BDF80630 		ldrh	r3, [sp, #6]
 1628 0038 643B     		subs	r3, r3, #100
 1629              		.loc 1 1157 53 view .LVU443
 1630 003a 5343     		muls	r3, r2, r3
 1631              		.loc 1 1157 78 view .LVU444
 1632 003c 4FF47A72 		mov	r2, #1000
 1633 0040 93FBF2F3 		sdiv	r3, r3, r2
 1634              		.loc 1 1157 11 view .LVU445
 1635 0044 2360     		str	r3, [r4]
1158:../Middlewares/stm32-mw-camera/sensors/vd1943/vd1943.c **** 
1159:../Middlewares/stm32-mw-camera/sensors/vd1943/vd1943.c ****   return 0;
 1636              		.loc 1 1159 3 is_stmt 1 view .LVU446
 1637              	.LVL143:
 1638              	.L111:
1160:../Middlewares/stm32-mw-camera/sensors/vd1943/vd1943.c **** }
 1639              		.loc 1 1160 1 is_stmt 0 view .LVU447
 1640 0046 02B0     		add	sp, sp, #8
 1641              		.cfi_remember_state
 1642              		.cfi_def_cfa_offset 8
 1643              		@ sp needed
 1644 0048 10BD     		pop	{r4, pc}
 1645              	.LVL144:
 1646              	.L119:
 1647              		.cfi_restore_state
1118:../Middlewares/stm32-mw-camera/sensors/vd1943/vd1943.c ****   case VD1943_GS_SS1_NATIVE_8:
 1648              		.loc 1 1118 3 view .LVU448
 1649 004a 4FF0FF30 		mov	r0, #-1
 1650              	.LVL145:
1118:../Middlewares/stm32-mw-camera/sensors/vd1943/vd1943.c ****   case VD1943_GS_SS1_NATIVE_8:
 1651              		.loc 1 1118 3 view .LVU449
 1652 004e FAE7     		b	.L111
 1653              		.cfi_endproc
 1654              	.LFE35:
 1656              		.section	.rodata.VD1943_Init.str1.1,"aMS",%progbits,1
 1657              	.LC9:
 1658 0000 56443139 		.ascii	"VD1943_ERR-%d : ext_clock_freq_in_hz out of range\000"
 1658      34335F45 
 1658      52522D25 
 1658      64203A20 
 1658      6578745F 
 1659              	.LC10:
 1660 0032 56443139 		.ascii	"VD1943_ERR-%d : data_rate_in_mps out of range\000"
 1660      34335F45 
 1660      52522D25 
 1660      64203A20 
 1660      64617461 
 1661              	.LC11:
 1662 0060 56443139 		.ascii	"VD1943_ERR-%d : datalane_nb out of range\000"
ARM GAS  /tmp/ccydMd0r.s 			page 57


 1662      34335F45 
 1662      52522D25 
 1662      64203A20 
 1662      64617461 
 1663              	.LC12:
 1664 0089 56443139 		.ascii	"VD1943_ERR-%d : resolution out of range\000"
 1664      34335F45 
 1664      52522D25 
 1664      64203A20 
 1664      7265736F 
 1665              	.LC13:
 1666 00b1 3000     		.ascii	"0\000"
 1667              	.LC14:
 1668 00b3 56443139 		.ascii	"VD1943_DG%d-%d : model_id = 0x%08x\012\000"
 1668      34335F44 
 1668      4725642D 
 1668      2564203A 
 1668      206D6F64 
 1669              	.LC15:
 1670 00d7 56443139 		.ascii	"VD1943_ERR-%d : Unsupported model id: 0x%08x\012\000"
 1670      34335F45 
 1670      52522D25 
 1670      64203A20 
 1670      556E7375 
 1671              	.LC16:
 1672 0105 56443139 		.ascii	"VD1943_DG%d-%d : rom revision = 0x%08x\012\000"
 1672      34335F44 
 1672      4725642D 
 1672      2564203A 
 1672      20726F6D 
 1673              	.LC17:
 1674 012d 56443139 		.ascii	"VD1943_ERR-%d : Unsupported rom revision: 0x%08x\012"
 1674      34335F45 
 1674      52522D25 
 1674      64203A20 
 1674      556E7375 
 1675 015e 00       		.ascii	"\000"
 1676              	.LC18:
 1677 015f 56443139 		.ascii	"VD1943_DG%d-%d : optical revision = 0x%04x\012\000"
 1677      34335F44 
 1677      4725642D 
 1677      2564203A 
 1677      206F7074 
 1678              	.LC19:
 1679 018b 56443139 		.ascii	"VD1943_NOT-%d : patch = %d.%d\012\000"
 1679      34335F4E 
 1679      4F542D25 
 1679      64203A20 
 1679      70617463 
 1680              		.section	.text.VD1943_Init,"ax",%progbits
 1681              		.align	1
 1682              		.global	VD1943_Init
 1683              		.syntax unified
 1684              		.thumb
 1685              		.thumb_func
 1687              	VD1943_Init:
 1688              	.LVL146:
ARM GAS  /tmp/ccydMd0r.s 			page 58


 1689              	.LFB46:
1161:../Middlewares/stm32-mw-camera/sensors/vd1943/vd1943.c **** 
1162:../Middlewares/stm32-mw-camera/sensors/vd1943/vd1943.c **** static int VD1943_SetupMirrorFlip(VD1943_Ctx_t *ctx)
1163:../Middlewares/stm32-mw-camera/sensors/vd1943/vd1943.c **** {
1164:../Middlewares/stm32-mw-camera/sensors/vd1943/vd1943.c ****   struct drv_vd1943_ctx *drv_vd1943_ctx = &ctx->ctx;
1165:../Middlewares/stm32-mw-camera/sensors/vd1943/vd1943.c ****   uint8_t mode;
1166:../Middlewares/stm32-mw-camera/sensors/vd1943/vd1943.c ****   int ret;
1167:../Middlewares/stm32-mw-camera/sensors/vd1943/vd1943.c **** 
1168:../Middlewares/stm32-mw-camera/sensors/vd1943/vd1943.c ****   switch (drv_vd1943_ctx->config_save.flip_mirror_mode) {
1169:../Middlewares/stm32-mw-camera/sensors/vd1943/vd1943.c ****   case VD1943_MIRROR_FLIP_NONE:
1170:../Middlewares/stm32-mw-camera/sensors/vd1943/vd1943.c ****     mode = 0;
1171:../Middlewares/stm32-mw-camera/sensors/vd1943/vd1943.c ****     break;
1172:../Middlewares/stm32-mw-camera/sensors/vd1943/vd1943.c ****   case VD1943_FLIP:
1173:../Middlewares/stm32-mw-camera/sensors/vd1943/vd1943.c ****     mode = 2;
1174:../Middlewares/stm32-mw-camera/sensors/vd1943/vd1943.c ****     break;
1175:../Middlewares/stm32-mw-camera/sensors/vd1943/vd1943.c ****   case VD1943_MIRROR:
1176:../Middlewares/stm32-mw-camera/sensors/vd1943/vd1943.c ****     mode = 1;
1177:../Middlewares/stm32-mw-camera/sensors/vd1943/vd1943.c ****     break;
1178:../Middlewares/stm32-mw-camera/sensors/vd1943/vd1943.c ****   case VD1943_MIRROR_FLIP:
1179:../Middlewares/stm32-mw-camera/sensors/vd1943/vd1943.c ****     mode = 3;
1180:../Middlewares/stm32-mw-camera/sensors/vd1943/vd1943.c ****     break;
1181:../Middlewares/stm32-mw-camera/sensors/vd1943/vd1943.c ****   default:
1182:../Middlewares/stm32-mw-camera/sensors/vd1943/vd1943.c ****     return -1;
1183:../Middlewares/stm32-mw-camera/sensors/vd1943/vd1943.c ****   }
1184:../Middlewares/stm32-mw-camera/sensors/vd1943/vd1943.c **** 
1185:../Middlewares/stm32-mw-camera/sensors/vd1943/vd1943.c ****   ret = ctx->write8(ctx, VD1943_REG_ORIENTATION, mode);
1186:../Middlewares/stm32-mw-camera/sensors/vd1943/vd1943.c ****   VD1943_TraceError(ctx, ret);
1187:../Middlewares/stm32-mw-camera/sensors/vd1943/vd1943.c **** 
1188:../Middlewares/stm32-mw-camera/sensors/vd1943/vd1943.c ****   return 0;
1189:../Middlewares/stm32-mw-camera/sensors/vd1943/vd1943.c **** }
1190:../Middlewares/stm32-mw-camera/sensors/vd1943/vd1943.c **** 
1191:../Middlewares/stm32-mw-camera/sensors/vd1943/vd1943.c **** static int VD1943_SetupPatGen(VD1943_Ctx_t *ctx)
1192:../Middlewares/stm32-mw-camera/sensors/vd1943/vd1943.c **** {
1193:../Middlewares/stm32-mw-camera/sensors/vd1943/vd1943.c ****   struct drv_vd1943_ctx *drv_vd1943_ctx = &ctx->ctx;
1194:../Middlewares/stm32-mw-camera/sensors/vd1943/vd1943.c ****   uint16_t reg16;
1195:../Middlewares/stm32-mw-camera/sensors/vd1943/vd1943.c ****   int ret;
1196:../Middlewares/stm32-mw-camera/sensors/vd1943/vd1943.c **** 
1197:../Middlewares/stm32-mw-camera/sensors/vd1943/vd1943.c ****   switch (drv_vd1943_ctx->config_save.patgen) {
1198:../Middlewares/stm32-mw-camera/sensors/vd1943/vd1943.c ****   case VD1943_PATGEN_DISABLE:
1199:../Middlewares/stm32-mw-camera/sensors/vd1943/vd1943.c ****     reg16 = VD1943_PATGEN_CTRL_DISABLE;
1200:../Middlewares/stm32-mw-camera/sensors/vd1943/vd1943.c ****     break;
1201:../Middlewares/stm32-mw-camera/sensors/vd1943/vd1943.c ****   case VD1943_PATGEN_DIAGONAL_GRAYSCALE:
1202:../Middlewares/stm32-mw-camera/sensors/vd1943/vd1943.c ****     reg16 = VD1943_PATGEN_CTRL_DGREY;
1203:../Middlewares/stm32-mw-camera/sensors/vd1943/vd1943.c ****     break;
1204:../Middlewares/stm32-mw-camera/sensors/vd1943/vd1943.c ****   case VD1943_PATGEN_PSEUDO_RANDOM:
1205:../Middlewares/stm32-mw-camera/sensors/vd1943/vd1943.c ****     reg16 = VD1943_PATGEN_CTRL_PN28;
1206:../Middlewares/stm32-mw-camera/sensors/vd1943/vd1943.c ****     break;
1207:../Middlewares/stm32-mw-camera/sensors/vd1943/vd1943.c ****   default:
1208:../Middlewares/stm32-mw-camera/sensors/vd1943/vd1943.c ****     return -1;
1209:../Middlewares/stm32-mw-camera/sensors/vd1943/vd1943.c ****   }
1210:../Middlewares/stm32-mw-camera/sensors/vd1943/vd1943.c **** 
1211:../Middlewares/stm32-mw-camera/sensors/vd1943/vd1943.c ****   ret = ctx->write16(ctx, VD1943_REG_PATGEN_CTRL, reg16);
1212:../Middlewares/stm32-mw-camera/sensors/vd1943/vd1943.c ****   VD1943_TraceError(ctx, ret);
1213:../Middlewares/stm32-mw-camera/sensors/vd1943/vd1943.c **** 
1214:../Middlewares/stm32-mw-camera/sensors/vd1943/vd1943.c ****   return 0;
1215:../Middlewares/stm32-mw-camera/sensors/vd1943/vd1943.c **** }
1216:../Middlewares/stm32-mw-camera/sensors/vd1943/vd1943.c **** 
ARM GAS  /tmp/ccydMd0r.s 			page 59


1217:../Middlewares/stm32-mw-camera/sensors/vd1943/vd1943.c **** static int VD1943_Gpios(VD1943_Ctx_t *ctx)
1218:../Middlewares/stm32-mw-camera/sensors/vd1943/vd1943.c **** {
1219:../Middlewares/stm32-mw-camera/sensors/vd1943/vd1943.c ****   struct drv_vd1943_ctx *drv_vd1943_ctx = &ctx->ctx;
1220:../Middlewares/stm32-mw-camera/sensors/vd1943/vd1943.c ****   int ret;
1221:../Middlewares/stm32-mw-camera/sensors/vd1943/vd1943.c ****   int i;
1222:../Middlewares/stm32-mw-camera/sensors/vd1943/vd1943.c **** 
1223:../Middlewares/stm32-mw-camera/sensors/vd1943/vd1943.c ****   for (i = 0; i < VD1943_GPIO_NB; i++) {
1224:../Middlewares/stm32-mw-camera/sensors/vd1943/vd1943.c ****     ret = ctx->write8(ctx, VD1943_REG_GPIO_x_CTRL(i), drv_vd1943_ctx->config_save.gpios[i].gpio_ctr
1225:../Middlewares/stm32-mw-camera/sensors/vd1943/vd1943.c ****     VD1943_TraceError(ctx, ret);
1226:../Middlewares/stm32-mw-camera/sensors/vd1943/vd1943.c ****     ret = ctx->write8(ctx, VD1943_REG_GPIO_CTRL(0), drv_vd1943_ctx->config_save.gpios[i].enable);
1227:../Middlewares/stm32-mw-camera/sensors/vd1943/vd1943.c ****     VD1943_TraceError(ctx, ret);
1228:../Middlewares/stm32-mw-camera/sensors/vd1943/vd1943.c ****   }
1229:../Middlewares/stm32-mw-camera/sensors/vd1943/vd1943.c **** 
1230:../Middlewares/stm32-mw-camera/sensors/vd1943/vd1943.c ****   return 0;
1231:../Middlewares/stm32-mw-camera/sensors/vd1943/vd1943.c **** }
1232:../Middlewares/stm32-mw-camera/sensors/vd1943/vd1943.c **** 
1233:../Middlewares/stm32-mw-camera/sensors/vd1943/vd1943.c **** static int VD1943_VT_Sync(VD1943_Ctx_t *ctx)
1234:../Middlewares/stm32-mw-camera/sensors/vd1943/vd1943.c **** {
1235:../Middlewares/stm32-mw-camera/sensors/vd1943/vd1943.c ****   struct drv_vd1943_ctx *drv_vd1943_ctx = &ctx->ctx;
1236:../Middlewares/stm32-mw-camera/sensors/vd1943/vd1943.c ****   int i;
1237:../Middlewares/stm32-mw-camera/sensors/vd1943/vd1943.c ****   int ret;
1238:../Middlewares/stm32-mw-camera/sensors/vd1943/vd1943.c **** 
1239:../Middlewares/stm32-mw-camera/sensors/vd1943/vd1943.c ****   /* If Slave mode is enabled, ensure at lease one GPIO is configured accordingly */
1240:../Middlewares/stm32-mw-camera/sensors/vd1943/vd1943.c ****   if (drv_vd1943_ctx->config_save.sync_mode == VD1943_SLAVE) {
1241:../Middlewares/stm32-mw-camera/sensors/vd1943/vd1943.c ****     for (i = 0; i < VD1943_GPIO_NB; i++) {
1242:../Middlewares/stm32-mw-camera/sensors/vd1943/vd1943.c ****       if (((drv_vd1943_ctx->config_save.gpios[i].gpio_ctrl & VD1943_GPIO_FSYNC_IN) == VD1943_GPIO_F
1243:../Middlewares/stm32-mw-camera/sensors/vd1943/vd1943.c ****         (drv_vd1943_ctx->config_save.gpios[i].enable == VD1943_GPIO_ENABLE)) {
1244:../Middlewares/stm32-mw-camera/sensors/vd1943/vd1943.c ****         break;
1245:../Middlewares/stm32-mw-camera/sensors/vd1943/vd1943.c ****       }
1246:../Middlewares/stm32-mw-camera/sensors/vd1943/vd1943.c ****     }
1247:../Middlewares/stm32-mw-camera/sensors/vd1943/vd1943.c **** 
1248:../Middlewares/stm32-mw-camera/sensors/vd1943/vd1943.c ****     if (i == VD1943_GPIO_NB) {
1249:../Middlewares/stm32-mw-camera/sensors/vd1943/vd1943.c ****       // Slave mode is selected but no GPIO is configured
1250:../Middlewares/stm32-mw-camera/sensors/vd1943/vd1943.c ****       return -1;
1251:../Middlewares/stm32-mw-camera/sensors/vd1943/vd1943.c ****     }
1252:../Middlewares/stm32-mw-camera/sensors/vd1943/vd1943.c ****   }
1253:../Middlewares/stm32-mw-camera/sensors/vd1943/vd1943.c **** 
1254:../Middlewares/stm32-mw-camera/sensors/vd1943/vd1943.c ****   ret = ctx->write8(ctx, VD1943_REG_VT_CTRL, drv_vd1943_ctx->config_save.sync_mode);
1255:../Middlewares/stm32-mw-camera/sensors/vd1943/vd1943.c ****   VD1943_TraceError(ctx, ret);
1256:../Middlewares/stm32-mw-camera/sensors/vd1943/vd1943.c **** 
1257:../Middlewares/stm32-mw-camera/sensors/vd1943/vd1943.c ****   return 0;
1258:../Middlewares/stm32-mw-camera/sensors/vd1943/vd1943.c **** }
1259:../Middlewares/stm32-mw-camera/sensors/vd1943/vd1943.c **** 
1260:../Middlewares/stm32-mw-camera/sensors/vd1943/vd1943.c **** static int VD1943_SafetyDisable(VD1943_Ctx_t *ctx)
1261:../Middlewares/stm32-mw-camera/sensors/vd1943/vd1943.c **** {
1262:../Middlewares/stm32-mw-camera/sensors/vd1943/vd1943.c ****   int ret;
1263:../Middlewares/stm32-mw-camera/sensors/vd1943/vd1943.c **** 
1264:../Middlewares/stm32-mw-camera/sensors/vd1943/vd1943.c ****   ret = ctx->write8(ctx, VD1943_REG_DIAG_DISABLE_FW_0_ERR, VD1943_DIAG_DISABLE_FW_0_ERR_UI_CRC);
1265:../Middlewares/stm32-mw-camera/sensors/vd1943/vd1943.c ****   VD1943_TraceError(ctx, ret);
1266:../Middlewares/stm32-mw-camera/sensors/vd1943/vd1943.c ****   ret = ctx->write8(ctx, VD1943_REG_DIAG_DISABLE_FW_1_ERR, VD1943_DIAG_DISABLE_FW_1_ERR_TASK_MONITO
1267:../Middlewares/stm32-mw-camera/sensors/vd1943/vd1943.c ****   VD1943_TraceError(ctx, ret);
1268:../Middlewares/stm32-mw-camera/sensors/vd1943/vd1943.c ****   ret = ctx->write8(ctx, VD1943_REG_DIAG_DISABLE_STREAMING_ERR, VD1943_DIAG_DISABLE_STREAMING_ERR_A
1269:../Middlewares/stm32-mw-camera/sensors/vd1943/vd1943.c ****   VD1943_TraceError(ctx, ret);
1270:../Middlewares/stm32-mw-camera/sensors/vd1943/vd1943.c **** 
1271:../Middlewares/stm32-mw-camera/sensors/vd1943/vd1943.c ****   return 0;
1272:../Middlewares/stm32-mw-camera/sensors/vd1943/vd1943.c **** }
1273:../Middlewares/stm32-mw-camera/sensors/vd1943/vd1943.c **** 
ARM GAS  /tmp/ccydMd0r.s 			page 60


1274:../Middlewares/stm32-mw-camera/sensors/vd1943/vd1943.c **** static int VD1943_Setup(VD1943_Ctx_t *ctx)
1275:../Middlewares/stm32-mw-camera/sensors/vd1943/vd1943.c **** {
1276:../Middlewares/stm32-mw-camera/sensors/vd1943/vd1943.c ****   int ret;
1277:../Middlewares/stm32-mw-camera/sensors/vd1943/vd1943.c **** 
1278:../Middlewares/stm32-mw-camera/sensors/vd1943/vd1943.c ****   ret = VD1943_SetupOutput(ctx);
1279:../Middlewares/stm32-mw-camera/sensors/vd1943/vd1943.c ****   if (ret)
1280:../Middlewares/stm32-mw-camera/sensors/vd1943/vd1943.c ****     return ret;
1281:../Middlewares/stm32-mw-camera/sensors/vd1943/vd1943.c **** 
1282:../Middlewares/stm32-mw-camera/sensors/vd1943/vd1943.c ****   ret = VD1943_SetupSize(ctx);
1283:../Middlewares/stm32-mw-camera/sensors/vd1943/vd1943.c ****   if (ret)
1284:../Middlewares/stm32-mw-camera/sensors/vd1943/vd1943.c ****     return ret;
1285:../Middlewares/stm32-mw-camera/sensors/vd1943/vd1943.c **** 
1286:../Middlewares/stm32-mw-camera/sensors/vd1943/vd1943.c ****   ret = VD1943_SetupFrameRate(ctx);
1287:../Middlewares/stm32-mw-camera/sensors/vd1943/vd1943.c ****   if (ret)
1288:../Middlewares/stm32-mw-camera/sensors/vd1943/vd1943.c ****     return ret;
1289:../Middlewares/stm32-mw-camera/sensors/vd1943/vd1943.c **** 
1290:../Middlewares/stm32-mw-camera/sensors/vd1943/vd1943.c ****   ret = VD1943_SetupMirrorFlip(ctx);
1291:../Middlewares/stm32-mw-camera/sensors/vd1943/vd1943.c ****   if (ret)
1292:../Middlewares/stm32-mw-camera/sensors/vd1943/vd1943.c ****     return ret;
1293:../Middlewares/stm32-mw-camera/sensors/vd1943/vd1943.c **** 
1294:../Middlewares/stm32-mw-camera/sensors/vd1943/vd1943.c ****   ret = VD1943_SetupPatGen(ctx);
1295:../Middlewares/stm32-mw-camera/sensors/vd1943/vd1943.c ****   if (ret)
1296:../Middlewares/stm32-mw-camera/sensors/vd1943/vd1943.c ****     return ret;
1297:../Middlewares/stm32-mw-camera/sensors/vd1943/vd1943.c **** 
1298:../Middlewares/stm32-mw-camera/sensors/vd1943/vd1943.c ****   ret = VD1943_Gpios(ctx);
1299:../Middlewares/stm32-mw-camera/sensors/vd1943/vd1943.c ****   if (ret)
1300:../Middlewares/stm32-mw-camera/sensors/vd1943/vd1943.c ****     return ret;
1301:../Middlewares/stm32-mw-camera/sensors/vd1943/vd1943.c **** 
1302:../Middlewares/stm32-mw-camera/sensors/vd1943/vd1943.c ****   ret = VD1943_VT_Sync(ctx);
1303:../Middlewares/stm32-mw-camera/sensors/vd1943/vd1943.c ****   if (ret)
1304:../Middlewares/stm32-mw-camera/sensors/vd1943/vd1943.c ****     return ret;
1305:../Middlewares/stm32-mw-camera/sensors/vd1943/vd1943.c **** 
1306:../Middlewares/stm32-mw-camera/sensors/vd1943/vd1943.c ****   ret = VD1943_SafetyDisable(ctx);
1307:../Middlewares/stm32-mw-camera/sensors/vd1943/vd1943.c ****   if (ret)
1308:../Middlewares/stm32-mw-camera/sensors/vd1943/vd1943.c ****     return ret;
1309:../Middlewares/stm32-mw-camera/sensors/vd1943/vd1943.c **** 
1310:../Middlewares/stm32-mw-camera/sensors/vd1943/vd1943.c ****   return 0;
1311:../Middlewares/stm32-mw-camera/sensors/vd1943/vd1943.c **** }
1312:../Middlewares/stm32-mw-camera/sensors/vd1943/vd1943.c **** 
1313:../Middlewares/stm32-mw-camera/sensors/vd1943/vd1943.c **** static int VD1943_StartStreaming(VD1943_Ctx_t *ctx)
1314:../Middlewares/stm32-mw-camera/sensors/vd1943/vd1943.c **** {
1315:../Middlewares/stm32-mw-camera/sensors/vd1943/vd1943.c ****   int ret;
1316:../Middlewares/stm32-mw-camera/sensors/vd1943/vd1943.c **** 
1317:../Middlewares/stm32-mw-camera/sensors/vd1943/vd1943.c ****   ret = VD1943_ApplyCmdAndWait(ctx, VD1943_REG_SW_STBY, VD1943_CMD_START_STREAMING);
1318:../Middlewares/stm32-mw-camera/sensors/vd1943/vd1943.c ****   if (ret)
1319:../Middlewares/stm32-mw-camera/sensors/vd1943/vd1943.c ****     return ret;
1320:../Middlewares/stm32-mw-camera/sensors/vd1943/vd1943.c **** 
1321:../Middlewares/stm32-mw-camera/sensors/vd1943/vd1943.c ****   ret = VD1943_WaitState(ctx, VD1943_STREAMING);
1322:../Middlewares/stm32-mw-camera/sensors/vd1943/vd1943.c ****   if (ret)
1323:../Middlewares/stm32-mw-camera/sensors/vd1943/vd1943.c ****     return ret;
1324:../Middlewares/stm32-mw-camera/sensors/vd1943/vd1943.c **** 
1325:../Middlewares/stm32-mw-camera/sensors/vd1943/vd1943.c ****   VD1943_notice(ctx, "Streaming is on\n");
1326:../Middlewares/stm32-mw-camera/sensors/vd1943/vd1943.c **** 
1327:../Middlewares/stm32-mw-camera/sensors/vd1943/vd1943.c ****   return 0;
1328:../Middlewares/stm32-mw-camera/sensors/vd1943/vd1943.c **** }
1329:../Middlewares/stm32-mw-camera/sensors/vd1943/vd1943.c **** 
1330:../Middlewares/stm32-mw-camera/sensors/vd1943/vd1943.c **** static int VD1943_StopStreaming(VD1943_Ctx_t *ctx)
ARM GAS  /tmp/ccydMd0r.s 			page 61


1331:../Middlewares/stm32-mw-camera/sensors/vd1943/vd1943.c **** {
1332:../Middlewares/stm32-mw-camera/sensors/vd1943/vd1943.c ****   int ret;
1333:../Middlewares/stm32-mw-camera/sensors/vd1943/vd1943.c **** 
1334:../Middlewares/stm32-mw-camera/sensors/vd1943/vd1943.c ****   ret = VD1943_ApplyCmdAndWait(ctx, VD1943_REG_STREAMING, VD1943_CMD_STOP_STREAMING);
1335:../Middlewares/stm32-mw-camera/sensors/vd1943/vd1943.c ****   if (ret)
1336:../Middlewares/stm32-mw-camera/sensors/vd1943/vd1943.c ****     return ret;
1337:../Middlewares/stm32-mw-camera/sensors/vd1943/vd1943.c **** 
1338:../Middlewares/stm32-mw-camera/sensors/vd1943/vd1943.c ****   ret = VD1943_WaitState(ctx, VD1943_SW_STBY);
1339:../Middlewares/stm32-mw-camera/sensors/vd1943/vd1943.c ****   if (ret)
1340:../Middlewares/stm32-mw-camera/sensors/vd1943/vd1943.c ****     return ret;
1341:../Middlewares/stm32-mw-camera/sensors/vd1943/vd1943.c **** 
1342:../Middlewares/stm32-mw-camera/sensors/vd1943/vd1943.c ****   VD1943_notice(ctx, "Streaming is on\n");
1343:../Middlewares/stm32-mw-camera/sensors/vd1943/vd1943.c **** 
1344:../Middlewares/stm32-mw-camera/sensors/vd1943/vd1943.c ****   return 0;
1345:../Middlewares/stm32-mw-camera/sensors/vd1943/vd1943.c **** }
1346:../Middlewares/stm32-mw-camera/sensors/vd1943/vd1943.c **** 
1347:../Middlewares/stm32-mw-camera/sensors/vd1943/vd1943.c **** static int VD1943_CheckConfig(VD1943_Ctx_t *ctx, VD1943_Config_t *config)
1348:../Middlewares/stm32-mw-camera/sensors/vd1943/vd1943.c **** {
1349:../Middlewares/stm32-mw-camera/sensors/vd1943/vd1943.c ****   struct drv_vd1943_ctx *drv_vd1943_ctx = &ctx->ctx;
1350:../Middlewares/stm32-mw-camera/sensors/vd1943/vd1943.c **** 
1351:../Middlewares/stm32-mw-camera/sensors/vd1943/vd1943.c ****   if (config->ext_clock_freq_in_hz < VD1943_MIN_CLOCK_FREQ || config->ext_clock_freq_in_hz > VD1943
1352:../Middlewares/stm32-mw-camera/sensors/vd1943/vd1943.c ****     VD1943_error(ctx, "ext_clock_freq_in_hz out of range");
1353:../Middlewares/stm32-mw-camera/sensors/vd1943/vd1943.c ****     return -1;
1354:../Middlewares/stm32-mw-camera/sensors/vd1943/vd1943.c ****   }
1355:../Middlewares/stm32-mw-camera/sensors/vd1943/vd1943.c **** 
1356:../Middlewares/stm32-mw-camera/sensors/vd1943/vd1943.c ****   if (config->out_itf.data_rate_in_mps < VD1943_MIN_DATARATE || config->out_itf.data_rate_in_mps > 
1357:../Middlewares/stm32-mw-camera/sensors/vd1943/vd1943.c ****     VD1943_error(ctx, "data_rate_in_mps out of range");
1358:../Middlewares/stm32-mw-camera/sensors/vd1943/vd1943.c ****     return -1;
1359:../Middlewares/stm32-mw-camera/sensors/vd1943/vd1943.c ****   }
1360:../Middlewares/stm32-mw-camera/sensors/vd1943/vd1943.c **** 
1361:../Middlewares/stm32-mw-camera/sensors/vd1943/vd1943.c ****   if (config->out_itf.datalane_nb != 2 && config->out_itf.datalane_nb != 4) {
1362:../Middlewares/stm32-mw-camera/sensors/vd1943/vd1943.c ****     VD1943_error(ctx, "datalane_nb out of range");
1363:../Middlewares/stm32-mw-camera/sensors/vd1943/vd1943.c ****     return -1;
1364:../Middlewares/stm32-mw-camera/sensors/vd1943/vd1943.c ****   }
1365:../Middlewares/stm32-mw-camera/sensors/vd1943/vd1943.c **** 
1366:../Middlewares/stm32-mw-camera/sensors/vd1943/vd1943.c ****   if (config->resolution < VD1943_RES_QVGA_320_240 ||
1367:../Middlewares/stm32-mw-camera/sensors/vd1943/vd1943.c ****       config->resolution > VD1943_RES_FULL_2560_1984) {
1368:../Middlewares/stm32-mw-camera/sensors/vd1943/vd1943.c ****     VD1943_error(ctx, "resolution out of range");
1369:../Middlewares/stm32-mw-camera/sensors/vd1943/vd1943.c ****     return -1;
1370:../Middlewares/stm32-mw-camera/sensors/vd1943/vd1943.c ****   }
1371:../Middlewares/stm32-mw-camera/sensors/vd1943/vd1943.c **** 
1372:../Middlewares/stm32-mw-camera/sensors/vd1943/vd1943.c ****   switch (config->image_processing_mode) {
1373:../Middlewares/stm32-mw-camera/sensors/vd1943/vd1943.c ****   case VD1943_GS_SS1_NATIVE_8:
1374:../Middlewares/stm32-mw-camera/sensors/vd1943/vd1943.c ****   case VD1943_GS_SS1_NATIVE_10:
1375:../Middlewares/stm32-mw-camera/sensors/vd1943/vd1943.c ****   case VD1943_GS_SS1_SPLIT_NATIVE_8:
1376:../Middlewares/stm32-mw-camera/sensors/vd1943/vd1943.c ****   case VD1943_GS_SS1_SPLIT_NATIVE_10:
1377:../Middlewares/stm32-mw-camera/sensors/vd1943/vd1943.c ****   case VD1943_GS_SS2_MONO_8:
1378:../Middlewares/stm32-mw-camera/sensors/vd1943/vd1943.c ****   case VD1943_GS_SS2_MONO_10:
1379:../Middlewares/stm32-mw-camera/sensors/vd1943/vd1943.c ****   case VD1943_GS_SS4_MONO_8:
1380:../Middlewares/stm32-mw-camera/sensors/vd1943/vd1943.c ****   case VD1943_GS_SS4_MONO_10:
1381:../Middlewares/stm32-mw-camera/sensors/vd1943/vd1943.c ****   case VD1943_GS_SS32_MONO_8:
1382:../Middlewares/stm32-mw-camera/sensors/vd1943/vd1943.c ****   case VD1943_GS_SS32_MONO_10:
1383:../Middlewares/stm32-mw-camera/sensors/vd1943/vd1943.c ****   case VD1943_RS_SDR_NATIVE_8:
1384:../Middlewares/stm32-mw-camera/sensors/vd1943/vd1943.c ****   case VD1943_RS_SDR_NATIVE_10:
1385:../Middlewares/stm32-mw-camera/sensors/vd1943/vd1943.c ****   case VD1943_RS_SDR_NATIVE_12:
1386:../Middlewares/stm32-mw-camera/sensors/vd1943/vd1943.c ****   case VD1943_RS_HDR_NATIVE_10:
1387:../Middlewares/stm32-mw-camera/sensors/vd1943/vd1943.c ****   case VD1943_RS_HDR_NATIVE_12:
ARM GAS  /tmp/ccydMd0r.s 			page 62


1388:../Middlewares/stm32-mw-camera/sensors/vd1943/vd1943.c ****     break;
1389:../Middlewares/stm32-mw-camera/sensors/vd1943/vd1943.c ****   case VD1943_GS_SS1_RGB_8:
1390:../Middlewares/stm32-mw-camera/sensors/vd1943/vd1943.c ****   case VD1943_GS_SS1_RGB_10:
1391:../Middlewares/stm32-mw-camera/sensors/vd1943/vd1943.c ****   case VD1943_GS_SS1_IR_8:
1392:../Middlewares/stm32-mw-camera/sensors/vd1943/vd1943.c ****   case VD1943_GS_SS1_IR_10:
1393:../Middlewares/stm32-mw-camera/sensors/vd1943/vd1943.c ****   case VD1943_GS_SS1_SPLIT_IR_8:
1394:../Middlewares/stm32-mw-camera/sensors/vd1943/vd1943.c ****   case VD1943_GS_SS1_SPLIT_IR_10:
1395:../Middlewares/stm32-mw-camera/sensors/vd1943/vd1943.c ****   case VD1943_RS_SDR_RGB_8:
1396:../Middlewares/stm32-mw-camera/sensors/vd1943/vd1943.c ****   case VD1943_RS_SDR_RGB_10:
1397:../Middlewares/stm32-mw-camera/sensors/vd1943/vd1943.c ****   case VD1943_RS_SDR_RGB_12:
1398:../Middlewares/stm32-mw-camera/sensors/vd1943/vd1943.c ****   case VD1943_RS_HDR_RGB_10:
1399:../Middlewares/stm32-mw-camera/sensors/vd1943/vd1943.c ****   case VD1943_RS_HDR_RGB_12:
1400:../Middlewares/stm32-mw-camera/sensors/vd1943/vd1943.c ****     // Unsupported modes for VD5943 (Mono) variant
1401:../Middlewares/stm32-mw-camera/sensors/vd1943/vd1943.c ****     if (drv_vd1943_ctx->is_mono)
1402:../Middlewares/stm32-mw-camera/sensors/vd1943/vd1943.c ****       return -1;
1403:../Middlewares/stm32-mw-camera/sensors/vd1943/vd1943.c ****     else
1404:../Middlewares/stm32-mw-camera/sensors/vd1943/vd1943.c ****       break;
1405:../Middlewares/stm32-mw-camera/sensors/vd1943/vd1943.c ****   default:
1406:../Middlewares/stm32-mw-camera/sensors/vd1943/vd1943.c ****     return -1;
1407:../Middlewares/stm32-mw-camera/sensors/vd1943/vd1943.c ****   }
1408:../Middlewares/stm32-mw-camera/sensors/vd1943/vd1943.c **** 
1409:../Middlewares/stm32-mw-camera/sensors/vd1943/vd1943.c ****   return 0;
1410:../Middlewares/stm32-mw-camera/sensors/vd1943/vd1943.c **** }
1411:../Middlewares/stm32-mw-camera/sensors/vd1943/vd1943.c **** 
1412:../Middlewares/stm32-mw-camera/sensors/vd1943/vd1943.c **** static int VD1943_SetFctPtr(VD1943_Ctx_t *ctx)
1413:../Middlewares/stm32-mw-camera/sensors/vd1943/vd1943.c **** {
1414:../Middlewares/stm32-mw-camera/sensors/vd1943/vd1943.c ****   switch (ctx->ctx.config_save.image_processing_mode) {
1415:../Middlewares/stm32-mw-camera/sensors/vd1943/vd1943.c ****   case VD1943_GS_SS1_NATIVE_8:
1416:../Middlewares/stm32-mw-camera/sensors/vd1943/vd1943.c ****   case VD1943_GS_SS1_NATIVE_10:
1417:../Middlewares/stm32-mw-camera/sensors/vd1943/vd1943.c ****     ctx->ctx.set_digital_gain = VD1943_SetDigitalGain_RGBNIR;
1418:../Middlewares/stm32-mw-camera/sensors/vd1943/vd1943.c ****     ctx->ctx.set_expo = VD1943_SetExpo_GS;
1419:../Middlewares/stm32-mw-camera/sensors/vd1943/vd1943.c ****     ctx->ctx.get_expo = VD1943_GetExpo_GS;
1420:../Middlewares/stm32-mw-camera/sensors/vd1943/vd1943.c ****     break;
1421:../Middlewares/stm32-mw-camera/sensors/vd1943/vd1943.c ****   case VD1943_GS_SS1_SPLIT_NATIVE_8:
1422:../Middlewares/stm32-mw-camera/sensors/vd1943/vd1943.c ****   case VD1943_GS_SS1_SPLIT_NATIVE_10:
1423:../Middlewares/stm32-mw-camera/sensors/vd1943/vd1943.c ****   case VD1943_GS_SS1_SPLIT_IR_8:
1424:../Middlewares/stm32-mw-camera/sensors/vd1943/vd1943.c ****   case VD1943_GS_SS1_SPLIT_IR_10:
1425:../Middlewares/stm32-mw-camera/sensors/vd1943/vd1943.c ****     ctx->ctx.set_digital_gain = VD1943_SetDigitalGain_RGBNIR;
1426:../Middlewares/stm32-mw-camera/sensors/vd1943/vd1943.c ****     ctx->ctx.set_expo = VD1943_SetExpoSplit_GS;
1427:../Middlewares/stm32-mw-camera/sensors/vd1943/vd1943.c ****     ctx->ctx.get_expo = VD1943_GetExpo_GS;
1428:../Middlewares/stm32-mw-camera/sensors/vd1943/vd1943.c ****     break;
1429:../Middlewares/stm32-mw-camera/sensors/vd1943/vd1943.c ****   case VD1943_GS_SS1_RGB_8:
1430:../Middlewares/stm32-mw-camera/sensors/vd1943/vd1943.c ****   case VD1943_GS_SS1_RGB_10:
1431:../Middlewares/stm32-mw-camera/sensors/vd1943/vd1943.c ****     ctx->ctx.set_digital_gain = VD1943_SetDigitalGain_RGB;
1432:../Middlewares/stm32-mw-camera/sensors/vd1943/vd1943.c ****     ctx->ctx.set_expo = VD1943_SetExpo_GS;
1433:../Middlewares/stm32-mw-camera/sensors/vd1943/vd1943.c ****     ctx->ctx.get_expo = VD1943_GetExpo_GS;
1434:../Middlewares/stm32-mw-camera/sensors/vd1943/vd1943.c ****     break;
1435:../Middlewares/stm32-mw-camera/sensors/vd1943/vd1943.c ****   case VD1943_GS_SS1_IR_8:
1436:../Middlewares/stm32-mw-camera/sensors/vd1943/vd1943.c ****   case VD1943_GS_SS1_IR_10:
1437:../Middlewares/stm32-mw-camera/sensors/vd1943/vd1943.c ****   case VD1943_GS_SS2_MONO_8:
1438:../Middlewares/stm32-mw-camera/sensors/vd1943/vd1943.c ****   case VD1943_GS_SS2_MONO_10:
1439:../Middlewares/stm32-mw-camera/sensors/vd1943/vd1943.c ****   case VD1943_GS_SS4_MONO_8:
1440:../Middlewares/stm32-mw-camera/sensors/vd1943/vd1943.c ****   case VD1943_GS_SS4_MONO_10:
1441:../Middlewares/stm32-mw-camera/sensors/vd1943/vd1943.c ****   case VD1943_GS_SS32_MONO_8:
1442:../Middlewares/stm32-mw-camera/sensors/vd1943/vd1943.c ****   case VD1943_GS_SS32_MONO_10:
1443:../Middlewares/stm32-mw-camera/sensors/vd1943/vd1943.c ****     ctx->ctx.set_digital_gain = VD1943_SetDigitalGain_IR;
1444:../Middlewares/stm32-mw-camera/sensors/vd1943/vd1943.c ****     ctx->ctx.set_expo = VD1943_SetExpo_GS;
ARM GAS  /tmp/ccydMd0r.s 			page 63


1445:../Middlewares/stm32-mw-camera/sensors/vd1943/vd1943.c ****     ctx->ctx.get_expo = VD1943_GetExpo_GS;
1446:../Middlewares/stm32-mw-camera/sensors/vd1943/vd1943.c ****     break;
1447:../Middlewares/stm32-mw-camera/sensors/vd1943/vd1943.c ****   case VD1943_RS_SDR_NATIVE_8:
1448:../Middlewares/stm32-mw-camera/sensors/vd1943/vd1943.c ****   case VD1943_RS_SDR_NATIVE_10:
1449:../Middlewares/stm32-mw-camera/sensors/vd1943/vd1943.c ****   case VD1943_RS_SDR_NATIVE_12:
1450:../Middlewares/stm32-mw-camera/sensors/vd1943/vd1943.c ****     ctx->ctx.set_digital_gain = VD1943_SetDigitalGain_RGBNIR;
1451:../Middlewares/stm32-mw-camera/sensors/vd1943/vd1943.c ****     ctx->ctx.set_expo = VD1943_SetExpo_RS;
1452:../Middlewares/stm32-mw-camera/sensors/vd1943/vd1943.c ****     ctx->ctx.get_expo = VD1943_GetExpo_RS;
1453:../Middlewares/stm32-mw-camera/sensors/vd1943/vd1943.c ****     break;
1454:../Middlewares/stm32-mw-camera/sensors/vd1943/vd1943.c ****   case VD1943_RS_SDR_RGB_8:
1455:../Middlewares/stm32-mw-camera/sensors/vd1943/vd1943.c ****   case VD1943_RS_SDR_RGB_10:
1456:../Middlewares/stm32-mw-camera/sensors/vd1943/vd1943.c ****   case VD1943_RS_SDR_RGB_12:
1457:../Middlewares/stm32-mw-camera/sensors/vd1943/vd1943.c ****     ctx->ctx.set_digital_gain = VD1943_SetDigitalGain_RGB;
1458:../Middlewares/stm32-mw-camera/sensors/vd1943/vd1943.c ****     ctx->ctx.set_expo = VD1943_SetExpo_RS;
1459:../Middlewares/stm32-mw-camera/sensors/vd1943/vd1943.c ****     ctx->ctx.get_expo = VD1943_GetExpo_RS;
1460:../Middlewares/stm32-mw-camera/sensors/vd1943/vd1943.c ****     break;
1461:../Middlewares/stm32-mw-camera/sensors/vd1943/vd1943.c ****   case VD1943_RS_HDR_NATIVE_10:
1462:../Middlewares/stm32-mw-camera/sensors/vd1943/vd1943.c ****   case VD1943_RS_HDR_NATIVE_12:
1463:../Middlewares/stm32-mw-camera/sensors/vd1943/vd1943.c ****   case VD1943_RS_HDR_RGB_10:
1464:../Middlewares/stm32-mw-camera/sensors/vd1943/vd1943.c ****   case VD1943_RS_HDR_RGB_12:
1465:../Middlewares/stm32-mw-camera/sensors/vd1943/vd1943.c ****     ctx->ctx.set_digital_gain = VD1943_SetDigitalGain_RGB;
1466:../Middlewares/stm32-mw-camera/sensors/vd1943/vd1943.c ****     ctx->ctx.set_expo = VD1943_SetExpo_RS_HDR;
1467:../Middlewares/stm32-mw-camera/sensors/vd1943/vd1943.c ****     ctx->ctx.get_expo = VD1943_GetExpo_RS;
1468:../Middlewares/stm32-mw-camera/sensors/vd1943/vd1943.c ****     break;
1469:../Middlewares/stm32-mw-camera/sensors/vd1943/vd1943.c ****   default:
1470:../Middlewares/stm32-mw-camera/sensors/vd1943/vd1943.c ****     assert(0);
1471:../Middlewares/stm32-mw-camera/sensors/vd1943/vd1943.c ****     return -1;
1472:../Middlewares/stm32-mw-camera/sensors/vd1943/vd1943.c ****   }
1473:../Middlewares/stm32-mw-camera/sensors/vd1943/vd1943.c **** 
1474:../Middlewares/stm32-mw-camera/sensors/vd1943/vd1943.c ****   return 0;
1475:../Middlewares/stm32-mw-camera/sensors/vd1943/vd1943.c **** }
1476:../Middlewares/stm32-mw-camera/sensors/vd1943/vd1943.c **** 
1477:../Middlewares/stm32-mw-camera/sensors/vd1943/vd1943.c **** int VD1943_Init(VD1943_Ctx_t *ctx, VD1943_Config_t *config)
1478:../Middlewares/stm32-mw-camera/sensors/vd1943/vd1943.c **** {
 1690              		.loc 1 1478 1 is_stmt 1 view -0
 1691              		.cfi_startproc
 1692              		@ args = 0, pretend = 0, frame = 8
 1693              		@ frame_needed = 0, uses_anonymous_args = 0
1479:../Middlewares/stm32-mw-camera/sensors/vd1943/vd1943.c ****   struct drv_vd1943_ctx *drv_vd1943_ctx = &ctx->ctx;
 1694              		.loc 1 1479 3 view .LVU451
1480:../Middlewares/stm32-mw-camera/sensors/vd1943/vd1943.c ****   int ret;
 1695              		.loc 1 1480 3 view .LVU452
1481:../Middlewares/stm32-mw-camera/sensors/vd1943/vd1943.c **** 
1482:../Middlewares/stm32-mw-camera/sensors/vd1943/vd1943.c ****   drv_vd1943_ctx->config_save = *config;
 1696              		.loc 1 1482 3 view .LVU453
1478:../Middlewares/stm32-mw-camera/sensors/vd1943/vd1943.c ****   struct drv_vd1943_ctx *drv_vd1943_ctx = &ctx->ctx;
 1697              		.loc 1 1478 1 is_stmt 0 view .LVU454
 1698 0000 F0B5     		push	{r4, r5, r6, r7, lr}
 1699              		.cfi_def_cfa_offset 20
 1700              		.cfi_offset 4, -20
 1701              		.cfi_offset 5, -16
 1702              		.cfi_offset 6, -12
 1703              		.cfi_offset 7, -8
 1704              		.cfi_offset 14, -4
 1705              		.loc 1 1482 31 view .LVU455
 1706 0002 4822     		movs	r2, #72
1478:../Middlewares/stm32-mw-camera/sensors/vd1943/vd1943.c ****   struct drv_vd1943_ctx *drv_vd1943_ctx = &ctx->ctx;
ARM GAS  /tmp/ccydMd0r.s 			page 64


 1707              		.loc 1 1478 1 view .LVU456
 1708 0004 0446     		mov	r4, r0
 1709 0006 87B0     		sub	sp, sp, #28
 1710              		.cfi_def_cfa_offset 48
 1711              		.loc 1 1482 31 view .LVU457
 1712 0008 3830     		adds	r0, r0, #56
 1713              	.LVL147:
1478:../Middlewares/stm32-mw-camera/sensors/vd1943/vd1943.c ****   struct drv_vd1943_ctx *drv_vd1943_ctx = &ctx->ctx;
 1714              		.loc 1 1478 1 view .LVU458
 1715 000a 0D46     		mov	r5, r1
 1716              		.loc 1 1482 31 view .LVU459
 1717 000c FFF7FEFF 		bl	memcpy
 1718              	.LVL148:
1483:../Middlewares/stm32-mw-camera/sensors/vd1943/vd1943.c ****   drv_vd1943_ctx->digital_gain = 0x100;
 1719              		.loc 1 1483 3 is_stmt 1 view .LVU460
 1720              		.loc 1 1483 32 is_stmt 0 view .LVU461
 1721 0010 4FF48073 		mov	r3, #256
1484:../Middlewares/stm32-mw-camera/sensors/vd1943/vd1943.c **** 
1485:../Middlewares/stm32-mw-camera/sensors/vd1943/vd1943.c ****   ctx->shutdown_pin(ctx, 0);
 1722              		.loc 1 1485 3 view .LVU462
 1723 0014 0021     		movs	r1, #0
 1724 0016 2046     		mov	r0, r4
1483:../Middlewares/stm32-mw-camera/sensors/vd1943/vd1943.c ****   drv_vd1943_ctx->digital_gain = 0x100;
 1725              		.loc 1 1483 32 view .LVU463
 1726 0018 6363     		str	r3, [r4, #52]
 1727              		.loc 1 1485 3 is_stmt 1 view .LVU464
 1728 001a 2368     		ldr	r3, [r4]
 1729 001c 9847     		blx	r3
 1730              	.LVL149:
1486:../Middlewares/stm32-mw-camera/sensors/vd1943/vd1943.c ****   ctx->delay(ctx, 10);
 1731              		.loc 1 1486 3 view .LVU465
 1732 001e 0A21     		movs	r1, #10
 1733 0020 2046     		mov	r0, r4
 1734 0022 236A     		ldr	r3, [r4, #32]
 1735 0024 9847     		blx	r3
 1736              	.LVL150:
1487:../Middlewares/stm32-mw-camera/sensors/vd1943/vd1943.c ****   ctx->shutdown_pin(ctx, 1);
 1737              		.loc 1 1487 3 view .LVU466
 1738 0026 0121     		movs	r1, #1
 1739 0028 2046     		mov	r0, r4
 1740 002a 2368     		ldr	r3, [r4]
 1741 002c 9847     		blx	r3
 1742              	.LVL151:
1488:../Middlewares/stm32-mw-camera/sensors/vd1943/vd1943.c ****   ctx->delay(ctx, 10);
 1743              		.loc 1 1488 3 view .LVU467
 1744 002e 236A     		ldr	r3, [r4, #32]
 1745 0030 0A21     		movs	r1, #10
 1746 0032 2046     		mov	r0, r4
 1747 0034 9847     		blx	r3
 1748              	.LVL152:
1489:../Middlewares/stm32-mw-camera/sensors/vd1943/vd1943.c **** 
1490:../Middlewares/stm32-mw-camera/sensors/vd1943/vd1943.c ****   ret = VD1943_CheckConfig(ctx, config);
 1749              		.loc 1 1490 3 view .LVU468
 1750              	.LBB34:
 1751              	.LBI34:
1347:../Middlewares/stm32-mw-camera/sensors/vd1943/vd1943.c **** {
 1752              		.loc 1 1347 12 view .LVU469
ARM GAS  /tmp/ccydMd0r.s 			page 65


 1753              	.LBB35:
1349:../Middlewares/stm32-mw-camera/sensors/vd1943/vd1943.c **** 
 1754              		.loc 1 1349 3 view .LVU470
1351:../Middlewares/stm32-mw-camera/sensors/vd1943/vd1943.c ****     VD1943_error(ctx, "ext_clock_freq_in_hz out of range");
 1755              		.loc 1 1351 3 view .LVU471
1351:../Middlewares/stm32-mw-camera/sensors/vd1943/vd1943.c ****     VD1943_error(ctx, "ext_clock_freq_in_hz out of range");
 1756              		.loc 1 1351 60 is_stmt 0 view .LVU472
 1757 0036 2B68     		ldr	r3, [r5]
1351:../Middlewares/stm32-mw-camera/sensors/vd1943/vd1943.c ****     VD1943_error(ctx, "ext_clock_freq_in_hz out of range");
 1758              		.loc 1 1351 6 view .LVU473
 1759 0038 964A     		ldr	r2, .L222
1351:../Middlewares/stm32-mw-camera/sensors/vd1943/vd1943.c ****     VD1943_error(ctx, "ext_clock_freq_in_hz out of range");
 1760              		.loc 1 1351 60 view .LVU474
 1761 003a A3F53703 		sub	r3, r3, #11993088
 1762 003e A3F5D853 		sub	r3, r3, #6912
1351:../Middlewares/stm32-mw-camera/sensors/vd1943/vd1943.c ****     VD1943_error(ctx, "ext_clock_freq_in_hz out of range");
 1763              		.loc 1 1351 6 view .LVU475
 1764 0042 9342     		cmp	r3, r2
 1765 0044 0BD9     		bls	.L121
1352:../Middlewares/stm32-mw-camera/sensors/vd1943/vd1943.c ****     return -1;
 1766              		.loc 1 1352 5 is_stmt 1 view .LVU476
1352:../Middlewares/stm32-mw-camera/sensors/vd1943/vd1943.c ****     return -1;
 1767              		.loc 1 1352 5 view .LVU477
 1768 0046 4FF4A963 		mov	r3, #1352
 1769 004a 934A     		ldr	r2, .L222+4
 1770              	.L207:
 1771 004c 0021     		movs	r1, #0
 1772 004e 2046     		mov	r0, r4
 1773 0050 FFF7FEFF 		bl	VD1943_log_impl
 1774              	.LVL153:
1352:../Middlewares/stm32-mw-camera/sensors/vd1943/vd1943.c ****     return -1;
 1775              		.loc 1 1352 5 discriminator 1 view .LVU478
1353:../Middlewares/stm32-mw-camera/sensors/vd1943/vd1943.c ****   }
 1776              		.loc 1 1353 5 view .LVU479
1353:../Middlewares/stm32-mw-camera/sensors/vd1943/vd1943.c ****   }
 1777              		.loc 1 1353 5 is_stmt 0 view .LVU480
 1778              	.LBE35:
 1779              	.LBE34:
1491:../Middlewares/stm32-mw-camera/sensors/vd1943/vd1943.c ****   if (ret)
 1780              		.loc 1 1491 3 is_stmt 1 view .LVU481
 1781              	.L124:
1492:../Middlewares/stm32-mw-camera/sensors/vd1943/vd1943.c ****     return ret;
 1782              		.loc 1 1492 12 is_stmt 0 view .LVU482
 1783 0054 4FF0FF35 		mov	r5, #-1
 1784              	.L120:
1493:../Middlewares/stm32-mw-camera/sensors/vd1943/vd1943.c **** 
1494:../Middlewares/stm32-mw-camera/sensors/vd1943/vd1943.c ****   ret = VD1943_SetFctPtr(ctx);
1495:../Middlewares/stm32-mw-camera/sensors/vd1943/vd1943.c ****   if (ret)
1496:../Middlewares/stm32-mw-camera/sensors/vd1943/vd1943.c ****     return ret;
1497:../Middlewares/stm32-mw-camera/sensors/vd1943/vd1943.c **** 
1498:../Middlewares/stm32-mw-camera/sensors/vd1943/vd1943.c ****   ret = VD1943_Boot(ctx);
1499:../Middlewares/stm32-mw-camera/sensors/vd1943/vd1943.c ****   if (ret)
1500:../Middlewares/stm32-mw-camera/sensors/vd1943/vd1943.c ****     return ret;
1501:../Middlewares/stm32-mw-camera/sensors/vd1943/vd1943.c **** 
1502:../Middlewares/stm32-mw-camera/sensors/vd1943/vd1943.c ****   drv_vd1943_ctx->state = VD1943_ST_IDLE;
1503:../Middlewares/stm32-mw-camera/sensors/vd1943/vd1943.c **** 
1504:../Middlewares/stm32-mw-camera/sensors/vd1943/vd1943.c ****   return 0;
ARM GAS  /tmp/ccydMd0r.s 			page 66


1505:../Middlewares/stm32-mw-camera/sensors/vd1943/vd1943.c **** }
 1785              		.loc 1 1505 1 view .LVU483
 1786 0058 2846     		mov	r0, r5
 1787 005a 07B0     		add	sp, sp, #28
 1788              		.cfi_remember_state
 1789              		.cfi_def_cfa_offset 20
 1790              		@ sp needed
