ARM GAS  /tmp/ccfH7U9I.s 			page 1


   1              		.arch armv8.1-m.main
   2              		.fpu fpv5-d16
   3              		.arch_extension dsp
   4              		.arch_extension fp
   5              		.arch_extension fp.dp
   6              		.arch_extension mve
   7              		.arch_extension mve.fp
   8              		.eabi_attribute 5, "cortex-m55"
   9              		.eabi_attribute 28, 1
  10              		.eabi_attribute 20, 1
  11              		.eabi_attribute 21, 1
  12              		.eabi_attribute 23, 3
  13              		.eabi_attribute 24, 1
  14              		.eabi_attribute 25, 1
  15              		.eabi_attribute 26, 1
  16              		.eabi_attribute 30, 4
  17              		.eabi_attribute 34, 1
  18              		.eabi_attribute 38, 1
  19              		.eabi_attribute 18, 4
  20              		.file	"vision_models_pp_maxi_if32.c"
  21              		.text
  22              	.Ltext0:
  23              		.cfi_sections	.debug_frame
  24              		.file 1 "../Middlewares/stm32-vision-models-postprocessing/lib_vision_models_pp/Src/vision_models_
  25              		.section	.text.vision_models_maxi_if32ou32,"ax",%progbits
  26              		.align	1
  27              		.global	vision_models_maxi_if32ou32
  28              		.syntax unified
  29              		.thumb
  30              		.thumb_func
  32              	vision_models_maxi_if32ou32:
  33              	.LVL0:
  34              	.LFB774:
   1:../Middlewares/stm32-vision-models-postprocessing/lib_vision_models_pp/Src/vision_models_pp_maxi_if32.c **** /*---------------------------------------------------------------------------------------------
   2:../Middlewares/stm32-vision-models-postprocessing/lib_vision_models_pp/Src/vision_models_pp_maxi_if32.c ****  * Copyright (c) 2023 STMicroelectronics.
   3:../Middlewares/stm32-vision-models-postprocessing/lib_vision_models_pp/Src/vision_models_pp_maxi_if32.c ****  * All rights reserved.
   4:../Middlewares/stm32-vision-models-postprocessing/lib_vision_models_pp/Src/vision_models_pp_maxi_if32.c ****  *
   5:../Middlewares/stm32-vision-models-postprocessing/lib_vision_models_pp/Src/vision_models_pp_maxi_if32.c ****  * This software is licensed under terms that can be found in the LICENSE file in
   6:../Middlewares/stm32-vision-models-postprocessing/lib_vision_models_pp/Src/vision_models_pp_maxi_if32.c ****  * the root directory of this software component.
   7:../Middlewares/stm32-vision-models-postprocessing/lib_vision_models_pp/Src/vision_models_pp_maxi_if32.c ****  * If no LICENSE file comes with this software, it is provided AS-IS.
   8:../Middlewares/stm32-vision-models-postprocessing/lib_vision_models_pp/Src/vision_models_pp_maxi_if32.c ****  *--------------------------------------------------------------------------------------------*/
   9:../Middlewares/stm32-vision-models-postprocessing/lib_vision_models_pp/Src/vision_models_pp_maxi_if32.c **** 
  10:../Middlewares/stm32-vision-models-postprocessing/lib_vision_models_pp/Src/vision_models_pp_maxi_if32.c **** #include "vision_models_pp.h"
  11:../Middlewares/stm32-vision-models-postprocessing/lib_vision_models_pp/Src/vision_models_pp_maxi_if32.c **** 
  12:../Middlewares/stm32-vision-models-postprocessing/lib_vision_models_pp/Src/vision_models_pp_maxi_if32.c **** 
  13:../Middlewares/stm32-vision-models-postprocessing/lib_vision_models_pp/Src/vision_models_pp_maxi_if32.c **** /* return max value and it's index from an array */
  14:../Middlewares/stm32-vision-models-postprocessing/lib_vision_models_pp/Src/vision_models_pp_maxi_if32.c **** void vision_models_maxi_if32ou32(float32_t *arr, uint32_t len_arr, float32_t *maxim, uint32_t *inde
  15:../Middlewares/stm32-vision-models-postprocessing/lib_vision_models_pp/Src/vision_models_pp_maxi_if32.c **** {
  35              		.loc 1 15 1 view -0
  36              		.cfi_startproc
  37              		@ args = 0, pretend = 0, frame = 0
  38              		@ frame_needed = 0, uses_anonymous_args = 0
  16:../Middlewares/stm32-vision-models-postprocessing/lib_vision_models_pp/Src/vision_models_pp_maxi_if32.c **** #ifdef VISION_MODELS_MAXI_IF32OU32_MVE
  17:../Middlewares/stm32-vision-models-postprocessing/lib_vision_models_pp/Src/vision_models_pp_maxi_if32.c **** 
  18:../Middlewares/stm32-vision-models-postprocessing/lib_vision_models_pp/Src/vision_models_pp_maxi_if32.c ****   float32x4_t    f32x4_max_val = vdupq_n_f32(F32_MIN);
  39              		.loc 1 18 3 view .LVU1
  15:../Middlewares/stm32-vision-models-postprocessing/lib_vision_models_pp/Src/vision_models_pp_maxi_if32.c **** #ifdef VISION_MODELS_MAXI_IF32OU32_MVE
ARM GAS  /tmp/ccfH7U9I.s 			page 2


  40              		.loc 1 15 1 is_stmt 0 view .LVU2
  41 0000 70B5     		push	{r4, r5, r6, lr}
  42              		.cfi_def_cfa_offset 16
  43              		.cfi_offset 4, -16
  44              		.cfi_offset 5, -12
  45              		.cfi_offset 6, -8
  46              		.cfi_offset 14, -4
  19:../Middlewares/stm32-vision-models-postprocessing/lib_vision_models_pp/Src/vision_models_pp_maxi_if32.c ****   uint32x4_t     u32x4_max_idx = vdupq_n_u32(0);
  47              		.loc 1 19 34 view .LVU3
  48 0002 0026     		movs	r6, #0
  49              	.LBB66:
  20:../Middlewares/stm32-vision-models-postprocessing/lib_vision_models_pp/Src/vision_models_pp_maxi_if32.c **** 
  21:../Middlewares/stm32-vision-models-postprocessing/lib_vision_models_pp/Src/vision_models_pp_maxi_if32.c **** 
  22:../Middlewares/stm32-vision-models-postprocessing/lib_vision_models_pp/Src/vision_models_pp_maxi_if32.c ****   uint32x4_t u32x4_idx = vidupq_n_u32(0,1);
  23:../Middlewares/stm32-vision-models-postprocessing/lib_vision_models_pp/Src/vision_models_pp_maxi_if32.c ****   float32_t *pSrc = arr;
  24:../Middlewares/stm32-vision-models-postprocessing/lib_vision_models_pp/Src/vision_models_pp_maxi_if32.c ****   int32_t iter = len_arr;
  25:../Middlewares/stm32-vision-models-postprocessing/lib_vision_models_pp/Src/vision_models_pp_maxi_if32.c ****   while(iter > 0)
  26:../Middlewares/stm32-vision-models-postprocessing/lib_vision_models_pp/Src/vision_models_pp_maxi_if32.c ****   {
  27:../Middlewares/stm32-vision-models-postprocessing/lib_vision_models_pp/Src/vision_models_pp_maxi_if32.c ****     mve_pred16_t p = vctp32q(iter);
  28:../Middlewares/stm32-vision-models-postprocessing/lib_vision_models_pp/Src/vision_models_pp_maxi_if32.c ****     // load up to 4 float32_t
  29:../Middlewares/stm32-vision-models-postprocessing/lib_vision_models_pp/Src/vision_models_pp_maxi_if32.c ****     float32x4_t f32x4_val = vldrwq_z_f32(pSrc, p);
  30:../Middlewares/stm32-vision-models-postprocessing/lib_vision_models_pp/Src/vision_models_pp_maxi_if32.c ****     pSrc+=4;
  31:../Middlewares/stm32-vision-models-postprocessing/lib_vision_models_pp/Src/vision_models_pp_maxi_if32.c ****     // Compare according to p to create p0
  32:../Middlewares/stm32-vision-models-postprocessing/lib_vision_models_pp/Src/vision_models_pp_maxi_if32.c ****     mve_pred16_t p0 = vcmpgtq_m_f32(f32x4_val, f32x4_max_val, p);
  33:../Middlewares/stm32-vision-models-postprocessing/lib_vision_models_pp/Src/vision_models_pp_maxi_if32.c **** 
  34:../Middlewares/stm32-vision-models-postprocessing/lib_vision_models_pp/Src/vision_models_pp_maxi_if32.c ****     // according to p0: update with s8x16_val or keep s8x16_blk_minmax_val
  35:../Middlewares/stm32-vision-models-postprocessing/lib_vision_models_pp/Src/vision_models_pp_maxi_if32.c ****     f32x4_max_val = vpselq_f32(f32x4_val, f32x4_max_val, p0);
  36:../Middlewares/stm32-vision-models-postprocessing/lib_vision_models_pp/Src/vision_models_pp_maxi_if32.c ****     /* according to p0: store per-lane extrema indexes*/
  37:../Middlewares/stm32-vision-models-postprocessing/lib_vision_models_pp/Src/vision_models_pp_maxi_if32.c ****     u32x4_max_idx = vpselq_u32(u32x4_idx, u32x4_max_idx, p0);
  38:../Middlewares/stm32-vision-models-postprocessing/lib_vision_models_pp/Src/vision_models_pp_maxi_if32.c ****     u32x4_idx+=4;
  50              		.loc 1 38 14 view .LVU4
  51 0004 01F1030E 		add	lr, r1, #3
  52              	.LBE66:
  19:../Middlewares/stm32-vision-models-postprocessing/lib_vision_models_pp/Src/vision_models_pp_maxi_if32.c ****   uint32x4_t     u32x4_max_idx = vdupq_n_u32(0);
  53              		.loc 1 19 34 view .LVU5
  54 0008 A6EE106B 		vdup.32	q3, r6
  55              	.LBB71:
  56              		.loc 1 38 14 view .LVU6
  57 000c 4FEA9E0E 		lsr	lr, lr, #2
  58              	.LBE71:
  59              	.LBB72:
  60              	.LBB73:
  61              		.file 2 "/opt/st/stm32cubeclt_1.21.0/GNU-tools-for-STM32/lib/gcc/arm-none-eabi/14.3.1/include/arm_
   1:/opt/st/stm32cubeclt_1.21.0/GNU-tools-for-STM32/lib/gcc/arm-none-eabi/14.3.1/include/arm_mve.h **** /* Arm MVE intrinsics include file.
   2:/opt/st/stm32cubeclt_1.21.0/GNU-tools-for-STM32/lib/gcc/arm-none-eabi/14.3.1/include/arm_mve.h **** 
   3:/opt/st/stm32cubeclt_1.21.0/GNU-tools-for-STM32/lib/gcc/arm-none-eabi/14.3.1/include/arm_mve.h ****    Copyright (C) 2019-2024 Free Software Foundation, Inc.
   4:/opt/st/stm32cubeclt_1.21.0/GNU-tools-for-STM32/lib/gcc/arm-none-eabi/14.3.1/include/arm_mve.h ****    Contributed by Arm.
   5:/opt/st/stm32cubeclt_1.21.0/GNU-tools-for-STM32/lib/gcc/arm-none-eabi/14.3.1/include/arm_mve.h **** 
   6:/opt/st/stm32cubeclt_1.21.0/GNU-tools-for-STM32/lib/gcc/arm-none-eabi/14.3.1/include/arm_mve.h ****    This file is part of GCC.
   7:/opt/st/stm32cubeclt_1.21.0/GNU-tools-for-STM32/lib/gcc/arm-none-eabi/14.3.1/include/arm_mve.h **** 
   8:/opt/st/stm32cubeclt_1.21.0/GNU-tools-for-STM32/lib/gcc/arm-none-eabi/14.3.1/include/arm_mve.h ****    GCC is free software; you can redistribute it and/or modify it
   9:/opt/st/stm32cubeclt_1.21.0/GNU-tools-for-STM32/lib/gcc/arm-none-eabi/14.3.1/include/arm_mve.h ****    under the terms of the GNU General Public License as published
  10:/opt/st/stm32cubeclt_1.21.0/GNU-tools-for-STM32/lib/gcc/arm-none-eabi/14.3.1/include/arm_mve.h ****    by the Free Software Foundation; either version 3, or (at your
  11:/opt/st/stm32cubeclt_1.21.0/GNU-tools-for-STM32/lib/gcc/arm-none-eabi/14.3.1/include/arm_mve.h ****    option) any later version.
  12:/opt/st/stm32cubeclt_1.21.0/GNU-tools-for-STM32/lib/gcc/arm-none-eabi/14.3.1/include/arm_mve.h **** 
  13:/opt/st/stm32cubeclt_1.21.0/GNU-tools-for-STM32/lib/gcc/arm-none-eabi/14.3.1/include/arm_mve.h ****    GCC is distributed in the hope that it will be useful, but WITHOUT
  14:/opt/st/stm32cubeclt_1.21.0/GNU-tools-for-STM32/lib/gcc/arm-none-eabi/14.3.1/include/arm_mve.h ****    ANY WARRANTY; without even the implied warranty of MERCHANTABILITY
ARM GAS  /tmp/ccfH7U9I.s 			page 3


  15:/opt/st/stm32cubeclt_1.21.0/GNU-tools-for-STM32/lib/gcc/arm-none-eabi/14.3.1/include/arm_mve.h ****    or FITNESS FOR A PARTICULAR PURPOSE.  See the GNU General Public
  16:/opt/st/stm32cubeclt_1.21.0/GNU-tools-for-STM32/lib/gcc/arm-none-eabi/14.3.1/include/arm_mve.h ****    License for more details.
  17:/opt/st/stm32cubeclt_1.21.0/GNU-tools-for-STM32/lib/gcc/arm-none-eabi/14.3.1/include/arm_mve.h **** 
  18:/opt/st/stm32cubeclt_1.21.0/GNU-tools-for-STM32/lib/gcc/arm-none-eabi/14.3.1/include/arm_mve.h ****    Under Section 7 of GPL version 3, you are granted additional
  19:/opt/st/stm32cubeclt_1.21.0/GNU-tools-for-STM32/lib/gcc/arm-none-eabi/14.3.1/include/arm_mve.h ****    permissions described in the GCC Runtime Library Exception, version
  20:/opt/st/stm32cubeclt_1.21.0/GNU-tools-for-STM32/lib/gcc/arm-none-eabi/14.3.1/include/arm_mve.h ****    3.1, as published by the Free Software Foundation.
  21:/opt/st/stm32cubeclt_1.21.0/GNU-tools-for-STM32/lib/gcc/arm-none-eabi/14.3.1/include/arm_mve.h **** 
  22:/opt/st/stm32cubeclt_1.21.0/GNU-tools-for-STM32/lib/gcc/arm-none-eabi/14.3.1/include/arm_mve.h ****    You should have received a copy of the GNU General Public License
  23:/opt/st/stm32cubeclt_1.21.0/GNU-tools-for-STM32/lib/gcc/arm-none-eabi/14.3.1/include/arm_mve.h ****    along with GCC; see the file COPYING3.  If not see
  24:/opt/st/stm32cubeclt_1.21.0/GNU-tools-for-STM32/lib/gcc/arm-none-eabi/14.3.1/include/arm_mve.h ****    <http://www.gnu.org/licenses/>.  */
  25:/opt/st/stm32cubeclt_1.21.0/GNU-tools-for-STM32/lib/gcc/arm-none-eabi/14.3.1/include/arm_mve.h **** 
  26:/opt/st/stm32cubeclt_1.21.0/GNU-tools-for-STM32/lib/gcc/arm-none-eabi/14.3.1/include/arm_mve.h **** #ifndef _GCC_ARM_MVE_H
  27:/opt/st/stm32cubeclt_1.21.0/GNU-tools-for-STM32/lib/gcc/arm-none-eabi/14.3.1/include/arm_mve.h **** #define _GCC_ARM_MVE_H
  28:/opt/st/stm32cubeclt_1.21.0/GNU-tools-for-STM32/lib/gcc/arm-none-eabi/14.3.1/include/arm_mve.h **** 
  29:/opt/st/stm32cubeclt_1.21.0/GNU-tools-for-STM32/lib/gcc/arm-none-eabi/14.3.1/include/arm_mve.h **** #if __ARM_BIG_ENDIAN
  30:/opt/st/stm32cubeclt_1.21.0/GNU-tools-for-STM32/lib/gcc/arm-none-eabi/14.3.1/include/arm_mve.h **** #error "MVE intrinsics are not supported in Big-Endian mode."
  31:/opt/st/stm32cubeclt_1.21.0/GNU-tools-for-STM32/lib/gcc/arm-none-eabi/14.3.1/include/arm_mve.h **** #elif !__ARM_FEATURE_MVE
  32:/opt/st/stm32cubeclt_1.21.0/GNU-tools-for-STM32/lib/gcc/arm-none-eabi/14.3.1/include/arm_mve.h **** #error "MVE feature not supported"
  33:/opt/st/stm32cubeclt_1.21.0/GNU-tools-for-STM32/lib/gcc/arm-none-eabi/14.3.1/include/arm_mve.h **** #else
  34:/opt/st/stm32cubeclt_1.21.0/GNU-tools-for-STM32/lib/gcc/arm-none-eabi/14.3.1/include/arm_mve.h **** 
  35:/opt/st/stm32cubeclt_1.21.0/GNU-tools-for-STM32/lib/gcc/arm-none-eabi/14.3.1/include/arm_mve.h **** #include <stdint.h>
  36:/opt/st/stm32cubeclt_1.21.0/GNU-tools-for-STM32/lib/gcc/arm-none-eabi/14.3.1/include/arm_mve.h **** #ifndef  __cplusplus
  37:/opt/st/stm32cubeclt_1.21.0/GNU-tools-for-STM32/lib/gcc/arm-none-eabi/14.3.1/include/arm_mve.h **** #include <stdbool.h>
  38:/opt/st/stm32cubeclt_1.21.0/GNU-tools-for-STM32/lib/gcc/arm-none-eabi/14.3.1/include/arm_mve.h **** #endif
  39:/opt/st/stm32cubeclt_1.21.0/GNU-tools-for-STM32/lib/gcc/arm-none-eabi/14.3.1/include/arm_mve.h **** #include "arm_mve_types.h"
  40:/opt/st/stm32cubeclt_1.21.0/GNU-tools-for-STM32/lib/gcc/arm-none-eabi/14.3.1/include/arm_mve.h **** 
  41:/opt/st/stm32cubeclt_1.21.0/GNU-tools-for-STM32/lib/gcc/arm-none-eabi/14.3.1/include/arm_mve.h **** #ifdef __ARM_MVE_PRESERVE_USER_NAMESPACE
  42:/opt/st/stm32cubeclt_1.21.0/GNU-tools-for-STM32/lib/gcc/arm-none-eabi/14.3.1/include/arm_mve.h **** #pragma GCC arm "arm_mve.h" true
  43:/opt/st/stm32cubeclt_1.21.0/GNU-tools-for-STM32/lib/gcc/arm-none-eabi/14.3.1/include/arm_mve.h **** #else
  44:/opt/st/stm32cubeclt_1.21.0/GNU-tools-for-STM32/lib/gcc/arm-none-eabi/14.3.1/include/arm_mve.h **** #pragma GCC arm "arm_mve.h" false
  45:/opt/st/stm32cubeclt_1.21.0/GNU-tools-for-STM32/lib/gcc/arm-none-eabi/14.3.1/include/arm_mve.h **** #endif
  46:/opt/st/stm32cubeclt_1.21.0/GNU-tools-for-STM32/lib/gcc/arm-none-eabi/14.3.1/include/arm_mve.h **** 
  47:/opt/st/stm32cubeclt_1.21.0/GNU-tools-for-STM32/lib/gcc/arm-none-eabi/14.3.1/include/arm_mve.h **** #ifndef __ARM_MVE_PRESERVE_USER_NAMESPACE
  48:/opt/st/stm32cubeclt_1.21.0/GNU-tools-for-STM32/lib/gcc/arm-none-eabi/14.3.1/include/arm_mve.h **** #define vst4q(__addr, __value) __arm_vst4q(__addr, __value)
  49:/opt/st/stm32cubeclt_1.21.0/GNU-tools-for-STM32/lib/gcc/arm-none-eabi/14.3.1/include/arm_mve.h **** #define vornq(__a, __b) __arm_vornq(__a, __b)
  50:/opt/st/stm32cubeclt_1.21.0/GNU-tools-for-STM32/lib/gcc/arm-none-eabi/14.3.1/include/arm_mve.h **** #define vbicq(__a, __b) __arm_vbicq(__a, __b)
  51:/opt/st/stm32cubeclt_1.21.0/GNU-tools-for-STM32/lib/gcc/arm-none-eabi/14.3.1/include/arm_mve.h **** #define vbicq_m_n(__a, __imm, __p) __arm_vbicq_m_n(__a, __imm, __p)
  52:/opt/st/stm32cubeclt_1.21.0/GNU-tools-for-STM32/lib/gcc/arm-none-eabi/14.3.1/include/arm_mve.h **** #define vshlcq(__a, __b, __imm) __arm_vshlcq(__a, __b, __imm)
  53:/opt/st/stm32cubeclt_1.21.0/GNU-tools-for-STM32/lib/gcc/arm-none-eabi/14.3.1/include/arm_mve.h **** #define vbicq_m(__inactive, __a, __b, __p) __arm_vbicq_m(__inactive, __a, __b, __p)
  54:/opt/st/stm32cubeclt_1.21.0/GNU-tools-for-STM32/lib/gcc/arm-none-eabi/14.3.1/include/arm_mve.h **** #define vornq_m(__inactive, __a, __b, __p) __arm_vornq_m(__inactive, __a, __b, __p)
  55:/opt/st/stm32cubeclt_1.21.0/GNU-tools-for-STM32/lib/gcc/arm-none-eabi/14.3.1/include/arm_mve.h **** #define vstrbq_scatter_offset(__base, __offset, __value) __arm_vstrbq_scatter_offset(__base, __offs
  56:/opt/st/stm32cubeclt_1.21.0/GNU-tools-for-STM32/lib/gcc/arm-none-eabi/14.3.1/include/arm_mve.h **** #define vstrbq(__addr, __value) __arm_vstrbq(__addr, __value)
  57:/opt/st/stm32cubeclt_1.21.0/GNU-tools-for-STM32/lib/gcc/arm-none-eabi/14.3.1/include/arm_mve.h **** #define vstrwq_scatter_base(__addr, __offset, __value) __arm_vstrwq_scatter_base(__addr, __offset, 
  58:/opt/st/stm32cubeclt_1.21.0/GNU-tools-for-STM32/lib/gcc/arm-none-eabi/14.3.1/include/arm_mve.h **** #define vldrbq_gather_offset(__base, __offset) __arm_vldrbq_gather_offset(__base, __offset)
  59:/opt/st/stm32cubeclt_1.21.0/GNU-tools-for-STM32/lib/gcc/arm-none-eabi/14.3.1/include/arm_mve.h **** #define vstrbq_p(__addr, __value, __p) __arm_vstrbq_p(__addr, __value, __p)
  60:/opt/st/stm32cubeclt_1.21.0/GNU-tools-for-STM32/lib/gcc/arm-none-eabi/14.3.1/include/arm_mve.h **** #define vstrbq_scatter_offset_p(__base, __offset, __value, __p) __arm_vstrbq_scatter_offset_p(__bas
  61:/opt/st/stm32cubeclt_1.21.0/GNU-tools-for-STM32/lib/gcc/arm-none-eabi/14.3.1/include/arm_mve.h **** #define vstrwq_scatter_base_p(__addr, __offset, __value, __p) __arm_vstrwq_scatter_base_p(__addr, _
  62:/opt/st/stm32cubeclt_1.21.0/GNU-tools-for-STM32/lib/gcc/arm-none-eabi/14.3.1/include/arm_mve.h **** #define vldrbq_gather_offset_z(__base, __offset, __p) __arm_vldrbq_gather_offset_z(__base, __offset
  63:/opt/st/stm32cubeclt_1.21.0/GNU-tools-for-STM32/lib/gcc/arm-none-eabi/14.3.1/include/arm_mve.h **** #define vldrhq_gather_offset(__base, __offset) __arm_vldrhq_gather_offset(__base, __offset)
  64:/opt/st/stm32cubeclt_1.21.0/GNU-tools-for-STM32/lib/gcc/arm-none-eabi/14.3.1/include/arm_mve.h **** #define vldrhq_gather_offset_z(__base, __offset, __p) __arm_vldrhq_gather_offset_z(__base, __offset
  65:/opt/st/stm32cubeclt_1.21.0/GNU-tools-for-STM32/lib/gcc/arm-none-eabi/14.3.1/include/arm_mve.h **** #define vldrhq_gather_shifted_offset(__base, __offset) __arm_vldrhq_gather_shifted_offset(__base, _
  66:/opt/st/stm32cubeclt_1.21.0/GNU-tools-for-STM32/lib/gcc/arm-none-eabi/14.3.1/include/arm_mve.h **** #define vldrhq_gather_shifted_offset_z(__base, __offset, __p) __arm_vldrhq_gather_shifted_offset_z(
  67:/opt/st/stm32cubeclt_1.21.0/GNU-tools-for-STM32/lib/gcc/arm-none-eabi/14.3.1/include/arm_mve.h **** #define vldrdq_gather_offset(__base, __offset) __arm_vldrdq_gather_offset(__base, __offset)
  68:/opt/st/stm32cubeclt_1.21.0/GNU-tools-for-STM32/lib/gcc/arm-none-eabi/14.3.1/include/arm_mve.h **** #define vldrdq_gather_offset_z(__base, __offset, __p) __arm_vldrdq_gather_offset_z(__base, __offset
  69:/opt/st/stm32cubeclt_1.21.0/GNU-tools-for-STM32/lib/gcc/arm-none-eabi/14.3.1/include/arm_mve.h **** #define vldrdq_gather_shifted_offset(__base, __offset) __arm_vldrdq_gather_shifted_offset(__base, _
  70:/opt/st/stm32cubeclt_1.21.0/GNU-tools-for-STM32/lib/gcc/arm-none-eabi/14.3.1/include/arm_mve.h **** #define vldrdq_gather_shifted_offset_z(__base, __offset, __p) __arm_vldrdq_gather_shifted_offset_z(
  71:/opt/st/stm32cubeclt_1.21.0/GNU-tools-for-STM32/lib/gcc/arm-none-eabi/14.3.1/include/arm_mve.h **** #define vldrwq_gather_offset(__base, __offset) __arm_vldrwq_gather_offset(__base, __offset)
ARM GAS  /tmp/ccfH7U9I.s 			page 4


  72:/opt/st/stm32cubeclt_1.21.0/GNU-tools-for-STM32/lib/gcc/arm-none-eabi/14.3.1/include/arm_mve.h **** #define vldrwq_gather_offset_z(__base, __offset, __p) __arm_vldrwq_gather_offset_z(__base, __offset
  73:/opt/st/stm32cubeclt_1.21.0/GNU-tools-for-STM32/lib/gcc/arm-none-eabi/14.3.1/include/arm_mve.h **** #define vldrwq_gather_shifted_offset(__base, __offset) __arm_vldrwq_gather_shifted_offset(__base, _
  74:/opt/st/stm32cubeclt_1.21.0/GNU-tools-for-STM32/lib/gcc/arm-none-eabi/14.3.1/include/arm_mve.h **** #define vldrwq_gather_shifted_offset_z(__base, __offset, __p) __arm_vldrwq_gather_shifted_offset_z(
  75:/opt/st/stm32cubeclt_1.21.0/GNU-tools-for-STM32/lib/gcc/arm-none-eabi/14.3.1/include/arm_mve.h **** #define vstrhq_scatter_offset(__base, __offset, __value) __arm_vstrhq_scatter_offset(__base, __offs
  76:/opt/st/stm32cubeclt_1.21.0/GNU-tools-for-STM32/lib/gcc/arm-none-eabi/14.3.1/include/arm_mve.h **** #define vstrhq_scatter_offset_p(__base, __offset, __value, __p) __arm_vstrhq_scatter_offset_p(__bas
  77:/opt/st/stm32cubeclt_1.21.0/GNU-tools-for-STM32/lib/gcc/arm-none-eabi/14.3.1/include/arm_mve.h **** #define vstrhq_scatter_shifted_offset(__base, __offset, __value) __arm_vstrhq_scatter_shifted_offse
  78:/opt/st/stm32cubeclt_1.21.0/GNU-tools-for-STM32/lib/gcc/arm-none-eabi/14.3.1/include/arm_mve.h **** #define vstrhq_scatter_shifted_offset_p(__base, __offset, __value, __p) __arm_vstrhq_scatter_shifte
  79:/opt/st/stm32cubeclt_1.21.0/GNU-tools-for-STM32/lib/gcc/arm-none-eabi/14.3.1/include/arm_mve.h **** #define vstrhq(__addr, __value) __arm_vstrhq(__addr, __value)
  80:/opt/st/stm32cubeclt_1.21.0/GNU-tools-for-STM32/lib/gcc/arm-none-eabi/14.3.1/include/arm_mve.h **** #define vstrhq_p(__addr, __value, __p) __arm_vstrhq_p(__addr, __value, __p)
  81:/opt/st/stm32cubeclt_1.21.0/GNU-tools-for-STM32/lib/gcc/arm-none-eabi/14.3.1/include/arm_mve.h **** #define vstrwq(__addr, __value) __arm_vstrwq(__addr, __value)
  82:/opt/st/stm32cubeclt_1.21.0/GNU-tools-for-STM32/lib/gcc/arm-none-eabi/14.3.1/include/arm_mve.h **** #define vstrwq_p(__addr, __value, __p) __arm_vstrwq_p(__addr, __value, __p)
  83:/opt/st/stm32cubeclt_1.21.0/GNU-tools-for-STM32/lib/gcc/arm-none-eabi/14.3.1/include/arm_mve.h **** #define vstrdq_scatter_base_p(__addr, __offset, __value, __p) __arm_vstrdq_scatter_base_p(__addr, _
  84:/opt/st/stm32cubeclt_1.21.0/GNU-tools-for-STM32/lib/gcc/arm-none-eabi/14.3.1/include/arm_mve.h **** #define vstrdq_scatter_base(__addr, __offset, __value) __arm_vstrdq_scatter_base(__addr, __offset, 
  85:/opt/st/stm32cubeclt_1.21.0/GNU-tools-for-STM32/lib/gcc/arm-none-eabi/14.3.1/include/arm_mve.h **** #define vstrdq_scatter_offset_p(__base, __offset, __value, __p) __arm_vstrdq_scatter_offset_p(__bas
  86:/opt/st/stm32cubeclt_1.21.0/GNU-tools-for-STM32/lib/gcc/arm-none-eabi/14.3.1/include/arm_mve.h **** #define vstrdq_scatter_offset(__base, __offset, __value) __arm_vstrdq_scatter_offset(__base, __offs
  87:/opt/st/stm32cubeclt_1.21.0/GNU-tools-for-STM32/lib/gcc/arm-none-eabi/14.3.1/include/arm_mve.h **** #define vstrdq_scatter_shifted_offset_p(__base, __offset, __value, __p) __arm_vstrdq_scatter_shifte
  88:/opt/st/stm32cubeclt_1.21.0/GNU-tools-for-STM32/lib/gcc/arm-none-eabi/14.3.1/include/arm_mve.h **** #define vstrdq_scatter_shifted_offset(__base, __offset, __value) __arm_vstrdq_scatter_shifted_offse
  89:/opt/st/stm32cubeclt_1.21.0/GNU-tools-for-STM32/lib/gcc/arm-none-eabi/14.3.1/include/arm_mve.h **** #define vstrwq_scatter_offset_p(__base, __offset, __value, __p) __arm_vstrwq_scatter_offset_p(__bas
  90:/opt/st/stm32cubeclt_1.21.0/GNU-tools-for-STM32/lib/gcc/arm-none-eabi/14.3.1/include/arm_mve.h **** #define vstrwq_scatter_offset(__base, __offset, __value) __arm_vstrwq_scatter_offset(__base, __offs
  91:/opt/st/stm32cubeclt_1.21.0/GNU-tools-for-STM32/lib/gcc/arm-none-eabi/14.3.1/include/arm_mve.h **** #define vstrwq_scatter_shifted_offset_p(__base, __offset, __value, __p) __arm_vstrwq_scatter_shifte
  92:/opt/st/stm32cubeclt_1.21.0/GNU-tools-for-STM32/lib/gcc/arm-none-eabi/14.3.1/include/arm_mve.h **** #define vstrwq_scatter_shifted_offset(__base, __offset, __value) __arm_vstrwq_scatter_shifted_offse
  93:/opt/st/stm32cubeclt_1.21.0/GNU-tools-for-STM32/lib/gcc/arm-none-eabi/14.3.1/include/arm_mve.h **** #define vuninitializedq(__v) __arm_vuninitializedq(__v)
  94:/opt/st/stm32cubeclt_1.21.0/GNU-tools-for-STM32/lib/gcc/arm-none-eabi/14.3.1/include/arm_mve.h **** #define vddupq_m(__inactive, __a, __imm, __p) __arm_vddupq_m(__inactive, __a, __imm, __p)
  95:/opt/st/stm32cubeclt_1.21.0/GNU-tools-for-STM32/lib/gcc/arm-none-eabi/14.3.1/include/arm_mve.h **** #define vddupq_u8(__a, __imm) __arm_vddupq_u8(__a, __imm)
  96:/opt/st/stm32cubeclt_1.21.0/GNU-tools-for-STM32/lib/gcc/arm-none-eabi/14.3.1/include/arm_mve.h **** #define vddupq_u32(__a, __imm) __arm_vddupq_u32(__a, __imm)
  97:/opt/st/stm32cubeclt_1.21.0/GNU-tools-for-STM32/lib/gcc/arm-none-eabi/14.3.1/include/arm_mve.h **** #define vddupq_u16(__a, __imm) __arm_vddupq_u16(__a, __imm)
  98:/opt/st/stm32cubeclt_1.21.0/GNU-tools-for-STM32/lib/gcc/arm-none-eabi/14.3.1/include/arm_mve.h **** #define vdwdupq_m(__inactive, __a, __b, __imm, __p) __arm_vdwdupq_m(__inactive, __a, __b, __imm, __
  99:/opt/st/stm32cubeclt_1.21.0/GNU-tools-for-STM32/lib/gcc/arm-none-eabi/14.3.1/include/arm_mve.h **** #define vdwdupq_u8(__a, __b, __imm) __arm_vdwdupq_u8(__a, __b, __imm)
 100:/opt/st/stm32cubeclt_1.21.0/GNU-tools-for-STM32/lib/gcc/arm-none-eabi/14.3.1/include/arm_mve.h **** #define vdwdupq_u32(__a, __b, __imm) __arm_vdwdupq_u32(__a, __b, __imm)
 101:/opt/st/stm32cubeclt_1.21.0/GNU-tools-for-STM32/lib/gcc/arm-none-eabi/14.3.1/include/arm_mve.h **** #define vdwdupq_u16(__a, __b, __imm) __arm_vdwdupq_u16(__a, __b, __imm)
 102:/opt/st/stm32cubeclt_1.21.0/GNU-tools-for-STM32/lib/gcc/arm-none-eabi/14.3.1/include/arm_mve.h **** #define vidupq_m(__inactive, __a, __imm, __p) __arm_vidupq_m(__inactive, __a, __imm, __p)
 103:/opt/st/stm32cubeclt_1.21.0/GNU-tools-for-STM32/lib/gcc/arm-none-eabi/14.3.1/include/arm_mve.h **** #define vidupq_u8(__a, __imm) __arm_vidupq_u8(__a, __imm)
 104:/opt/st/stm32cubeclt_1.21.0/GNU-tools-for-STM32/lib/gcc/arm-none-eabi/14.3.1/include/arm_mve.h **** #define vidupq_u32(__a, __imm) __arm_vidupq_u32(__a, __imm)
 105:/opt/st/stm32cubeclt_1.21.0/GNU-tools-for-STM32/lib/gcc/arm-none-eabi/14.3.1/include/arm_mve.h **** #define vidupq_u16(__a, __imm) __arm_vidupq_u16(__a, __imm)
 106:/opt/st/stm32cubeclt_1.21.0/GNU-tools-for-STM32/lib/gcc/arm-none-eabi/14.3.1/include/arm_mve.h **** #define viwdupq_m(__inactive, __a, __b, __imm, __p) __arm_viwdupq_m(__inactive, __a, __b, __imm, __
 107:/opt/st/stm32cubeclt_1.21.0/GNU-tools-for-STM32/lib/gcc/arm-none-eabi/14.3.1/include/arm_mve.h **** #define viwdupq_u8(__a, __b, __imm) __arm_viwdupq_u8(__a, __b, __imm)
 108:/opt/st/stm32cubeclt_1.21.0/GNU-tools-for-STM32/lib/gcc/arm-none-eabi/14.3.1/include/arm_mve.h **** #define viwdupq_u32(__a, __b, __imm) __arm_viwdupq_u32(__a, __b, __imm)
 109:/opt/st/stm32cubeclt_1.21.0/GNU-tools-for-STM32/lib/gcc/arm-none-eabi/14.3.1/include/arm_mve.h **** #define viwdupq_u16(__a, __b, __imm) __arm_viwdupq_u16(__a, __b, __imm)
 110:/opt/st/stm32cubeclt_1.21.0/GNU-tools-for-STM32/lib/gcc/arm-none-eabi/14.3.1/include/arm_mve.h **** #define vstrdq_scatter_base_wb(__addr, __offset, __value) __arm_vstrdq_scatter_base_wb(__addr, __of
 111:/opt/st/stm32cubeclt_1.21.0/GNU-tools-for-STM32/lib/gcc/arm-none-eabi/14.3.1/include/arm_mve.h **** #define vstrdq_scatter_base_wb_p(__addr, __offset, __value, __p) __arm_vstrdq_scatter_base_wb_p(__a
 112:/opt/st/stm32cubeclt_1.21.0/GNU-tools-for-STM32/lib/gcc/arm-none-eabi/14.3.1/include/arm_mve.h **** #define vstrwq_scatter_base_wb_p(__addr, __offset, __value, __p) __arm_vstrwq_scatter_base_wb_p(__a
 113:/opt/st/stm32cubeclt_1.21.0/GNU-tools-for-STM32/lib/gcc/arm-none-eabi/14.3.1/include/arm_mve.h **** #define vstrwq_scatter_base_wb(__addr, __offset, __value) __arm_vstrwq_scatter_base_wb(__addr, __of
 114:/opt/st/stm32cubeclt_1.21.0/GNU-tools-for-STM32/lib/gcc/arm-none-eabi/14.3.1/include/arm_mve.h **** #define vddupq_x_u8(__a, __imm, __p) __arm_vddupq_x_u8(__a, __imm, __p)
 115:/opt/st/stm32cubeclt_1.21.0/GNU-tools-for-STM32/lib/gcc/arm-none-eabi/14.3.1/include/arm_mve.h **** #define vddupq_x_u16(__a, __imm, __p) __arm_vddupq_x_u16(__a, __imm, __p)
 116:/opt/st/stm32cubeclt_1.21.0/GNU-tools-for-STM32/lib/gcc/arm-none-eabi/14.3.1/include/arm_mve.h **** #define vddupq_x_u32(__a, __imm, __p) __arm_vddupq_x_u32(__a, __imm, __p)
 117:/opt/st/stm32cubeclt_1.21.0/GNU-tools-for-STM32/lib/gcc/arm-none-eabi/14.3.1/include/arm_mve.h **** #define vdwdupq_x_u8(__a, __b, __imm, __p) __arm_vdwdupq_x_u8(__a, __b, __imm, __p)
 118:/opt/st/stm32cubeclt_1.21.0/GNU-tools-for-STM32/lib/gcc/arm-none-eabi/14.3.1/include/arm_mve.h **** #define vdwdupq_x_u16(__a, __b, __imm, __p) __arm_vdwdupq_x_u16(__a, __b, __imm, __p)
 119:/opt/st/stm32cubeclt_1.21.0/GNU-tools-for-STM32/lib/gcc/arm-none-eabi/14.3.1/include/arm_mve.h **** #define vdwdupq_x_u32(__a, __b, __imm, __p) __arm_vdwdupq_x_u32(__a, __b, __imm, __p)
 120:/opt/st/stm32cubeclt_1.21.0/GNU-tools-for-STM32/lib/gcc/arm-none-eabi/14.3.1/include/arm_mve.h **** #define vidupq_x_u8(__a, __imm, __p) __arm_vidupq_x_u8(__a, __imm, __p)
 121:/opt/st/stm32cubeclt_1.21.0/GNU-tools-for-STM32/lib/gcc/arm-none-eabi/14.3.1/include/arm_mve.h **** #define vidupq_x_u16(__a, __imm, __p) __arm_vidupq_x_u16(__a, __imm, __p)
 122:/opt/st/stm32cubeclt_1.21.0/GNU-tools-for-STM32/lib/gcc/arm-none-eabi/14.3.1/include/arm_mve.h **** #define vidupq_x_u32(__a, __imm, __p) __arm_vidupq_x_u32(__a, __imm, __p)
 123:/opt/st/stm32cubeclt_1.21.0/GNU-tools-for-STM32/lib/gcc/arm-none-eabi/14.3.1/include/arm_mve.h **** #define viwdupq_x_u8(__a, __b, __imm, __p) __arm_viwdupq_x_u8(__a, __b, __imm, __p)
 124:/opt/st/stm32cubeclt_1.21.0/GNU-tools-for-STM32/lib/gcc/arm-none-eabi/14.3.1/include/arm_mve.h **** #define viwdupq_x_u16(__a, __b, __imm, __p) __arm_viwdupq_x_u16(__a, __b, __imm, __p)
 125:/opt/st/stm32cubeclt_1.21.0/GNU-tools-for-STM32/lib/gcc/arm-none-eabi/14.3.1/include/arm_mve.h **** #define viwdupq_x_u32(__a, __b, __imm, __p) __arm_viwdupq_x_u32(__a, __b, __imm, __p)
 126:/opt/st/stm32cubeclt_1.21.0/GNU-tools-for-STM32/lib/gcc/arm-none-eabi/14.3.1/include/arm_mve.h **** #define vbicq_x(__a, __b, __p) __arm_vbicq_x(__a, __b, __p)
 127:/opt/st/stm32cubeclt_1.21.0/GNU-tools-for-STM32/lib/gcc/arm-none-eabi/14.3.1/include/arm_mve.h **** #define vornq_x(__a, __b, __p) __arm_vornq_x(__a, __b, __p)
 128:/opt/st/stm32cubeclt_1.21.0/GNU-tools-for-STM32/lib/gcc/arm-none-eabi/14.3.1/include/arm_mve.h **** #define vadciq(__a, __b, __carry_out) __arm_vadciq(__a, __b, __carry_out)
ARM GAS  /tmp/ccfH7U9I.s 			page 5


 129:/opt/st/stm32cubeclt_1.21.0/GNU-tools-for-STM32/lib/gcc/arm-none-eabi/14.3.1/include/arm_mve.h **** #define vadciq_m(__inactive, __a, __b, __carry_out, __p) __arm_vadciq_m(__inactive, __a, __b, __car
 130:/opt/st/stm32cubeclt_1.21.0/GNU-tools-for-STM32/lib/gcc/arm-none-eabi/14.3.1/include/arm_mve.h **** #define vadcq(__a, __b, __carry) __arm_vadcq(__a, __b, __carry)
 131:/opt/st/stm32cubeclt_1.21.0/GNU-tools-for-STM32/lib/gcc/arm-none-eabi/14.3.1/include/arm_mve.h **** #define vadcq_m(__inactive, __a, __b, __carry, __p) __arm_vadcq_m(__inactive, __a, __b, __carry, __
 132:/opt/st/stm32cubeclt_1.21.0/GNU-tools-for-STM32/lib/gcc/arm-none-eabi/14.3.1/include/arm_mve.h **** #define vsbciq(__a, __b, __carry_out) __arm_vsbciq(__a, __b, __carry_out)
 133:/opt/st/stm32cubeclt_1.21.0/GNU-tools-for-STM32/lib/gcc/arm-none-eabi/14.3.1/include/arm_mve.h **** #define vsbciq_m(__inactive, __a, __b, __carry_out, __p) __arm_vsbciq_m(__inactive, __a, __b, __car
 134:/opt/st/stm32cubeclt_1.21.0/GNU-tools-for-STM32/lib/gcc/arm-none-eabi/14.3.1/include/arm_mve.h **** #define vsbcq(__a, __b, __carry) __arm_vsbcq(__a, __b, __carry)
 135:/opt/st/stm32cubeclt_1.21.0/GNU-tools-for-STM32/lib/gcc/arm-none-eabi/14.3.1/include/arm_mve.h **** #define vsbcq_m(__inactive, __a, __b, __carry, __p) __arm_vsbcq_m(__inactive, __a, __b, __carry, __
 136:/opt/st/stm32cubeclt_1.21.0/GNU-tools-for-STM32/lib/gcc/arm-none-eabi/14.3.1/include/arm_mve.h **** #define vst1q_p(__addr, __value, __p) __arm_vst1q_p(__addr, __value, __p)
 137:/opt/st/stm32cubeclt_1.21.0/GNU-tools-for-STM32/lib/gcc/arm-none-eabi/14.3.1/include/arm_mve.h **** #define vst2q(__addr, __value) __arm_vst2q(__addr, __value)
 138:/opt/st/stm32cubeclt_1.21.0/GNU-tools-for-STM32/lib/gcc/arm-none-eabi/14.3.1/include/arm_mve.h **** #define vld1q_z(__base, __p) __arm_vld1q_z(__base, __p)
 139:/opt/st/stm32cubeclt_1.21.0/GNU-tools-for-STM32/lib/gcc/arm-none-eabi/14.3.1/include/arm_mve.h **** #define vld2q(__addr) __arm_vld2q(__addr)
 140:/opt/st/stm32cubeclt_1.21.0/GNU-tools-for-STM32/lib/gcc/arm-none-eabi/14.3.1/include/arm_mve.h **** #define vld4q(__addr) __arm_vld4q(__addr)
 141:/opt/st/stm32cubeclt_1.21.0/GNU-tools-for-STM32/lib/gcc/arm-none-eabi/14.3.1/include/arm_mve.h **** #define vsetq_lane(__a, __b, __idx) __arm_vsetq_lane(__a, __b, __idx)
 142:/opt/st/stm32cubeclt_1.21.0/GNU-tools-for-STM32/lib/gcc/arm-none-eabi/14.3.1/include/arm_mve.h **** #define vgetq_lane(__a, __idx) __arm_vgetq_lane(__a, __idx)
 143:/opt/st/stm32cubeclt_1.21.0/GNU-tools-for-STM32/lib/gcc/arm-none-eabi/14.3.1/include/arm_mve.h **** #define vshlcq_m(__a, __b, __imm, __p) __arm_vshlcq_m(__a, __b, __imm, __p)
 144:/opt/st/stm32cubeclt_1.21.0/GNU-tools-for-STM32/lib/gcc/arm-none-eabi/14.3.1/include/arm_mve.h **** #define vcvttq_f32(__a) __arm_vcvttq_f32(__a)
 145:/opt/st/stm32cubeclt_1.21.0/GNU-tools-for-STM32/lib/gcc/arm-none-eabi/14.3.1/include/arm_mve.h **** #define vcvtbq_f32(__a) __arm_vcvtbq_f32(__a)
 146:/opt/st/stm32cubeclt_1.21.0/GNU-tools-for-STM32/lib/gcc/arm-none-eabi/14.3.1/include/arm_mve.h **** #define vcvtq(__a) __arm_vcvtq(__a)
 147:/opt/st/stm32cubeclt_1.21.0/GNU-tools-for-STM32/lib/gcc/arm-none-eabi/14.3.1/include/arm_mve.h **** #define vcvtq_n(__a, __imm6) __arm_vcvtq_n(__a, __imm6)
 148:/opt/st/stm32cubeclt_1.21.0/GNU-tools-for-STM32/lib/gcc/arm-none-eabi/14.3.1/include/arm_mve.h **** #define vcvtaq_m(__inactive, __a, __p) __arm_vcvtaq_m(__inactive, __a, __p)
 149:/opt/st/stm32cubeclt_1.21.0/GNU-tools-for-STM32/lib/gcc/arm-none-eabi/14.3.1/include/arm_mve.h **** #define vcvtq_m(__inactive, __a, __p) __arm_vcvtq_m(__inactive, __a, __p)
 150:/opt/st/stm32cubeclt_1.21.0/GNU-tools-for-STM32/lib/gcc/arm-none-eabi/14.3.1/include/arm_mve.h **** #define vcvtbq_m(__a, __b, __p) __arm_vcvtbq_m(__a, __b, __p)
 151:/opt/st/stm32cubeclt_1.21.0/GNU-tools-for-STM32/lib/gcc/arm-none-eabi/14.3.1/include/arm_mve.h **** #define vcvttq_m(__a, __b, __p) __arm_vcvttq_m(__a, __b, __p)
 152:/opt/st/stm32cubeclt_1.21.0/GNU-tools-for-STM32/lib/gcc/arm-none-eabi/14.3.1/include/arm_mve.h **** #define vcvtmq_m(__inactive, __a, __p) __arm_vcvtmq_m(__inactive, __a, __p)
 153:/opt/st/stm32cubeclt_1.21.0/GNU-tools-for-STM32/lib/gcc/arm-none-eabi/14.3.1/include/arm_mve.h **** #define vcvtnq_m(__inactive, __a, __p) __arm_vcvtnq_m(__inactive, __a, __p)
 154:/opt/st/stm32cubeclt_1.21.0/GNU-tools-for-STM32/lib/gcc/arm-none-eabi/14.3.1/include/arm_mve.h **** #define vcvtpq_m(__inactive, __a, __p) __arm_vcvtpq_m(__inactive, __a, __p)
 155:/opt/st/stm32cubeclt_1.21.0/GNU-tools-for-STM32/lib/gcc/arm-none-eabi/14.3.1/include/arm_mve.h **** #define vcvtq_m_n(__inactive, __a, __imm6, __p) __arm_vcvtq_m_n(__inactive, __a, __imm6, __p)
 156:/opt/st/stm32cubeclt_1.21.0/GNU-tools-for-STM32/lib/gcc/arm-none-eabi/14.3.1/include/arm_mve.h **** #define vcvtq_x(__a, __p) __arm_vcvtq_x(__a, __p)
 157:/opt/st/stm32cubeclt_1.21.0/GNU-tools-for-STM32/lib/gcc/arm-none-eabi/14.3.1/include/arm_mve.h **** #define vcvtq_x_n(__a, __imm6, __p) __arm_vcvtq_x_n(__a, __imm6, __p)
 158:/opt/st/stm32cubeclt_1.21.0/GNU-tools-for-STM32/lib/gcc/arm-none-eabi/14.3.1/include/arm_mve.h **** 
 159:/opt/st/stm32cubeclt_1.21.0/GNU-tools-for-STM32/lib/gcc/arm-none-eabi/14.3.1/include/arm_mve.h **** 
 160:/opt/st/stm32cubeclt_1.21.0/GNU-tools-for-STM32/lib/gcc/arm-none-eabi/14.3.1/include/arm_mve.h **** #define vst4q_s8( __addr, __value) __arm_vst4q_s8( __addr, __value)
 161:/opt/st/stm32cubeclt_1.21.0/GNU-tools-for-STM32/lib/gcc/arm-none-eabi/14.3.1/include/arm_mve.h **** #define vst4q_s16( __addr, __value) __arm_vst4q_s16( __addr, __value)
 162:/opt/st/stm32cubeclt_1.21.0/GNU-tools-for-STM32/lib/gcc/arm-none-eabi/14.3.1/include/arm_mve.h **** #define vst4q_s32( __addr, __value) __arm_vst4q_s32( __addr, __value)
 163:/opt/st/stm32cubeclt_1.21.0/GNU-tools-for-STM32/lib/gcc/arm-none-eabi/14.3.1/include/arm_mve.h **** #define vst4q_u8( __addr, __value) __arm_vst4q_u8( __addr, __value)
 164:/opt/st/stm32cubeclt_1.21.0/GNU-tools-for-STM32/lib/gcc/arm-none-eabi/14.3.1/include/arm_mve.h **** #define vst4q_u16( __addr, __value) __arm_vst4q_u16( __addr, __value)
 165:/opt/st/stm32cubeclt_1.21.0/GNU-tools-for-STM32/lib/gcc/arm-none-eabi/14.3.1/include/arm_mve.h **** #define vst4q_u32( __addr, __value) __arm_vst4q_u32( __addr, __value)
 166:/opt/st/stm32cubeclt_1.21.0/GNU-tools-for-STM32/lib/gcc/arm-none-eabi/14.3.1/include/arm_mve.h **** #define vst4q_f16( __addr, __value) __arm_vst4q_f16( __addr, __value)
 167:/opt/st/stm32cubeclt_1.21.0/GNU-tools-for-STM32/lib/gcc/arm-none-eabi/14.3.1/include/arm_mve.h **** #define vst4q_f32( __addr, __value) __arm_vst4q_f32( __addr, __value)
 168:/opt/st/stm32cubeclt_1.21.0/GNU-tools-for-STM32/lib/gcc/arm-none-eabi/14.3.1/include/arm_mve.h **** #define vcvttq_f32_f16(__a) __arm_vcvttq_f32_f16(__a)
 169:/opt/st/stm32cubeclt_1.21.0/GNU-tools-for-STM32/lib/gcc/arm-none-eabi/14.3.1/include/arm_mve.h **** #define vcvtbq_f32_f16(__a) __arm_vcvtbq_f32_f16(__a)
 170:/opt/st/stm32cubeclt_1.21.0/GNU-tools-for-STM32/lib/gcc/arm-none-eabi/14.3.1/include/arm_mve.h **** #define vcvtq_f16_s16(__a) __arm_vcvtq_f16_s16(__a)
 171:/opt/st/stm32cubeclt_1.21.0/GNU-tools-for-STM32/lib/gcc/arm-none-eabi/14.3.1/include/arm_mve.h **** #define vcvtq_f32_s32(__a) __arm_vcvtq_f32_s32(__a)
 172:/opt/st/stm32cubeclt_1.21.0/GNU-tools-for-STM32/lib/gcc/arm-none-eabi/14.3.1/include/arm_mve.h **** #define vcvtq_f16_u16(__a) __arm_vcvtq_f16_u16(__a)
 173:/opt/st/stm32cubeclt_1.21.0/GNU-tools-for-STM32/lib/gcc/arm-none-eabi/14.3.1/include/arm_mve.h **** #define vcvtq_f32_u32(__a) __arm_vcvtq_f32_u32(__a)
 174:/opt/st/stm32cubeclt_1.21.0/GNU-tools-for-STM32/lib/gcc/arm-none-eabi/14.3.1/include/arm_mve.h **** #define vcvtaq_s16_f16(__a) __arm_vcvtaq_s16_f16(__a)
 175:/opt/st/stm32cubeclt_1.21.0/GNU-tools-for-STM32/lib/gcc/arm-none-eabi/14.3.1/include/arm_mve.h **** #define vcvtaq_s32_f32(__a) __arm_vcvtaq_s32_f32(__a)
 176:/opt/st/stm32cubeclt_1.21.0/GNU-tools-for-STM32/lib/gcc/arm-none-eabi/14.3.1/include/arm_mve.h **** #define vcvtnq_s16_f16(__a) __arm_vcvtnq_s16_f16(__a)
 177:/opt/st/stm32cubeclt_1.21.0/GNU-tools-for-STM32/lib/gcc/arm-none-eabi/14.3.1/include/arm_mve.h **** #define vcvtnq_s32_f32(__a) __arm_vcvtnq_s32_f32(__a)
 178:/opt/st/stm32cubeclt_1.21.0/GNU-tools-for-STM32/lib/gcc/arm-none-eabi/14.3.1/include/arm_mve.h **** #define vcvtpq_s16_f16(__a) __arm_vcvtpq_s16_f16(__a)
 179:/opt/st/stm32cubeclt_1.21.0/GNU-tools-for-STM32/lib/gcc/arm-none-eabi/14.3.1/include/arm_mve.h **** #define vcvtpq_s32_f32(__a) __arm_vcvtpq_s32_f32(__a)
 180:/opt/st/stm32cubeclt_1.21.0/GNU-tools-for-STM32/lib/gcc/arm-none-eabi/14.3.1/include/arm_mve.h **** #define vcvtmq_s16_f16(__a) __arm_vcvtmq_s16_f16(__a)
 181:/opt/st/stm32cubeclt_1.21.0/GNU-tools-for-STM32/lib/gcc/arm-none-eabi/14.3.1/include/arm_mve.h **** #define vcvtmq_s32_f32(__a) __arm_vcvtmq_s32_f32(__a)
 182:/opt/st/stm32cubeclt_1.21.0/GNU-tools-for-STM32/lib/gcc/arm-none-eabi/14.3.1/include/arm_mve.h **** #define vcvtq_s16_f16(__a) __arm_vcvtq_s16_f16(__a)
 183:/opt/st/stm32cubeclt_1.21.0/GNU-tools-for-STM32/lib/gcc/arm-none-eabi/14.3.1/include/arm_mve.h **** #define vcvtq_s32_f32(__a) __arm_vcvtq_s32_f32(__a)
 184:/opt/st/stm32cubeclt_1.21.0/GNU-tools-for-STM32/lib/gcc/arm-none-eabi/14.3.1/include/arm_mve.h **** #define vcvtq_u16_f16(__a) __arm_vcvtq_u16_f16(__a)
 185:/opt/st/stm32cubeclt_1.21.0/GNU-tools-for-STM32/lib/gcc/arm-none-eabi/14.3.1/include/arm_mve.h **** #define vcvtq_u32_f32(__a) __arm_vcvtq_u32_f32(__a)
ARM GAS  /tmp/ccfH7U9I.s 			page 6


 186:/opt/st/stm32cubeclt_1.21.0/GNU-tools-for-STM32/lib/gcc/arm-none-eabi/14.3.1/include/arm_mve.h **** #define vcvtpq_u16_f16(__a) __arm_vcvtpq_u16_f16(__a)
 187:/opt/st/stm32cubeclt_1.21.0/GNU-tools-for-STM32/lib/gcc/arm-none-eabi/14.3.1/include/arm_mve.h **** #define vcvtpq_u32_f32(__a) __arm_vcvtpq_u32_f32(__a)
 188:/opt/st/stm32cubeclt_1.21.0/GNU-tools-for-STM32/lib/gcc/arm-none-eabi/14.3.1/include/arm_mve.h **** #define vcvtnq_u16_f16(__a) __arm_vcvtnq_u16_f16(__a)
 189:/opt/st/stm32cubeclt_1.21.0/GNU-tools-for-STM32/lib/gcc/arm-none-eabi/14.3.1/include/arm_mve.h **** #define vcvtnq_u32_f32(__a) __arm_vcvtnq_u32_f32(__a)
 190:/opt/st/stm32cubeclt_1.21.0/GNU-tools-for-STM32/lib/gcc/arm-none-eabi/14.3.1/include/arm_mve.h **** #define vcvtmq_u16_f16(__a) __arm_vcvtmq_u16_f16(__a)
 191:/opt/st/stm32cubeclt_1.21.0/GNU-tools-for-STM32/lib/gcc/arm-none-eabi/14.3.1/include/arm_mve.h **** #define vcvtmq_u32_f32(__a) __arm_vcvtmq_u32_f32(__a)
 192:/opt/st/stm32cubeclt_1.21.0/GNU-tools-for-STM32/lib/gcc/arm-none-eabi/14.3.1/include/arm_mve.h **** #define vcvtaq_u16_f16(__a) __arm_vcvtaq_u16_f16(__a)
 193:/opt/st/stm32cubeclt_1.21.0/GNU-tools-for-STM32/lib/gcc/arm-none-eabi/14.3.1/include/arm_mve.h **** #define vcvtaq_u32_f32(__a) __arm_vcvtaq_u32_f32(__a)
 194:/opt/st/stm32cubeclt_1.21.0/GNU-tools-for-STM32/lib/gcc/arm-none-eabi/14.3.1/include/arm_mve.h **** #define vctp16q(__a) __arm_vctp16q(__a)
 195:/opt/st/stm32cubeclt_1.21.0/GNU-tools-for-STM32/lib/gcc/arm-none-eabi/14.3.1/include/arm_mve.h **** #define vctp32q(__a) __arm_vctp32q(__a)
 196:/opt/st/stm32cubeclt_1.21.0/GNU-tools-for-STM32/lib/gcc/arm-none-eabi/14.3.1/include/arm_mve.h **** #define vctp64q(__a) __arm_vctp64q(__a)
 197:/opt/st/stm32cubeclt_1.21.0/GNU-tools-for-STM32/lib/gcc/arm-none-eabi/14.3.1/include/arm_mve.h **** #define vctp8q(__a) __arm_vctp8q(__a)
 198:/opt/st/stm32cubeclt_1.21.0/GNU-tools-for-STM32/lib/gcc/arm-none-eabi/14.3.1/include/arm_mve.h **** #define vpnot(__a) __arm_vpnot(__a)
 199:/opt/st/stm32cubeclt_1.21.0/GNU-tools-for-STM32/lib/gcc/arm-none-eabi/14.3.1/include/arm_mve.h **** #define vcvtq_n_f16_s16(__a,  __imm6) __arm_vcvtq_n_f16_s16(__a,  __imm6)
 200:/opt/st/stm32cubeclt_1.21.0/GNU-tools-for-STM32/lib/gcc/arm-none-eabi/14.3.1/include/arm_mve.h **** #define vcvtq_n_f32_s32(__a,  __imm6) __arm_vcvtq_n_f32_s32(__a,  __imm6)
 201:/opt/st/stm32cubeclt_1.21.0/GNU-tools-for-STM32/lib/gcc/arm-none-eabi/14.3.1/include/arm_mve.h **** #define vcvtq_n_f16_u16(__a,  __imm6) __arm_vcvtq_n_f16_u16(__a,  __imm6)
 202:/opt/st/stm32cubeclt_1.21.0/GNU-tools-for-STM32/lib/gcc/arm-none-eabi/14.3.1/include/arm_mve.h **** #define vcvtq_n_f32_u32(__a,  __imm6) __arm_vcvtq_n_f32_u32(__a,  __imm6)
 203:/opt/st/stm32cubeclt_1.21.0/GNU-tools-for-STM32/lib/gcc/arm-none-eabi/14.3.1/include/arm_mve.h **** #define vcvtq_n_s16_f16(__a,  __imm6) __arm_vcvtq_n_s16_f16(__a,  __imm6)
 204:/opt/st/stm32cubeclt_1.21.0/GNU-tools-for-STM32/lib/gcc/arm-none-eabi/14.3.1/include/arm_mve.h **** #define vcvtq_n_s32_f32(__a,  __imm6) __arm_vcvtq_n_s32_f32(__a,  __imm6)
 205:/opt/st/stm32cubeclt_1.21.0/GNU-tools-for-STM32/lib/gcc/arm-none-eabi/14.3.1/include/arm_mve.h **** #define vcvtq_n_u16_f16(__a,  __imm6) __arm_vcvtq_n_u16_f16(__a,  __imm6)
 206:/opt/st/stm32cubeclt_1.21.0/GNU-tools-for-STM32/lib/gcc/arm-none-eabi/14.3.1/include/arm_mve.h **** #define vcvtq_n_u32_f32(__a,  __imm6) __arm_vcvtq_n_u32_f32(__a,  __imm6)
 207:/opt/st/stm32cubeclt_1.21.0/GNU-tools-for-STM32/lib/gcc/arm-none-eabi/14.3.1/include/arm_mve.h **** #define vornq_u8(__a, __b) __arm_vornq_u8(__a, __b)
 208:/opt/st/stm32cubeclt_1.21.0/GNU-tools-for-STM32/lib/gcc/arm-none-eabi/14.3.1/include/arm_mve.h **** #define vbicq_u8(__a, __b) __arm_vbicq_u8(__a, __b)
 209:/opt/st/stm32cubeclt_1.21.0/GNU-tools-for-STM32/lib/gcc/arm-none-eabi/14.3.1/include/arm_mve.h **** #define vornq_s8(__a, __b) __arm_vornq_s8(__a, __b)
 210:/opt/st/stm32cubeclt_1.21.0/GNU-tools-for-STM32/lib/gcc/arm-none-eabi/14.3.1/include/arm_mve.h **** #define vbicq_s8(__a, __b) __arm_vbicq_s8(__a, __b)
 211:/opt/st/stm32cubeclt_1.21.0/GNU-tools-for-STM32/lib/gcc/arm-none-eabi/14.3.1/include/arm_mve.h **** #define vornq_u16(__a, __b) __arm_vornq_u16(__a, __b)
 212:/opt/st/stm32cubeclt_1.21.0/GNU-tools-for-STM32/lib/gcc/arm-none-eabi/14.3.1/include/arm_mve.h **** #define vbicq_u16(__a, __b) __arm_vbicq_u16(__a, __b)
 213:/opt/st/stm32cubeclt_1.21.0/GNU-tools-for-STM32/lib/gcc/arm-none-eabi/14.3.1/include/arm_mve.h **** #define vornq_s16(__a, __b) __arm_vornq_s16(__a, __b)
 214:/opt/st/stm32cubeclt_1.21.0/GNU-tools-for-STM32/lib/gcc/arm-none-eabi/14.3.1/include/arm_mve.h **** #define vbicq_s16(__a, __b) __arm_vbicq_s16(__a, __b)
 215:/opt/st/stm32cubeclt_1.21.0/GNU-tools-for-STM32/lib/gcc/arm-none-eabi/14.3.1/include/arm_mve.h **** #define vornq_u32(__a, __b) __arm_vornq_u32(__a, __b)
 216:/opt/st/stm32cubeclt_1.21.0/GNU-tools-for-STM32/lib/gcc/arm-none-eabi/14.3.1/include/arm_mve.h **** #define vbicq_u32(__a, __b) __arm_vbicq_u32(__a, __b)
 217:/opt/st/stm32cubeclt_1.21.0/GNU-tools-for-STM32/lib/gcc/arm-none-eabi/14.3.1/include/arm_mve.h **** #define vornq_s32(__a, __b) __arm_vornq_s32(__a, __b)
 218:/opt/st/stm32cubeclt_1.21.0/GNU-tools-for-STM32/lib/gcc/arm-none-eabi/14.3.1/include/arm_mve.h **** #define vbicq_s32(__a, __b) __arm_vbicq_s32(__a, __b)
 219:/opt/st/stm32cubeclt_1.21.0/GNU-tools-for-STM32/lib/gcc/arm-none-eabi/14.3.1/include/arm_mve.h **** #define vbicq_n_u16(__a,  __imm) __arm_vbicq_n_u16(__a,  __imm)
 220:/opt/st/stm32cubeclt_1.21.0/GNU-tools-for-STM32/lib/gcc/arm-none-eabi/14.3.1/include/arm_mve.h **** #define vornq_f16(__a, __b) __arm_vornq_f16(__a, __b)
 221:/opt/st/stm32cubeclt_1.21.0/GNU-tools-for-STM32/lib/gcc/arm-none-eabi/14.3.1/include/arm_mve.h **** #define vbicq_f16(__a, __b) __arm_vbicq_f16(__a, __b)
 222:/opt/st/stm32cubeclt_1.21.0/GNU-tools-for-STM32/lib/gcc/arm-none-eabi/14.3.1/include/arm_mve.h **** #define vbicq_n_s16(__a,  __imm) __arm_vbicq_n_s16(__a,  __imm)
 223:/opt/st/stm32cubeclt_1.21.0/GNU-tools-for-STM32/lib/gcc/arm-none-eabi/14.3.1/include/arm_mve.h **** #define vbicq_n_u32(__a,  __imm) __arm_vbicq_n_u32(__a,  __imm)
 224:/opt/st/stm32cubeclt_1.21.0/GNU-tools-for-STM32/lib/gcc/arm-none-eabi/14.3.1/include/arm_mve.h **** #define vornq_f32(__a, __b) __arm_vornq_f32(__a, __b)
 225:/opt/st/stm32cubeclt_1.21.0/GNU-tools-for-STM32/lib/gcc/arm-none-eabi/14.3.1/include/arm_mve.h **** #define vbicq_f32(__a, __b) __arm_vbicq_f32(__a, __b)
 226:/opt/st/stm32cubeclt_1.21.0/GNU-tools-for-STM32/lib/gcc/arm-none-eabi/14.3.1/include/arm_mve.h **** #define vbicq_n_s32(__a,  __imm) __arm_vbicq_n_s32(__a,  __imm)
 227:/opt/st/stm32cubeclt_1.21.0/GNU-tools-for-STM32/lib/gcc/arm-none-eabi/14.3.1/include/arm_mve.h **** #define vctp8q_m(__a, __p) __arm_vctp8q_m(__a, __p)
 228:/opt/st/stm32cubeclt_1.21.0/GNU-tools-for-STM32/lib/gcc/arm-none-eabi/14.3.1/include/arm_mve.h **** #define vctp64q_m(__a, __p) __arm_vctp64q_m(__a, __p)
 229:/opt/st/stm32cubeclt_1.21.0/GNU-tools-for-STM32/lib/gcc/arm-none-eabi/14.3.1/include/arm_mve.h **** #define vctp32q_m(__a, __p) __arm_vctp32q_m(__a, __p)
 230:/opt/st/stm32cubeclt_1.21.0/GNU-tools-for-STM32/lib/gcc/arm-none-eabi/14.3.1/include/arm_mve.h **** #define vctp16q_m(__a, __p) __arm_vctp16q_m(__a, __p)
 231:/opt/st/stm32cubeclt_1.21.0/GNU-tools-for-STM32/lib/gcc/arm-none-eabi/14.3.1/include/arm_mve.h **** #define vcvttq_f16_f32(__a, __b) __arm_vcvttq_f16_f32(__a, __b)
 232:/opt/st/stm32cubeclt_1.21.0/GNU-tools-for-STM32/lib/gcc/arm-none-eabi/14.3.1/include/arm_mve.h **** #define vcvtbq_f16_f32(__a, __b) __arm_vcvtbq_f16_f32(__a, __b)
 233:/opt/st/stm32cubeclt_1.21.0/GNU-tools-for-STM32/lib/gcc/arm-none-eabi/14.3.1/include/arm_mve.h **** #define vbicq_m_n_s16(__a,  __imm, __p) __arm_vbicq_m_n_s16(__a,  __imm, __p)
 234:/opt/st/stm32cubeclt_1.21.0/GNU-tools-for-STM32/lib/gcc/arm-none-eabi/14.3.1/include/arm_mve.h **** #define vbicq_m_n_s32(__a,  __imm, __p) __arm_vbicq_m_n_s32(__a,  __imm, __p)
 235:/opt/st/stm32cubeclt_1.21.0/GNU-tools-for-STM32/lib/gcc/arm-none-eabi/14.3.1/include/arm_mve.h **** #define vbicq_m_n_u16(__a,  __imm, __p) __arm_vbicq_m_n_u16(__a,  __imm, __p)
 236:/opt/st/stm32cubeclt_1.21.0/GNU-tools-for-STM32/lib/gcc/arm-none-eabi/14.3.1/include/arm_mve.h **** #define vbicq_m_n_u32(__a,  __imm, __p) __arm_vbicq_m_n_u32(__a,  __imm, __p)
 237:/opt/st/stm32cubeclt_1.21.0/GNU-tools-for-STM32/lib/gcc/arm-none-eabi/14.3.1/include/arm_mve.h **** #define vcvtaq_m_s16_f16(__inactive, __a, __p) __arm_vcvtaq_m_s16_f16(__inactive, __a, __p)
 238:/opt/st/stm32cubeclt_1.21.0/GNU-tools-for-STM32/lib/gcc/arm-none-eabi/14.3.1/include/arm_mve.h **** #define vcvtaq_m_u16_f16(__inactive, __a, __p) __arm_vcvtaq_m_u16_f16(__inactive, __a, __p)
 239:/opt/st/stm32cubeclt_1.21.0/GNU-tools-for-STM32/lib/gcc/arm-none-eabi/14.3.1/include/arm_mve.h **** #define vcvtaq_m_s32_f32(__inactive, __a, __p) __arm_vcvtaq_m_s32_f32(__inactive, __a, __p)
 240:/opt/st/stm32cubeclt_1.21.0/GNU-tools-for-STM32/lib/gcc/arm-none-eabi/14.3.1/include/arm_mve.h **** #define vcvtaq_m_u32_f32(__inactive, __a, __p) __arm_vcvtaq_m_u32_f32(__inactive, __a, __p)
 241:/opt/st/stm32cubeclt_1.21.0/GNU-tools-for-STM32/lib/gcc/arm-none-eabi/14.3.1/include/arm_mve.h **** #define vcvtq_m_f16_s16(__inactive, __a, __p) __arm_vcvtq_m_f16_s16(__inactive, __a, __p)
 242:/opt/st/stm32cubeclt_1.21.0/GNU-tools-for-STM32/lib/gcc/arm-none-eabi/14.3.1/include/arm_mve.h **** #define vcvtq_m_f16_u16(__inactive, __a, __p) __arm_vcvtq_m_f16_u16(__inactive, __a, __p)
ARM GAS  /tmp/ccfH7U9I.s 			page 7


 243:/opt/st/stm32cubeclt_1.21.0/GNU-tools-for-STM32/lib/gcc/arm-none-eabi/14.3.1/include/arm_mve.h **** #define vcvtq_m_f32_s32(__inactive, __a, __p) __arm_vcvtq_m_f32_s32(__inactive, __a, __p)
 244:/opt/st/stm32cubeclt_1.21.0/GNU-tools-for-STM32/lib/gcc/arm-none-eabi/14.3.1/include/arm_mve.h **** #define vcvtq_m_f32_u32(__inactive, __a, __p) __arm_vcvtq_m_f32_u32(__inactive, __a, __p)
 245:/opt/st/stm32cubeclt_1.21.0/GNU-tools-for-STM32/lib/gcc/arm-none-eabi/14.3.1/include/arm_mve.h **** #define vshlcq_s8(__a,  __b,  __imm) __arm_vshlcq_s8(__a,  __b,  __imm)
 246:/opt/st/stm32cubeclt_1.21.0/GNU-tools-for-STM32/lib/gcc/arm-none-eabi/14.3.1/include/arm_mve.h **** #define vshlcq_u8(__a,  __b,  __imm) __arm_vshlcq_u8(__a,  __b,  __imm)
 247:/opt/st/stm32cubeclt_1.21.0/GNU-tools-for-STM32/lib/gcc/arm-none-eabi/14.3.1/include/arm_mve.h **** #define vshlcq_s16(__a,  __b,  __imm) __arm_vshlcq_s16(__a,  __b,  __imm)
 248:/opt/st/stm32cubeclt_1.21.0/GNU-tools-for-STM32/lib/gcc/arm-none-eabi/14.3.1/include/arm_mve.h **** #define vshlcq_u16(__a,  __b,  __imm) __arm_vshlcq_u16(__a,  __b,  __imm)
 249:/opt/st/stm32cubeclt_1.21.0/GNU-tools-for-STM32/lib/gcc/arm-none-eabi/14.3.1/include/arm_mve.h **** #define vshlcq_s32(__a,  __b,  __imm) __arm_vshlcq_s32(__a,  __b,  __imm)
 250:/opt/st/stm32cubeclt_1.21.0/GNU-tools-for-STM32/lib/gcc/arm-none-eabi/14.3.1/include/arm_mve.h **** #define vshlcq_u32(__a,  __b,  __imm) __arm_vshlcq_u32(__a,  __b,  __imm)
 251:/opt/st/stm32cubeclt_1.21.0/GNU-tools-for-STM32/lib/gcc/arm-none-eabi/14.3.1/include/arm_mve.h **** #define vcvtbq_m_f16_f32(__a, __b, __p) __arm_vcvtbq_m_f16_f32(__a, __b, __p)
 252:/opt/st/stm32cubeclt_1.21.0/GNU-tools-for-STM32/lib/gcc/arm-none-eabi/14.3.1/include/arm_mve.h **** #define vcvtbq_m_f32_f16(__inactive, __a, __p) __arm_vcvtbq_m_f32_f16(__inactive, __a, __p)
 253:/opt/st/stm32cubeclt_1.21.0/GNU-tools-for-STM32/lib/gcc/arm-none-eabi/14.3.1/include/arm_mve.h **** #define vcvttq_m_f16_f32(__a, __b, __p) __arm_vcvttq_m_f16_f32(__a, __b, __p)
 254:/opt/st/stm32cubeclt_1.21.0/GNU-tools-for-STM32/lib/gcc/arm-none-eabi/14.3.1/include/arm_mve.h **** #define vcvttq_m_f32_f16(__inactive, __a, __p) __arm_vcvttq_m_f32_f16(__inactive, __a, __p)
 255:/opt/st/stm32cubeclt_1.21.0/GNU-tools-for-STM32/lib/gcc/arm-none-eabi/14.3.1/include/arm_mve.h **** #define vcvtmq_m_s16_f16(__inactive, __a, __p) __arm_vcvtmq_m_s16_f16(__inactive, __a, __p)
 256:/opt/st/stm32cubeclt_1.21.0/GNU-tools-for-STM32/lib/gcc/arm-none-eabi/14.3.1/include/arm_mve.h **** #define vcvtnq_m_s16_f16(__inactive, __a, __p) __arm_vcvtnq_m_s16_f16(__inactive, __a, __p)
 257:/opt/st/stm32cubeclt_1.21.0/GNU-tools-for-STM32/lib/gcc/arm-none-eabi/14.3.1/include/arm_mve.h **** #define vcvtpq_m_s16_f16(__inactive, __a, __p) __arm_vcvtpq_m_s16_f16(__inactive, __a, __p)
 258:/opt/st/stm32cubeclt_1.21.0/GNU-tools-for-STM32/lib/gcc/arm-none-eabi/14.3.1/include/arm_mve.h **** #define vcvtq_m_s16_f16(__inactive, __a, __p) __arm_vcvtq_m_s16_f16(__inactive, __a, __p)
 259:/opt/st/stm32cubeclt_1.21.0/GNU-tools-for-STM32/lib/gcc/arm-none-eabi/14.3.1/include/arm_mve.h **** #define vcvtmq_m_u16_f16(__inactive, __a, __p) __arm_vcvtmq_m_u16_f16(__inactive, __a, __p)
 260:/opt/st/stm32cubeclt_1.21.0/GNU-tools-for-STM32/lib/gcc/arm-none-eabi/14.3.1/include/arm_mve.h **** #define vcvtnq_m_u16_f16(__inactive, __a, __p) __arm_vcvtnq_m_u16_f16(__inactive, __a, __p)
 261:/opt/st/stm32cubeclt_1.21.0/GNU-tools-for-STM32/lib/gcc/arm-none-eabi/14.3.1/include/arm_mve.h **** #define vcvtpq_m_u16_f16(__inactive, __a, __p) __arm_vcvtpq_m_u16_f16(__inactive, __a, __p)
 262:/opt/st/stm32cubeclt_1.21.0/GNU-tools-for-STM32/lib/gcc/arm-none-eabi/14.3.1/include/arm_mve.h **** #define vcvtq_m_u16_f16(__inactive, __a, __p) __arm_vcvtq_m_u16_f16(__inactive, __a, __p)
 263:/opt/st/stm32cubeclt_1.21.0/GNU-tools-for-STM32/lib/gcc/arm-none-eabi/14.3.1/include/arm_mve.h **** #define vcvtmq_m_s32_f32(__inactive, __a, __p) __arm_vcvtmq_m_s32_f32(__inactive, __a, __p)
 264:/opt/st/stm32cubeclt_1.21.0/GNU-tools-for-STM32/lib/gcc/arm-none-eabi/14.3.1/include/arm_mve.h **** #define vcvtnq_m_s32_f32(__inactive, __a, __p) __arm_vcvtnq_m_s32_f32(__inactive, __a, __p)
 265:/opt/st/stm32cubeclt_1.21.0/GNU-tools-for-STM32/lib/gcc/arm-none-eabi/14.3.1/include/arm_mve.h **** #define vcvtpq_m_s32_f32(__inactive, __a, __p) __arm_vcvtpq_m_s32_f32(__inactive, __a, __p)
 266:/opt/st/stm32cubeclt_1.21.0/GNU-tools-for-STM32/lib/gcc/arm-none-eabi/14.3.1/include/arm_mve.h **** #define vcvtq_m_s32_f32(__inactive, __a, __p) __arm_vcvtq_m_s32_f32(__inactive, __a, __p)
 267:/opt/st/stm32cubeclt_1.21.0/GNU-tools-for-STM32/lib/gcc/arm-none-eabi/14.3.1/include/arm_mve.h **** #define vcvtmq_m_u32_f32(__inactive, __a, __p) __arm_vcvtmq_m_u32_f32(__inactive, __a, __p)
 268:/opt/st/stm32cubeclt_1.21.0/GNU-tools-for-STM32/lib/gcc/arm-none-eabi/14.3.1/include/arm_mve.h **** #define vcvtnq_m_u32_f32(__inactive, __a, __p) __arm_vcvtnq_m_u32_f32(__inactive, __a, __p)
 269:/opt/st/stm32cubeclt_1.21.0/GNU-tools-for-STM32/lib/gcc/arm-none-eabi/14.3.1/include/arm_mve.h **** #define vcvtpq_m_u32_f32(__inactive, __a, __p) __arm_vcvtpq_m_u32_f32(__inactive, __a, __p)
 270:/opt/st/stm32cubeclt_1.21.0/GNU-tools-for-STM32/lib/gcc/arm-none-eabi/14.3.1/include/arm_mve.h **** #define vcvtq_m_u32_f32(__inactive, __a, __p) __arm_vcvtq_m_u32_f32(__inactive, __a, __p)
 271:/opt/st/stm32cubeclt_1.21.0/GNU-tools-for-STM32/lib/gcc/arm-none-eabi/14.3.1/include/arm_mve.h **** #define vcvtq_m_n_f16_u16(__inactive, __a,  __imm6, __p) __arm_vcvtq_m_n_f16_u16(__inactive, __a,  
 272:/opt/st/stm32cubeclt_1.21.0/GNU-tools-for-STM32/lib/gcc/arm-none-eabi/14.3.1/include/arm_mve.h **** #define vcvtq_m_n_f16_s16(__inactive, __a,  __imm6, __p) __arm_vcvtq_m_n_f16_s16(__inactive, __a,  
 273:/opt/st/stm32cubeclt_1.21.0/GNU-tools-for-STM32/lib/gcc/arm-none-eabi/14.3.1/include/arm_mve.h **** #define vcvtq_m_n_f32_u32(__inactive, __a,  __imm6, __p) __arm_vcvtq_m_n_f32_u32(__inactive, __a,  
 274:/opt/st/stm32cubeclt_1.21.0/GNU-tools-for-STM32/lib/gcc/arm-none-eabi/14.3.1/include/arm_mve.h **** #define vcvtq_m_n_f32_s32(__inactive, __a,  __imm6, __p) __arm_vcvtq_m_n_f32_s32(__inactive, __a,  
 275:/opt/st/stm32cubeclt_1.21.0/GNU-tools-for-STM32/lib/gcc/arm-none-eabi/14.3.1/include/arm_mve.h **** #define vbicq_m_s8(__inactive, __a, __b, __p) __arm_vbicq_m_s8(__inactive, __a, __b, __p)
 276:/opt/st/stm32cubeclt_1.21.0/GNU-tools-for-STM32/lib/gcc/arm-none-eabi/14.3.1/include/arm_mve.h **** #define vbicq_m_s32(__inactive, __a, __b, __p) __arm_vbicq_m_s32(__inactive, __a, __b, __p)
 277:/opt/st/stm32cubeclt_1.21.0/GNU-tools-for-STM32/lib/gcc/arm-none-eabi/14.3.1/include/arm_mve.h **** #define vbicq_m_s16(__inactive, __a, __b, __p) __arm_vbicq_m_s16(__inactive, __a, __b, __p)
 278:/opt/st/stm32cubeclt_1.21.0/GNU-tools-for-STM32/lib/gcc/arm-none-eabi/14.3.1/include/arm_mve.h **** #define vbicq_m_u8(__inactive, __a, __b, __p) __arm_vbicq_m_u8(__inactive, __a, __b, __p)
 279:/opt/st/stm32cubeclt_1.21.0/GNU-tools-for-STM32/lib/gcc/arm-none-eabi/14.3.1/include/arm_mve.h **** #define vbicq_m_u32(__inactive, __a, __b, __p) __arm_vbicq_m_u32(__inactive, __a, __b, __p)
 280:/opt/st/stm32cubeclt_1.21.0/GNU-tools-for-STM32/lib/gcc/arm-none-eabi/14.3.1/include/arm_mve.h **** #define vbicq_m_u16(__inactive, __a, __b, __p) __arm_vbicq_m_u16(__inactive, __a, __b, __p)
 281:/opt/st/stm32cubeclt_1.21.0/GNU-tools-for-STM32/lib/gcc/arm-none-eabi/14.3.1/include/arm_mve.h **** #define vornq_m_s8(__inactive, __a, __b, __p) __arm_vornq_m_s8(__inactive, __a, __b, __p)
 282:/opt/st/stm32cubeclt_1.21.0/GNU-tools-for-STM32/lib/gcc/arm-none-eabi/14.3.1/include/arm_mve.h **** #define vornq_m_s32(__inactive, __a, __b, __p) __arm_vornq_m_s32(__inactive, __a, __b, __p)
 283:/opt/st/stm32cubeclt_1.21.0/GNU-tools-for-STM32/lib/gcc/arm-none-eabi/14.3.1/include/arm_mve.h **** #define vornq_m_s16(__inactive, __a, __b, __p) __arm_vornq_m_s16(__inactive, __a, __b, __p)
 284:/opt/st/stm32cubeclt_1.21.0/GNU-tools-for-STM32/lib/gcc/arm-none-eabi/14.3.1/include/arm_mve.h **** #define vornq_m_u8(__inactive, __a, __b, __p) __arm_vornq_m_u8(__inactive, __a, __b, __p)
 285:/opt/st/stm32cubeclt_1.21.0/GNU-tools-for-STM32/lib/gcc/arm-none-eabi/14.3.1/include/arm_mve.h **** #define vornq_m_u32(__inactive, __a, __b, __p) __arm_vornq_m_u32(__inactive, __a, __b, __p)
 286:/opt/st/stm32cubeclt_1.21.0/GNU-tools-for-STM32/lib/gcc/arm-none-eabi/14.3.1/include/arm_mve.h **** #define vornq_m_u16(__inactive, __a, __b, __p) __arm_vornq_m_u16(__inactive, __a, __b, __p)
 287:/opt/st/stm32cubeclt_1.21.0/GNU-tools-for-STM32/lib/gcc/arm-none-eabi/14.3.1/include/arm_mve.h **** #define vbicq_m_f32(__inactive, __a, __b, __p) __arm_vbicq_m_f32(__inactive, __a, __b, __p)
 288:/opt/st/stm32cubeclt_1.21.0/GNU-tools-for-STM32/lib/gcc/arm-none-eabi/14.3.1/include/arm_mve.h **** #define vbicq_m_f16(__inactive, __a, __b, __p) __arm_vbicq_m_f16(__inactive, __a, __b, __p)
 289:/opt/st/stm32cubeclt_1.21.0/GNU-tools-for-STM32/lib/gcc/arm-none-eabi/14.3.1/include/arm_mve.h **** #define vcvtq_m_n_s32_f32(__inactive, __a,  __imm6, __p) __arm_vcvtq_m_n_s32_f32(__inactive, __a,  
 290:/opt/st/stm32cubeclt_1.21.0/GNU-tools-for-STM32/lib/gcc/arm-none-eabi/14.3.1/include/arm_mve.h **** #define vcvtq_m_n_s16_f16(__inactive, __a,  __imm6, __p) __arm_vcvtq_m_n_s16_f16(__inactive, __a,  
 291:/opt/st/stm32cubeclt_1.21.0/GNU-tools-for-STM32/lib/gcc/arm-none-eabi/14.3.1/include/arm_mve.h **** #define vcvtq_m_n_u32_f32(__inactive, __a,  __imm6, __p) __arm_vcvtq_m_n_u32_f32(__inactive, __a,  
 292:/opt/st/stm32cubeclt_1.21.0/GNU-tools-for-STM32/lib/gcc/arm-none-eabi/14.3.1/include/arm_mve.h **** #define vcvtq_m_n_u16_f16(__inactive, __a,  __imm6, __p) __arm_vcvtq_m_n_u16_f16(__inactive, __a,  
 293:/opt/st/stm32cubeclt_1.21.0/GNU-tools-for-STM32/lib/gcc/arm-none-eabi/14.3.1/include/arm_mve.h **** #define vornq_m_f32(__inactive, __a, __b, __p) __arm_vornq_m_f32(__inactive, __a, __b, __p)
 294:/opt/st/stm32cubeclt_1.21.0/GNU-tools-for-STM32/lib/gcc/arm-none-eabi/14.3.1/include/arm_mve.h **** #define vornq_m_f16(__inactive, __a, __b, __p) __arm_vornq_m_f16(__inactive, __a, __b, __p)
 295:/opt/st/stm32cubeclt_1.21.0/GNU-tools-for-STM32/lib/gcc/arm-none-eabi/14.3.1/include/arm_mve.h **** #define vstrbq_s8( __addr, __value) __arm_vstrbq_s8( __addr, __value)
 296:/opt/st/stm32cubeclt_1.21.0/GNU-tools-for-STM32/lib/gcc/arm-none-eabi/14.3.1/include/arm_mve.h **** #define vstrbq_u8( __addr, __value) __arm_vstrbq_u8( __addr, __value)
 297:/opt/st/stm32cubeclt_1.21.0/GNU-tools-for-STM32/lib/gcc/arm-none-eabi/14.3.1/include/arm_mve.h **** #define vstrbq_u16( __addr, __value) __arm_vstrbq_u16( __addr, __value)
 298:/opt/st/stm32cubeclt_1.21.0/GNU-tools-for-STM32/lib/gcc/arm-none-eabi/14.3.1/include/arm_mve.h **** #define vstrbq_scatter_offset_s8( __base, __offset, __value) __arm_vstrbq_scatter_offset_s8( __base
 299:/opt/st/stm32cubeclt_1.21.0/GNU-tools-for-STM32/lib/gcc/arm-none-eabi/14.3.1/include/arm_mve.h **** #define vstrbq_scatter_offset_u8( __base, __offset, __value) __arm_vstrbq_scatter_offset_u8( __base
ARM GAS  /tmp/ccfH7U9I.s 			page 8


 300:/opt/st/stm32cubeclt_1.21.0/GNU-tools-for-STM32/lib/gcc/arm-none-eabi/14.3.1/include/arm_mve.h **** #define vstrbq_scatter_offset_u16( __base, __offset, __value) __arm_vstrbq_scatter_offset_u16( __ba
 301:/opt/st/stm32cubeclt_1.21.0/GNU-tools-for-STM32/lib/gcc/arm-none-eabi/14.3.1/include/arm_mve.h **** #define vstrbq_s16( __addr, __value) __arm_vstrbq_s16( __addr, __value)
 302:/opt/st/stm32cubeclt_1.21.0/GNU-tools-for-STM32/lib/gcc/arm-none-eabi/14.3.1/include/arm_mve.h **** #define vstrbq_u32( __addr, __value) __arm_vstrbq_u32( __addr, __value)
 303:/opt/st/stm32cubeclt_1.21.0/GNU-tools-for-STM32/lib/gcc/arm-none-eabi/14.3.1/include/arm_mve.h **** #define vstrbq_scatter_offset_s16( __base, __offset, __value) __arm_vstrbq_scatter_offset_s16( __ba
 304:/opt/st/stm32cubeclt_1.21.0/GNU-tools-for-STM32/lib/gcc/arm-none-eabi/14.3.1/include/arm_mve.h **** #define vstrbq_scatter_offset_u32( __base, __offset, __value) __arm_vstrbq_scatter_offset_u32( __ba
 305:/opt/st/stm32cubeclt_1.21.0/GNU-tools-for-STM32/lib/gcc/arm-none-eabi/14.3.1/include/arm_mve.h **** #define vstrbq_s32( __addr, __value) __arm_vstrbq_s32( __addr, __value)
 306:/opt/st/stm32cubeclt_1.21.0/GNU-tools-for-STM32/lib/gcc/arm-none-eabi/14.3.1/include/arm_mve.h **** #define vstrbq_scatter_offset_s32( __base, __offset, __value) __arm_vstrbq_scatter_offset_s32( __ba
 307:/opt/st/stm32cubeclt_1.21.0/GNU-tools-for-STM32/lib/gcc/arm-none-eabi/14.3.1/include/arm_mve.h **** #define vstrwq_scatter_base_s32(__addr,  __offset, __value) __arm_vstrwq_scatter_base_s32(__addr,  
 308:/opt/st/stm32cubeclt_1.21.0/GNU-tools-for-STM32/lib/gcc/arm-none-eabi/14.3.1/include/arm_mve.h **** #define vstrwq_scatter_base_u32(__addr,  __offset, __value) __arm_vstrwq_scatter_base_u32(__addr,  
 309:/opt/st/stm32cubeclt_1.21.0/GNU-tools-for-STM32/lib/gcc/arm-none-eabi/14.3.1/include/arm_mve.h **** #define vldrbq_gather_offset_u8(__base, __offset) __arm_vldrbq_gather_offset_u8(__base, __offset)
 310:/opt/st/stm32cubeclt_1.21.0/GNU-tools-for-STM32/lib/gcc/arm-none-eabi/14.3.1/include/arm_mve.h **** #define vldrbq_gather_offset_s8(__base, __offset) __arm_vldrbq_gather_offset_s8(__base, __offset)
 311:/opt/st/stm32cubeclt_1.21.0/GNU-tools-for-STM32/lib/gcc/arm-none-eabi/14.3.1/include/arm_mve.h **** #define vldrbq_s8(__base) __arm_vldrbq_s8(__base)
 312:/opt/st/stm32cubeclt_1.21.0/GNU-tools-for-STM32/lib/gcc/arm-none-eabi/14.3.1/include/arm_mve.h **** #define vldrbq_u8(__base) __arm_vldrbq_u8(__base)
 313:/opt/st/stm32cubeclt_1.21.0/GNU-tools-for-STM32/lib/gcc/arm-none-eabi/14.3.1/include/arm_mve.h **** #define vldrbq_gather_offset_u16(__base, __offset) __arm_vldrbq_gather_offset_u16(__base, __offset)
 314:/opt/st/stm32cubeclt_1.21.0/GNU-tools-for-STM32/lib/gcc/arm-none-eabi/14.3.1/include/arm_mve.h **** #define vldrbq_gather_offset_s16(__base, __offset) __arm_vldrbq_gather_offset_s16(__base, __offset)
 315:/opt/st/stm32cubeclt_1.21.0/GNU-tools-for-STM32/lib/gcc/arm-none-eabi/14.3.1/include/arm_mve.h **** #define vldrbq_s16(__base) __arm_vldrbq_s16(__base)
 316:/opt/st/stm32cubeclt_1.21.0/GNU-tools-for-STM32/lib/gcc/arm-none-eabi/14.3.1/include/arm_mve.h **** #define vldrbq_u16(__base) __arm_vldrbq_u16(__base)
 317:/opt/st/stm32cubeclt_1.21.0/GNU-tools-for-STM32/lib/gcc/arm-none-eabi/14.3.1/include/arm_mve.h **** #define vldrbq_gather_offset_u32(__base, __offset) __arm_vldrbq_gather_offset_u32(__base, __offset)
 318:/opt/st/stm32cubeclt_1.21.0/GNU-tools-for-STM32/lib/gcc/arm-none-eabi/14.3.1/include/arm_mve.h **** #define vldrbq_gather_offset_s32(__base, __offset) __arm_vldrbq_gather_offset_s32(__base, __offset)
 319:/opt/st/stm32cubeclt_1.21.0/GNU-tools-for-STM32/lib/gcc/arm-none-eabi/14.3.1/include/arm_mve.h **** #define vldrbq_s32(__base) __arm_vldrbq_s32(__base)
 320:/opt/st/stm32cubeclt_1.21.0/GNU-tools-for-STM32/lib/gcc/arm-none-eabi/14.3.1/include/arm_mve.h **** #define vldrbq_u32(__base) __arm_vldrbq_u32(__base)
 321:/opt/st/stm32cubeclt_1.21.0/GNU-tools-for-STM32/lib/gcc/arm-none-eabi/14.3.1/include/arm_mve.h **** #define vldrwq_gather_base_s32(__addr,  __offset) __arm_vldrwq_gather_base_s32(__addr,  __offset)
 322:/opt/st/stm32cubeclt_1.21.0/GNU-tools-for-STM32/lib/gcc/arm-none-eabi/14.3.1/include/arm_mve.h **** #define vldrwq_gather_base_u32(__addr,  __offset) __arm_vldrwq_gather_base_u32(__addr,  __offset)
 323:/opt/st/stm32cubeclt_1.21.0/GNU-tools-for-STM32/lib/gcc/arm-none-eabi/14.3.1/include/arm_mve.h **** #define vstrbq_p_s8( __addr, __value, __p) __arm_vstrbq_p_s8( __addr, __value, __p)
 324:/opt/st/stm32cubeclt_1.21.0/GNU-tools-for-STM32/lib/gcc/arm-none-eabi/14.3.1/include/arm_mve.h **** #define vstrbq_p_s32( __addr, __value, __p) __arm_vstrbq_p_s32( __addr, __value, __p)
 325:/opt/st/stm32cubeclt_1.21.0/GNU-tools-for-STM32/lib/gcc/arm-none-eabi/14.3.1/include/arm_mve.h **** #define vstrbq_p_s16( __addr, __value, __p) __arm_vstrbq_p_s16( __addr, __value, __p)
 326:/opt/st/stm32cubeclt_1.21.0/GNU-tools-for-STM32/lib/gcc/arm-none-eabi/14.3.1/include/arm_mve.h **** #define vstrbq_p_u8( __addr, __value, __p) __arm_vstrbq_p_u8( __addr, __value, __p)
 327:/opt/st/stm32cubeclt_1.21.0/GNU-tools-for-STM32/lib/gcc/arm-none-eabi/14.3.1/include/arm_mve.h **** #define vstrbq_p_u32( __addr, __value, __p) __arm_vstrbq_p_u32( __addr, __value, __p)
 328:/opt/st/stm32cubeclt_1.21.0/GNU-tools-for-STM32/lib/gcc/arm-none-eabi/14.3.1/include/arm_mve.h **** #define vstrbq_p_u16( __addr, __value, __p) __arm_vstrbq_p_u16( __addr, __value, __p)
 329:/opt/st/stm32cubeclt_1.21.0/GNU-tools-for-STM32/lib/gcc/arm-none-eabi/14.3.1/include/arm_mve.h **** #define vstrbq_scatter_offset_p_s8( __base, __offset, __value, __p) __arm_vstrbq_scatter_offset_p_s
 330:/opt/st/stm32cubeclt_1.21.0/GNU-tools-for-STM32/lib/gcc/arm-none-eabi/14.3.1/include/arm_mve.h **** #define vstrbq_scatter_offset_p_s32( __base, __offset, __value, __p) __arm_vstrbq_scatter_offset_p_
 331:/opt/st/stm32cubeclt_1.21.0/GNU-tools-for-STM32/lib/gcc/arm-none-eabi/14.3.1/include/arm_mve.h **** #define vstrbq_scatter_offset_p_s16( __base, __offset, __value, __p) __arm_vstrbq_scatter_offset_p_
 332:/opt/st/stm32cubeclt_1.21.0/GNU-tools-for-STM32/lib/gcc/arm-none-eabi/14.3.1/include/arm_mve.h **** #define vstrbq_scatter_offset_p_u8( __base, __offset, __value, __p) __arm_vstrbq_scatter_offset_p_u
 333:/opt/st/stm32cubeclt_1.21.0/GNU-tools-for-STM32/lib/gcc/arm-none-eabi/14.3.1/include/arm_mve.h **** #define vstrbq_scatter_offset_p_u32( __base, __offset, __value, __p) __arm_vstrbq_scatter_offset_p_
 334:/opt/st/stm32cubeclt_1.21.0/GNU-tools-for-STM32/lib/gcc/arm-none-eabi/14.3.1/include/arm_mve.h **** #define vstrbq_scatter_offset_p_u16( __base, __offset, __value, __p) __arm_vstrbq_scatter_offset_p_
 335:/opt/st/stm32cubeclt_1.21.0/GNU-tools-for-STM32/lib/gcc/arm-none-eabi/14.3.1/include/arm_mve.h **** #define vstrwq_scatter_base_p_s32(__addr,  __offset, __value, __p) __arm_vstrwq_scatter_base_p_s32(
 336:/opt/st/stm32cubeclt_1.21.0/GNU-tools-for-STM32/lib/gcc/arm-none-eabi/14.3.1/include/arm_mve.h **** #define vstrwq_scatter_base_p_u32(__addr,  __offset, __value, __p) __arm_vstrwq_scatter_base_p_u32(
 337:/opt/st/stm32cubeclt_1.21.0/GNU-tools-for-STM32/lib/gcc/arm-none-eabi/14.3.1/include/arm_mve.h **** #define vldrbq_gather_offset_z_s16(__base, __offset, __p) __arm_vldrbq_gather_offset_z_s16(__base, 
 338:/opt/st/stm32cubeclt_1.21.0/GNU-tools-for-STM32/lib/gcc/arm-none-eabi/14.3.1/include/arm_mve.h **** #define vldrbq_gather_offset_z_u8(__base, __offset, __p) __arm_vldrbq_gather_offset_z_u8(__base, __
 339:/opt/st/stm32cubeclt_1.21.0/GNU-tools-for-STM32/lib/gcc/arm-none-eabi/14.3.1/include/arm_mve.h **** #define vldrbq_gather_offset_z_s32(__base, __offset, __p) __arm_vldrbq_gather_offset_z_s32(__base, 
 340:/opt/st/stm32cubeclt_1.21.0/GNU-tools-for-STM32/lib/gcc/arm-none-eabi/14.3.1/include/arm_mve.h **** #define vldrbq_gather_offset_z_u16(__base, __offset, __p) __arm_vldrbq_gather_offset_z_u16(__base, 
 341:/opt/st/stm32cubeclt_1.21.0/GNU-tools-for-STM32/lib/gcc/arm-none-eabi/14.3.1/include/arm_mve.h **** #define vldrbq_gather_offset_z_u32(__base, __offset, __p) __arm_vldrbq_gather_offset_z_u32(__base, 
 342:/opt/st/stm32cubeclt_1.21.0/GNU-tools-for-STM32/lib/gcc/arm-none-eabi/14.3.1/include/arm_mve.h **** #define vldrbq_gather_offset_z_s8(__base, __offset, __p) __arm_vldrbq_gather_offset_z_s8(__base, __
 343:/opt/st/stm32cubeclt_1.21.0/GNU-tools-for-STM32/lib/gcc/arm-none-eabi/14.3.1/include/arm_mve.h **** #define vldrbq_z_s16(__base, __p) __arm_vldrbq_z_s16(__base, __p)
 344:/opt/st/stm32cubeclt_1.21.0/GNU-tools-for-STM32/lib/gcc/arm-none-eabi/14.3.1/include/arm_mve.h **** #define vldrbq_z_u8(__base, __p) __arm_vldrbq_z_u8(__base, __p)
 345:/opt/st/stm32cubeclt_1.21.0/GNU-tools-for-STM32/lib/gcc/arm-none-eabi/14.3.1/include/arm_mve.h **** #define vldrbq_z_s8(__base, __p) __arm_vldrbq_z_s8(__base, __p)
 346:/opt/st/stm32cubeclt_1.21.0/GNU-tools-for-STM32/lib/gcc/arm-none-eabi/14.3.1/include/arm_mve.h **** #define vldrbq_z_s32(__base, __p) __arm_vldrbq_z_s32(__base, __p)
 347:/opt/st/stm32cubeclt_1.21.0/GNU-tools-for-STM32/lib/gcc/arm-none-eabi/14.3.1/include/arm_mve.h **** #define vldrbq_z_u16(__base, __p) __arm_vldrbq_z_u16(__base, __p)
 348:/opt/st/stm32cubeclt_1.21.0/GNU-tools-for-STM32/lib/gcc/arm-none-eabi/14.3.1/include/arm_mve.h **** #define vldrbq_z_u32(__base, __p) __arm_vldrbq_z_u32(__base, __p)
 349:/opt/st/stm32cubeclt_1.21.0/GNU-tools-for-STM32/lib/gcc/arm-none-eabi/14.3.1/include/arm_mve.h **** #define vldrwq_gather_base_z_u32(__addr,  __offset, __p) __arm_vldrwq_gather_base_z_u32(__addr,  __
 350:/opt/st/stm32cubeclt_1.21.0/GNU-tools-for-STM32/lib/gcc/arm-none-eabi/14.3.1/include/arm_mve.h **** #define vldrwq_gather_base_z_s32(__addr,  __offset, __p) __arm_vldrwq_gather_base_z_s32(__addr,  __
 351:/opt/st/stm32cubeclt_1.21.0/GNU-tools-for-STM32/lib/gcc/arm-none-eabi/14.3.1/include/arm_mve.h **** #define vldrhq_gather_offset_s32(__base, __offset) __arm_vldrhq_gather_offset_s32(__base, __offset)
 352:/opt/st/stm32cubeclt_1.21.0/GNU-tools-for-STM32/lib/gcc/arm-none-eabi/14.3.1/include/arm_mve.h **** #define vldrhq_gather_offset_s16(__base, __offset) __arm_vldrhq_gather_offset_s16(__base, __offset)
 353:/opt/st/stm32cubeclt_1.21.0/GNU-tools-for-STM32/lib/gcc/arm-none-eabi/14.3.1/include/arm_mve.h **** #define vldrhq_gather_offset_u32(__base, __offset) __arm_vldrhq_gather_offset_u32(__base, __offset)
 354:/opt/st/stm32cubeclt_1.21.0/GNU-tools-for-STM32/lib/gcc/arm-none-eabi/14.3.1/include/arm_mve.h **** #define vldrhq_gather_offset_u16(__base, __offset) __arm_vldrhq_gather_offset_u16(__base, __offset)
 355:/opt/st/stm32cubeclt_1.21.0/GNU-tools-for-STM32/lib/gcc/arm-none-eabi/14.3.1/include/arm_mve.h **** #define vldrhq_gather_offset_z_s32(__base, __offset, __p) __arm_vldrhq_gather_offset_z_s32(__base, 
 356:/opt/st/stm32cubeclt_1.21.0/GNU-tools-for-STM32/lib/gcc/arm-none-eabi/14.3.1/include/arm_mve.h **** #define vldrhq_gather_offset_z_s16(__base, __offset, __p) __arm_vldrhq_gather_offset_z_s16(__base, 
ARM GAS  /tmp/ccfH7U9I.s 			page 9


 357:/opt/st/stm32cubeclt_1.21.0/GNU-tools-for-STM32/lib/gcc/arm-none-eabi/14.3.1/include/arm_mve.h **** #define vldrhq_gather_offset_z_u32(__base, __offset, __p) __arm_vldrhq_gather_offset_z_u32(__base, 
 358:/opt/st/stm32cubeclt_1.21.0/GNU-tools-for-STM32/lib/gcc/arm-none-eabi/14.3.1/include/arm_mve.h **** #define vldrhq_gather_offset_z_u16(__base, __offset, __p) __arm_vldrhq_gather_offset_z_u16(__base, 
 359:/opt/st/stm32cubeclt_1.21.0/GNU-tools-for-STM32/lib/gcc/arm-none-eabi/14.3.1/include/arm_mve.h **** #define vldrhq_gather_shifted_offset_s32(__base, __offset) __arm_vldrhq_gather_shifted_offset_s32(_
 360:/opt/st/stm32cubeclt_1.21.0/GNU-tools-for-STM32/lib/gcc/arm-none-eabi/14.3.1/include/arm_mve.h **** #define vldrhq_gather_shifted_offset_s16(__base, __offset) __arm_vldrhq_gather_shifted_offset_s16(_
 361:/opt/st/stm32cubeclt_1.21.0/GNU-tools-for-STM32/lib/gcc/arm-none-eabi/14.3.1/include/arm_mve.h **** #define vldrhq_gather_shifted_offset_u32(__base, __offset) __arm_vldrhq_gather_shifted_offset_u32(_
 362:/opt/st/stm32cubeclt_1.21.0/GNU-tools-for-STM32/lib/gcc/arm-none-eabi/14.3.1/include/arm_mve.h **** #define vldrhq_gather_shifted_offset_u16(__base, __offset) __arm_vldrhq_gather_shifted_offset_u16(_
 363:/opt/st/stm32cubeclt_1.21.0/GNU-tools-for-STM32/lib/gcc/arm-none-eabi/14.3.1/include/arm_mve.h **** #define vldrhq_gather_shifted_offset_z_s32(__base, __offset, __p) __arm_vldrhq_gather_shifted_offse
 364:/opt/st/stm32cubeclt_1.21.0/GNU-tools-for-STM32/lib/gcc/arm-none-eabi/14.3.1/include/arm_mve.h **** #define vldrhq_gather_shifted_offset_z_s16(__base, __offset, __p) __arm_vldrhq_gather_shifted_offse
 365:/opt/st/stm32cubeclt_1.21.0/GNU-tools-for-STM32/lib/gcc/arm-none-eabi/14.3.1/include/arm_mve.h **** #define vldrhq_gather_shifted_offset_z_u32(__base, __offset, __p) __arm_vldrhq_gather_shifted_offse
 366:/opt/st/stm32cubeclt_1.21.0/GNU-tools-for-STM32/lib/gcc/arm-none-eabi/14.3.1/include/arm_mve.h **** #define vldrhq_gather_shifted_offset_z_u16(__base, __offset, __p) __arm_vldrhq_gather_shifted_offse
 367:/opt/st/stm32cubeclt_1.21.0/GNU-tools-for-STM32/lib/gcc/arm-none-eabi/14.3.1/include/arm_mve.h **** #define vldrhq_s32(__base) __arm_vldrhq_s32(__base)
 368:/opt/st/stm32cubeclt_1.21.0/GNU-tools-for-STM32/lib/gcc/arm-none-eabi/14.3.1/include/arm_mve.h **** #define vldrhq_s16(__base) __arm_vldrhq_s16(__base)
 369:/opt/st/stm32cubeclt_1.21.0/GNU-tools-for-STM32/lib/gcc/arm-none-eabi/14.3.1/include/arm_mve.h **** #define vldrhq_u32(__base) __arm_vldrhq_u32(__base)
 370:/opt/st/stm32cubeclt_1.21.0/GNU-tools-for-STM32/lib/gcc/arm-none-eabi/14.3.1/include/arm_mve.h **** #define vldrhq_u16(__base) __arm_vldrhq_u16(__base)
 371:/opt/st/stm32cubeclt_1.21.0/GNU-tools-for-STM32/lib/gcc/arm-none-eabi/14.3.1/include/arm_mve.h **** #define vldrhq_z_s32(__base, __p) __arm_vldrhq_z_s32(__base, __p)
 372:/opt/st/stm32cubeclt_1.21.0/GNU-tools-for-STM32/lib/gcc/arm-none-eabi/14.3.1/include/arm_mve.h **** #define vldrhq_z_s16(__base, __p) __arm_vldrhq_z_s16(__base, __p)
 373:/opt/st/stm32cubeclt_1.21.0/GNU-tools-for-STM32/lib/gcc/arm-none-eabi/14.3.1/include/arm_mve.h **** #define vldrhq_z_u32(__base, __p) __arm_vldrhq_z_u32(__base, __p)
 374:/opt/st/stm32cubeclt_1.21.0/GNU-tools-for-STM32/lib/gcc/arm-none-eabi/14.3.1/include/arm_mve.h **** #define vldrhq_z_u16(__base, __p) __arm_vldrhq_z_u16(__base, __p)
 375:/opt/st/stm32cubeclt_1.21.0/GNU-tools-for-STM32/lib/gcc/arm-none-eabi/14.3.1/include/arm_mve.h **** #define vldrwq_s32(__base) __arm_vldrwq_s32(__base)
 376:/opt/st/stm32cubeclt_1.21.0/GNU-tools-for-STM32/lib/gcc/arm-none-eabi/14.3.1/include/arm_mve.h **** #define vldrwq_u32(__base) __arm_vldrwq_u32(__base)
 377:/opt/st/stm32cubeclt_1.21.0/GNU-tools-for-STM32/lib/gcc/arm-none-eabi/14.3.1/include/arm_mve.h **** #define vldrwq_z_s32(__base, __p) __arm_vldrwq_z_s32(__base, __p)
 378:/opt/st/stm32cubeclt_1.21.0/GNU-tools-for-STM32/lib/gcc/arm-none-eabi/14.3.1/include/arm_mve.h **** #define vldrwq_z_u32(__base, __p) __arm_vldrwq_z_u32(__base, __p)
 379:/opt/st/stm32cubeclt_1.21.0/GNU-tools-for-STM32/lib/gcc/arm-none-eabi/14.3.1/include/arm_mve.h **** #define vldrhq_f16(__base) __arm_vldrhq_f16(__base)
 380:/opt/st/stm32cubeclt_1.21.0/GNU-tools-for-STM32/lib/gcc/arm-none-eabi/14.3.1/include/arm_mve.h **** #define vldrhq_z_f16(__base, __p) __arm_vldrhq_z_f16(__base, __p)
 381:/opt/st/stm32cubeclt_1.21.0/GNU-tools-for-STM32/lib/gcc/arm-none-eabi/14.3.1/include/arm_mve.h **** #define vldrwq_f32(__base) __arm_vldrwq_f32(__base)
 382:/opt/st/stm32cubeclt_1.21.0/GNU-tools-for-STM32/lib/gcc/arm-none-eabi/14.3.1/include/arm_mve.h **** #define vldrwq_z_f32(__base, __p) __arm_vldrwq_z_f32(__base, __p)
 383:/opt/st/stm32cubeclt_1.21.0/GNU-tools-for-STM32/lib/gcc/arm-none-eabi/14.3.1/include/arm_mve.h **** #define vldrdq_gather_base_s64(__addr,  __offset) __arm_vldrdq_gather_base_s64(__addr,  __offset)
 384:/opt/st/stm32cubeclt_1.21.0/GNU-tools-for-STM32/lib/gcc/arm-none-eabi/14.3.1/include/arm_mve.h **** #define vldrdq_gather_base_u64(__addr,  __offset) __arm_vldrdq_gather_base_u64(__addr,  __offset)
 385:/opt/st/stm32cubeclt_1.21.0/GNU-tools-for-STM32/lib/gcc/arm-none-eabi/14.3.1/include/arm_mve.h **** #define vldrdq_gather_base_z_s64(__addr,  __offset, __p) __arm_vldrdq_gather_base_z_s64(__addr,  __
 386:/opt/st/stm32cubeclt_1.21.0/GNU-tools-for-STM32/lib/gcc/arm-none-eabi/14.3.1/include/arm_mve.h **** #define vldrdq_gather_base_z_u64(__addr,  __offset, __p) __arm_vldrdq_gather_base_z_u64(__addr,  __
 387:/opt/st/stm32cubeclt_1.21.0/GNU-tools-for-STM32/lib/gcc/arm-none-eabi/14.3.1/include/arm_mve.h **** #define vldrdq_gather_offset_s64(__base, __offset) __arm_vldrdq_gather_offset_s64(__base, __offset)
 388:/opt/st/stm32cubeclt_1.21.0/GNU-tools-for-STM32/lib/gcc/arm-none-eabi/14.3.1/include/arm_mve.h **** #define vldrdq_gather_offset_u64(__base, __offset) __arm_vldrdq_gather_offset_u64(__base, __offset)
 389:/opt/st/stm32cubeclt_1.21.0/GNU-tools-for-STM32/lib/gcc/arm-none-eabi/14.3.1/include/arm_mve.h **** #define vldrdq_gather_offset_z_s64(__base, __offset, __p) __arm_vldrdq_gather_offset_z_s64(__base, 
 390:/opt/st/stm32cubeclt_1.21.0/GNU-tools-for-STM32/lib/gcc/arm-none-eabi/14.3.1/include/arm_mve.h **** #define vldrdq_gather_offset_z_u64(__base, __offset, __p) __arm_vldrdq_gather_offset_z_u64(__base, 
 391:/opt/st/stm32cubeclt_1.21.0/GNU-tools-for-STM32/lib/gcc/arm-none-eabi/14.3.1/include/arm_mve.h **** #define vldrdq_gather_shifted_offset_s64(__base, __offset) __arm_vldrdq_gather_shifted_offset_s64(_
 392:/opt/st/stm32cubeclt_1.21.0/GNU-tools-for-STM32/lib/gcc/arm-none-eabi/14.3.1/include/arm_mve.h **** #define vldrdq_gather_shifted_offset_u64(__base, __offset) __arm_vldrdq_gather_shifted_offset_u64(_
 393:/opt/st/stm32cubeclt_1.21.0/GNU-tools-for-STM32/lib/gcc/arm-none-eabi/14.3.1/include/arm_mve.h **** #define vldrdq_gather_shifted_offset_z_s64(__base, __offset, __p) __arm_vldrdq_gather_shifted_offse
 394:/opt/st/stm32cubeclt_1.21.0/GNU-tools-for-STM32/lib/gcc/arm-none-eabi/14.3.1/include/arm_mve.h **** #define vldrdq_gather_shifted_offset_z_u64(__base, __offset, __p) __arm_vldrdq_gather_shifted_offse
 395:/opt/st/stm32cubeclt_1.21.0/GNU-tools-for-STM32/lib/gcc/arm-none-eabi/14.3.1/include/arm_mve.h **** #define vldrhq_gather_offset_f16(__base, __offset) __arm_vldrhq_gather_offset_f16(__base, __offset)
 396:/opt/st/stm32cubeclt_1.21.0/GNU-tools-for-STM32/lib/gcc/arm-none-eabi/14.3.1/include/arm_mve.h **** #define vldrhq_gather_offset_z_f16(__base, __offset, __p) __arm_vldrhq_gather_offset_z_f16(__base, 
 397:/opt/st/stm32cubeclt_1.21.0/GNU-tools-for-STM32/lib/gcc/arm-none-eabi/14.3.1/include/arm_mve.h **** #define vldrhq_gather_shifted_offset_f16(__base, __offset) __arm_vldrhq_gather_shifted_offset_f16(_
 398:/opt/st/stm32cubeclt_1.21.0/GNU-tools-for-STM32/lib/gcc/arm-none-eabi/14.3.1/include/arm_mve.h **** #define vldrhq_gather_shifted_offset_z_f16(__base, __offset, __p) __arm_vldrhq_gather_shifted_offse
 399:/opt/st/stm32cubeclt_1.21.0/GNU-tools-for-STM32/lib/gcc/arm-none-eabi/14.3.1/include/arm_mve.h **** #define vldrwq_gather_base_f32(__addr,  __offset) __arm_vldrwq_gather_base_f32(__addr,  __offset)
 400:/opt/st/stm32cubeclt_1.21.0/GNU-tools-for-STM32/lib/gcc/arm-none-eabi/14.3.1/include/arm_mve.h **** #define vldrwq_gather_base_z_f32(__addr,  __offset, __p) __arm_vldrwq_gather_base_z_f32(__addr,  __
 401:/opt/st/stm32cubeclt_1.21.0/GNU-tools-for-STM32/lib/gcc/arm-none-eabi/14.3.1/include/arm_mve.h **** #define vldrwq_gather_offset_f32(__base, __offset) __arm_vldrwq_gather_offset_f32(__base, __offset)
 402:/opt/st/stm32cubeclt_1.21.0/GNU-tools-for-STM32/lib/gcc/arm-none-eabi/14.3.1/include/arm_mve.h **** #define vldrwq_gather_offset_s32(__base, __offset) __arm_vldrwq_gather_offset_s32(__base, __offset)
 403:/opt/st/stm32cubeclt_1.21.0/GNU-tools-for-STM32/lib/gcc/arm-none-eabi/14.3.1/include/arm_mve.h **** #define vldrwq_gather_offset_u32(__base, __offset) __arm_vldrwq_gather_offset_u32(__base, __offset)
 404:/opt/st/stm32cubeclt_1.21.0/GNU-tools-for-STM32/lib/gcc/arm-none-eabi/14.3.1/include/arm_mve.h **** #define vldrwq_gather_offset_z_f32(__base, __offset, __p) __arm_vldrwq_gather_offset_z_f32(__base, 
 405:/opt/st/stm32cubeclt_1.21.0/GNU-tools-for-STM32/lib/gcc/arm-none-eabi/14.3.1/include/arm_mve.h **** #define vldrwq_gather_offset_z_s32(__base, __offset, __p) __arm_vldrwq_gather_offset_z_s32(__base, 
 406:/opt/st/stm32cubeclt_1.21.0/GNU-tools-for-STM32/lib/gcc/arm-none-eabi/14.3.1/include/arm_mve.h **** #define vldrwq_gather_offset_z_u32(__base, __offset, __p) __arm_vldrwq_gather_offset_z_u32(__base, 
 407:/opt/st/stm32cubeclt_1.21.0/GNU-tools-for-STM32/lib/gcc/arm-none-eabi/14.3.1/include/arm_mve.h **** #define vldrwq_gather_shifted_offset_f32(__base, __offset) __arm_vldrwq_gather_shifted_offset_f32(_
 408:/opt/st/stm32cubeclt_1.21.0/GNU-tools-for-STM32/lib/gcc/arm-none-eabi/14.3.1/include/arm_mve.h **** #define vldrwq_gather_shifted_offset_s32(__base, __offset) __arm_vldrwq_gather_shifted_offset_s32(_
 409:/opt/st/stm32cubeclt_1.21.0/GNU-tools-for-STM32/lib/gcc/arm-none-eabi/14.3.1/include/arm_mve.h **** #define vldrwq_gather_shifted_offset_u32(__base, __offset) __arm_vldrwq_gather_shifted_offset_u32(_
 410:/opt/st/stm32cubeclt_1.21.0/GNU-tools-for-STM32/lib/gcc/arm-none-eabi/14.3.1/include/arm_mve.h **** #define vldrwq_gather_shifted_offset_z_f32(__base, __offset, __p) __arm_vldrwq_gather_shifted_offse
 411:/opt/st/stm32cubeclt_1.21.0/GNU-tools-for-STM32/lib/gcc/arm-none-eabi/14.3.1/include/arm_mve.h **** #define vldrwq_gather_shifted_offset_z_s32(__base, __offset, __p) __arm_vldrwq_gather_shifted_offse
 412:/opt/st/stm32cubeclt_1.21.0/GNU-tools-for-STM32/lib/gcc/arm-none-eabi/14.3.1/include/arm_mve.h **** #define vldrwq_gather_shifted_offset_z_u32(__base, __offset, __p) __arm_vldrwq_gather_shifted_offse
 413:/opt/st/stm32cubeclt_1.21.0/GNU-tools-for-STM32/lib/gcc/arm-none-eabi/14.3.1/include/arm_mve.h **** #define vstrhq_f16(__addr, __value) __arm_vstrhq_f16(__addr, __value)
ARM GAS  /tmp/ccfH7U9I.s 			page 10


 414:/opt/st/stm32cubeclt_1.21.0/GNU-tools-for-STM32/lib/gcc/arm-none-eabi/14.3.1/include/arm_mve.h **** #define vstrhq_scatter_offset_s32( __base, __offset, __value) __arm_vstrhq_scatter_offset_s32( __ba
 415:/opt/st/stm32cubeclt_1.21.0/GNU-tools-for-STM32/lib/gcc/arm-none-eabi/14.3.1/include/arm_mve.h **** #define vstrhq_scatter_offset_s16( __base, __offset, __value) __arm_vstrhq_scatter_offset_s16( __ba
 416:/opt/st/stm32cubeclt_1.21.0/GNU-tools-for-STM32/lib/gcc/arm-none-eabi/14.3.1/include/arm_mve.h **** #define vstrhq_scatter_offset_u32( __base, __offset, __value) __arm_vstrhq_scatter_offset_u32( __ba
 417:/opt/st/stm32cubeclt_1.21.0/GNU-tools-for-STM32/lib/gcc/arm-none-eabi/14.3.1/include/arm_mve.h **** #define vstrhq_scatter_offset_u16( __base, __offset, __value) __arm_vstrhq_scatter_offset_u16( __ba
 418:/opt/st/stm32cubeclt_1.21.0/GNU-tools-for-STM32/lib/gcc/arm-none-eabi/14.3.1/include/arm_mve.h **** #define vstrhq_scatter_offset_p_s32( __base, __offset, __value, __p) __arm_vstrhq_scatter_offset_p_
 419:/opt/st/stm32cubeclt_1.21.0/GNU-tools-for-STM32/lib/gcc/arm-none-eabi/14.3.1/include/arm_mve.h **** #define vstrhq_scatter_offset_p_s16( __base, __offset, __value, __p) __arm_vstrhq_scatter_offset_p_
 420:/opt/st/stm32cubeclt_1.21.0/GNU-tools-for-STM32/lib/gcc/arm-none-eabi/14.3.1/include/arm_mve.h **** #define vstrhq_scatter_offset_p_u32( __base, __offset, __value, __p) __arm_vstrhq_scatter_offset_p_
 421:/opt/st/stm32cubeclt_1.21.0/GNU-tools-for-STM32/lib/gcc/arm-none-eabi/14.3.1/include/arm_mve.h **** #define vstrhq_scatter_offset_p_u16( __base, __offset, __value, __p) __arm_vstrhq_scatter_offset_p_
 422:/opt/st/stm32cubeclt_1.21.0/GNU-tools-for-STM32/lib/gcc/arm-none-eabi/14.3.1/include/arm_mve.h **** #define vstrhq_scatter_shifted_offset_s32( __base, __offset, __value) __arm_vstrhq_scatter_shifted_
 423:/opt/st/stm32cubeclt_1.21.0/GNU-tools-for-STM32/lib/gcc/arm-none-eabi/14.3.1/include/arm_mve.h **** #define vstrhq_scatter_shifted_offset_s16( __base, __offset, __value) __arm_vstrhq_scatter_shifted_
 424:/opt/st/stm32cubeclt_1.21.0/GNU-tools-for-STM32/lib/gcc/arm-none-eabi/14.3.1/include/arm_mve.h **** #define vstrhq_scatter_shifted_offset_u32( __base, __offset, __value) __arm_vstrhq_scatter_shifted_
 425:/opt/st/stm32cubeclt_1.21.0/GNU-tools-for-STM32/lib/gcc/arm-none-eabi/14.3.1/include/arm_mve.h **** #define vstrhq_scatter_shifted_offset_u16( __base, __offset, __value) __arm_vstrhq_scatter_shifted_
 426:/opt/st/stm32cubeclt_1.21.0/GNU-tools-for-STM32/lib/gcc/arm-none-eabi/14.3.1/include/arm_mve.h **** #define vstrhq_scatter_shifted_offset_p_s32( __base, __offset, __value, __p) __arm_vstrhq_scatter_s
 427:/opt/st/stm32cubeclt_1.21.0/GNU-tools-for-STM32/lib/gcc/arm-none-eabi/14.3.1/include/arm_mve.h **** #define vstrhq_scatter_shifted_offset_p_s16( __base, __offset, __value, __p) __arm_vstrhq_scatter_s
 428:/opt/st/stm32cubeclt_1.21.0/GNU-tools-for-STM32/lib/gcc/arm-none-eabi/14.3.1/include/arm_mve.h **** #define vstrhq_scatter_shifted_offset_p_u32( __base, __offset, __value, __p) __arm_vstrhq_scatter_s
 429:/opt/st/stm32cubeclt_1.21.0/GNU-tools-for-STM32/lib/gcc/arm-none-eabi/14.3.1/include/arm_mve.h **** #define vstrhq_scatter_shifted_offset_p_u16( __base, __offset, __value, __p) __arm_vstrhq_scatter_s
 430:/opt/st/stm32cubeclt_1.21.0/GNU-tools-for-STM32/lib/gcc/arm-none-eabi/14.3.1/include/arm_mve.h **** #define vstrhq_s32(__addr, __value) __arm_vstrhq_s32(__addr, __value)
 431:/opt/st/stm32cubeclt_1.21.0/GNU-tools-for-STM32/lib/gcc/arm-none-eabi/14.3.1/include/arm_mve.h **** #define vstrhq_s16(__addr, __value) __arm_vstrhq_s16(__addr, __value)
 432:/opt/st/stm32cubeclt_1.21.0/GNU-tools-for-STM32/lib/gcc/arm-none-eabi/14.3.1/include/arm_mve.h **** #define vstrhq_u32(__addr, __value) __arm_vstrhq_u32(__addr, __value)
 433:/opt/st/stm32cubeclt_1.21.0/GNU-tools-for-STM32/lib/gcc/arm-none-eabi/14.3.1/include/arm_mve.h **** #define vstrhq_u16(__addr, __value) __arm_vstrhq_u16(__addr, __value)
 434:/opt/st/stm32cubeclt_1.21.0/GNU-tools-for-STM32/lib/gcc/arm-none-eabi/14.3.1/include/arm_mve.h **** #define vstrhq_p_f16(__addr, __value, __p) __arm_vstrhq_p_f16(__addr, __value, __p)
 435:/opt/st/stm32cubeclt_1.21.0/GNU-tools-for-STM32/lib/gcc/arm-none-eabi/14.3.1/include/arm_mve.h **** #define vstrhq_p_s32(__addr, __value, __p) __arm_vstrhq_p_s32(__addr, __value, __p)
 436:/opt/st/stm32cubeclt_1.21.0/GNU-tools-for-STM32/lib/gcc/arm-none-eabi/14.3.1/include/arm_mve.h **** #define vstrhq_p_s16(__addr, __value, __p) __arm_vstrhq_p_s16(__addr, __value, __p)
 437:/opt/st/stm32cubeclt_1.21.0/GNU-tools-for-STM32/lib/gcc/arm-none-eabi/14.3.1/include/arm_mve.h **** #define vstrhq_p_u32(__addr, __value, __p) __arm_vstrhq_p_u32(__addr, __value, __p)
 438:/opt/st/stm32cubeclt_1.21.0/GNU-tools-for-STM32/lib/gcc/arm-none-eabi/14.3.1/include/arm_mve.h **** #define vstrhq_p_u16(__addr, __value, __p) __arm_vstrhq_p_u16(__addr, __value, __p)
 439:/opt/st/stm32cubeclt_1.21.0/GNU-tools-for-STM32/lib/gcc/arm-none-eabi/14.3.1/include/arm_mve.h **** #define vstrwq_f32(__addr, __value) __arm_vstrwq_f32(__addr, __value)
 440:/opt/st/stm32cubeclt_1.21.0/GNU-tools-for-STM32/lib/gcc/arm-none-eabi/14.3.1/include/arm_mve.h **** #define vstrwq_s32(__addr, __value) __arm_vstrwq_s32(__addr, __value)
 441:/opt/st/stm32cubeclt_1.21.0/GNU-tools-for-STM32/lib/gcc/arm-none-eabi/14.3.1/include/arm_mve.h **** #define vstrwq_u32(__addr, __value) __arm_vstrwq_u32(__addr, __value)
 442:/opt/st/stm32cubeclt_1.21.0/GNU-tools-for-STM32/lib/gcc/arm-none-eabi/14.3.1/include/arm_mve.h **** #define vstrwq_p_f32(__addr, __value, __p) __arm_vstrwq_p_f32(__addr, __value, __p)
 443:/opt/st/stm32cubeclt_1.21.0/GNU-tools-for-STM32/lib/gcc/arm-none-eabi/14.3.1/include/arm_mve.h **** #define vstrwq_p_s32(__addr, __value, __p) __arm_vstrwq_p_s32(__addr, __value, __p)
 444:/opt/st/stm32cubeclt_1.21.0/GNU-tools-for-STM32/lib/gcc/arm-none-eabi/14.3.1/include/arm_mve.h **** #define vstrwq_p_u32(__addr, __value, __p) __arm_vstrwq_p_u32(__addr, __value, __p)
 445:/opt/st/stm32cubeclt_1.21.0/GNU-tools-for-STM32/lib/gcc/arm-none-eabi/14.3.1/include/arm_mve.h **** #define vstrdq_scatter_base_p_s64(__addr, __offset, __value, __p) __arm_vstrdq_scatter_base_p_s64(_
 446:/opt/st/stm32cubeclt_1.21.0/GNU-tools-for-STM32/lib/gcc/arm-none-eabi/14.3.1/include/arm_mve.h **** #define vstrdq_scatter_base_p_u64(__addr, __offset, __value, __p) __arm_vstrdq_scatter_base_p_u64(_
 447:/opt/st/stm32cubeclt_1.21.0/GNU-tools-for-STM32/lib/gcc/arm-none-eabi/14.3.1/include/arm_mve.h **** #define vstrdq_scatter_base_s64(__addr, __offset, __value) __arm_vstrdq_scatter_base_s64(__addr, __
 448:/opt/st/stm32cubeclt_1.21.0/GNU-tools-for-STM32/lib/gcc/arm-none-eabi/14.3.1/include/arm_mve.h **** #define vstrdq_scatter_base_u64(__addr, __offset, __value) __arm_vstrdq_scatter_base_u64(__addr, __
 449:/opt/st/stm32cubeclt_1.21.0/GNU-tools-for-STM32/lib/gcc/arm-none-eabi/14.3.1/include/arm_mve.h **** #define vstrdq_scatter_offset_p_s64(__base, __offset, __value, __p) __arm_vstrdq_scatter_offset_p_s
 450:/opt/st/stm32cubeclt_1.21.0/GNU-tools-for-STM32/lib/gcc/arm-none-eabi/14.3.1/include/arm_mve.h **** #define vstrdq_scatter_offset_p_u64(__base, __offset, __value, __p) __arm_vstrdq_scatter_offset_p_u
 451:/opt/st/stm32cubeclt_1.21.0/GNU-tools-for-STM32/lib/gcc/arm-none-eabi/14.3.1/include/arm_mve.h **** #define vstrdq_scatter_offset_s64(__base, __offset, __value) __arm_vstrdq_scatter_offset_s64(__base
 452:/opt/st/stm32cubeclt_1.21.0/GNU-tools-for-STM32/lib/gcc/arm-none-eabi/14.3.1/include/arm_mve.h **** #define vstrdq_scatter_offset_u64(__base, __offset, __value) __arm_vstrdq_scatter_offset_u64(__base
 453:/opt/st/stm32cubeclt_1.21.0/GNU-tools-for-STM32/lib/gcc/arm-none-eabi/14.3.1/include/arm_mve.h **** #define vstrdq_scatter_shifted_offset_p_s64(__base, __offset, __value, __p) __arm_vstrdq_scatter_sh
 454:/opt/st/stm32cubeclt_1.21.0/GNU-tools-for-STM32/lib/gcc/arm-none-eabi/14.3.1/include/arm_mve.h **** #define vstrdq_scatter_shifted_offset_p_u64(__base, __offset, __value, __p) __arm_vstrdq_scatter_sh
 455:/opt/st/stm32cubeclt_1.21.0/GNU-tools-for-STM32/lib/gcc/arm-none-eabi/14.3.1/include/arm_mve.h **** #define vstrdq_scatter_shifted_offset_s64(__base, __offset, __value) __arm_vstrdq_scatter_shifted_o
 456:/opt/st/stm32cubeclt_1.21.0/GNU-tools-for-STM32/lib/gcc/arm-none-eabi/14.3.1/include/arm_mve.h **** #define vstrdq_scatter_shifted_offset_u64(__base, __offset, __value) __arm_vstrdq_scatter_shifted_o
 457:/opt/st/stm32cubeclt_1.21.0/GNU-tools-for-STM32/lib/gcc/arm-none-eabi/14.3.1/include/arm_mve.h **** #define vstrhq_scatter_offset_f16(__base, __offset, __value) __arm_vstrhq_scatter_offset_f16(__base
 458:/opt/st/stm32cubeclt_1.21.0/GNU-tools-for-STM32/lib/gcc/arm-none-eabi/14.3.1/include/arm_mve.h **** #define vstrhq_scatter_offset_p_f16(__base, __offset, __value, __p) __arm_vstrhq_scatter_offset_p_f
 459:/opt/st/stm32cubeclt_1.21.0/GNU-tools-for-STM32/lib/gcc/arm-none-eabi/14.3.1/include/arm_mve.h **** #define vstrhq_scatter_shifted_offset_f16(__base, __offset, __value) __arm_vstrhq_scatter_shifted_o
 460:/opt/st/stm32cubeclt_1.21.0/GNU-tools-for-STM32/lib/gcc/arm-none-eabi/14.3.1/include/arm_mve.h **** #define vstrhq_scatter_shifted_offset_p_f16(__base, __offset, __value, __p) __arm_vstrhq_scatter_sh
 461:/opt/st/stm32cubeclt_1.21.0/GNU-tools-for-STM32/lib/gcc/arm-none-eabi/14.3.1/include/arm_mve.h **** #define vstrwq_scatter_base_f32(__addr, __offset, __value) __arm_vstrwq_scatter_base_f32(__addr, __
 462:/opt/st/stm32cubeclt_1.21.0/GNU-tools-for-STM32/lib/gcc/arm-none-eabi/14.3.1/include/arm_mve.h **** #define vstrwq_scatter_base_p_f32(__addr, __offset, __value, __p) __arm_vstrwq_scatter_base_p_f32(_
 463:/opt/st/stm32cubeclt_1.21.0/GNU-tools-for-STM32/lib/gcc/arm-none-eabi/14.3.1/include/arm_mve.h **** #define vstrwq_scatter_offset_f32(__base, __offset, __value) __arm_vstrwq_scatter_offset_f32(__base
 464:/opt/st/stm32cubeclt_1.21.0/GNU-tools-for-STM32/lib/gcc/arm-none-eabi/14.3.1/include/arm_mve.h **** #define vstrwq_scatter_offset_p_f32(__base, __offset, __value, __p) __arm_vstrwq_scatter_offset_p_f
 465:/opt/st/stm32cubeclt_1.21.0/GNU-tools-for-STM32/lib/gcc/arm-none-eabi/14.3.1/include/arm_mve.h **** #define vstrwq_scatter_offset_p_s32(__base, __offset, __value, __p) __arm_vstrwq_scatter_offset_p_s
 466:/opt/st/stm32cubeclt_1.21.0/GNU-tools-for-STM32/lib/gcc/arm-none-eabi/14.3.1/include/arm_mve.h **** #define vstrwq_scatter_offset_p_u32(__base, __offset, __value, __p) __arm_vstrwq_scatter_offset_p_u
 467:/opt/st/stm32cubeclt_1.21.0/GNU-tools-for-STM32/lib/gcc/arm-none-eabi/14.3.1/include/arm_mve.h **** #define vstrwq_scatter_offset_s32(__base, __offset, __value) __arm_vstrwq_scatter_offset_s32(__base
 468:/opt/st/stm32cubeclt_1.21.0/GNU-tools-for-STM32/lib/gcc/arm-none-eabi/14.3.1/include/arm_mve.h **** #define vstrwq_scatter_offset_u32(__base, __offset, __value) __arm_vstrwq_scatter_offset_u32(__base
 469:/opt/st/stm32cubeclt_1.21.0/GNU-tools-for-STM32/lib/gcc/arm-none-eabi/14.3.1/include/arm_mve.h **** #define vstrwq_scatter_shifted_offset_f32(__base, __offset, __value) __arm_vstrwq_scatter_shifted_o
 470:/opt/st/stm32cubeclt_1.21.0/GNU-tools-for-STM32/lib/gcc/arm-none-eabi/14.3.1/include/arm_mve.h **** #define vstrwq_scatter_shifted_offset_p_f32(__base, __offset, __value, __p) __arm_vstrwq_scatter_sh
ARM GAS  /tmp/ccfH7U9I.s 			page 11


 471:/opt/st/stm32cubeclt_1.21.0/GNU-tools-for-STM32/lib/gcc/arm-none-eabi/14.3.1/include/arm_mve.h **** #define vstrwq_scatter_shifted_offset_p_s32(__base, __offset, __value, __p) __arm_vstrwq_scatter_sh
 472:/opt/st/stm32cubeclt_1.21.0/GNU-tools-for-STM32/lib/gcc/arm-none-eabi/14.3.1/include/arm_mve.h **** #define vstrwq_scatter_shifted_offset_p_u32(__base, __offset, __value, __p) __arm_vstrwq_scatter_sh
 473:/opt/st/stm32cubeclt_1.21.0/GNU-tools-for-STM32/lib/gcc/arm-none-eabi/14.3.1/include/arm_mve.h **** #define vstrwq_scatter_shifted_offset_s32(__base, __offset, __value) __arm_vstrwq_scatter_shifted_o
 474:/opt/st/stm32cubeclt_1.21.0/GNU-tools-for-STM32/lib/gcc/arm-none-eabi/14.3.1/include/arm_mve.h **** #define vstrwq_scatter_shifted_offset_u32(__base, __offset, __value) __arm_vstrwq_scatter_shifted_o
 475:/opt/st/stm32cubeclt_1.21.0/GNU-tools-for-STM32/lib/gcc/arm-none-eabi/14.3.1/include/arm_mve.h **** #define vuninitializedq_u8(void) __arm_vuninitializedq_u8(void)
 476:/opt/st/stm32cubeclt_1.21.0/GNU-tools-for-STM32/lib/gcc/arm-none-eabi/14.3.1/include/arm_mve.h **** #define vuninitializedq_u16(void) __arm_vuninitializedq_u16(void)
 477:/opt/st/stm32cubeclt_1.21.0/GNU-tools-for-STM32/lib/gcc/arm-none-eabi/14.3.1/include/arm_mve.h **** #define vuninitializedq_u32(void) __arm_vuninitializedq_u32(void)
 478:/opt/st/stm32cubeclt_1.21.0/GNU-tools-for-STM32/lib/gcc/arm-none-eabi/14.3.1/include/arm_mve.h **** #define vuninitializedq_u64(void) __arm_vuninitializedq_u64(void)
 479:/opt/st/stm32cubeclt_1.21.0/GNU-tools-for-STM32/lib/gcc/arm-none-eabi/14.3.1/include/arm_mve.h **** #define vuninitializedq_s8(void) __arm_vuninitializedq_s8(void)
 480:/opt/st/stm32cubeclt_1.21.0/GNU-tools-for-STM32/lib/gcc/arm-none-eabi/14.3.1/include/arm_mve.h **** #define vuninitializedq_s16(void) __arm_vuninitializedq_s16(void)
 481:/opt/st/stm32cubeclt_1.21.0/GNU-tools-for-STM32/lib/gcc/arm-none-eabi/14.3.1/include/arm_mve.h **** #define vuninitializedq_s32(void) __arm_vuninitializedq_s32(void)
 482:/opt/st/stm32cubeclt_1.21.0/GNU-tools-for-STM32/lib/gcc/arm-none-eabi/14.3.1/include/arm_mve.h **** #define vuninitializedq_s64(void) __arm_vuninitializedq_s64(void)
 483:/opt/st/stm32cubeclt_1.21.0/GNU-tools-for-STM32/lib/gcc/arm-none-eabi/14.3.1/include/arm_mve.h **** #define vuninitializedq_f16(void) __arm_vuninitializedq_f16(void)
 484:/opt/st/stm32cubeclt_1.21.0/GNU-tools-for-STM32/lib/gcc/arm-none-eabi/14.3.1/include/arm_mve.h **** #define vuninitializedq_f32(void) __arm_vuninitializedq_f32(void)
 485:/opt/st/stm32cubeclt_1.21.0/GNU-tools-for-STM32/lib/gcc/arm-none-eabi/14.3.1/include/arm_mve.h **** #define vddupq_m_n_u8(__inactive, __a,  __imm, __p) __arm_vddupq_m_n_u8(__inactive, __a,  __imm, __
 486:/opt/st/stm32cubeclt_1.21.0/GNU-tools-for-STM32/lib/gcc/arm-none-eabi/14.3.1/include/arm_mve.h **** #define vddupq_m_n_u32(__inactive, __a,  __imm, __p) __arm_vddupq_m_n_u32(__inactive, __a,  __imm, 
 487:/opt/st/stm32cubeclt_1.21.0/GNU-tools-for-STM32/lib/gcc/arm-none-eabi/14.3.1/include/arm_mve.h **** #define vddupq_m_n_u16(__inactive, __a,  __imm, __p) __arm_vddupq_m_n_u16(__inactive, __a,  __imm, 
 488:/opt/st/stm32cubeclt_1.21.0/GNU-tools-for-STM32/lib/gcc/arm-none-eabi/14.3.1/include/arm_mve.h **** #define vddupq_m_wb_u8(__inactive,  __a,  __imm, __p) __arm_vddupq_m_wb_u8(__inactive,  __a,  __imm
 489:/opt/st/stm32cubeclt_1.21.0/GNU-tools-for-STM32/lib/gcc/arm-none-eabi/14.3.1/include/arm_mve.h **** #define vddupq_m_wb_u16(__inactive,  __a,  __imm, __p) __arm_vddupq_m_wb_u16(__inactive,  __a,  __i
 490:/opt/st/stm32cubeclt_1.21.0/GNU-tools-for-STM32/lib/gcc/arm-none-eabi/14.3.1/include/arm_mve.h **** #define vddupq_m_wb_u32(__inactive,  __a,  __imm, __p) __arm_vddupq_m_wb_u32(__inactive,  __a,  __i
 491:/opt/st/stm32cubeclt_1.21.0/GNU-tools-for-STM32/lib/gcc/arm-none-eabi/14.3.1/include/arm_mve.h **** #define vddupq_n_u8(__a,  __imm) __arm_vddupq_n_u8(__a,  __imm)
 492:/opt/st/stm32cubeclt_1.21.0/GNU-tools-for-STM32/lib/gcc/arm-none-eabi/14.3.1/include/arm_mve.h **** #define vddupq_n_u32(__a,  __imm) __arm_vddupq_n_u32(__a,  __imm)
 493:/opt/st/stm32cubeclt_1.21.0/GNU-tools-for-STM32/lib/gcc/arm-none-eabi/14.3.1/include/arm_mve.h **** #define vddupq_n_u16(__a,  __imm) __arm_vddupq_n_u16(__a,  __imm)
 494:/opt/st/stm32cubeclt_1.21.0/GNU-tools-for-STM32/lib/gcc/arm-none-eabi/14.3.1/include/arm_mve.h **** #define vddupq_wb_u8( __a,  __imm) __arm_vddupq_wb_u8( __a,  __imm)
 495:/opt/st/stm32cubeclt_1.21.0/GNU-tools-for-STM32/lib/gcc/arm-none-eabi/14.3.1/include/arm_mve.h **** #define vddupq_wb_u16( __a,  __imm) __arm_vddupq_wb_u16( __a,  __imm)
 496:/opt/st/stm32cubeclt_1.21.0/GNU-tools-for-STM32/lib/gcc/arm-none-eabi/14.3.1/include/arm_mve.h **** #define vddupq_wb_u32( __a,  __imm) __arm_vddupq_wb_u32( __a,  __imm)
 497:/opt/st/stm32cubeclt_1.21.0/GNU-tools-for-STM32/lib/gcc/arm-none-eabi/14.3.1/include/arm_mve.h **** #define vdwdupq_m_n_u8(__inactive, __a, __b,  __imm, __p) __arm_vdwdupq_m_n_u8(__inactive, __a, __b
 498:/opt/st/stm32cubeclt_1.21.0/GNU-tools-for-STM32/lib/gcc/arm-none-eabi/14.3.1/include/arm_mve.h **** #define vdwdupq_m_n_u32(__inactive, __a, __b,  __imm, __p) __arm_vdwdupq_m_n_u32(__inactive, __a, _
 499:/opt/st/stm32cubeclt_1.21.0/GNU-tools-for-STM32/lib/gcc/arm-none-eabi/14.3.1/include/arm_mve.h **** #define vdwdupq_m_n_u16(__inactive, __a, __b,  __imm, __p) __arm_vdwdupq_m_n_u16(__inactive, __a, _
 500:/opt/st/stm32cubeclt_1.21.0/GNU-tools-for-STM32/lib/gcc/arm-none-eabi/14.3.1/include/arm_mve.h **** #define vdwdupq_m_wb_u8(__inactive,  __a, __b,  __imm, __p) __arm_vdwdupq_m_wb_u8(__inactive,  __a,
 501:/opt/st/stm32cubeclt_1.21.0/GNU-tools-for-STM32/lib/gcc/arm-none-eabi/14.3.1/include/arm_mve.h **** #define vdwdupq_m_wb_u32(__inactive,  __a, __b,  __imm, __p) __arm_vdwdupq_m_wb_u32(__inactive,  __
 502:/opt/st/stm32cubeclt_1.21.0/GNU-tools-for-STM32/lib/gcc/arm-none-eabi/14.3.1/include/arm_mve.h **** #define vdwdupq_m_wb_u16(__inactive,  __a, __b,  __imm, __p) __arm_vdwdupq_m_wb_u16(__inactive,  __
 503:/opt/st/stm32cubeclt_1.21.0/GNU-tools-for-STM32/lib/gcc/arm-none-eabi/14.3.1/include/arm_mve.h **** #define vdwdupq_n_u8(__a, __b,  __imm) __arm_vdwdupq_n_u8(__a, __b,  __imm)
 504:/opt/st/stm32cubeclt_1.21.0/GNU-tools-for-STM32/lib/gcc/arm-none-eabi/14.3.1/include/arm_mve.h **** #define vdwdupq_n_u32(__a, __b,  __imm) __arm_vdwdupq_n_u32(__a, __b,  __imm)
 505:/opt/st/stm32cubeclt_1.21.0/GNU-tools-for-STM32/lib/gcc/arm-none-eabi/14.3.1/include/arm_mve.h **** #define vdwdupq_n_u16(__a, __b,  __imm) __arm_vdwdupq_n_u16(__a, __b,  __imm)
 506:/opt/st/stm32cubeclt_1.21.0/GNU-tools-for-STM32/lib/gcc/arm-none-eabi/14.3.1/include/arm_mve.h **** #define vdwdupq_wb_u8( __a, __b,  __imm) __arm_vdwdupq_wb_u8( __a, __b,  __imm)
 507:/opt/st/stm32cubeclt_1.21.0/GNU-tools-for-STM32/lib/gcc/arm-none-eabi/14.3.1/include/arm_mve.h **** #define vdwdupq_wb_u32( __a, __b,  __imm) __arm_vdwdupq_wb_u32( __a, __b,  __imm)
 508:/opt/st/stm32cubeclt_1.21.0/GNU-tools-for-STM32/lib/gcc/arm-none-eabi/14.3.1/include/arm_mve.h **** #define vdwdupq_wb_u16( __a, __b,  __imm) __arm_vdwdupq_wb_u16( __a, __b,  __imm)
 509:/opt/st/stm32cubeclt_1.21.0/GNU-tools-for-STM32/lib/gcc/arm-none-eabi/14.3.1/include/arm_mve.h **** #define vidupq_m_n_u8(__inactive, __a,  __imm, __p) __arm_vidupq_m_n_u8(__inactive, __a,  __imm, __
 510:/opt/st/stm32cubeclt_1.21.0/GNU-tools-for-STM32/lib/gcc/arm-none-eabi/14.3.1/include/arm_mve.h **** #define vidupq_m_n_u32(__inactive, __a,  __imm, __p) __arm_vidupq_m_n_u32(__inactive, __a,  __imm, 
 511:/opt/st/stm32cubeclt_1.21.0/GNU-tools-for-STM32/lib/gcc/arm-none-eabi/14.3.1/include/arm_mve.h **** #define vidupq_m_n_u16(__inactive, __a,  __imm, __p) __arm_vidupq_m_n_u16(__inactive, __a,  __imm, 
 512:/opt/st/stm32cubeclt_1.21.0/GNU-tools-for-STM32/lib/gcc/arm-none-eabi/14.3.1/include/arm_mve.h **** #define vidupq_m_wb_u8(__inactive,  __a,  __imm, __p) __arm_vidupq_m_wb_u8(__inactive,  __a,  __imm
 513:/opt/st/stm32cubeclt_1.21.0/GNU-tools-for-STM32/lib/gcc/arm-none-eabi/14.3.1/include/arm_mve.h **** #define vidupq_m_wb_u16(__inactive,  __a,  __imm, __p) __arm_vidupq_m_wb_u16(__inactive,  __a,  __i
 514:/opt/st/stm32cubeclt_1.21.0/GNU-tools-for-STM32/lib/gcc/arm-none-eabi/14.3.1/include/arm_mve.h **** #define vidupq_m_wb_u32(__inactive,  __a,  __imm, __p) __arm_vidupq_m_wb_u32(__inactive,  __a,  __i
 515:/opt/st/stm32cubeclt_1.21.0/GNU-tools-for-STM32/lib/gcc/arm-none-eabi/14.3.1/include/arm_mve.h **** #define vidupq_n_u8(__a,  __imm) __arm_vidupq_n_u8(__a,  __imm)
 516:/opt/st/stm32cubeclt_1.21.0/GNU-tools-for-STM32/lib/gcc/arm-none-eabi/14.3.1/include/arm_mve.h **** #define vidupq_n_u32(__a,  __imm) __arm_vidupq_n_u32(__a,  __imm)
 517:/opt/st/stm32cubeclt_1.21.0/GNU-tools-for-STM32/lib/gcc/arm-none-eabi/14.3.1/include/arm_mve.h **** #define vidupq_n_u16(__a,  __imm) __arm_vidupq_n_u16(__a,  __imm)
 518:/opt/st/stm32cubeclt_1.21.0/GNU-tools-for-STM32/lib/gcc/arm-none-eabi/14.3.1/include/arm_mve.h **** #define vidupq_wb_u8( __a,  __imm) __arm_vidupq_wb_u8( __a,  __imm)
 519:/opt/st/stm32cubeclt_1.21.0/GNU-tools-for-STM32/lib/gcc/arm-none-eabi/14.3.1/include/arm_mve.h **** #define vidupq_wb_u16( __a,  __imm) __arm_vidupq_wb_u16( __a,  __imm)
 520:/opt/st/stm32cubeclt_1.21.0/GNU-tools-for-STM32/lib/gcc/arm-none-eabi/14.3.1/include/arm_mve.h **** #define vidupq_wb_u32( __a,  __imm) __arm_vidupq_wb_u32( __a,  __imm)
 521:/opt/st/stm32cubeclt_1.21.0/GNU-tools-for-STM32/lib/gcc/arm-none-eabi/14.3.1/include/arm_mve.h **** #define viwdupq_m_n_u8(__inactive, __a, __b,  __imm, __p) __arm_viwdupq_m_n_u8(__inactive, __a, __b
 522:/opt/st/stm32cubeclt_1.21.0/GNU-tools-for-STM32/lib/gcc/arm-none-eabi/14.3.1/include/arm_mve.h **** #define viwdupq_m_n_u32(__inactive, __a, __b,  __imm, __p) __arm_viwdupq_m_n_u32(__inactive, __a, _
 523:/opt/st/stm32cubeclt_1.21.0/GNU-tools-for-STM32/lib/gcc/arm-none-eabi/14.3.1/include/arm_mve.h **** #define viwdupq_m_n_u16(__inactive, __a, __b,  __imm, __p) __arm_viwdupq_m_n_u16(__inactive, __a, _
 524:/opt/st/stm32cubeclt_1.21.0/GNU-tools-for-STM32/lib/gcc/arm-none-eabi/14.3.1/include/arm_mve.h **** #define viwdupq_m_wb_u8(__inactive,  __a, __b,  __imm, __p) __arm_viwdupq_m_wb_u8(__inactive,  __a,
 525:/opt/st/stm32cubeclt_1.21.0/GNU-tools-for-STM32/lib/gcc/arm-none-eabi/14.3.1/include/arm_mve.h **** #define viwdupq_m_wb_u32(__inactive,  __a, __b,  __imm, __p) __arm_viwdupq_m_wb_u32(__inactive,  __
 526:/opt/st/stm32cubeclt_1.21.0/GNU-tools-for-STM32/lib/gcc/arm-none-eabi/14.3.1/include/arm_mve.h **** #define viwdupq_m_wb_u16(__inactive,  __a, __b,  __imm, __p) __arm_viwdupq_m_wb_u16(__inactive,  __
 527:/opt/st/stm32cubeclt_1.21.0/GNU-tools-for-STM32/lib/gcc/arm-none-eabi/14.3.1/include/arm_mve.h **** #define viwdupq_n_u8(__a, __b,  __imm) __arm_viwdupq_n_u8(__a, __b,  __imm)
ARM GAS  /tmp/ccfH7U9I.s 			page 12


 528:/opt/st/stm32cubeclt_1.21.0/GNU-tools-for-STM32/lib/gcc/arm-none-eabi/14.3.1/include/arm_mve.h **** #define viwdupq_n_u32(__a, __b,  __imm) __arm_viwdupq_n_u32(__a, __b,  __imm)
 529:/opt/st/stm32cubeclt_1.21.0/GNU-tools-for-STM32/lib/gcc/arm-none-eabi/14.3.1/include/arm_mve.h **** #define viwdupq_n_u16(__a, __b,  __imm) __arm_viwdupq_n_u16(__a, __b,  __imm)
 530:/opt/st/stm32cubeclt_1.21.0/GNU-tools-for-STM32/lib/gcc/arm-none-eabi/14.3.1/include/arm_mve.h **** #define viwdupq_wb_u8( __a, __b,  __imm) __arm_viwdupq_wb_u8( __a, __b,  __imm)
 531:/opt/st/stm32cubeclt_1.21.0/GNU-tools-for-STM32/lib/gcc/arm-none-eabi/14.3.1/include/arm_mve.h **** #define viwdupq_wb_u32( __a, __b,  __imm) __arm_viwdupq_wb_u32( __a, __b,  __imm)
 532:/opt/st/stm32cubeclt_1.21.0/GNU-tools-for-STM32/lib/gcc/arm-none-eabi/14.3.1/include/arm_mve.h **** #define viwdupq_wb_u16( __a, __b,  __imm) __arm_viwdupq_wb_u16( __a, __b,  __imm)
 533:/opt/st/stm32cubeclt_1.21.0/GNU-tools-for-STM32/lib/gcc/arm-none-eabi/14.3.1/include/arm_mve.h **** #define vldrdq_gather_base_wb_s64(__addr, __offset) __arm_vldrdq_gather_base_wb_s64(__addr, __offse
 534:/opt/st/stm32cubeclt_1.21.0/GNU-tools-for-STM32/lib/gcc/arm-none-eabi/14.3.1/include/arm_mve.h **** #define vldrdq_gather_base_wb_u64(__addr, __offset) __arm_vldrdq_gather_base_wb_u64(__addr, __offse
 535:/opt/st/stm32cubeclt_1.21.0/GNU-tools-for-STM32/lib/gcc/arm-none-eabi/14.3.1/include/arm_mve.h **** #define vldrdq_gather_base_wb_z_s64(__addr, __offset, __p) __arm_vldrdq_gather_base_wb_z_s64(__addr
 536:/opt/st/stm32cubeclt_1.21.0/GNU-tools-for-STM32/lib/gcc/arm-none-eabi/14.3.1/include/arm_mve.h **** #define vldrdq_gather_base_wb_z_u64(__addr, __offset, __p) __arm_vldrdq_gather_base_wb_z_u64(__addr
 537:/opt/st/stm32cubeclt_1.21.0/GNU-tools-for-STM32/lib/gcc/arm-none-eabi/14.3.1/include/arm_mve.h **** #define vldrwq_gather_base_wb_f32(__addr, __offset) __arm_vldrwq_gather_base_wb_f32(__addr, __offse
 538:/opt/st/stm32cubeclt_1.21.0/GNU-tools-for-STM32/lib/gcc/arm-none-eabi/14.3.1/include/arm_mve.h **** #define vldrwq_gather_base_wb_s32(__addr, __offset) __arm_vldrwq_gather_base_wb_s32(__addr, __offse
 539:/opt/st/stm32cubeclt_1.21.0/GNU-tools-for-STM32/lib/gcc/arm-none-eabi/14.3.1/include/arm_mve.h **** #define vldrwq_gather_base_wb_u32(__addr, __offset) __arm_vldrwq_gather_base_wb_u32(__addr, __offse
 540:/opt/st/stm32cubeclt_1.21.0/GNU-tools-for-STM32/lib/gcc/arm-none-eabi/14.3.1/include/arm_mve.h **** #define vldrwq_gather_base_wb_z_f32(__addr, __offset, __p) __arm_vldrwq_gather_base_wb_z_f32(__addr
 541:/opt/st/stm32cubeclt_1.21.0/GNU-tools-for-STM32/lib/gcc/arm-none-eabi/14.3.1/include/arm_mve.h **** #define vldrwq_gather_base_wb_z_s32(__addr, __offset, __p) __arm_vldrwq_gather_base_wb_z_s32(__addr
 542:/opt/st/stm32cubeclt_1.21.0/GNU-tools-for-STM32/lib/gcc/arm-none-eabi/14.3.1/include/arm_mve.h **** #define vldrwq_gather_base_wb_z_u32(__addr, __offset, __p) __arm_vldrwq_gather_base_wb_z_u32(__addr
 543:/opt/st/stm32cubeclt_1.21.0/GNU-tools-for-STM32/lib/gcc/arm-none-eabi/14.3.1/include/arm_mve.h **** #define vstrdq_scatter_base_wb_p_s64(__addr, __offset, __value, __p) __arm_vstrdq_scatter_base_wb_p
 544:/opt/st/stm32cubeclt_1.21.0/GNU-tools-for-STM32/lib/gcc/arm-none-eabi/14.3.1/include/arm_mve.h **** #define vstrdq_scatter_base_wb_p_u64(__addr, __offset, __value, __p) __arm_vstrdq_scatter_base_wb_p
 545:/opt/st/stm32cubeclt_1.21.0/GNU-tools-for-STM32/lib/gcc/arm-none-eabi/14.3.1/include/arm_mve.h **** #define vstrdq_scatter_base_wb_s64(__addr, __offset, __value) __arm_vstrdq_scatter_base_wb_s64(__ad
 546:/opt/st/stm32cubeclt_1.21.0/GNU-tools-for-STM32/lib/gcc/arm-none-eabi/14.3.1/include/arm_mve.h **** #define vstrdq_scatter_base_wb_u64(__addr, __offset, __value) __arm_vstrdq_scatter_base_wb_u64(__ad
 547:/opt/st/stm32cubeclt_1.21.0/GNU-tools-for-STM32/lib/gcc/arm-none-eabi/14.3.1/include/arm_mve.h **** #define vstrwq_scatter_base_wb_p_s32(__addr, __offset, __value, __p) __arm_vstrwq_scatter_base_wb_p
 548:/opt/st/stm32cubeclt_1.21.0/GNU-tools-for-STM32/lib/gcc/arm-none-eabi/14.3.1/include/arm_mve.h **** #define vstrwq_scatter_base_wb_p_f32(__addr, __offset, __value, __p) __arm_vstrwq_scatter_base_wb_p
 549:/opt/st/stm32cubeclt_1.21.0/GNU-tools-for-STM32/lib/gcc/arm-none-eabi/14.3.1/include/arm_mve.h **** #define vstrwq_scatter_base_wb_p_u32(__addr, __offset, __value, __p) __arm_vstrwq_scatter_base_wb_p
 550:/opt/st/stm32cubeclt_1.21.0/GNU-tools-for-STM32/lib/gcc/arm-none-eabi/14.3.1/include/arm_mve.h **** #define vstrwq_scatter_base_wb_s32(__addr, __offset, __value) __arm_vstrwq_scatter_base_wb_s32(__ad
 551:/opt/st/stm32cubeclt_1.21.0/GNU-tools-for-STM32/lib/gcc/arm-none-eabi/14.3.1/include/arm_mve.h **** #define vstrwq_scatter_base_wb_u32(__addr, __offset, __value) __arm_vstrwq_scatter_base_wb_u32(__ad
 552:/opt/st/stm32cubeclt_1.21.0/GNU-tools-for-STM32/lib/gcc/arm-none-eabi/14.3.1/include/arm_mve.h **** #define vstrwq_scatter_base_wb_f32(__addr, __offset, __value) __arm_vstrwq_scatter_base_wb_f32(__ad
 553:/opt/st/stm32cubeclt_1.21.0/GNU-tools-for-STM32/lib/gcc/arm-none-eabi/14.3.1/include/arm_mve.h **** #define vddupq_x_n_u8(__a,  __imm, __p) __arm_vddupq_x_n_u8(__a,  __imm, __p)
 554:/opt/st/stm32cubeclt_1.21.0/GNU-tools-for-STM32/lib/gcc/arm-none-eabi/14.3.1/include/arm_mve.h **** #define vddupq_x_n_u16(__a,  __imm, __p) __arm_vddupq_x_n_u16(__a,  __imm, __p)
 555:/opt/st/stm32cubeclt_1.21.0/GNU-tools-for-STM32/lib/gcc/arm-none-eabi/14.3.1/include/arm_mve.h **** #define vddupq_x_n_u32(__a,  __imm, __p) __arm_vddupq_x_n_u32(__a,  __imm, __p)
 556:/opt/st/stm32cubeclt_1.21.0/GNU-tools-for-STM32/lib/gcc/arm-none-eabi/14.3.1/include/arm_mve.h **** #define vddupq_x_wb_u8(__a,  __imm, __p) __arm_vddupq_x_wb_u8(__a,  __imm, __p)
 557:/opt/st/stm32cubeclt_1.21.0/GNU-tools-for-STM32/lib/gcc/arm-none-eabi/14.3.1/include/arm_mve.h **** #define vddupq_x_wb_u16(__a,  __imm, __p) __arm_vddupq_x_wb_u16(__a,  __imm, __p)
 558:/opt/st/stm32cubeclt_1.21.0/GNU-tools-for-STM32/lib/gcc/arm-none-eabi/14.3.1/include/arm_mve.h **** #define vddupq_x_wb_u32(__a,  __imm, __p) __arm_vddupq_x_wb_u32(__a,  __imm, __p)
 559:/opt/st/stm32cubeclt_1.21.0/GNU-tools-for-STM32/lib/gcc/arm-none-eabi/14.3.1/include/arm_mve.h **** #define vdwdupq_x_n_u8(__a, __b,  __imm, __p) __arm_vdwdupq_x_n_u8(__a, __b,  __imm, __p)
 560:/opt/st/stm32cubeclt_1.21.0/GNU-tools-for-STM32/lib/gcc/arm-none-eabi/14.3.1/include/arm_mve.h **** #define vdwdupq_x_n_u16(__a, __b,  __imm, __p) __arm_vdwdupq_x_n_u16(__a, __b,  __imm, __p)
 561:/opt/st/stm32cubeclt_1.21.0/GNU-tools-for-STM32/lib/gcc/arm-none-eabi/14.3.1/include/arm_mve.h **** #define vdwdupq_x_n_u32(__a, __b,  __imm, __p) __arm_vdwdupq_x_n_u32(__a, __b,  __imm, __p)
 562:/opt/st/stm32cubeclt_1.21.0/GNU-tools-for-STM32/lib/gcc/arm-none-eabi/14.3.1/include/arm_mve.h **** #define vdwdupq_x_wb_u8(__a, __b,  __imm, __p) __arm_vdwdupq_x_wb_u8(__a, __b,  __imm, __p)
 563:/opt/st/stm32cubeclt_1.21.0/GNU-tools-for-STM32/lib/gcc/arm-none-eabi/14.3.1/include/arm_mve.h **** #define vdwdupq_x_wb_u16(__a, __b,  __imm, __p) __arm_vdwdupq_x_wb_u16(__a, __b,  __imm, __p)
 564:/opt/st/stm32cubeclt_1.21.0/GNU-tools-for-STM32/lib/gcc/arm-none-eabi/14.3.1/include/arm_mve.h **** #define vdwdupq_x_wb_u32(__a, __b,  __imm, __p) __arm_vdwdupq_x_wb_u32(__a, __b,  __imm, __p)
 565:/opt/st/stm32cubeclt_1.21.0/GNU-tools-for-STM32/lib/gcc/arm-none-eabi/14.3.1/include/arm_mve.h **** #define vidupq_x_n_u8(__a,  __imm, __p) __arm_vidupq_x_n_u8(__a,  __imm, __p)
 566:/opt/st/stm32cubeclt_1.21.0/GNU-tools-for-STM32/lib/gcc/arm-none-eabi/14.3.1/include/arm_mve.h **** #define vidupq_x_n_u16(__a,  __imm, __p) __arm_vidupq_x_n_u16(__a,  __imm, __p)
 567:/opt/st/stm32cubeclt_1.21.0/GNU-tools-for-STM32/lib/gcc/arm-none-eabi/14.3.1/include/arm_mve.h **** #define vidupq_x_n_u32(__a,  __imm, __p) __arm_vidupq_x_n_u32(__a,  __imm, __p)
 568:/opt/st/stm32cubeclt_1.21.0/GNU-tools-for-STM32/lib/gcc/arm-none-eabi/14.3.1/include/arm_mve.h **** #define vidupq_x_wb_u8(__a,  __imm, __p) __arm_vidupq_x_wb_u8(__a,  __imm, __p)
 569:/opt/st/stm32cubeclt_1.21.0/GNU-tools-for-STM32/lib/gcc/arm-none-eabi/14.3.1/include/arm_mve.h **** #define vidupq_x_wb_u16(__a,  __imm, __p) __arm_vidupq_x_wb_u16(__a,  __imm, __p)
 570:/opt/st/stm32cubeclt_1.21.0/GNU-tools-for-STM32/lib/gcc/arm-none-eabi/14.3.1/include/arm_mve.h **** #define vidupq_x_wb_u32(__a,  __imm, __p) __arm_vidupq_x_wb_u32(__a,  __imm, __p)
 571:/opt/st/stm32cubeclt_1.21.0/GNU-tools-for-STM32/lib/gcc/arm-none-eabi/14.3.1/include/arm_mve.h **** #define viwdupq_x_n_u8(__a, __b,  __imm, __p) __arm_viwdupq_x_n_u8(__a, __b,  __imm, __p)
 572:/opt/st/stm32cubeclt_1.21.0/GNU-tools-for-STM32/lib/gcc/arm-none-eabi/14.3.1/include/arm_mve.h **** #define viwdupq_x_n_u16(__a, __b,  __imm, __p) __arm_viwdupq_x_n_u16(__a, __b,  __imm, __p)
 573:/opt/st/stm32cubeclt_1.21.0/GNU-tools-for-STM32/lib/gcc/arm-none-eabi/14.3.1/include/arm_mve.h **** #define viwdupq_x_n_u32(__a, __b,  __imm, __p) __arm_viwdupq_x_n_u32(__a, __b,  __imm, __p)
 574:/opt/st/stm32cubeclt_1.21.0/GNU-tools-for-STM32/lib/gcc/arm-none-eabi/14.3.1/include/arm_mve.h **** #define viwdupq_x_wb_u8(__a, __b,  __imm, __p) __arm_viwdupq_x_wb_u8(__a, __b,  __imm, __p)
 575:/opt/st/stm32cubeclt_1.21.0/GNU-tools-for-STM32/lib/gcc/arm-none-eabi/14.3.1/include/arm_mve.h **** #define viwdupq_x_wb_u16(__a, __b,  __imm, __p) __arm_viwdupq_x_wb_u16(__a, __b,  __imm, __p)
 576:/opt/st/stm32cubeclt_1.21.0/GNU-tools-for-STM32/lib/gcc/arm-none-eabi/14.3.1/include/arm_mve.h **** #define viwdupq_x_wb_u32(__a, __b,  __imm, __p) __arm_viwdupq_x_wb_u32(__a, __b,  __imm, __p)
 577:/opt/st/stm32cubeclt_1.21.0/GNU-tools-for-STM32/lib/gcc/arm-none-eabi/14.3.1/include/arm_mve.h **** #define vbicq_x_s8(__a, __b, __p) __arm_vbicq_x_s8(__a, __b, __p)
 578:/opt/st/stm32cubeclt_1.21.0/GNU-tools-for-STM32/lib/gcc/arm-none-eabi/14.3.1/include/arm_mve.h **** #define vbicq_x_s16(__a, __b, __p) __arm_vbicq_x_s16(__a, __b, __p)
 579:/opt/st/stm32cubeclt_1.21.0/GNU-tools-for-STM32/lib/gcc/arm-none-eabi/14.3.1/include/arm_mve.h **** #define vbicq_x_s32(__a, __b, __p) __arm_vbicq_x_s32(__a, __b, __p)
 580:/opt/st/stm32cubeclt_1.21.0/GNU-tools-for-STM32/lib/gcc/arm-none-eabi/14.3.1/include/arm_mve.h **** #define vbicq_x_u8(__a, __b, __p) __arm_vbicq_x_u8(__a, __b, __p)
 581:/opt/st/stm32cubeclt_1.21.0/GNU-tools-for-STM32/lib/gcc/arm-none-eabi/14.3.1/include/arm_mve.h **** #define vbicq_x_u16(__a, __b, __p) __arm_vbicq_x_u16(__a, __b, __p)
 582:/opt/st/stm32cubeclt_1.21.0/GNU-tools-for-STM32/lib/gcc/arm-none-eabi/14.3.1/include/arm_mve.h **** #define vbicq_x_u32(__a, __b, __p) __arm_vbicq_x_u32(__a, __b, __p)
 583:/opt/st/stm32cubeclt_1.21.0/GNU-tools-for-STM32/lib/gcc/arm-none-eabi/14.3.1/include/arm_mve.h **** #define vornq_x_s8(__a, __b, __p) __arm_vornq_x_s8(__a, __b, __p)
 584:/opt/st/stm32cubeclt_1.21.0/GNU-tools-for-STM32/lib/gcc/arm-none-eabi/14.3.1/include/arm_mve.h **** #define vornq_x_s16(__a, __b, __p) __arm_vornq_x_s16(__a, __b, __p)
ARM GAS  /tmp/ccfH7U9I.s 			page 13


 585:/opt/st/stm32cubeclt_1.21.0/GNU-tools-for-STM32/lib/gcc/arm-none-eabi/14.3.1/include/arm_mve.h **** #define vornq_x_s32(__a, __b, __p) __arm_vornq_x_s32(__a, __b, __p)
 586:/opt/st/stm32cubeclt_1.21.0/GNU-tools-for-STM32/lib/gcc/arm-none-eabi/14.3.1/include/arm_mve.h **** #define vornq_x_u8(__a, __b, __p) __arm_vornq_x_u8(__a, __b, __p)
 587:/opt/st/stm32cubeclt_1.21.0/GNU-tools-for-STM32/lib/gcc/arm-none-eabi/14.3.1/include/arm_mve.h **** #define vornq_x_u16(__a, __b, __p) __arm_vornq_x_u16(__a, __b, __p)
 588:/opt/st/stm32cubeclt_1.21.0/GNU-tools-for-STM32/lib/gcc/arm-none-eabi/14.3.1/include/arm_mve.h **** #define vornq_x_u32(__a, __b, __p) __arm_vornq_x_u32(__a, __b, __p)
 589:/opt/st/stm32cubeclt_1.21.0/GNU-tools-for-STM32/lib/gcc/arm-none-eabi/14.3.1/include/arm_mve.h **** #define vcvtaq_x_s16_f16(__a, __p) __arm_vcvtaq_x_s16_f16(__a, __p)
 590:/opt/st/stm32cubeclt_1.21.0/GNU-tools-for-STM32/lib/gcc/arm-none-eabi/14.3.1/include/arm_mve.h **** #define vcvtaq_x_s32_f32(__a, __p) __arm_vcvtaq_x_s32_f32(__a, __p)
 591:/opt/st/stm32cubeclt_1.21.0/GNU-tools-for-STM32/lib/gcc/arm-none-eabi/14.3.1/include/arm_mve.h **** #define vcvtaq_x_u16_f16(__a, __p) __arm_vcvtaq_x_u16_f16(__a, __p)
 592:/opt/st/stm32cubeclt_1.21.0/GNU-tools-for-STM32/lib/gcc/arm-none-eabi/14.3.1/include/arm_mve.h **** #define vcvtaq_x_u32_f32(__a, __p) __arm_vcvtaq_x_u32_f32(__a, __p)
 593:/opt/st/stm32cubeclt_1.21.0/GNU-tools-for-STM32/lib/gcc/arm-none-eabi/14.3.1/include/arm_mve.h **** #define vcvtnq_x_s16_f16(__a, __p) __arm_vcvtnq_x_s16_f16(__a, __p)
 594:/opt/st/stm32cubeclt_1.21.0/GNU-tools-for-STM32/lib/gcc/arm-none-eabi/14.3.1/include/arm_mve.h **** #define vcvtnq_x_s32_f32(__a, __p) __arm_vcvtnq_x_s32_f32(__a, __p)
 595:/opt/st/stm32cubeclt_1.21.0/GNU-tools-for-STM32/lib/gcc/arm-none-eabi/14.3.1/include/arm_mve.h **** #define vcvtnq_x_u16_f16(__a, __p) __arm_vcvtnq_x_u16_f16(__a, __p)
 596:/opt/st/stm32cubeclt_1.21.0/GNU-tools-for-STM32/lib/gcc/arm-none-eabi/14.3.1/include/arm_mve.h **** #define vcvtnq_x_u32_f32(__a, __p) __arm_vcvtnq_x_u32_f32(__a, __p)
 597:/opt/st/stm32cubeclt_1.21.0/GNU-tools-for-STM32/lib/gcc/arm-none-eabi/14.3.1/include/arm_mve.h **** #define vcvtpq_x_s16_f16(__a, __p) __arm_vcvtpq_x_s16_f16(__a, __p)
 598:/opt/st/stm32cubeclt_1.21.0/GNU-tools-for-STM32/lib/gcc/arm-none-eabi/14.3.1/include/arm_mve.h **** #define vcvtpq_x_s32_f32(__a, __p) __arm_vcvtpq_x_s32_f32(__a, __p)
 599:/opt/st/stm32cubeclt_1.21.0/GNU-tools-for-STM32/lib/gcc/arm-none-eabi/14.3.1/include/arm_mve.h **** #define vcvtpq_x_u16_f16(__a, __p) __arm_vcvtpq_x_u16_f16(__a, __p)
 600:/opt/st/stm32cubeclt_1.21.0/GNU-tools-for-STM32/lib/gcc/arm-none-eabi/14.3.1/include/arm_mve.h **** #define vcvtpq_x_u32_f32(__a, __p) __arm_vcvtpq_x_u32_f32(__a, __p)
 601:/opt/st/stm32cubeclt_1.21.0/GNU-tools-for-STM32/lib/gcc/arm-none-eabi/14.3.1/include/arm_mve.h **** #define vcvtmq_x_s16_f16(__a, __p) __arm_vcvtmq_x_s16_f16(__a, __p)
 602:/opt/st/stm32cubeclt_1.21.0/GNU-tools-for-STM32/lib/gcc/arm-none-eabi/14.3.1/include/arm_mve.h **** #define vcvtmq_x_s32_f32(__a, __p) __arm_vcvtmq_x_s32_f32(__a, __p)
 603:/opt/st/stm32cubeclt_1.21.0/GNU-tools-for-STM32/lib/gcc/arm-none-eabi/14.3.1/include/arm_mve.h **** #define vcvtmq_x_u16_f16(__a, __p) __arm_vcvtmq_x_u16_f16(__a, __p)
 604:/opt/st/stm32cubeclt_1.21.0/GNU-tools-for-STM32/lib/gcc/arm-none-eabi/14.3.1/include/arm_mve.h **** #define vcvtmq_x_u32_f32(__a, __p) __arm_vcvtmq_x_u32_f32(__a, __p)
 605:/opt/st/stm32cubeclt_1.21.0/GNU-tools-for-STM32/lib/gcc/arm-none-eabi/14.3.1/include/arm_mve.h **** #define vcvtbq_x_f32_f16(__a, __p) __arm_vcvtbq_x_f32_f16(__a, __p)
 606:/opt/st/stm32cubeclt_1.21.0/GNU-tools-for-STM32/lib/gcc/arm-none-eabi/14.3.1/include/arm_mve.h **** #define vcvttq_x_f32_f16(__a, __p) __arm_vcvttq_x_f32_f16(__a, __p)
 607:/opt/st/stm32cubeclt_1.21.0/GNU-tools-for-STM32/lib/gcc/arm-none-eabi/14.3.1/include/arm_mve.h **** #define vcvtq_x_f16_u16(__a, __p) __arm_vcvtq_x_f16_u16(__a, __p)
 608:/opt/st/stm32cubeclt_1.21.0/GNU-tools-for-STM32/lib/gcc/arm-none-eabi/14.3.1/include/arm_mve.h **** #define vcvtq_x_f16_s16(__a, __p) __arm_vcvtq_x_f16_s16(__a, __p)
 609:/opt/st/stm32cubeclt_1.21.0/GNU-tools-for-STM32/lib/gcc/arm-none-eabi/14.3.1/include/arm_mve.h **** #define vcvtq_x_f32_s32(__a, __p) __arm_vcvtq_x_f32_s32(__a, __p)
 610:/opt/st/stm32cubeclt_1.21.0/GNU-tools-for-STM32/lib/gcc/arm-none-eabi/14.3.1/include/arm_mve.h **** #define vcvtq_x_f32_u32(__a, __p) __arm_vcvtq_x_f32_u32(__a, __p)
 611:/opt/st/stm32cubeclt_1.21.0/GNU-tools-for-STM32/lib/gcc/arm-none-eabi/14.3.1/include/arm_mve.h **** #define vcvtq_x_n_f16_s16(__a,  __imm6, __p) __arm_vcvtq_x_n_f16_s16(__a,  __imm6, __p)
 612:/opt/st/stm32cubeclt_1.21.0/GNU-tools-for-STM32/lib/gcc/arm-none-eabi/14.3.1/include/arm_mve.h **** #define vcvtq_x_n_f16_u16(__a,  __imm6, __p) __arm_vcvtq_x_n_f16_u16(__a,  __imm6, __p)
 613:/opt/st/stm32cubeclt_1.21.0/GNU-tools-for-STM32/lib/gcc/arm-none-eabi/14.3.1/include/arm_mve.h **** #define vcvtq_x_n_f32_s32(__a,  __imm6, __p) __arm_vcvtq_x_n_f32_s32(__a,  __imm6, __p)
 614:/opt/st/stm32cubeclt_1.21.0/GNU-tools-for-STM32/lib/gcc/arm-none-eabi/14.3.1/include/arm_mve.h **** #define vcvtq_x_n_f32_u32(__a,  __imm6, __p) __arm_vcvtq_x_n_f32_u32(__a,  __imm6, __p)
 615:/opt/st/stm32cubeclt_1.21.0/GNU-tools-for-STM32/lib/gcc/arm-none-eabi/14.3.1/include/arm_mve.h **** #define vcvtq_x_s16_f16(__a, __p) __arm_vcvtq_x_s16_f16(__a, __p)
 616:/opt/st/stm32cubeclt_1.21.0/GNU-tools-for-STM32/lib/gcc/arm-none-eabi/14.3.1/include/arm_mve.h **** #define vcvtq_x_s32_f32(__a, __p) __arm_vcvtq_x_s32_f32(__a, __p)
 617:/opt/st/stm32cubeclt_1.21.0/GNU-tools-for-STM32/lib/gcc/arm-none-eabi/14.3.1/include/arm_mve.h **** #define vcvtq_x_u16_f16(__a, __p) __arm_vcvtq_x_u16_f16(__a, __p)
 618:/opt/st/stm32cubeclt_1.21.0/GNU-tools-for-STM32/lib/gcc/arm-none-eabi/14.3.1/include/arm_mve.h **** #define vcvtq_x_u32_f32(__a, __p) __arm_vcvtq_x_u32_f32(__a, __p)
 619:/opt/st/stm32cubeclt_1.21.0/GNU-tools-for-STM32/lib/gcc/arm-none-eabi/14.3.1/include/arm_mve.h **** #define vcvtq_x_n_s16_f16(__a,  __imm6, __p) __arm_vcvtq_x_n_s16_f16(__a,  __imm6, __p)
 620:/opt/st/stm32cubeclt_1.21.0/GNU-tools-for-STM32/lib/gcc/arm-none-eabi/14.3.1/include/arm_mve.h **** #define vcvtq_x_n_s32_f32(__a,  __imm6, __p) __arm_vcvtq_x_n_s32_f32(__a,  __imm6, __p)
 621:/opt/st/stm32cubeclt_1.21.0/GNU-tools-for-STM32/lib/gcc/arm-none-eabi/14.3.1/include/arm_mve.h **** #define vcvtq_x_n_u16_f16(__a,  __imm6, __p) __arm_vcvtq_x_n_u16_f16(__a,  __imm6, __p)
 622:/opt/st/stm32cubeclt_1.21.0/GNU-tools-for-STM32/lib/gcc/arm-none-eabi/14.3.1/include/arm_mve.h **** #define vcvtq_x_n_u32_f32(__a,  __imm6, __p) __arm_vcvtq_x_n_u32_f32(__a,  __imm6, __p)
 623:/opt/st/stm32cubeclt_1.21.0/GNU-tools-for-STM32/lib/gcc/arm-none-eabi/14.3.1/include/arm_mve.h **** #define vbicq_x_f16(__a, __b, __p) __arm_vbicq_x_f16(__a, __b, __p)
 624:/opt/st/stm32cubeclt_1.21.0/GNU-tools-for-STM32/lib/gcc/arm-none-eabi/14.3.1/include/arm_mve.h **** #define vbicq_x_f32(__a, __b, __p) __arm_vbicq_x_f32(__a, __b, __p)
 625:/opt/st/stm32cubeclt_1.21.0/GNU-tools-for-STM32/lib/gcc/arm-none-eabi/14.3.1/include/arm_mve.h **** #define vornq_x_f16(__a, __b, __p) __arm_vornq_x_f16(__a, __b, __p)
 626:/opt/st/stm32cubeclt_1.21.0/GNU-tools-for-STM32/lib/gcc/arm-none-eabi/14.3.1/include/arm_mve.h **** #define vornq_x_f32(__a, __b, __p) __arm_vornq_x_f32(__a, __b, __p)
 627:/opt/st/stm32cubeclt_1.21.0/GNU-tools-for-STM32/lib/gcc/arm-none-eabi/14.3.1/include/arm_mve.h **** #define vadciq_s32(__a, __b,  __carry_out) __arm_vadciq_s32(__a, __b,  __carry_out)
 628:/opt/st/stm32cubeclt_1.21.0/GNU-tools-for-STM32/lib/gcc/arm-none-eabi/14.3.1/include/arm_mve.h **** #define vadciq_u32(__a, __b,  __carry_out) __arm_vadciq_u32(__a, __b,  __carry_out)
 629:/opt/st/stm32cubeclt_1.21.0/GNU-tools-for-STM32/lib/gcc/arm-none-eabi/14.3.1/include/arm_mve.h **** #define vadciq_m_s32(__inactive, __a, __b,  __carry_out, __p) __arm_vadciq_m_s32(__inactive, __a, _
 630:/opt/st/stm32cubeclt_1.21.0/GNU-tools-for-STM32/lib/gcc/arm-none-eabi/14.3.1/include/arm_mve.h **** #define vadciq_m_u32(__inactive, __a, __b,  __carry_out, __p) __arm_vadciq_m_u32(__inactive, __a, _
 631:/opt/st/stm32cubeclt_1.21.0/GNU-tools-for-STM32/lib/gcc/arm-none-eabi/14.3.1/include/arm_mve.h **** #define vadcq_s32(__a, __b,  __carry) __arm_vadcq_s32(__a, __b,  __carry)
 632:/opt/st/stm32cubeclt_1.21.0/GNU-tools-for-STM32/lib/gcc/arm-none-eabi/14.3.1/include/arm_mve.h **** #define vadcq_u32(__a, __b,  __carry) __arm_vadcq_u32(__a, __b,  __carry)
 633:/opt/st/stm32cubeclt_1.21.0/GNU-tools-for-STM32/lib/gcc/arm-none-eabi/14.3.1/include/arm_mve.h **** #define vadcq_m_s32(__inactive, __a, __b,  __carry, __p) __arm_vadcq_m_s32(__inactive, __a, __b,  _
 634:/opt/st/stm32cubeclt_1.21.0/GNU-tools-for-STM32/lib/gcc/arm-none-eabi/14.3.1/include/arm_mve.h **** #define vadcq_m_u32(__inactive, __a, __b,  __carry, __p) __arm_vadcq_m_u32(__inactive, __a, __b,  _
 635:/opt/st/stm32cubeclt_1.21.0/GNU-tools-for-STM32/lib/gcc/arm-none-eabi/14.3.1/include/arm_mve.h **** #define vsbciq_s32(__a, __b,  __carry_out) __arm_vsbciq_s32(__a, __b,  __carry_out)
 636:/opt/st/stm32cubeclt_1.21.0/GNU-tools-for-STM32/lib/gcc/arm-none-eabi/14.3.1/include/arm_mve.h **** #define vsbciq_u32(__a, __b,  __carry_out) __arm_vsbciq_u32(__a, __b,  __carry_out)
 637:/opt/st/stm32cubeclt_1.21.0/GNU-tools-for-STM32/lib/gcc/arm-none-eabi/14.3.1/include/arm_mve.h **** #define vsbciq_m_s32(__inactive, __a, __b,  __carry_out, __p) __arm_vsbciq_m_s32(__inactive, __a, _
 638:/opt/st/stm32cubeclt_1.21.0/GNU-tools-for-STM32/lib/gcc/arm-none-eabi/14.3.1/include/arm_mve.h **** #define vsbciq_m_u32(__inactive, __a, __b,  __carry_out, __p) __arm_vsbciq_m_u32(__inactive, __a, _
 639:/opt/st/stm32cubeclt_1.21.0/GNU-tools-for-STM32/lib/gcc/arm-none-eabi/14.3.1/include/arm_mve.h **** #define vsbcq_s32(__a, __b,  __carry) __arm_vsbcq_s32(__a, __b,  __carry)
 640:/opt/st/stm32cubeclt_1.21.0/GNU-tools-for-STM32/lib/gcc/arm-none-eabi/14.3.1/include/arm_mve.h **** #define vsbcq_u32(__a, __b,  __carry) __arm_vsbcq_u32(__a, __b,  __carry)
 641:/opt/st/stm32cubeclt_1.21.0/GNU-tools-for-STM32/lib/gcc/arm-none-eabi/14.3.1/include/arm_mve.h **** #define vsbcq_m_s32(__inactive, __a, __b,  __carry, __p) __arm_vsbcq_m_s32(__inactive, __a, __b,  _
ARM GAS  /tmp/ccfH7U9I.s 			page 14


 642:/opt/st/stm32cubeclt_1.21.0/GNU-tools-for-STM32/lib/gcc/arm-none-eabi/14.3.1/include/arm_mve.h **** #define vsbcq_m_u32(__inactive, __a, __b,  __carry, __p) __arm_vsbcq_m_u32(__inactive, __a, __b,  _
 643:/opt/st/stm32cubeclt_1.21.0/GNU-tools-for-STM32/lib/gcc/arm-none-eabi/14.3.1/include/arm_mve.h **** #define vst1q_p_u8(__addr, __value, __p) __arm_vst1q_p_u8(__addr, __value, __p)
 644:/opt/st/stm32cubeclt_1.21.0/GNU-tools-for-STM32/lib/gcc/arm-none-eabi/14.3.1/include/arm_mve.h **** #define vst1q_p_s8(__addr, __value, __p) __arm_vst1q_p_s8(__addr, __value, __p)
 645:/opt/st/stm32cubeclt_1.21.0/GNU-tools-for-STM32/lib/gcc/arm-none-eabi/14.3.1/include/arm_mve.h **** #define vst2q_s8(__addr, __value) __arm_vst2q_s8(__addr, __value)
 646:/opt/st/stm32cubeclt_1.21.0/GNU-tools-for-STM32/lib/gcc/arm-none-eabi/14.3.1/include/arm_mve.h **** #define vst2q_u8(__addr, __value) __arm_vst2q_u8(__addr, __value)
 647:/opt/st/stm32cubeclt_1.21.0/GNU-tools-for-STM32/lib/gcc/arm-none-eabi/14.3.1/include/arm_mve.h **** #define vld1q_z_u8(__base, __p) __arm_vld1q_z_u8(__base, __p)
 648:/opt/st/stm32cubeclt_1.21.0/GNU-tools-for-STM32/lib/gcc/arm-none-eabi/14.3.1/include/arm_mve.h **** #define vld1q_z_s8(__base, __p) __arm_vld1q_z_s8(__base, __p)
 649:/opt/st/stm32cubeclt_1.21.0/GNU-tools-for-STM32/lib/gcc/arm-none-eabi/14.3.1/include/arm_mve.h **** #define vld2q_s8(__addr) __arm_vld2q_s8(__addr)
 650:/opt/st/stm32cubeclt_1.21.0/GNU-tools-for-STM32/lib/gcc/arm-none-eabi/14.3.1/include/arm_mve.h **** #define vld2q_u8(__addr) __arm_vld2q_u8(__addr)
 651:/opt/st/stm32cubeclt_1.21.0/GNU-tools-for-STM32/lib/gcc/arm-none-eabi/14.3.1/include/arm_mve.h **** #define vld4q_s8(__addr) __arm_vld4q_s8(__addr)
 652:/opt/st/stm32cubeclt_1.21.0/GNU-tools-for-STM32/lib/gcc/arm-none-eabi/14.3.1/include/arm_mve.h **** #define vld4q_u8(__addr) __arm_vld4q_u8(__addr)
 653:/opt/st/stm32cubeclt_1.21.0/GNU-tools-for-STM32/lib/gcc/arm-none-eabi/14.3.1/include/arm_mve.h **** #define vst1q_p_u16(__addr, __value, __p) __arm_vst1q_p_u16(__addr, __value, __p)
 654:/opt/st/stm32cubeclt_1.21.0/GNU-tools-for-STM32/lib/gcc/arm-none-eabi/14.3.1/include/arm_mve.h **** #define vst1q_p_s16(__addr, __value, __p) __arm_vst1q_p_s16(__addr, __value, __p)
 655:/opt/st/stm32cubeclt_1.21.0/GNU-tools-for-STM32/lib/gcc/arm-none-eabi/14.3.1/include/arm_mve.h **** #define vst2q_s16(__addr, __value) __arm_vst2q_s16(__addr, __value)
 656:/opt/st/stm32cubeclt_1.21.0/GNU-tools-for-STM32/lib/gcc/arm-none-eabi/14.3.1/include/arm_mve.h **** #define vst2q_u16(__addr, __value) __arm_vst2q_u16(__addr, __value)
 657:/opt/st/stm32cubeclt_1.21.0/GNU-tools-for-STM32/lib/gcc/arm-none-eabi/14.3.1/include/arm_mve.h **** #define vld1q_z_u16(__base, __p) __arm_vld1q_z_u16(__base, __p)
 658:/opt/st/stm32cubeclt_1.21.0/GNU-tools-for-STM32/lib/gcc/arm-none-eabi/14.3.1/include/arm_mve.h **** #define vld1q_z_s16(__base, __p) __arm_vld1q_z_s16(__base, __p)
 659:/opt/st/stm32cubeclt_1.21.0/GNU-tools-for-STM32/lib/gcc/arm-none-eabi/14.3.1/include/arm_mve.h **** #define vld2q_s16(__addr) __arm_vld2q_s16(__addr)
 660:/opt/st/stm32cubeclt_1.21.0/GNU-tools-for-STM32/lib/gcc/arm-none-eabi/14.3.1/include/arm_mve.h **** #define vld2q_u16(__addr) __arm_vld2q_u16(__addr)
 661:/opt/st/stm32cubeclt_1.21.0/GNU-tools-for-STM32/lib/gcc/arm-none-eabi/14.3.1/include/arm_mve.h **** #define vld4q_s16(__addr) __arm_vld4q_s16(__addr)
 662:/opt/st/stm32cubeclt_1.21.0/GNU-tools-for-STM32/lib/gcc/arm-none-eabi/14.3.1/include/arm_mve.h **** #define vld4q_u16(__addr) __arm_vld4q_u16(__addr)
 663:/opt/st/stm32cubeclt_1.21.0/GNU-tools-for-STM32/lib/gcc/arm-none-eabi/14.3.1/include/arm_mve.h **** #define vst1q_p_u32(__addr, __value, __p) __arm_vst1q_p_u32(__addr, __value, __p)
 664:/opt/st/stm32cubeclt_1.21.0/GNU-tools-for-STM32/lib/gcc/arm-none-eabi/14.3.1/include/arm_mve.h **** #define vst1q_p_s32(__addr, __value, __p) __arm_vst1q_p_s32(__addr, __value, __p)
 665:/opt/st/stm32cubeclt_1.21.0/GNU-tools-for-STM32/lib/gcc/arm-none-eabi/14.3.1/include/arm_mve.h **** #define vst2q_s32(__addr, __value) __arm_vst2q_s32(__addr, __value)
 666:/opt/st/stm32cubeclt_1.21.0/GNU-tools-for-STM32/lib/gcc/arm-none-eabi/14.3.1/include/arm_mve.h **** #define vst2q_u32(__addr, __value) __arm_vst2q_u32(__addr, __value)
 667:/opt/st/stm32cubeclt_1.21.0/GNU-tools-for-STM32/lib/gcc/arm-none-eabi/14.3.1/include/arm_mve.h **** #define vld1q_z_u32(__base, __p) __arm_vld1q_z_u32(__base, __p)
 668:/opt/st/stm32cubeclt_1.21.0/GNU-tools-for-STM32/lib/gcc/arm-none-eabi/14.3.1/include/arm_mve.h **** #define vld1q_z_s32(__base, __p) __arm_vld1q_z_s32(__base, __p)
 669:/opt/st/stm32cubeclt_1.21.0/GNU-tools-for-STM32/lib/gcc/arm-none-eabi/14.3.1/include/arm_mve.h **** #define vld2q_s32(__addr) __arm_vld2q_s32(__addr)
 670:/opt/st/stm32cubeclt_1.21.0/GNU-tools-for-STM32/lib/gcc/arm-none-eabi/14.3.1/include/arm_mve.h **** #define vld2q_u32(__addr) __arm_vld2q_u32(__addr)
 671:/opt/st/stm32cubeclt_1.21.0/GNU-tools-for-STM32/lib/gcc/arm-none-eabi/14.3.1/include/arm_mve.h **** #define vld4q_s32(__addr) __arm_vld4q_s32(__addr)
 672:/opt/st/stm32cubeclt_1.21.0/GNU-tools-for-STM32/lib/gcc/arm-none-eabi/14.3.1/include/arm_mve.h **** #define vld4q_u32(__addr) __arm_vld4q_u32(__addr)
 673:/opt/st/stm32cubeclt_1.21.0/GNU-tools-for-STM32/lib/gcc/arm-none-eabi/14.3.1/include/arm_mve.h **** #define vld4q_f16(__addr) __arm_vld4q_f16(__addr)
 674:/opt/st/stm32cubeclt_1.21.0/GNU-tools-for-STM32/lib/gcc/arm-none-eabi/14.3.1/include/arm_mve.h **** #define vld2q_f16(__addr) __arm_vld2q_f16(__addr)
 675:/opt/st/stm32cubeclt_1.21.0/GNU-tools-for-STM32/lib/gcc/arm-none-eabi/14.3.1/include/arm_mve.h **** #define vld1q_z_f16(__base, __p) __arm_vld1q_z_f16(__base, __p)
 676:/opt/st/stm32cubeclt_1.21.0/GNU-tools-for-STM32/lib/gcc/arm-none-eabi/14.3.1/include/arm_mve.h **** #define vst2q_f16(__addr, __value) __arm_vst2q_f16(__addr, __value)
 677:/opt/st/stm32cubeclt_1.21.0/GNU-tools-for-STM32/lib/gcc/arm-none-eabi/14.3.1/include/arm_mve.h **** #define vst1q_p_f16(__addr, __value, __p) __arm_vst1q_p_f16(__addr, __value, __p)
 678:/opt/st/stm32cubeclt_1.21.0/GNU-tools-for-STM32/lib/gcc/arm-none-eabi/14.3.1/include/arm_mve.h **** #define vld4q_f32(__addr) __arm_vld4q_f32(__addr)
 679:/opt/st/stm32cubeclt_1.21.0/GNU-tools-for-STM32/lib/gcc/arm-none-eabi/14.3.1/include/arm_mve.h **** #define vld2q_f32(__addr) __arm_vld2q_f32(__addr)
 680:/opt/st/stm32cubeclt_1.21.0/GNU-tools-for-STM32/lib/gcc/arm-none-eabi/14.3.1/include/arm_mve.h **** #define vld1q_z_f32(__base, __p) __arm_vld1q_z_f32(__base, __p)
 681:/opt/st/stm32cubeclt_1.21.0/GNU-tools-for-STM32/lib/gcc/arm-none-eabi/14.3.1/include/arm_mve.h **** #define vst2q_f32(__addr, __value) __arm_vst2q_f32(__addr, __value)
 682:/opt/st/stm32cubeclt_1.21.0/GNU-tools-for-STM32/lib/gcc/arm-none-eabi/14.3.1/include/arm_mve.h **** #define vst1q_p_f32(__addr, __value, __p) __arm_vst1q_p_f32(__addr, __value, __p)
 683:/opt/st/stm32cubeclt_1.21.0/GNU-tools-for-STM32/lib/gcc/arm-none-eabi/14.3.1/include/arm_mve.h **** #define vsetq_lane_f16(__a, __b,  __idx) __arm_vsetq_lane_f16(__a, __b,  __idx)
 684:/opt/st/stm32cubeclt_1.21.0/GNU-tools-for-STM32/lib/gcc/arm-none-eabi/14.3.1/include/arm_mve.h **** #define vsetq_lane_f32(__a, __b,  __idx) __arm_vsetq_lane_f32(__a, __b,  __idx)
 685:/opt/st/stm32cubeclt_1.21.0/GNU-tools-for-STM32/lib/gcc/arm-none-eabi/14.3.1/include/arm_mve.h **** #define vsetq_lane_s16(__a, __b,  __idx) __arm_vsetq_lane_s16(__a, __b,  __idx)
 686:/opt/st/stm32cubeclt_1.21.0/GNU-tools-for-STM32/lib/gcc/arm-none-eabi/14.3.1/include/arm_mve.h **** #define vsetq_lane_s32(__a, __b,  __idx) __arm_vsetq_lane_s32(__a, __b,  __idx)
 687:/opt/st/stm32cubeclt_1.21.0/GNU-tools-for-STM32/lib/gcc/arm-none-eabi/14.3.1/include/arm_mve.h **** #define vsetq_lane_s8(__a, __b,  __idx) __arm_vsetq_lane_s8(__a, __b,  __idx)
 688:/opt/st/stm32cubeclt_1.21.0/GNU-tools-for-STM32/lib/gcc/arm-none-eabi/14.3.1/include/arm_mve.h **** #define vsetq_lane_s64(__a, __b,  __idx) __arm_vsetq_lane_s64(__a, __b,  __idx)
 689:/opt/st/stm32cubeclt_1.21.0/GNU-tools-for-STM32/lib/gcc/arm-none-eabi/14.3.1/include/arm_mve.h **** #define vsetq_lane_u8(__a, __b,  __idx) __arm_vsetq_lane_u8(__a, __b,  __idx)
 690:/opt/st/stm32cubeclt_1.21.0/GNU-tools-for-STM32/lib/gcc/arm-none-eabi/14.3.1/include/arm_mve.h **** #define vsetq_lane_u16(__a, __b,  __idx) __arm_vsetq_lane_u16(__a, __b,  __idx)
 691:/opt/st/stm32cubeclt_1.21.0/GNU-tools-for-STM32/lib/gcc/arm-none-eabi/14.3.1/include/arm_mve.h **** #define vsetq_lane_u32(__a, __b,  __idx) __arm_vsetq_lane_u32(__a, __b,  __idx)
 692:/opt/st/stm32cubeclt_1.21.0/GNU-tools-for-STM32/lib/gcc/arm-none-eabi/14.3.1/include/arm_mve.h **** #define vsetq_lane_u64(__a, __b,  __idx) __arm_vsetq_lane_u64(__a, __b,  __idx)
 693:/opt/st/stm32cubeclt_1.21.0/GNU-tools-for-STM32/lib/gcc/arm-none-eabi/14.3.1/include/arm_mve.h **** #define vgetq_lane_f16(__a,  __idx) __arm_vgetq_lane_f16(__a,  __idx)
 694:/opt/st/stm32cubeclt_1.21.0/GNU-tools-for-STM32/lib/gcc/arm-none-eabi/14.3.1/include/arm_mve.h **** #define vgetq_lane_f32(__a,  __idx) __arm_vgetq_lane_f32(__a,  __idx)
 695:/opt/st/stm32cubeclt_1.21.0/GNU-tools-for-STM32/lib/gcc/arm-none-eabi/14.3.1/include/arm_mve.h **** #define vgetq_lane_s16(__a,  __idx) __arm_vgetq_lane_s16(__a,  __idx)
 696:/opt/st/stm32cubeclt_1.21.0/GNU-tools-for-STM32/lib/gcc/arm-none-eabi/14.3.1/include/arm_mve.h **** #define vgetq_lane_s32(__a,  __idx) __arm_vgetq_lane_s32(__a,  __idx)
 697:/opt/st/stm32cubeclt_1.21.0/GNU-tools-for-STM32/lib/gcc/arm-none-eabi/14.3.1/include/arm_mve.h **** #define vgetq_lane_s8(__a,  __idx) __arm_vgetq_lane_s8(__a,  __idx)
 698:/opt/st/stm32cubeclt_1.21.0/GNU-tools-for-STM32/lib/gcc/arm-none-eabi/14.3.1/include/arm_mve.h **** #define vgetq_lane_s64(__a,  __idx) __arm_vgetq_lane_s64(__a,  __idx)
ARM GAS  /tmp/ccfH7U9I.s 			page 15


 699:/opt/st/stm32cubeclt_1.21.0/GNU-tools-for-STM32/lib/gcc/arm-none-eabi/14.3.1/include/arm_mve.h **** #define vgetq_lane_u8(__a,  __idx) __arm_vgetq_lane_u8(__a,  __idx)
 700:/opt/st/stm32cubeclt_1.21.0/GNU-tools-for-STM32/lib/gcc/arm-none-eabi/14.3.1/include/arm_mve.h **** #define vgetq_lane_u16(__a,  __idx) __arm_vgetq_lane_u16(__a,  __idx)
 701:/opt/st/stm32cubeclt_1.21.0/GNU-tools-for-STM32/lib/gcc/arm-none-eabi/14.3.1/include/arm_mve.h **** #define vgetq_lane_u32(__a,  __idx) __arm_vgetq_lane_u32(__a,  __idx)
 702:/opt/st/stm32cubeclt_1.21.0/GNU-tools-for-STM32/lib/gcc/arm-none-eabi/14.3.1/include/arm_mve.h **** #define vgetq_lane_u64(__a,  __idx) __arm_vgetq_lane_u64(__a,  __idx)
 703:/opt/st/stm32cubeclt_1.21.0/GNU-tools-for-STM32/lib/gcc/arm-none-eabi/14.3.1/include/arm_mve.h **** #define sqrshr(__p0, __p1) __arm_sqrshr(__p0, __p1)
 704:/opt/st/stm32cubeclt_1.21.0/GNU-tools-for-STM32/lib/gcc/arm-none-eabi/14.3.1/include/arm_mve.h **** #define sqrshrl(__p0, __p1) __arm_sqrshrl(__p0, __p1)
 705:/opt/st/stm32cubeclt_1.21.0/GNU-tools-for-STM32/lib/gcc/arm-none-eabi/14.3.1/include/arm_mve.h **** #define sqrshrl_sat48(__p0, __p1) __arm_sqrshrl_sat48(__p0, __p1)
 706:/opt/st/stm32cubeclt_1.21.0/GNU-tools-for-STM32/lib/gcc/arm-none-eabi/14.3.1/include/arm_mve.h **** #define sqshl(__p0, __p1) __arm_sqshl(__p0, __p1)
 707:/opt/st/stm32cubeclt_1.21.0/GNU-tools-for-STM32/lib/gcc/arm-none-eabi/14.3.1/include/arm_mve.h **** #define sqshll(__p0, __p1) __arm_sqshll(__p0, __p1)
 708:/opt/st/stm32cubeclt_1.21.0/GNU-tools-for-STM32/lib/gcc/arm-none-eabi/14.3.1/include/arm_mve.h **** #define srshr(__p0, __p1) __arm_srshr(__p0, __p1)
 709:/opt/st/stm32cubeclt_1.21.0/GNU-tools-for-STM32/lib/gcc/arm-none-eabi/14.3.1/include/arm_mve.h **** #define srshrl(__p0, __p1) __arm_srshrl(__p0, __p1)
 710:/opt/st/stm32cubeclt_1.21.0/GNU-tools-for-STM32/lib/gcc/arm-none-eabi/14.3.1/include/arm_mve.h **** #define uqrshl(__p0, __p1) __arm_uqrshl(__p0, __p1)
 711:/opt/st/stm32cubeclt_1.21.0/GNU-tools-for-STM32/lib/gcc/arm-none-eabi/14.3.1/include/arm_mve.h **** #define uqrshll(__p0, __p1) __arm_uqrshll(__p0, __p1)
 712:/opt/st/stm32cubeclt_1.21.0/GNU-tools-for-STM32/lib/gcc/arm-none-eabi/14.3.1/include/arm_mve.h **** #define uqrshll_sat48(__p0, __p1) __arm_uqrshll_sat48(__p0, __p1)
 713:/opt/st/stm32cubeclt_1.21.0/GNU-tools-for-STM32/lib/gcc/arm-none-eabi/14.3.1/include/arm_mve.h **** #define uqshl(__p0, __p1) __arm_uqshl(__p0, __p1)
 714:/opt/st/stm32cubeclt_1.21.0/GNU-tools-for-STM32/lib/gcc/arm-none-eabi/14.3.1/include/arm_mve.h **** #define uqshll(__p0, __p1) __arm_uqshll(__p0, __p1)
 715:/opt/st/stm32cubeclt_1.21.0/GNU-tools-for-STM32/lib/gcc/arm-none-eabi/14.3.1/include/arm_mve.h **** #define urshr(__p0, __p1) __arm_urshr(__p0, __p1)
 716:/opt/st/stm32cubeclt_1.21.0/GNU-tools-for-STM32/lib/gcc/arm-none-eabi/14.3.1/include/arm_mve.h **** #define urshrl(__p0, __p1) __arm_urshrl(__p0, __p1)
 717:/opt/st/stm32cubeclt_1.21.0/GNU-tools-for-STM32/lib/gcc/arm-none-eabi/14.3.1/include/arm_mve.h **** #define lsll(__p0, __p1) __arm_lsll(__p0, __p1)
 718:/opt/st/stm32cubeclt_1.21.0/GNU-tools-for-STM32/lib/gcc/arm-none-eabi/14.3.1/include/arm_mve.h **** #define asrl(__p0, __p1) __arm_asrl(__p0, __p1)
 719:/opt/st/stm32cubeclt_1.21.0/GNU-tools-for-STM32/lib/gcc/arm-none-eabi/14.3.1/include/arm_mve.h **** #define vshlcq_m_s8(__a,  __b,  __imm, __p) __arm_vshlcq_m_s8(__a,  __b,  __imm, __p)
 720:/opt/st/stm32cubeclt_1.21.0/GNU-tools-for-STM32/lib/gcc/arm-none-eabi/14.3.1/include/arm_mve.h **** #define vshlcq_m_u8(__a,  __b,  __imm, __p) __arm_vshlcq_m_u8(__a,  __b,  __imm, __p)
 721:/opt/st/stm32cubeclt_1.21.0/GNU-tools-for-STM32/lib/gcc/arm-none-eabi/14.3.1/include/arm_mve.h **** #define vshlcq_m_s16(__a,  __b,  __imm, __p) __arm_vshlcq_m_s16(__a,  __b,  __imm, __p)
 722:/opt/st/stm32cubeclt_1.21.0/GNU-tools-for-STM32/lib/gcc/arm-none-eabi/14.3.1/include/arm_mve.h **** #define vshlcq_m_u16(__a,  __b,  __imm, __p) __arm_vshlcq_m_u16(__a,  __b,  __imm, __p)
 723:/opt/st/stm32cubeclt_1.21.0/GNU-tools-for-STM32/lib/gcc/arm-none-eabi/14.3.1/include/arm_mve.h **** #define vshlcq_m_s32(__a,  __b,  __imm, __p) __arm_vshlcq_m_s32(__a,  __b,  __imm, __p)
 724:/opt/st/stm32cubeclt_1.21.0/GNU-tools-for-STM32/lib/gcc/arm-none-eabi/14.3.1/include/arm_mve.h **** #define vshlcq_m_u32(__a,  __b,  __imm, __p) __arm_vshlcq_m_u32(__a,  __b,  __imm, __p)
 725:/opt/st/stm32cubeclt_1.21.0/GNU-tools-for-STM32/lib/gcc/arm-none-eabi/14.3.1/include/arm_mve.h **** #endif
 726:/opt/st/stm32cubeclt_1.21.0/GNU-tools-for-STM32/lib/gcc/arm-none-eabi/14.3.1/include/arm_mve.h **** 
 727:/opt/st/stm32cubeclt_1.21.0/GNU-tools-for-STM32/lib/gcc/arm-none-eabi/14.3.1/include/arm_mve.h **** /* For big-endian, GCC's vector indices are reversed within each 64 bits
 728:/opt/st/stm32cubeclt_1.21.0/GNU-tools-for-STM32/lib/gcc/arm-none-eabi/14.3.1/include/arm_mve.h ****    compared to the architectural lane indices used by MVE intrinsics.  */
 729:/opt/st/stm32cubeclt_1.21.0/GNU-tools-for-STM32/lib/gcc/arm-none-eabi/14.3.1/include/arm_mve.h **** #define __ARM_NUM_LANES(__v) (sizeof (__v) / sizeof (__v[0]))
 730:/opt/st/stm32cubeclt_1.21.0/GNU-tools-for-STM32/lib/gcc/arm-none-eabi/14.3.1/include/arm_mve.h **** #ifdef __ARM_BIG_ENDIAN
 731:/opt/st/stm32cubeclt_1.21.0/GNU-tools-for-STM32/lib/gcc/arm-none-eabi/14.3.1/include/arm_mve.h **** #define __ARM_LANEQ(__vec, __idx) (__idx ^ (__ARM_NUM_LANES(__vec)/2 - 1))
 732:/opt/st/stm32cubeclt_1.21.0/GNU-tools-for-STM32/lib/gcc/arm-none-eabi/14.3.1/include/arm_mve.h **** #else
 733:/opt/st/stm32cubeclt_1.21.0/GNU-tools-for-STM32/lib/gcc/arm-none-eabi/14.3.1/include/arm_mve.h **** #define __ARM_LANEQ(__vec, __idx) __idx
 734:/opt/st/stm32cubeclt_1.21.0/GNU-tools-for-STM32/lib/gcc/arm-none-eabi/14.3.1/include/arm_mve.h **** #endif
 735:/opt/st/stm32cubeclt_1.21.0/GNU-tools-for-STM32/lib/gcc/arm-none-eabi/14.3.1/include/arm_mve.h **** #define __ARM_CHECK_LANEQ(__vec, __idx)		 \
 736:/opt/st/stm32cubeclt_1.21.0/GNU-tools-for-STM32/lib/gcc/arm-none-eabi/14.3.1/include/arm_mve.h ****   __builtin_arm_lane_check (__ARM_NUM_LANES(__vec),     \
 737:/opt/st/stm32cubeclt_1.21.0/GNU-tools-for-STM32/lib/gcc/arm-none-eabi/14.3.1/include/arm_mve.h **** 			    __ARM_LANEQ(__vec, __idx))
 738:/opt/st/stm32cubeclt_1.21.0/GNU-tools-for-STM32/lib/gcc/arm-none-eabi/14.3.1/include/arm_mve.h **** 
 739:/opt/st/stm32cubeclt_1.21.0/GNU-tools-for-STM32/lib/gcc/arm-none-eabi/14.3.1/include/arm_mve.h **** __extension__ extern __inline void
 740:/opt/st/stm32cubeclt_1.21.0/GNU-tools-for-STM32/lib/gcc/arm-none-eabi/14.3.1/include/arm_mve.h **** __attribute__ ((__always_inline__, __gnu_inline__, __artificial__))
 741:/opt/st/stm32cubeclt_1.21.0/GNU-tools-for-STM32/lib/gcc/arm-none-eabi/14.3.1/include/arm_mve.h **** __arm_vst4q_s8 (int8_t * __addr, int8x16x4_t __value)
 742:/opt/st/stm32cubeclt_1.21.0/GNU-tools-for-STM32/lib/gcc/arm-none-eabi/14.3.1/include/arm_mve.h **** {
 743:/opt/st/stm32cubeclt_1.21.0/GNU-tools-for-STM32/lib/gcc/arm-none-eabi/14.3.1/include/arm_mve.h ****   union { int8x16x4_t __i; __builtin_neon_xi __o; } __rv;
 744:/opt/st/stm32cubeclt_1.21.0/GNU-tools-for-STM32/lib/gcc/arm-none-eabi/14.3.1/include/arm_mve.h ****   __rv.__i = __value;
 745:/opt/st/stm32cubeclt_1.21.0/GNU-tools-for-STM32/lib/gcc/arm-none-eabi/14.3.1/include/arm_mve.h ****   __builtin_mve_vst4qv16qi ((__builtin_neon_qi *) __addr, __rv.__o);
 746:/opt/st/stm32cubeclt_1.21.0/GNU-tools-for-STM32/lib/gcc/arm-none-eabi/14.3.1/include/arm_mve.h **** }
 747:/opt/st/stm32cubeclt_1.21.0/GNU-tools-for-STM32/lib/gcc/arm-none-eabi/14.3.1/include/arm_mve.h **** 
 748:/opt/st/stm32cubeclt_1.21.0/GNU-tools-for-STM32/lib/gcc/arm-none-eabi/14.3.1/include/arm_mve.h **** __extension__ extern __inline void
 749:/opt/st/stm32cubeclt_1.21.0/GNU-tools-for-STM32/lib/gcc/arm-none-eabi/14.3.1/include/arm_mve.h **** __attribute__ ((__always_inline__, __gnu_inline__, __artificial__))
 750:/opt/st/stm32cubeclt_1.21.0/GNU-tools-for-STM32/lib/gcc/arm-none-eabi/14.3.1/include/arm_mve.h **** __arm_vst4q_s16 (int16_t * __addr, int16x8x4_t __value)
 751:/opt/st/stm32cubeclt_1.21.0/GNU-tools-for-STM32/lib/gcc/arm-none-eabi/14.3.1/include/arm_mve.h **** {
 752:/opt/st/stm32cubeclt_1.21.0/GNU-tools-for-STM32/lib/gcc/arm-none-eabi/14.3.1/include/arm_mve.h ****   union { int16x8x4_t __i; __builtin_neon_xi __o; } __rv;
 753:/opt/st/stm32cubeclt_1.21.0/GNU-tools-for-STM32/lib/gcc/arm-none-eabi/14.3.1/include/arm_mve.h ****   __rv.__i = __value;
 754:/opt/st/stm32cubeclt_1.21.0/GNU-tools-for-STM32/lib/gcc/arm-none-eabi/14.3.1/include/arm_mve.h ****   __builtin_mve_vst4qv8hi ((__builtin_neon_hi *) __addr, __rv.__o);
 755:/opt/st/stm32cubeclt_1.21.0/GNU-tools-for-STM32/lib/gcc/arm-none-eabi/14.3.1/include/arm_mve.h **** }
ARM GAS  /tmp/ccfH7U9I.s 			page 16


 756:/opt/st/stm32cubeclt_1.21.0/GNU-tools-for-STM32/lib/gcc/arm-none-eabi/14.3.1/include/arm_mve.h **** 
 757:/opt/st/stm32cubeclt_1.21.0/GNU-tools-for-STM32/lib/gcc/arm-none-eabi/14.3.1/include/arm_mve.h **** __extension__ extern __inline void
 758:/opt/st/stm32cubeclt_1.21.0/GNU-tools-for-STM32/lib/gcc/arm-none-eabi/14.3.1/include/arm_mve.h **** __attribute__ ((__always_inline__, __gnu_inline__, __artificial__))
 759:/opt/st/stm32cubeclt_1.21.0/GNU-tools-for-STM32/lib/gcc/arm-none-eabi/14.3.1/include/arm_mve.h **** __arm_vst4q_s32 (int32_t * __addr, int32x4x4_t __value)
 760:/opt/st/stm32cubeclt_1.21.0/GNU-tools-for-STM32/lib/gcc/arm-none-eabi/14.3.1/include/arm_mve.h **** {
 761:/opt/st/stm32cubeclt_1.21.0/GNU-tools-for-STM32/lib/gcc/arm-none-eabi/14.3.1/include/arm_mve.h ****   union { int32x4x4_t __i; __builtin_neon_xi __o; } __rv;
 762:/opt/st/stm32cubeclt_1.21.0/GNU-tools-for-STM32/lib/gcc/arm-none-eabi/14.3.1/include/arm_mve.h ****   __rv.__i = __value;
 763:/opt/st/stm32cubeclt_1.21.0/GNU-tools-for-STM32/lib/gcc/arm-none-eabi/14.3.1/include/arm_mve.h ****   __builtin_mve_vst4qv4si ((__builtin_neon_si *) __addr, __rv.__o);
 764:/opt/st/stm32cubeclt_1.21.0/GNU-tools-for-STM32/lib/gcc/arm-none-eabi/14.3.1/include/arm_mve.h **** }
 765:/opt/st/stm32cubeclt_1.21.0/GNU-tools-for-STM32/lib/gcc/arm-none-eabi/14.3.1/include/arm_mve.h **** 
 766:/opt/st/stm32cubeclt_1.21.0/GNU-tools-for-STM32/lib/gcc/arm-none-eabi/14.3.1/include/arm_mve.h **** __extension__ extern __inline void
 767:/opt/st/stm32cubeclt_1.21.0/GNU-tools-for-STM32/lib/gcc/arm-none-eabi/14.3.1/include/arm_mve.h **** __attribute__ ((__always_inline__, __gnu_inline__, __artificial__))
 768:/opt/st/stm32cubeclt_1.21.0/GNU-tools-for-STM32/lib/gcc/arm-none-eabi/14.3.1/include/arm_mve.h **** __arm_vst4q_u8 (uint8_t * __addr, uint8x16x4_t __value)
 769:/opt/st/stm32cubeclt_1.21.0/GNU-tools-for-STM32/lib/gcc/arm-none-eabi/14.3.1/include/arm_mve.h **** {
 770:/opt/st/stm32cubeclt_1.21.0/GNU-tools-for-STM32/lib/gcc/arm-none-eabi/14.3.1/include/arm_mve.h ****   union { uint8x16x4_t __i; __builtin_neon_xi __o; } __rv;
 771:/opt/st/stm32cubeclt_1.21.0/GNU-tools-for-STM32/lib/gcc/arm-none-eabi/14.3.1/include/arm_mve.h ****   __rv.__i = __value;
 772:/opt/st/stm32cubeclt_1.21.0/GNU-tools-for-STM32/lib/gcc/arm-none-eabi/14.3.1/include/arm_mve.h ****   __builtin_mve_vst4qv16qi ((__builtin_neon_qi *) __addr, __rv.__o);
 773:/opt/st/stm32cubeclt_1.21.0/GNU-tools-for-STM32/lib/gcc/arm-none-eabi/14.3.1/include/arm_mve.h **** }
 774:/opt/st/stm32cubeclt_1.21.0/GNU-tools-for-STM32/lib/gcc/arm-none-eabi/14.3.1/include/arm_mve.h **** 
 775:/opt/st/stm32cubeclt_1.21.0/GNU-tools-for-STM32/lib/gcc/arm-none-eabi/14.3.1/include/arm_mve.h **** __extension__ extern __inline void
 776:/opt/st/stm32cubeclt_1.21.0/GNU-tools-for-STM32/lib/gcc/arm-none-eabi/14.3.1/include/arm_mve.h **** __attribute__ ((__always_inline__, __gnu_inline__, __artificial__))
 777:/opt/st/stm32cubeclt_1.21.0/GNU-tools-for-STM32/lib/gcc/arm-none-eabi/14.3.1/include/arm_mve.h **** __arm_vst4q_u16 (uint16_t * __addr, uint16x8x4_t __value)
 778:/opt/st/stm32cubeclt_1.21.0/GNU-tools-for-STM32/lib/gcc/arm-none-eabi/14.3.1/include/arm_mve.h **** {
 779:/opt/st/stm32cubeclt_1.21.0/GNU-tools-for-STM32/lib/gcc/arm-none-eabi/14.3.1/include/arm_mve.h ****   union { uint16x8x4_t __i; __builtin_neon_xi __o; } __rv;
 780:/opt/st/stm32cubeclt_1.21.0/GNU-tools-for-STM32/lib/gcc/arm-none-eabi/14.3.1/include/arm_mve.h ****   __rv.__i = __value;
 781:/opt/st/stm32cubeclt_1.21.0/GNU-tools-for-STM32/lib/gcc/arm-none-eabi/14.3.1/include/arm_mve.h ****   __builtin_mve_vst4qv8hi ((__builtin_neon_hi *) __addr, __rv.__o);
 782:/opt/st/stm32cubeclt_1.21.0/GNU-tools-for-STM32/lib/gcc/arm-none-eabi/14.3.1/include/arm_mve.h **** }
 783:/opt/st/stm32cubeclt_1.21.0/GNU-tools-for-STM32/lib/gcc/arm-none-eabi/14.3.1/include/arm_mve.h **** 
 784:/opt/st/stm32cubeclt_1.21.0/GNU-tools-for-STM32/lib/gcc/arm-none-eabi/14.3.1/include/arm_mve.h **** __extension__ extern __inline void
 785:/opt/st/stm32cubeclt_1.21.0/GNU-tools-for-STM32/lib/gcc/arm-none-eabi/14.3.1/include/arm_mve.h **** __attribute__ ((__always_inline__, __gnu_inline__, __artificial__))
 786:/opt/st/stm32cubeclt_1.21.0/GNU-tools-for-STM32/lib/gcc/arm-none-eabi/14.3.1/include/arm_mve.h **** __arm_vst4q_u32 (uint32_t * __addr, uint32x4x4_t __value)
 787:/opt/st/stm32cubeclt_1.21.0/GNU-tools-for-STM32/lib/gcc/arm-none-eabi/14.3.1/include/arm_mve.h **** {
 788:/opt/st/stm32cubeclt_1.21.0/GNU-tools-for-STM32/lib/gcc/arm-none-eabi/14.3.1/include/arm_mve.h ****   union { uint32x4x4_t __i; __builtin_neon_xi __o; } __rv;
 789:/opt/st/stm32cubeclt_1.21.0/GNU-tools-for-STM32/lib/gcc/arm-none-eabi/14.3.1/include/arm_mve.h ****   __rv.__i = __value;
 790:/opt/st/stm32cubeclt_1.21.0/GNU-tools-for-STM32/lib/gcc/arm-none-eabi/14.3.1/include/arm_mve.h ****   __builtin_mve_vst4qv4si ((__builtin_neon_si *) __addr, __rv.__o);
 791:/opt/st/stm32cubeclt_1.21.0/GNU-tools-for-STM32/lib/gcc/arm-none-eabi/14.3.1/include/arm_mve.h **** }
 792:/opt/st/stm32cubeclt_1.21.0/GNU-tools-for-STM32/lib/gcc/arm-none-eabi/14.3.1/include/arm_mve.h **** 
 793:/opt/st/stm32cubeclt_1.21.0/GNU-tools-for-STM32/lib/gcc/arm-none-eabi/14.3.1/include/arm_mve.h **** __extension__ extern __inline mve_pred16_t
 794:/opt/st/stm32cubeclt_1.21.0/GNU-tools-for-STM32/lib/gcc/arm-none-eabi/14.3.1/include/arm_mve.h **** __attribute__ ((__always_inline__, __gnu_inline__, __artificial__))
 795:/opt/st/stm32cubeclt_1.21.0/GNU-tools-for-STM32/lib/gcc/arm-none-eabi/14.3.1/include/arm_mve.h **** __arm_vctp16q (uint32_t __a)
 796:/opt/st/stm32cubeclt_1.21.0/GNU-tools-for-STM32/lib/gcc/arm-none-eabi/14.3.1/include/arm_mve.h **** {
 797:/opt/st/stm32cubeclt_1.21.0/GNU-tools-for-STM32/lib/gcc/arm-none-eabi/14.3.1/include/arm_mve.h ****   return __builtin_mve_vctp16qv8bi (__a);
 798:/opt/st/stm32cubeclt_1.21.0/GNU-tools-for-STM32/lib/gcc/arm-none-eabi/14.3.1/include/arm_mve.h **** }
 799:/opt/st/stm32cubeclt_1.21.0/GNU-tools-for-STM32/lib/gcc/arm-none-eabi/14.3.1/include/arm_mve.h **** 
 800:/opt/st/stm32cubeclt_1.21.0/GNU-tools-for-STM32/lib/gcc/arm-none-eabi/14.3.1/include/arm_mve.h **** __extension__ extern __inline mve_pred16_t
 801:/opt/st/stm32cubeclt_1.21.0/GNU-tools-for-STM32/lib/gcc/arm-none-eabi/14.3.1/include/arm_mve.h **** __attribute__ ((__always_inline__, __gnu_inline__, __artificial__))
 802:/opt/st/stm32cubeclt_1.21.0/GNU-tools-for-STM32/lib/gcc/arm-none-eabi/14.3.1/include/arm_mve.h **** __arm_vctp32q (uint32_t __a)
 803:/opt/st/stm32cubeclt_1.21.0/GNU-tools-for-STM32/lib/gcc/arm-none-eabi/14.3.1/include/arm_mve.h **** {
 804:/opt/st/stm32cubeclt_1.21.0/GNU-tools-for-STM32/lib/gcc/arm-none-eabi/14.3.1/include/arm_mve.h ****   return __builtin_mve_vctp32qv4bi (__a);
 805:/opt/st/stm32cubeclt_1.21.0/GNU-tools-for-STM32/lib/gcc/arm-none-eabi/14.3.1/include/arm_mve.h **** }
 806:/opt/st/stm32cubeclt_1.21.0/GNU-tools-for-STM32/lib/gcc/arm-none-eabi/14.3.1/include/arm_mve.h **** 
 807:/opt/st/stm32cubeclt_1.21.0/GNU-tools-for-STM32/lib/gcc/arm-none-eabi/14.3.1/include/arm_mve.h **** __extension__ extern __inline mve_pred16_t
 808:/opt/st/stm32cubeclt_1.21.0/GNU-tools-for-STM32/lib/gcc/arm-none-eabi/14.3.1/include/arm_mve.h **** __attribute__ ((__always_inline__, __gnu_inline__, __artificial__))
 809:/opt/st/stm32cubeclt_1.21.0/GNU-tools-for-STM32/lib/gcc/arm-none-eabi/14.3.1/include/arm_mve.h **** __arm_vctp64q (uint32_t __a)
 810:/opt/st/stm32cubeclt_1.21.0/GNU-tools-for-STM32/lib/gcc/arm-none-eabi/14.3.1/include/arm_mve.h **** {
 811:/opt/st/stm32cubeclt_1.21.0/GNU-tools-for-STM32/lib/gcc/arm-none-eabi/14.3.1/include/arm_mve.h ****   return __builtin_mve_vctp64qv2qi (__a);
 812:/opt/st/stm32cubeclt_1.21.0/GNU-tools-for-STM32/lib/gcc/arm-none-eabi/14.3.1/include/arm_mve.h **** }
ARM GAS  /tmp/ccfH7U9I.s 			page 17


 813:/opt/st/stm32cubeclt_1.21.0/GNU-tools-for-STM32/lib/gcc/arm-none-eabi/14.3.1/include/arm_mve.h **** 
 814:/opt/st/stm32cubeclt_1.21.0/GNU-tools-for-STM32/lib/gcc/arm-none-eabi/14.3.1/include/arm_mve.h **** __extension__ extern __inline mve_pred16_t
 815:/opt/st/stm32cubeclt_1.21.0/GNU-tools-for-STM32/lib/gcc/arm-none-eabi/14.3.1/include/arm_mve.h **** __attribute__ ((__always_inline__, __gnu_inline__, __artificial__))
 816:/opt/st/stm32cubeclt_1.21.0/GNU-tools-for-STM32/lib/gcc/arm-none-eabi/14.3.1/include/arm_mve.h **** __arm_vctp8q (uint32_t __a)
 817:/opt/st/stm32cubeclt_1.21.0/GNU-tools-for-STM32/lib/gcc/arm-none-eabi/14.3.1/include/arm_mve.h **** {
 818:/opt/st/stm32cubeclt_1.21.0/GNU-tools-for-STM32/lib/gcc/arm-none-eabi/14.3.1/include/arm_mve.h ****   return __builtin_mve_vctp8qv16bi (__a);
 819:/opt/st/stm32cubeclt_1.21.0/GNU-tools-for-STM32/lib/gcc/arm-none-eabi/14.3.1/include/arm_mve.h **** }
 820:/opt/st/stm32cubeclt_1.21.0/GNU-tools-for-STM32/lib/gcc/arm-none-eabi/14.3.1/include/arm_mve.h **** 
 821:/opt/st/stm32cubeclt_1.21.0/GNU-tools-for-STM32/lib/gcc/arm-none-eabi/14.3.1/include/arm_mve.h **** __extension__ extern __inline mve_pred16_t
 822:/opt/st/stm32cubeclt_1.21.0/GNU-tools-for-STM32/lib/gcc/arm-none-eabi/14.3.1/include/arm_mve.h **** __attribute__ ((__always_inline__, __gnu_inline__, __artificial__))
 823:/opt/st/stm32cubeclt_1.21.0/GNU-tools-for-STM32/lib/gcc/arm-none-eabi/14.3.1/include/arm_mve.h **** __arm_vpnot (mve_pred16_t __a)
 824:/opt/st/stm32cubeclt_1.21.0/GNU-tools-for-STM32/lib/gcc/arm-none-eabi/14.3.1/include/arm_mve.h **** {
 825:/opt/st/stm32cubeclt_1.21.0/GNU-tools-for-STM32/lib/gcc/arm-none-eabi/14.3.1/include/arm_mve.h ****   return __builtin_mve_vpnotv16bi (__a);
 826:/opt/st/stm32cubeclt_1.21.0/GNU-tools-for-STM32/lib/gcc/arm-none-eabi/14.3.1/include/arm_mve.h **** }
 827:/opt/st/stm32cubeclt_1.21.0/GNU-tools-for-STM32/lib/gcc/arm-none-eabi/14.3.1/include/arm_mve.h **** 
 828:/opt/st/stm32cubeclt_1.21.0/GNU-tools-for-STM32/lib/gcc/arm-none-eabi/14.3.1/include/arm_mve.h **** __extension__ extern __inline uint8x16_t
 829:/opt/st/stm32cubeclt_1.21.0/GNU-tools-for-STM32/lib/gcc/arm-none-eabi/14.3.1/include/arm_mve.h **** __attribute__ ((__always_inline__, __gnu_inline__, __artificial__))
 830:/opt/st/stm32cubeclt_1.21.0/GNU-tools-for-STM32/lib/gcc/arm-none-eabi/14.3.1/include/arm_mve.h **** __arm_vornq_u8 (uint8x16_t __a, uint8x16_t __b)
 831:/opt/st/stm32cubeclt_1.21.0/GNU-tools-for-STM32/lib/gcc/arm-none-eabi/14.3.1/include/arm_mve.h **** {
 832:/opt/st/stm32cubeclt_1.21.0/GNU-tools-for-STM32/lib/gcc/arm-none-eabi/14.3.1/include/arm_mve.h ****   return __builtin_mve_vornq_uv16qi (__a, __b);
 833:/opt/st/stm32cubeclt_1.21.0/GNU-tools-for-STM32/lib/gcc/arm-none-eabi/14.3.1/include/arm_mve.h **** }
 834:/opt/st/stm32cubeclt_1.21.0/GNU-tools-for-STM32/lib/gcc/arm-none-eabi/14.3.1/include/arm_mve.h **** 
 835:/opt/st/stm32cubeclt_1.21.0/GNU-tools-for-STM32/lib/gcc/arm-none-eabi/14.3.1/include/arm_mve.h **** __extension__ extern __inline uint8x16_t
 836:/opt/st/stm32cubeclt_1.21.0/GNU-tools-for-STM32/lib/gcc/arm-none-eabi/14.3.1/include/arm_mve.h **** __attribute__ ((__always_inline__, __gnu_inline__, __artificial__))
 837:/opt/st/stm32cubeclt_1.21.0/GNU-tools-for-STM32/lib/gcc/arm-none-eabi/14.3.1/include/arm_mve.h **** __arm_vbicq_u8 (uint8x16_t __a, uint8x16_t __b)
 838:/opt/st/stm32cubeclt_1.21.0/GNU-tools-for-STM32/lib/gcc/arm-none-eabi/14.3.1/include/arm_mve.h **** {
 839:/opt/st/stm32cubeclt_1.21.0/GNU-tools-for-STM32/lib/gcc/arm-none-eabi/14.3.1/include/arm_mve.h ****   return __builtin_mve_vbicq_uv16qi (__a, __b);
 840:/opt/st/stm32cubeclt_1.21.0/GNU-tools-for-STM32/lib/gcc/arm-none-eabi/14.3.1/include/arm_mve.h **** }
 841:/opt/st/stm32cubeclt_1.21.0/GNU-tools-for-STM32/lib/gcc/arm-none-eabi/14.3.1/include/arm_mve.h **** 
 842:/opt/st/stm32cubeclt_1.21.0/GNU-tools-for-STM32/lib/gcc/arm-none-eabi/14.3.1/include/arm_mve.h **** __extension__ extern __inline int8x16_t
 843:/opt/st/stm32cubeclt_1.21.0/GNU-tools-for-STM32/lib/gcc/arm-none-eabi/14.3.1/include/arm_mve.h **** __attribute__ ((__always_inline__, __gnu_inline__, __artificial__))
 844:/opt/st/stm32cubeclt_1.21.0/GNU-tools-for-STM32/lib/gcc/arm-none-eabi/14.3.1/include/arm_mve.h **** __arm_vornq_s8 (int8x16_t __a, int8x16_t __b)
 845:/opt/st/stm32cubeclt_1.21.0/GNU-tools-for-STM32/lib/gcc/arm-none-eabi/14.3.1/include/arm_mve.h **** {
 846:/opt/st/stm32cubeclt_1.21.0/GNU-tools-for-STM32/lib/gcc/arm-none-eabi/14.3.1/include/arm_mve.h ****   return __builtin_mve_vornq_sv16qi (__a, __b);
 847:/opt/st/stm32cubeclt_1.21.0/GNU-tools-for-STM32/lib/gcc/arm-none-eabi/14.3.1/include/arm_mve.h **** }
 848:/opt/st/stm32cubeclt_1.21.0/GNU-tools-for-STM32/lib/gcc/arm-none-eabi/14.3.1/include/arm_mve.h **** 
 849:/opt/st/stm32cubeclt_1.21.0/GNU-tools-for-STM32/lib/gcc/arm-none-eabi/14.3.1/include/arm_mve.h **** __extension__ extern __inline int8x16_t
 850:/opt/st/stm32cubeclt_1.21.0/GNU-tools-for-STM32/lib/gcc/arm-none-eabi/14.3.1/include/arm_mve.h **** __attribute__ ((__always_inline__, __gnu_inline__, __artificial__))
 851:/opt/st/stm32cubeclt_1.21.0/GNU-tools-for-STM32/lib/gcc/arm-none-eabi/14.3.1/include/arm_mve.h **** __arm_vbicq_s8 (int8x16_t __a, int8x16_t __b)
 852:/opt/st/stm32cubeclt_1.21.0/GNU-tools-for-STM32/lib/gcc/arm-none-eabi/14.3.1/include/arm_mve.h **** {
 853:/opt/st/stm32cubeclt_1.21.0/GNU-tools-for-STM32/lib/gcc/arm-none-eabi/14.3.1/include/arm_mve.h ****   return __builtin_mve_vbicq_sv16qi (__a, __b);
 854:/opt/st/stm32cubeclt_1.21.0/GNU-tools-for-STM32/lib/gcc/arm-none-eabi/14.3.1/include/arm_mve.h **** }
 855:/opt/st/stm32cubeclt_1.21.0/GNU-tools-for-STM32/lib/gcc/arm-none-eabi/14.3.1/include/arm_mve.h **** 
 856:/opt/st/stm32cubeclt_1.21.0/GNU-tools-for-STM32/lib/gcc/arm-none-eabi/14.3.1/include/arm_mve.h **** __extension__ extern __inline uint16x8_t
 857:/opt/st/stm32cubeclt_1.21.0/GNU-tools-for-STM32/lib/gcc/arm-none-eabi/14.3.1/include/arm_mve.h **** __attribute__ ((__always_inline__, __gnu_inline__, __artificial__))
 858:/opt/st/stm32cubeclt_1.21.0/GNU-tools-for-STM32/lib/gcc/arm-none-eabi/14.3.1/include/arm_mve.h **** __arm_vornq_u16 (uint16x8_t __a, uint16x8_t __b)
 859:/opt/st/stm32cubeclt_1.21.0/GNU-tools-for-STM32/lib/gcc/arm-none-eabi/14.3.1/include/arm_mve.h **** {
 860:/opt/st/stm32cubeclt_1.21.0/GNU-tools-for-STM32/lib/gcc/arm-none-eabi/14.3.1/include/arm_mve.h ****   return __builtin_mve_vornq_uv8hi (__a, __b);
 861:/opt/st/stm32cubeclt_1.21.0/GNU-tools-for-STM32/lib/gcc/arm-none-eabi/14.3.1/include/arm_mve.h **** }
 862:/opt/st/stm32cubeclt_1.21.0/GNU-tools-for-STM32/lib/gcc/arm-none-eabi/14.3.1/include/arm_mve.h **** 
 863:/opt/st/stm32cubeclt_1.21.0/GNU-tools-for-STM32/lib/gcc/arm-none-eabi/14.3.1/include/arm_mve.h **** __extension__ extern __inline uint16x8_t
 864:/opt/st/stm32cubeclt_1.21.0/GNU-tools-for-STM32/lib/gcc/arm-none-eabi/14.3.1/include/arm_mve.h **** __attribute__ ((__always_inline__, __gnu_inline__, __artificial__))
 865:/opt/st/stm32cubeclt_1.21.0/GNU-tools-for-STM32/lib/gcc/arm-none-eabi/14.3.1/include/arm_mve.h **** __arm_vbicq_u16 (uint16x8_t __a, uint16x8_t __b)
 866:/opt/st/stm32cubeclt_1.21.0/GNU-tools-for-STM32/lib/gcc/arm-none-eabi/14.3.1/include/arm_mve.h **** {
 867:/opt/st/stm32cubeclt_1.21.0/GNU-tools-for-STM32/lib/gcc/arm-none-eabi/14.3.1/include/arm_mve.h ****   return __builtin_mve_vbicq_uv8hi (__a, __b);
 868:/opt/st/stm32cubeclt_1.21.0/GNU-tools-for-STM32/lib/gcc/arm-none-eabi/14.3.1/include/arm_mve.h **** }
 869:/opt/st/stm32cubeclt_1.21.0/GNU-tools-for-STM32/lib/gcc/arm-none-eabi/14.3.1/include/arm_mve.h **** 
ARM GAS  /tmp/ccfH7U9I.s 			page 18


 870:/opt/st/stm32cubeclt_1.21.0/GNU-tools-for-STM32/lib/gcc/arm-none-eabi/14.3.1/include/arm_mve.h **** __extension__ extern __inline int16x8_t
 871:/opt/st/stm32cubeclt_1.21.0/GNU-tools-for-STM32/lib/gcc/arm-none-eabi/14.3.1/include/arm_mve.h **** __attribute__ ((__always_inline__, __gnu_inline__, __artificial__))
 872:/opt/st/stm32cubeclt_1.21.0/GNU-tools-for-STM32/lib/gcc/arm-none-eabi/14.3.1/include/arm_mve.h **** __arm_vornq_s16 (int16x8_t __a, int16x8_t __b)
 873:/opt/st/stm32cubeclt_1.21.0/GNU-tools-for-STM32/lib/gcc/arm-none-eabi/14.3.1/include/arm_mve.h **** {
 874:/opt/st/stm32cubeclt_1.21.0/GNU-tools-for-STM32/lib/gcc/arm-none-eabi/14.3.1/include/arm_mve.h ****   return __builtin_mve_vornq_sv8hi (__a, __b);
 875:/opt/st/stm32cubeclt_1.21.0/GNU-tools-for-STM32/lib/gcc/arm-none-eabi/14.3.1/include/arm_mve.h **** }
 876:/opt/st/stm32cubeclt_1.21.0/GNU-tools-for-STM32/lib/gcc/arm-none-eabi/14.3.1/include/arm_mve.h **** 
 877:/opt/st/stm32cubeclt_1.21.0/GNU-tools-for-STM32/lib/gcc/arm-none-eabi/14.3.1/include/arm_mve.h **** __extension__ extern __inline int16x8_t
 878:/opt/st/stm32cubeclt_1.21.0/GNU-tools-for-STM32/lib/gcc/arm-none-eabi/14.3.1/include/arm_mve.h **** __attribute__ ((__always_inline__, __gnu_inline__, __artificial__))
 879:/opt/st/stm32cubeclt_1.21.0/GNU-tools-for-STM32/lib/gcc/arm-none-eabi/14.3.1/include/arm_mve.h **** __arm_vbicq_s16 (int16x8_t __a, int16x8_t __b)
 880:/opt/st/stm32cubeclt_1.21.0/GNU-tools-for-STM32/lib/gcc/arm-none-eabi/14.3.1/include/arm_mve.h **** {
 881:/opt/st/stm32cubeclt_1.21.0/GNU-tools-for-STM32/lib/gcc/arm-none-eabi/14.3.1/include/arm_mve.h ****   return __builtin_mve_vbicq_sv8hi (__a, __b);
 882:/opt/st/stm32cubeclt_1.21.0/GNU-tools-for-STM32/lib/gcc/arm-none-eabi/14.3.1/include/arm_mve.h **** }
 883:/opt/st/stm32cubeclt_1.21.0/GNU-tools-for-STM32/lib/gcc/arm-none-eabi/14.3.1/include/arm_mve.h **** 
 884:/opt/st/stm32cubeclt_1.21.0/GNU-tools-for-STM32/lib/gcc/arm-none-eabi/14.3.1/include/arm_mve.h **** __extension__ extern __inline uint32x4_t
 885:/opt/st/stm32cubeclt_1.21.0/GNU-tools-for-STM32/lib/gcc/arm-none-eabi/14.3.1/include/arm_mve.h **** __attribute__ ((__always_inline__, __gnu_inline__, __artificial__))
 886:/opt/st/stm32cubeclt_1.21.0/GNU-tools-for-STM32/lib/gcc/arm-none-eabi/14.3.1/include/arm_mve.h **** __arm_vornq_u32 (uint32x4_t __a, uint32x4_t __b)
 887:/opt/st/stm32cubeclt_1.21.0/GNU-tools-for-STM32/lib/gcc/arm-none-eabi/14.3.1/include/arm_mve.h **** {
 888:/opt/st/stm32cubeclt_1.21.0/GNU-tools-for-STM32/lib/gcc/arm-none-eabi/14.3.1/include/arm_mve.h ****   return __builtin_mve_vornq_uv4si (__a, __b);
 889:/opt/st/stm32cubeclt_1.21.0/GNU-tools-for-STM32/lib/gcc/arm-none-eabi/14.3.1/include/arm_mve.h **** }
 890:/opt/st/stm32cubeclt_1.21.0/GNU-tools-for-STM32/lib/gcc/arm-none-eabi/14.3.1/include/arm_mve.h **** 
 891:/opt/st/stm32cubeclt_1.21.0/GNU-tools-for-STM32/lib/gcc/arm-none-eabi/14.3.1/include/arm_mve.h **** __extension__ extern __inline uint32x4_t
 892:/opt/st/stm32cubeclt_1.21.0/GNU-tools-for-STM32/lib/gcc/arm-none-eabi/14.3.1/include/arm_mve.h **** __attribute__ ((__always_inline__, __gnu_inline__, __artificial__))
 893:/opt/st/stm32cubeclt_1.21.0/GNU-tools-for-STM32/lib/gcc/arm-none-eabi/14.3.1/include/arm_mve.h **** __arm_vbicq_u32 (uint32x4_t __a, uint32x4_t __b)
 894:/opt/st/stm32cubeclt_1.21.0/GNU-tools-for-STM32/lib/gcc/arm-none-eabi/14.3.1/include/arm_mve.h **** {
 895:/opt/st/stm32cubeclt_1.21.0/GNU-tools-for-STM32/lib/gcc/arm-none-eabi/14.3.1/include/arm_mve.h ****   return __builtin_mve_vbicq_uv4si (__a, __b);
 896:/opt/st/stm32cubeclt_1.21.0/GNU-tools-for-STM32/lib/gcc/arm-none-eabi/14.3.1/include/arm_mve.h **** }
 897:/opt/st/stm32cubeclt_1.21.0/GNU-tools-for-STM32/lib/gcc/arm-none-eabi/14.3.1/include/arm_mve.h **** 
 898:/opt/st/stm32cubeclt_1.21.0/GNU-tools-for-STM32/lib/gcc/arm-none-eabi/14.3.1/include/arm_mve.h **** __extension__ extern __inline int32x4_t
 899:/opt/st/stm32cubeclt_1.21.0/GNU-tools-for-STM32/lib/gcc/arm-none-eabi/14.3.1/include/arm_mve.h **** __attribute__ ((__always_inline__, __gnu_inline__, __artificial__))
 900:/opt/st/stm32cubeclt_1.21.0/GNU-tools-for-STM32/lib/gcc/arm-none-eabi/14.3.1/include/arm_mve.h **** __arm_vornq_s32 (int32x4_t __a, int32x4_t __b)
 901:/opt/st/stm32cubeclt_1.21.0/GNU-tools-for-STM32/lib/gcc/arm-none-eabi/14.3.1/include/arm_mve.h **** {
 902:/opt/st/stm32cubeclt_1.21.0/GNU-tools-for-STM32/lib/gcc/arm-none-eabi/14.3.1/include/arm_mve.h ****   return __builtin_mve_vornq_sv4si (__a, __b);
 903:/opt/st/stm32cubeclt_1.21.0/GNU-tools-for-STM32/lib/gcc/arm-none-eabi/14.3.1/include/arm_mve.h **** }
 904:/opt/st/stm32cubeclt_1.21.0/GNU-tools-for-STM32/lib/gcc/arm-none-eabi/14.3.1/include/arm_mve.h **** 
 905:/opt/st/stm32cubeclt_1.21.0/GNU-tools-for-STM32/lib/gcc/arm-none-eabi/14.3.1/include/arm_mve.h **** __extension__ extern __inline int32x4_t
 906:/opt/st/stm32cubeclt_1.21.0/GNU-tools-for-STM32/lib/gcc/arm-none-eabi/14.3.1/include/arm_mve.h **** __attribute__ ((__always_inline__, __gnu_inline__, __artificial__))
 907:/opt/st/stm32cubeclt_1.21.0/GNU-tools-for-STM32/lib/gcc/arm-none-eabi/14.3.1/include/arm_mve.h **** __arm_vbicq_s32 (int32x4_t __a, int32x4_t __b)
 908:/opt/st/stm32cubeclt_1.21.0/GNU-tools-for-STM32/lib/gcc/arm-none-eabi/14.3.1/include/arm_mve.h **** {
 909:/opt/st/stm32cubeclt_1.21.0/GNU-tools-for-STM32/lib/gcc/arm-none-eabi/14.3.1/include/arm_mve.h ****   return __builtin_mve_vbicq_sv4si (__a, __b);
 910:/opt/st/stm32cubeclt_1.21.0/GNU-tools-for-STM32/lib/gcc/arm-none-eabi/14.3.1/include/arm_mve.h **** }
 911:/opt/st/stm32cubeclt_1.21.0/GNU-tools-for-STM32/lib/gcc/arm-none-eabi/14.3.1/include/arm_mve.h **** 
 912:/opt/st/stm32cubeclt_1.21.0/GNU-tools-for-STM32/lib/gcc/arm-none-eabi/14.3.1/include/arm_mve.h **** __extension__ extern __inline uint16x8_t
 913:/opt/st/stm32cubeclt_1.21.0/GNU-tools-for-STM32/lib/gcc/arm-none-eabi/14.3.1/include/arm_mve.h **** __attribute__ ((__always_inline__, __gnu_inline__, __artificial__))
 914:/opt/st/stm32cubeclt_1.21.0/GNU-tools-for-STM32/lib/gcc/arm-none-eabi/14.3.1/include/arm_mve.h **** __arm_vbicq_n_u16 (uint16x8_t __a, const int __imm)
 915:/opt/st/stm32cubeclt_1.21.0/GNU-tools-for-STM32/lib/gcc/arm-none-eabi/14.3.1/include/arm_mve.h **** {
 916:/opt/st/stm32cubeclt_1.21.0/GNU-tools-for-STM32/lib/gcc/arm-none-eabi/14.3.1/include/arm_mve.h ****   return __builtin_mve_vbicq_n_uv8hi (__a, __imm);
 917:/opt/st/stm32cubeclt_1.21.0/GNU-tools-for-STM32/lib/gcc/arm-none-eabi/14.3.1/include/arm_mve.h **** }
 918:/opt/st/stm32cubeclt_1.21.0/GNU-tools-for-STM32/lib/gcc/arm-none-eabi/14.3.1/include/arm_mve.h **** 
 919:/opt/st/stm32cubeclt_1.21.0/GNU-tools-for-STM32/lib/gcc/arm-none-eabi/14.3.1/include/arm_mve.h **** __extension__ extern __inline int16x8_t
 920:/opt/st/stm32cubeclt_1.21.0/GNU-tools-for-STM32/lib/gcc/arm-none-eabi/14.3.1/include/arm_mve.h **** __attribute__ ((__always_inline__, __gnu_inline__, __artificial__))
 921:/opt/st/stm32cubeclt_1.21.0/GNU-tools-for-STM32/lib/gcc/arm-none-eabi/14.3.1/include/arm_mve.h **** __arm_vbicq_n_s16 (int16x8_t __a, const int __imm)
 922:/opt/st/stm32cubeclt_1.21.0/GNU-tools-for-STM32/lib/gcc/arm-none-eabi/14.3.1/include/arm_mve.h **** {
 923:/opt/st/stm32cubeclt_1.21.0/GNU-tools-for-STM32/lib/gcc/arm-none-eabi/14.3.1/include/arm_mve.h ****   return __builtin_mve_vbicq_n_sv8hi (__a, __imm);
 924:/opt/st/stm32cubeclt_1.21.0/GNU-tools-for-STM32/lib/gcc/arm-none-eabi/14.3.1/include/arm_mve.h **** }
 925:/opt/st/stm32cubeclt_1.21.0/GNU-tools-for-STM32/lib/gcc/arm-none-eabi/14.3.1/include/arm_mve.h **** 
 926:/opt/st/stm32cubeclt_1.21.0/GNU-tools-for-STM32/lib/gcc/arm-none-eabi/14.3.1/include/arm_mve.h **** __extension__ extern __inline uint32x4_t
ARM GAS  /tmp/ccfH7U9I.s 			page 19


 927:/opt/st/stm32cubeclt_1.21.0/GNU-tools-for-STM32/lib/gcc/arm-none-eabi/14.3.1/include/arm_mve.h **** __attribute__ ((__always_inline__, __gnu_inline__, __artificial__))
 928:/opt/st/stm32cubeclt_1.21.0/GNU-tools-for-STM32/lib/gcc/arm-none-eabi/14.3.1/include/arm_mve.h **** __arm_vbicq_n_u32 (uint32x4_t __a, const int __imm)
 929:/opt/st/stm32cubeclt_1.21.0/GNU-tools-for-STM32/lib/gcc/arm-none-eabi/14.3.1/include/arm_mve.h **** {
 930:/opt/st/stm32cubeclt_1.21.0/GNU-tools-for-STM32/lib/gcc/arm-none-eabi/14.3.1/include/arm_mve.h ****   return __builtin_mve_vbicq_n_uv4si (__a, __imm);
 931:/opt/st/stm32cubeclt_1.21.0/GNU-tools-for-STM32/lib/gcc/arm-none-eabi/14.3.1/include/arm_mve.h **** }
 932:/opt/st/stm32cubeclt_1.21.0/GNU-tools-for-STM32/lib/gcc/arm-none-eabi/14.3.1/include/arm_mve.h **** 
 933:/opt/st/stm32cubeclt_1.21.0/GNU-tools-for-STM32/lib/gcc/arm-none-eabi/14.3.1/include/arm_mve.h **** __extension__ extern __inline int32x4_t
 934:/opt/st/stm32cubeclt_1.21.0/GNU-tools-for-STM32/lib/gcc/arm-none-eabi/14.3.1/include/arm_mve.h **** __attribute__ ((__always_inline__, __gnu_inline__, __artificial__))
 935:/opt/st/stm32cubeclt_1.21.0/GNU-tools-for-STM32/lib/gcc/arm-none-eabi/14.3.1/include/arm_mve.h **** __arm_vbicq_n_s32 (int32x4_t __a, const int __imm)
 936:/opt/st/stm32cubeclt_1.21.0/GNU-tools-for-STM32/lib/gcc/arm-none-eabi/14.3.1/include/arm_mve.h **** {
 937:/opt/st/stm32cubeclt_1.21.0/GNU-tools-for-STM32/lib/gcc/arm-none-eabi/14.3.1/include/arm_mve.h ****   return __builtin_mve_vbicq_n_sv4si (__a, __imm);
 938:/opt/st/stm32cubeclt_1.21.0/GNU-tools-for-STM32/lib/gcc/arm-none-eabi/14.3.1/include/arm_mve.h **** }
 939:/opt/st/stm32cubeclt_1.21.0/GNU-tools-for-STM32/lib/gcc/arm-none-eabi/14.3.1/include/arm_mve.h **** 
 940:/opt/st/stm32cubeclt_1.21.0/GNU-tools-for-STM32/lib/gcc/arm-none-eabi/14.3.1/include/arm_mve.h **** __extension__ extern __inline mve_pred16_t
 941:/opt/st/stm32cubeclt_1.21.0/GNU-tools-for-STM32/lib/gcc/arm-none-eabi/14.3.1/include/arm_mve.h **** __attribute__ ((__always_inline__, __gnu_inline__, __artificial__))
 942:/opt/st/stm32cubeclt_1.21.0/GNU-tools-for-STM32/lib/gcc/arm-none-eabi/14.3.1/include/arm_mve.h **** __arm_vctp8q_m (uint32_t __a, mve_pred16_t __p)
 943:/opt/st/stm32cubeclt_1.21.0/GNU-tools-for-STM32/lib/gcc/arm-none-eabi/14.3.1/include/arm_mve.h **** {
 944:/opt/st/stm32cubeclt_1.21.0/GNU-tools-for-STM32/lib/gcc/arm-none-eabi/14.3.1/include/arm_mve.h ****   return __builtin_mve_vctp8q_mv16bi (__a, __p);
 945:/opt/st/stm32cubeclt_1.21.0/GNU-tools-for-STM32/lib/gcc/arm-none-eabi/14.3.1/include/arm_mve.h **** }
 946:/opt/st/stm32cubeclt_1.21.0/GNU-tools-for-STM32/lib/gcc/arm-none-eabi/14.3.1/include/arm_mve.h **** 
 947:/opt/st/stm32cubeclt_1.21.0/GNU-tools-for-STM32/lib/gcc/arm-none-eabi/14.3.1/include/arm_mve.h **** __extension__ extern __inline mve_pred16_t
 948:/opt/st/stm32cubeclt_1.21.0/GNU-tools-for-STM32/lib/gcc/arm-none-eabi/14.3.1/include/arm_mve.h **** __attribute__ ((__always_inline__, __gnu_inline__, __artificial__))
 949:/opt/st/stm32cubeclt_1.21.0/GNU-tools-for-STM32/lib/gcc/arm-none-eabi/14.3.1/include/arm_mve.h **** __arm_vctp64q_m (uint32_t __a, mve_pred16_t __p)
 950:/opt/st/stm32cubeclt_1.21.0/GNU-tools-for-STM32/lib/gcc/arm-none-eabi/14.3.1/include/arm_mve.h **** {
 951:/opt/st/stm32cubeclt_1.21.0/GNU-tools-for-STM32/lib/gcc/arm-none-eabi/14.3.1/include/arm_mve.h ****   return __builtin_mve_vctp64q_mv2qi (__a, __p);
 952:/opt/st/stm32cubeclt_1.21.0/GNU-tools-for-STM32/lib/gcc/arm-none-eabi/14.3.1/include/arm_mve.h **** }
 953:/opt/st/stm32cubeclt_1.21.0/GNU-tools-for-STM32/lib/gcc/arm-none-eabi/14.3.1/include/arm_mve.h **** 
 954:/opt/st/stm32cubeclt_1.21.0/GNU-tools-for-STM32/lib/gcc/arm-none-eabi/14.3.1/include/arm_mve.h **** __extension__ extern __inline mve_pred16_t
 955:/opt/st/stm32cubeclt_1.21.0/GNU-tools-for-STM32/lib/gcc/arm-none-eabi/14.3.1/include/arm_mve.h **** __attribute__ ((__always_inline__, __gnu_inline__, __artificial__))
 956:/opt/st/stm32cubeclt_1.21.0/GNU-tools-for-STM32/lib/gcc/arm-none-eabi/14.3.1/include/arm_mve.h **** __arm_vctp32q_m (uint32_t __a, mve_pred16_t __p)
 957:/opt/st/stm32cubeclt_1.21.0/GNU-tools-for-STM32/lib/gcc/arm-none-eabi/14.3.1/include/arm_mve.h **** {
 958:/opt/st/stm32cubeclt_1.21.0/GNU-tools-for-STM32/lib/gcc/arm-none-eabi/14.3.1/include/arm_mve.h ****   return __builtin_mve_vctp32q_mv4bi (__a, __p);
 959:/opt/st/stm32cubeclt_1.21.0/GNU-tools-for-STM32/lib/gcc/arm-none-eabi/14.3.1/include/arm_mve.h **** }
 960:/opt/st/stm32cubeclt_1.21.0/GNU-tools-for-STM32/lib/gcc/arm-none-eabi/14.3.1/include/arm_mve.h **** 
 961:/opt/st/stm32cubeclt_1.21.0/GNU-tools-for-STM32/lib/gcc/arm-none-eabi/14.3.1/include/arm_mve.h **** __extension__ extern __inline mve_pred16_t
 962:/opt/st/stm32cubeclt_1.21.0/GNU-tools-for-STM32/lib/gcc/arm-none-eabi/14.3.1/include/arm_mve.h **** __attribute__ ((__always_inline__, __gnu_inline__, __artificial__))
 963:/opt/st/stm32cubeclt_1.21.0/GNU-tools-for-STM32/lib/gcc/arm-none-eabi/14.3.1/include/arm_mve.h **** __arm_vctp16q_m (uint32_t __a, mve_pred16_t __p)
 964:/opt/st/stm32cubeclt_1.21.0/GNU-tools-for-STM32/lib/gcc/arm-none-eabi/14.3.1/include/arm_mve.h **** {
 965:/opt/st/stm32cubeclt_1.21.0/GNU-tools-for-STM32/lib/gcc/arm-none-eabi/14.3.1/include/arm_mve.h ****   return __builtin_mve_vctp16q_mv8bi (__a, __p);
 966:/opt/st/stm32cubeclt_1.21.0/GNU-tools-for-STM32/lib/gcc/arm-none-eabi/14.3.1/include/arm_mve.h **** }
 967:/opt/st/stm32cubeclt_1.21.0/GNU-tools-for-STM32/lib/gcc/arm-none-eabi/14.3.1/include/arm_mve.h **** 
 968:/opt/st/stm32cubeclt_1.21.0/GNU-tools-for-STM32/lib/gcc/arm-none-eabi/14.3.1/include/arm_mve.h **** __extension__ extern __inline int16x8_t
 969:/opt/st/stm32cubeclt_1.21.0/GNU-tools-for-STM32/lib/gcc/arm-none-eabi/14.3.1/include/arm_mve.h **** __attribute__ ((__always_inline__, __gnu_inline__, __artificial__))
 970:/opt/st/stm32cubeclt_1.21.0/GNU-tools-for-STM32/lib/gcc/arm-none-eabi/14.3.1/include/arm_mve.h **** __arm_vbicq_m_n_s16 (int16x8_t __a, const int __imm, mve_pred16_t __p)
 971:/opt/st/stm32cubeclt_1.21.0/GNU-tools-for-STM32/lib/gcc/arm-none-eabi/14.3.1/include/arm_mve.h **** {
 972:/opt/st/stm32cubeclt_1.21.0/GNU-tools-for-STM32/lib/gcc/arm-none-eabi/14.3.1/include/arm_mve.h ****   return __builtin_mve_vbicq_m_n_sv8hi (__a, __imm, __p);
 973:/opt/st/stm32cubeclt_1.21.0/GNU-tools-for-STM32/lib/gcc/arm-none-eabi/14.3.1/include/arm_mve.h **** }
 974:/opt/st/stm32cubeclt_1.21.0/GNU-tools-for-STM32/lib/gcc/arm-none-eabi/14.3.1/include/arm_mve.h **** 
 975:/opt/st/stm32cubeclt_1.21.0/GNU-tools-for-STM32/lib/gcc/arm-none-eabi/14.3.1/include/arm_mve.h **** __extension__ extern __inline int32x4_t
 976:/opt/st/stm32cubeclt_1.21.0/GNU-tools-for-STM32/lib/gcc/arm-none-eabi/14.3.1/include/arm_mve.h **** __attribute__ ((__always_inline__, __gnu_inline__, __artificial__))
 977:/opt/st/stm32cubeclt_1.21.0/GNU-tools-for-STM32/lib/gcc/arm-none-eabi/14.3.1/include/arm_mve.h **** __arm_vbicq_m_n_s32 (int32x4_t __a, const int __imm, mve_pred16_t __p)
 978:/opt/st/stm32cubeclt_1.21.0/GNU-tools-for-STM32/lib/gcc/arm-none-eabi/14.3.1/include/arm_mve.h **** {
 979:/opt/st/stm32cubeclt_1.21.0/GNU-tools-for-STM32/lib/gcc/arm-none-eabi/14.3.1/include/arm_mve.h ****   return __builtin_mve_vbicq_m_n_sv4si (__a, __imm, __p);
 980:/opt/st/stm32cubeclt_1.21.0/GNU-tools-for-STM32/lib/gcc/arm-none-eabi/14.3.1/include/arm_mve.h **** }
 981:/opt/st/stm32cubeclt_1.21.0/GNU-tools-for-STM32/lib/gcc/arm-none-eabi/14.3.1/include/arm_mve.h **** 
 982:/opt/st/stm32cubeclt_1.21.0/GNU-tools-for-STM32/lib/gcc/arm-none-eabi/14.3.1/include/arm_mve.h **** __extension__ extern __inline uint16x8_t
 983:/opt/st/stm32cubeclt_1.21.0/GNU-tools-for-STM32/lib/gcc/arm-none-eabi/14.3.1/include/arm_mve.h **** __attribute__ ((__always_inline__, __gnu_inline__, __artificial__))
ARM GAS  /tmp/ccfH7U9I.s 			page 20


 984:/opt/st/stm32cubeclt_1.21.0/GNU-tools-for-STM32/lib/gcc/arm-none-eabi/14.3.1/include/arm_mve.h **** __arm_vbicq_m_n_u16 (uint16x8_t __a, const int __imm, mve_pred16_t __p)
 985:/opt/st/stm32cubeclt_1.21.0/GNU-tools-for-STM32/lib/gcc/arm-none-eabi/14.3.1/include/arm_mve.h **** {
 986:/opt/st/stm32cubeclt_1.21.0/GNU-tools-for-STM32/lib/gcc/arm-none-eabi/14.3.1/include/arm_mve.h ****   return __builtin_mve_vbicq_m_n_uv8hi (__a, __imm, __p);
 987:/opt/st/stm32cubeclt_1.21.0/GNU-tools-for-STM32/lib/gcc/arm-none-eabi/14.3.1/include/arm_mve.h **** }
 988:/opt/st/stm32cubeclt_1.21.0/GNU-tools-for-STM32/lib/gcc/arm-none-eabi/14.3.1/include/arm_mve.h **** 
 989:/opt/st/stm32cubeclt_1.21.0/GNU-tools-for-STM32/lib/gcc/arm-none-eabi/14.3.1/include/arm_mve.h **** __extension__ extern __inline uint32x4_t
 990:/opt/st/stm32cubeclt_1.21.0/GNU-tools-for-STM32/lib/gcc/arm-none-eabi/14.3.1/include/arm_mve.h **** __attribute__ ((__always_inline__, __gnu_inline__, __artificial__))
 991:/opt/st/stm32cubeclt_1.21.0/GNU-tools-for-STM32/lib/gcc/arm-none-eabi/14.3.1/include/arm_mve.h **** __arm_vbicq_m_n_u32 (uint32x4_t __a, const int __imm, mve_pred16_t __p)
 992:/opt/st/stm32cubeclt_1.21.0/GNU-tools-for-STM32/lib/gcc/arm-none-eabi/14.3.1/include/arm_mve.h **** {
 993:/opt/st/stm32cubeclt_1.21.0/GNU-tools-for-STM32/lib/gcc/arm-none-eabi/14.3.1/include/arm_mve.h ****   return __builtin_mve_vbicq_m_n_uv4si (__a, __imm, __p);
 994:/opt/st/stm32cubeclt_1.21.0/GNU-tools-for-STM32/lib/gcc/arm-none-eabi/14.3.1/include/arm_mve.h **** }
 995:/opt/st/stm32cubeclt_1.21.0/GNU-tools-for-STM32/lib/gcc/arm-none-eabi/14.3.1/include/arm_mve.h **** 
 996:/opt/st/stm32cubeclt_1.21.0/GNU-tools-for-STM32/lib/gcc/arm-none-eabi/14.3.1/include/arm_mve.h **** __extension__ extern __inline int8x16_t
 997:/opt/st/stm32cubeclt_1.21.0/GNU-tools-for-STM32/lib/gcc/arm-none-eabi/14.3.1/include/arm_mve.h **** __attribute__ ((__always_inline__, __gnu_inline__, __artificial__))
 998:/opt/st/stm32cubeclt_1.21.0/GNU-tools-for-STM32/lib/gcc/arm-none-eabi/14.3.1/include/arm_mve.h **** __arm_vshlcq_s8 (int8x16_t __a, uint32_t * __b, const int __imm)
 999:/opt/st/stm32cubeclt_1.21.0/GNU-tools-for-STM32/lib/gcc/arm-none-eabi/14.3.1/include/arm_mve.h **** {
1000:/opt/st/stm32cubeclt_1.21.0/GNU-tools-for-STM32/lib/gcc/arm-none-eabi/14.3.1/include/arm_mve.h ****   int8x16_t __res = __builtin_mve_vshlcq_vec_sv16qi (__a, *__b, __imm);
1001:/opt/st/stm32cubeclt_1.21.0/GNU-tools-for-STM32/lib/gcc/arm-none-eabi/14.3.1/include/arm_mve.h ****   *__b = __builtin_mve_vshlcq_carry_sv16qi (__a, *__b, __imm);
1002:/opt/st/stm32cubeclt_1.21.0/GNU-tools-for-STM32/lib/gcc/arm-none-eabi/14.3.1/include/arm_mve.h ****   return __res;
1003:/opt/st/stm32cubeclt_1.21.0/GNU-tools-for-STM32/lib/gcc/arm-none-eabi/14.3.1/include/arm_mve.h **** }
1004:/opt/st/stm32cubeclt_1.21.0/GNU-tools-for-STM32/lib/gcc/arm-none-eabi/14.3.1/include/arm_mve.h **** 
1005:/opt/st/stm32cubeclt_1.21.0/GNU-tools-for-STM32/lib/gcc/arm-none-eabi/14.3.1/include/arm_mve.h **** __extension__ extern __inline uint8x16_t
1006:/opt/st/stm32cubeclt_1.21.0/GNU-tools-for-STM32/lib/gcc/arm-none-eabi/14.3.1/include/arm_mve.h **** __attribute__ ((__always_inline__, __gnu_inline__, __artificial__))
1007:/opt/st/stm32cubeclt_1.21.0/GNU-tools-for-STM32/lib/gcc/arm-none-eabi/14.3.1/include/arm_mve.h **** __arm_vshlcq_u8 (uint8x16_t __a, uint32_t * __b, const int __imm)
1008:/opt/st/stm32cubeclt_1.21.0/GNU-tools-for-STM32/lib/gcc/arm-none-eabi/14.3.1/include/arm_mve.h **** {
1009:/opt/st/stm32cubeclt_1.21.0/GNU-tools-for-STM32/lib/gcc/arm-none-eabi/14.3.1/include/arm_mve.h ****   uint8x16_t __res = __builtin_mve_vshlcq_vec_uv16qi (__a, *__b, __imm);
1010:/opt/st/stm32cubeclt_1.21.0/GNU-tools-for-STM32/lib/gcc/arm-none-eabi/14.3.1/include/arm_mve.h ****   *__b = __builtin_mve_vshlcq_carry_uv16qi (__a, *__b, __imm);
1011:/opt/st/stm32cubeclt_1.21.0/GNU-tools-for-STM32/lib/gcc/arm-none-eabi/14.3.1/include/arm_mve.h ****   return __res;
1012:/opt/st/stm32cubeclt_1.21.0/GNU-tools-for-STM32/lib/gcc/arm-none-eabi/14.3.1/include/arm_mve.h **** }
1013:/opt/st/stm32cubeclt_1.21.0/GNU-tools-for-STM32/lib/gcc/arm-none-eabi/14.3.1/include/arm_mve.h **** 
1014:/opt/st/stm32cubeclt_1.21.0/GNU-tools-for-STM32/lib/gcc/arm-none-eabi/14.3.1/include/arm_mve.h **** __extension__ extern __inline int16x8_t
1015:/opt/st/stm32cubeclt_1.21.0/GNU-tools-for-STM32/lib/gcc/arm-none-eabi/14.3.1/include/arm_mve.h **** __attribute__ ((__always_inline__, __gnu_inline__, __artificial__))
1016:/opt/st/stm32cubeclt_1.21.0/GNU-tools-for-STM32/lib/gcc/arm-none-eabi/14.3.1/include/arm_mve.h **** __arm_vshlcq_s16 (int16x8_t __a, uint32_t * __b, const int __imm)
1017:/opt/st/stm32cubeclt_1.21.0/GNU-tools-for-STM32/lib/gcc/arm-none-eabi/14.3.1/include/arm_mve.h **** {
1018:/opt/st/stm32cubeclt_1.21.0/GNU-tools-for-STM32/lib/gcc/arm-none-eabi/14.3.1/include/arm_mve.h ****   int16x8_t __res = __builtin_mve_vshlcq_vec_sv8hi (__a, *__b, __imm);
1019:/opt/st/stm32cubeclt_1.21.0/GNU-tools-for-STM32/lib/gcc/arm-none-eabi/14.3.1/include/arm_mve.h ****   *__b = __builtin_mve_vshlcq_carry_sv8hi (__a, *__b, __imm);
1020:/opt/st/stm32cubeclt_1.21.0/GNU-tools-for-STM32/lib/gcc/arm-none-eabi/14.3.1/include/arm_mve.h ****   return __res;
1021:/opt/st/stm32cubeclt_1.21.0/GNU-tools-for-STM32/lib/gcc/arm-none-eabi/14.3.1/include/arm_mve.h **** }
1022:/opt/st/stm32cubeclt_1.21.0/GNU-tools-for-STM32/lib/gcc/arm-none-eabi/14.3.1/include/arm_mve.h **** 
1023:/opt/st/stm32cubeclt_1.21.0/GNU-tools-for-STM32/lib/gcc/arm-none-eabi/14.3.1/include/arm_mve.h **** __extension__ extern __inline uint16x8_t
1024:/opt/st/stm32cubeclt_1.21.0/GNU-tools-for-STM32/lib/gcc/arm-none-eabi/14.3.1/include/arm_mve.h **** __attribute__ ((__always_inline__, __gnu_inline__, __artificial__))
1025:/opt/st/stm32cubeclt_1.21.0/GNU-tools-for-STM32/lib/gcc/arm-none-eabi/14.3.1/include/arm_mve.h **** __arm_vshlcq_u16 (uint16x8_t __a, uint32_t * __b, const int __imm)
1026:/opt/st/stm32cubeclt_1.21.0/GNU-tools-for-STM32/lib/gcc/arm-none-eabi/14.3.1/include/arm_mve.h **** {
1027:/opt/st/stm32cubeclt_1.21.0/GNU-tools-for-STM32/lib/gcc/arm-none-eabi/14.3.1/include/arm_mve.h ****   uint16x8_t __res = __builtin_mve_vshlcq_vec_uv8hi (__a, *__b, __imm);
1028:/opt/st/stm32cubeclt_1.21.0/GNU-tools-for-STM32/lib/gcc/arm-none-eabi/14.3.1/include/arm_mve.h ****   *__b = __builtin_mve_vshlcq_carry_uv8hi (__a, *__b, __imm);
1029:/opt/st/stm32cubeclt_1.21.0/GNU-tools-for-STM32/lib/gcc/arm-none-eabi/14.3.1/include/arm_mve.h ****   return __res;
1030:/opt/st/stm32cubeclt_1.21.0/GNU-tools-for-STM32/lib/gcc/arm-none-eabi/14.3.1/include/arm_mve.h **** }
1031:/opt/st/stm32cubeclt_1.21.0/GNU-tools-for-STM32/lib/gcc/arm-none-eabi/14.3.1/include/arm_mve.h **** 
1032:/opt/st/stm32cubeclt_1.21.0/GNU-tools-for-STM32/lib/gcc/arm-none-eabi/14.3.1/include/arm_mve.h **** __extension__ extern __inline int32x4_t
1033:/opt/st/stm32cubeclt_1.21.0/GNU-tools-for-STM32/lib/gcc/arm-none-eabi/14.3.1/include/arm_mve.h **** __attribute__ ((__always_inline__, __gnu_inline__, __artificial__))
1034:/opt/st/stm32cubeclt_1.21.0/GNU-tools-for-STM32/lib/gcc/arm-none-eabi/14.3.1/include/arm_mve.h **** __arm_vshlcq_s32 (int32x4_t __a, uint32_t * __b, const int __imm)
1035:/opt/st/stm32cubeclt_1.21.0/GNU-tools-for-STM32/lib/gcc/arm-none-eabi/14.3.1/include/arm_mve.h **** {
1036:/opt/st/stm32cubeclt_1.21.0/GNU-tools-for-STM32/lib/gcc/arm-none-eabi/14.3.1/include/arm_mve.h ****   int32x4_t __res = __builtin_mve_vshlcq_vec_sv4si (__a, *__b, __imm);
1037:/opt/st/stm32cubeclt_1.21.0/GNU-tools-for-STM32/lib/gcc/arm-none-eabi/14.3.1/include/arm_mve.h ****   *__b = __builtin_mve_vshlcq_carry_sv4si (__a, *__b, __imm);
1038:/opt/st/stm32cubeclt_1.21.0/GNU-tools-for-STM32/lib/gcc/arm-none-eabi/14.3.1/include/arm_mve.h ****   return __res;
1039:/opt/st/stm32cubeclt_1.21.0/GNU-tools-for-STM32/lib/gcc/arm-none-eabi/14.3.1/include/arm_mve.h **** }
1040:/opt/st/stm32cubeclt_1.21.0/GNU-tools-for-STM32/lib/gcc/arm-none-eabi/14.3.1/include/arm_mve.h **** 
ARM GAS  /tmp/ccfH7U9I.s 			page 21


1041:/opt/st/stm32cubeclt_1.21.0/GNU-tools-for-STM32/lib/gcc/arm-none-eabi/14.3.1/include/arm_mve.h **** __extension__ extern __inline uint32x4_t
1042:/opt/st/stm32cubeclt_1.21.0/GNU-tools-for-STM32/lib/gcc/arm-none-eabi/14.3.1/include/arm_mve.h **** __attribute__ ((__always_inline__, __gnu_inline__, __artificial__))
1043:/opt/st/stm32cubeclt_1.21.0/GNU-tools-for-STM32/lib/gcc/arm-none-eabi/14.3.1/include/arm_mve.h **** __arm_vshlcq_u32 (uint32x4_t __a, uint32_t * __b, const int __imm)
1044:/opt/st/stm32cubeclt_1.21.0/GNU-tools-for-STM32/lib/gcc/arm-none-eabi/14.3.1/include/arm_mve.h **** {
1045:/opt/st/stm32cubeclt_1.21.0/GNU-tools-for-STM32/lib/gcc/arm-none-eabi/14.3.1/include/arm_mve.h ****   uint32x4_t __res = __builtin_mve_vshlcq_vec_uv4si (__a, *__b, __imm);
1046:/opt/st/stm32cubeclt_1.21.0/GNU-tools-for-STM32/lib/gcc/arm-none-eabi/14.3.1/include/arm_mve.h ****   *__b = __builtin_mve_vshlcq_carry_uv4si (__a, *__b, __imm);
1047:/opt/st/stm32cubeclt_1.21.0/GNU-tools-for-STM32/lib/gcc/arm-none-eabi/14.3.1/include/arm_mve.h ****   return __res;
1048:/opt/st/stm32cubeclt_1.21.0/GNU-tools-for-STM32/lib/gcc/arm-none-eabi/14.3.1/include/arm_mve.h **** }
1049:/opt/st/stm32cubeclt_1.21.0/GNU-tools-for-STM32/lib/gcc/arm-none-eabi/14.3.1/include/arm_mve.h **** 
1050:/opt/st/stm32cubeclt_1.21.0/GNU-tools-for-STM32/lib/gcc/arm-none-eabi/14.3.1/include/arm_mve.h **** __extension__ extern __inline int8x16_t
1051:/opt/st/stm32cubeclt_1.21.0/GNU-tools-for-STM32/lib/gcc/arm-none-eabi/14.3.1/include/arm_mve.h **** __attribute__ ((__always_inline__, __gnu_inline__, __artificial__))
1052:/opt/st/stm32cubeclt_1.21.0/GNU-tools-for-STM32/lib/gcc/arm-none-eabi/14.3.1/include/arm_mve.h **** __arm_vbicq_m_s8 (int8x16_t __inactive, int8x16_t __a, int8x16_t __b, mve_pred16_t __p)
1053:/opt/st/stm32cubeclt_1.21.0/GNU-tools-for-STM32/lib/gcc/arm-none-eabi/14.3.1/include/arm_mve.h **** {
1054:/opt/st/stm32cubeclt_1.21.0/GNU-tools-for-STM32/lib/gcc/arm-none-eabi/14.3.1/include/arm_mve.h ****   return __builtin_mve_vbicq_m_sv16qi (__inactive, __a, __b, __p);
1055:/opt/st/stm32cubeclt_1.21.0/GNU-tools-for-STM32/lib/gcc/arm-none-eabi/14.3.1/include/arm_mve.h **** }
1056:/opt/st/stm32cubeclt_1.21.0/GNU-tools-for-STM32/lib/gcc/arm-none-eabi/14.3.1/include/arm_mve.h **** 
1057:/opt/st/stm32cubeclt_1.21.0/GNU-tools-for-STM32/lib/gcc/arm-none-eabi/14.3.1/include/arm_mve.h **** __extension__ extern __inline int32x4_t
1058:/opt/st/stm32cubeclt_1.21.0/GNU-tools-for-STM32/lib/gcc/arm-none-eabi/14.3.1/include/arm_mve.h **** __attribute__ ((__always_inline__, __gnu_inline__, __artificial__))
1059:/opt/st/stm32cubeclt_1.21.0/GNU-tools-for-STM32/lib/gcc/arm-none-eabi/14.3.1/include/arm_mve.h **** __arm_vbicq_m_s32 (int32x4_t __inactive, int32x4_t __a, int32x4_t __b, mve_pred16_t __p)
1060:/opt/st/stm32cubeclt_1.21.0/GNU-tools-for-STM32/lib/gcc/arm-none-eabi/14.3.1/include/arm_mve.h **** {
1061:/opt/st/stm32cubeclt_1.21.0/GNU-tools-for-STM32/lib/gcc/arm-none-eabi/14.3.1/include/arm_mve.h ****   return __builtin_mve_vbicq_m_sv4si (__inactive, __a, __b, __p);
1062:/opt/st/stm32cubeclt_1.21.0/GNU-tools-for-STM32/lib/gcc/arm-none-eabi/14.3.1/include/arm_mve.h **** }
1063:/opt/st/stm32cubeclt_1.21.0/GNU-tools-for-STM32/lib/gcc/arm-none-eabi/14.3.1/include/arm_mve.h **** 
1064:/opt/st/stm32cubeclt_1.21.0/GNU-tools-for-STM32/lib/gcc/arm-none-eabi/14.3.1/include/arm_mve.h **** __extension__ extern __inline int16x8_t
1065:/opt/st/stm32cubeclt_1.21.0/GNU-tools-for-STM32/lib/gcc/arm-none-eabi/14.3.1/include/arm_mve.h **** __attribute__ ((__always_inline__, __gnu_inline__, __artificial__))
1066:/opt/st/stm32cubeclt_1.21.0/GNU-tools-for-STM32/lib/gcc/arm-none-eabi/14.3.1/include/arm_mve.h **** __arm_vbicq_m_s16 (int16x8_t __inactive, int16x8_t __a, int16x8_t __b, mve_pred16_t __p)
1067:/opt/st/stm32cubeclt_1.21.0/GNU-tools-for-STM32/lib/gcc/arm-none-eabi/14.3.1/include/arm_mve.h **** {
1068:/opt/st/stm32cubeclt_1.21.0/GNU-tools-for-STM32/lib/gcc/arm-none-eabi/14.3.1/include/arm_mve.h ****   return __builtin_mve_vbicq_m_sv8hi (__inactive, __a, __b, __p);
1069:/opt/st/stm32cubeclt_1.21.0/GNU-tools-for-STM32/lib/gcc/arm-none-eabi/14.3.1/include/arm_mve.h **** }
1070:/opt/st/stm32cubeclt_1.21.0/GNU-tools-for-STM32/lib/gcc/arm-none-eabi/14.3.1/include/arm_mve.h **** 
1071:/opt/st/stm32cubeclt_1.21.0/GNU-tools-for-STM32/lib/gcc/arm-none-eabi/14.3.1/include/arm_mve.h **** __extension__ extern __inline uint8x16_t
1072:/opt/st/stm32cubeclt_1.21.0/GNU-tools-for-STM32/lib/gcc/arm-none-eabi/14.3.1/include/arm_mve.h **** __attribute__ ((__always_inline__, __gnu_inline__, __artificial__))
1073:/opt/st/stm32cubeclt_1.21.0/GNU-tools-for-STM32/lib/gcc/arm-none-eabi/14.3.1/include/arm_mve.h **** __arm_vbicq_m_u8 (uint8x16_t __inactive, uint8x16_t __a, uint8x16_t __b, mve_pred16_t __p)
1074:/opt/st/stm32cubeclt_1.21.0/GNU-tools-for-STM32/lib/gcc/arm-none-eabi/14.3.1/include/arm_mve.h **** {
1075:/opt/st/stm32cubeclt_1.21.0/GNU-tools-for-STM32/lib/gcc/arm-none-eabi/14.3.1/include/arm_mve.h ****   return __builtin_mve_vbicq_m_uv16qi (__inactive, __a, __b, __p);
1076:/opt/st/stm32cubeclt_1.21.0/GNU-tools-for-STM32/lib/gcc/arm-none-eabi/14.3.1/include/arm_mve.h **** }
1077:/opt/st/stm32cubeclt_1.21.0/GNU-tools-for-STM32/lib/gcc/arm-none-eabi/14.3.1/include/arm_mve.h **** 
1078:/opt/st/stm32cubeclt_1.21.0/GNU-tools-for-STM32/lib/gcc/arm-none-eabi/14.3.1/include/arm_mve.h **** __extension__ extern __inline uint32x4_t
1079:/opt/st/stm32cubeclt_1.21.0/GNU-tools-for-STM32/lib/gcc/arm-none-eabi/14.3.1/include/arm_mve.h **** __attribute__ ((__always_inline__, __gnu_inline__, __artificial__))
1080:/opt/st/stm32cubeclt_1.21.0/GNU-tools-for-STM32/lib/gcc/arm-none-eabi/14.3.1/include/arm_mve.h **** __arm_vbicq_m_u32 (uint32x4_t __inactive, uint32x4_t __a, uint32x4_t __b, mve_pred16_t __p)
1081:/opt/st/stm32cubeclt_1.21.0/GNU-tools-for-STM32/lib/gcc/arm-none-eabi/14.3.1/include/arm_mve.h **** {
1082:/opt/st/stm32cubeclt_1.21.0/GNU-tools-for-STM32/lib/gcc/arm-none-eabi/14.3.1/include/arm_mve.h ****   return __builtin_mve_vbicq_m_uv4si (__inactive, __a, __b, __p);
1083:/opt/st/stm32cubeclt_1.21.0/GNU-tools-for-STM32/lib/gcc/arm-none-eabi/14.3.1/include/arm_mve.h **** }
1084:/opt/st/stm32cubeclt_1.21.0/GNU-tools-for-STM32/lib/gcc/arm-none-eabi/14.3.1/include/arm_mve.h **** 
1085:/opt/st/stm32cubeclt_1.21.0/GNU-tools-for-STM32/lib/gcc/arm-none-eabi/14.3.1/include/arm_mve.h **** __extension__ extern __inline uint16x8_t
1086:/opt/st/stm32cubeclt_1.21.0/GNU-tools-for-STM32/lib/gcc/arm-none-eabi/14.3.1/include/arm_mve.h **** __attribute__ ((__always_inline__, __gnu_inline__, __artificial__))
1087:/opt/st/stm32cubeclt_1.21.0/GNU-tools-for-STM32/lib/gcc/arm-none-eabi/14.3.1/include/arm_mve.h **** __arm_vbicq_m_u16 (uint16x8_t __inactive, uint16x8_t __a, uint16x8_t __b, mve_pred16_t __p)
1088:/opt/st/stm32cubeclt_1.21.0/GNU-tools-for-STM32/lib/gcc/arm-none-eabi/14.3.1/include/arm_mve.h **** {
1089:/opt/st/stm32cubeclt_1.21.0/GNU-tools-for-STM32/lib/gcc/arm-none-eabi/14.3.1/include/arm_mve.h ****   return __builtin_mve_vbicq_m_uv8hi (__inactive, __a, __b, __p);
1090:/opt/st/stm32cubeclt_1.21.0/GNU-tools-for-STM32/lib/gcc/arm-none-eabi/14.3.1/include/arm_mve.h **** }
1091:/opt/st/stm32cubeclt_1.21.0/GNU-tools-for-STM32/lib/gcc/arm-none-eabi/14.3.1/include/arm_mve.h **** 
1092:/opt/st/stm32cubeclt_1.21.0/GNU-tools-for-STM32/lib/gcc/arm-none-eabi/14.3.1/include/arm_mve.h **** __extension__ extern __inline int8x16_t
1093:/opt/st/stm32cubeclt_1.21.0/GNU-tools-for-STM32/lib/gcc/arm-none-eabi/14.3.1/include/arm_mve.h **** __attribute__ ((__always_inline__, __gnu_inline__, __artificial__))
1094:/opt/st/stm32cubeclt_1.21.0/GNU-tools-for-STM32/lib/gcc/arm-none-eabi/14.3.1/include/arm_mve.h **** __arm_vornq_m_s8 (int8x16_t __inactive, int8x16_t __a, int8x16_t __b, mve_pred16_t __p)
1095:/opt/st/stm32cubeclt_1.21.0/GNU-tools-for-STM32/lib/gcc/arm-none-eabi/14.3.1/include/arm_mve.h **** {
1096:/opt/st/stm32cubeclt_1.21.0/GNU-tools-for-STM32/lib/gcc/arm-none-eabi/14.3.1/include/arm_mve.h ****   return __builtin_mve_vornq_m_sv16qi (__inactive, __a, __b, __p);
1097:/opt/st/stm32cubeclt_1.21.0/GNU-tools-for-STM32/lib/gcc/arm-none-eabi/14.3.1/include/arm_mve.h **** }
ARM GAS  /tmp/ccfH7U9I.s 			page 22


1098:/opt/st/stm32cubeclt_1.21.0/GNU-tools-for-STM32/lib/gcc/arm-none-eabi/14.3.1/include/arm_mve.h **** 
1099:/opt/st/stm32cubeclt_1.21.0/GNU-tools-for-STM32/lib/gcc/arm-none-eabi/14.3.1/include/arm_mve.h **** __extension__ extern __inline int32x4_t
1100:/opt/st/stm32cubeclt_1.21.0/GNU-tools-for-STM32/lib/gcc/arm-none-eabi/14.3.1/include/arm_mve.h **** __attribute__ ((__always_inline__, __gnu_inline__, __artificial__))
1101:/opt/st/stm32cubeclt_1.21.0/GNU-tools-for-STM32/lib/gcc/arm-none-eabi/14.3.1/include/arm_mve.h **** __arm_vornq_m_s32 (int32x4_t __inactive, int32x4_t __a, int32x4_t __b, mve_pred16_t __p)
1102:/opt/st/stm32cubeclt_1.21.0/GNU-tools-for-STM32/lib/gcc/arm-none-eabi/14.3.1/include/arm_mve.h **** {
1103:/opt/st/stm32cubeclt_1.21.0/GNU-tools-for-STM32/lib/gcc/arm-none-eabi/14.3.1/include/arm_mve.h ****   return __builtin_mve_vornq_m_sv4si (__inactive, __a, __b, __p);
1104:/opt/st/stm32cubeclt_1.21.0/GNU-tools-for-STM32/lib/gcc/arm-none-eabi/14.3.1/include/arm_mve.h **** }
1105:/opt/st/stm32cubeclt_1.21.0/GNU-tools-for-STM32/lib/gcc/arm-none-eabi/14.3.1/include/arm_mve.h **** 
1106:/opt/st/stm32cubeclt_1.21.0/GNU-tools-for-STM32/lib/gcc/arm-none-eabi/14.3.1/include/arm_mve.h **** __extension__ extern __inline int16x8_t
1107:/opt/st/stm32cubeclt_1.21.0/GNU-tools-for-STM32/lib/gcc/arm-none-eabi/14.3.1/include/arm_mve.h **** __attribute__ ((__always_inline__, __gnu_inline__, __artificial__))
1108:/opt/st/stm32cubeclt_1.21.0/GNU-tools-for-STM32/lib/gcc/arm-none-eabi/14.3.1/include/arm_mve.h **** __arm_vornq_m_s16 (int16x8_t __inactive, int16x8_t __a, int16x8_t __b, mve_pred16_t __p)
1109:/opt/st/stm32cubeclt_1.21.0/GNU-tools-for-STM32/lib/gcc/arm-none-eabi/14.3.1/include/arm_mve.h **** {
1110:/opt/st/stm32cubeclt_1.21.0/GNU-tools-for-STM32/lib/gcc/arm-none-eabi/14.3.1/include/arm_mve.h ****   return __builtin_mve_vornq_m_sv8hi (__inactive, __a, __b, __p);
1111:/opt/st/stm32cubeclt_1.21.0/GNU-tools-for-STM32/lib/gcc/arm-none-eabi/14.3.1/include/arm_mve.h **** }
1112:/opt/st/stm32cubeclt_1.21.0/GNU-tools-for-STM32/lib/gcc/arm-none-eabi/14.3.1/include/arm_mve.h **** 
1113:/opt/st/stm32cubeclt_1.21.0/GNU-tools-for-STM32/lib/gcc/arm-none-eabi/14.3.1/include/arm_mve.h **** __extension__ extern __inline uint8x16_t
1114:/opt/st/stm32cubeclt_1.21.0/GNU-tools-for-STM32/lib/gcc/arm-none-eabi/14.3.1/include/arm_mve.h **** __attribute__ ((__always_inline__, __gnu_inline__, __artificial__))
1115:/opt/st/stm32cubeclt_1.21.0/GNU-tools-for-STM32/lib/gcc/arm-none-eabi/14.3.1/include/arm_mve.h **** __arm_vornq_m_u8 (uint8x16_t __inactive, uint8x16_t __a, uint8x16_t __b, mve_pred16_t __p)
1116:/opt/st/stm32cubeclt_1.21.0/GNU-tools-for-STM32/lib/gcc/arm-none-eabi/14.3.1/include/arm_mve.h **** {
1117:/opt/st/stm32cubeclt_1.21.0/GNU-tools-for-STM32/lib/gcc/arm-none-eabi/14.3.1/include/arm_mve.h ****   return __builtin_mve_vornq_m_uv16qi (__inactive, __a, __b, __p);
1118:/opt/st/stm32cubeclt_1.21.0/GNU-tools-for-STM32/lib/gcc/arm-none-eabi/14.3.1/include/arm_mve.h **** }
1119:/opt/st/stm32cubeclt_1.21.0/GNU-tools-for-STM32/lib/gcc/arm-none-eabi/14.3.1/include/arm_mve.h **** 
1120:/opt/st/stm32cubeclt_1.21.0/GNU-tools-for-STM32/lib/gcc/arm-none-eabi/14.3.1/include/arm_mve.h **** __extension__ extern __inline uint32x4_t
1121:/opt/st/stm32cubeclt_1.21.0/GNU-tools-for-STM32/lib/gcc/arm-none-eabi/14.3.1/include/arm_mve.h **** __attribute__ ((__always_inline__, __gnu_inline__, __artificial__))
1122:/opt/st/stm32cubeclt_1.21.0/GNU-tools-for-STM32/lib/gcc/arm-none-eabi/14.3.1/include/arm_mve.h **** __arm_vornq_m_u32 (uint32x4_t __inactive, uint32x4_t __a, uint32x4_t __b, mve_pred16_t __p)
1123:/opt/st/stm32cubeclt_1.21.0/GNU-tools-for-STM32/lib/gcc/arm-none-eabi/14.3.1/include/arm_mve.h **** {
1124:/opt/st/stm32cubeclt_1.21.0/GNU-tools-for-STM32/lib/gcc/arm-none-eabi/14.3.1/include/arm_mve.h ****   return __builtin_mve_vornq_m_uv4si (__inactive, __a, __b, __p);
1125:/opt/st/stm32cubeclt_1.21.0/GNU-tools-for-STM32/lib/gcc/arm-none-eabi/14.3.1/include/arm_mve.h **** }
1126:/opt/st/stm32cubeclt_1.21.0/GNU-tools-for-STM32/lib/gcc/arm-none-eabi/14.3.1/include/arm_mve.h **** 
1127:/opt/st/stm32cubeclt_1.21.0/GNU-tools-for-STM32/lib/gcc/arm-none-eabi/14.3.1/include/arm_mve.h **** __extension__ extern __inline uint16x8_t
1128:/opt/st/stm32cubeclt_1.21.0/GNU-tools-for-STM32/lib/gcc/arm-none-eabi/14.3.1/include/arm_mve.h **** __attribute__ ((__always_inline__, __gnu_inline__, __artificial__))
1129:/opt/st/stm32cubeclt_1.21.0/GNU-tools-for-STM32/lib/gcc/arm-none-eabi/14.3.1/include/arm_mve.h **** __arm_vornq_m_u16 (uint16x8_t __inactive, uint16x8_t __a, uint16x8_t __b, mve_pred16_t __p)
1130:/opt/st/stm32cubeclt_1.21.0/GNU-tools-for-STM32/lib/gcc/arm-none-eabi/14.3.1/include/arm_mve.h **** {
1131:/opt/st/stm32cubeclt_1.21.0/GNU-tools-for-STM32/lib/gcc/arm-none-eabi/14.3.1/include/arm_mve.h ****   return __builtin_mve_vornq_m_uv8hi (__inactive, __a, __b, __p);
1132:/opt/st/stm32cubeclt_1.21.0/GNU-tools-for-STM32/lib/gcc/arm-none-eabi/14.3.1/include/arm_mve.h **** }
1133:/opt/st/stm32cubeclt_1.21.0/GNU-tools-for-STM32/lib/gcc/arm-none-eabi/14.3.1/include/arm_mve.h **** 
1134:/opt/st/stm32cubeclt_1.21.0/GNU-tools-for-STM32/lib/gcc/arm-none-eabi/14.3.1/include/arm_mve.h **** __extension__ extern __inline void
1135:/opt/st/stm32cubeclt_1.21.0/GNU-tools-for-STM32/lib/gcc/arm-none-eabi/14.3.1/include/arm_mve.h **** __attribute__ ((__always_inline__, __gnu_inline__, __artificial__))
1136:/opt/st/stm32cubeclt_1.21.0/GNU-tools-for-STM32/lib/gcc/arm-none-eabi/14.3.1/include/arm_mve.h **** __arm_vstrbq_scatter_offset_s8 (int8_t * __base, uint8x16_t __offset, int8x16_t __value)
1137:/opt/st/stm32cubeclt_1.21.0/GNU-tools-for-STM32/lib/gcc/arm-none-eabi/14.3.1/include/arm_mve.h **** {
1138:/opt/st/stm32cubeclt_1.21.0/GNU-tools-for-STM32/lib/gcc/arm-none-eabi/14.3.1/include/arm_mve.h ****   __builtin_mve_vstrbq_scatter_offset_sv16qi ((__builtin_neon_qi *) __base, __offset, __value);
1139:/opt/st/stm32cubeclt_1.21.0/GNU-tools-for-STM32/lib/gcc/arm-none-eabi/14.3.1/include/arm_mve.h **** }
1140:/opt/st/stm32cubeclt_1.21.0/GNU-tools-for-STM32/lib/gcc/arm-none-eabi/14.3.1/include/arm_mve.h **** 
1141:/opt/st/stm32cubeclt_1.21.0/GNU-tools-for-STM32/lib/gcc/arm-none-eabi/14.3.1/include/arm_mve.h **** __extension__ extern __inline void
1142:/opt/st/stm32cubeclt_1.21.0/GNU-tools-for-STM32/lib/gcc/arm-none-eabi/14.3.1/include/arm_mve.h **** __attribute__ ((__always_inline__, __gnu_inline__, __artificial__))
1143:/opt/st/stm32cubeclt_1.21.0/GNU-tools-for-STM32/lib/gcc/arm-none-eabi/14.3.1/include/arm_mve.h **** __arm_vstrbq_scatter_offset_s32 (int8_t * __base, uint32x4_t __offset, int32x4_t __value)
1144:/opt/st/stm32cubeclt_1.21.0/GNU-tools-for-STM32/lib/gcc/arm-none-eabi/14.3.1/include/arm_mve.h **** {
1145:/opt/st/stm32cubeclt_1.21.0/GNU-tools-for-STM32/lib/gcc/arm-none-eabi/14.3.1/include/arm_mve.h ****   __builtin_mve_vstrbq_scatter_offset_sv4si ((__builtin_neon_qi *) __base, __offset, __value);
1146:/opt/st/stm32cubeclt_1.21.0/GNU-tools-for-STM32/lib/gcc/arm-none-eabi/14.3.1/include/arm_mve.h **** }
1147:/opt/st/stm32cubeclt_1.21.0/GNU-tools-for-STM32/lib/gcc/arm-none-eabi/14.3.1/include/arm_mve.h **** 
1148:/opt/st/stm32cubeclt_1.21.0/GNU-tools-for-STM32/lib/gcc/arm-none-eabi/14.3.1/include/arm_mve.h **** __extension__ extern __inline void
1149:/opt/st/stm32cubeclt_1.21.0/GNU-tools-for-STM32/lib/gcc/arm-none-eabi/14.3.1/include/arm_mve.h **** __attribute__ ((__always_inline__, __gnu_inline__, __artificial__))
1150:/opt/st/stm32cubeclt_1.21.0/GNU-tools-for-STM32/lib/gcc/arm-none-eabi/14.3.1/include/arm_mve.h **** __arm_vstrbq_scatter_offset_s16 (int8_t * __base, uint16x8_t __offset, int16x8_t __value)
1151:/opt/st/stm32cubeclt_1.21.0/GNU-tools-for-STM32/lib/gcc/arm-none-eabi/14.3.1/include/arm_mve.h **** {
1152:/opt/st/stm32cubeclt_1.21.0/GNU-tools-for-STM32/lib/gcc/arm-none-eabi/14.3.1/include/arm_mve.h ****   __builtin_mve_vstrbq_scatter_offset_sv8hi ((__builtin_neon_qi *) __base, __offset, __value);
1153:/opt/st/stm32cubeclt_1.21.0/GNU-tools-for-STM32/lib/gcc/arm-none-eabi/14.3.1/include/arm_mve.h **** }
1154:/opt/st/stm32cubeclt_1.21.0/GNU-tools-for-STM32/lib/gcc/arm-none-eabi/14.3.1/include/arm_mve.h **** 
ARM GAS  /tmp/ccfH7U9I.s 			page 23


1155:/opt/st/stm32cubeclt_1.21.0/GNU-tools-for-STM32/lib/gcc/arm-none-eabi/14.3.1/include/arm_mve.h **** __extension__ extern __inline void
1156:/opt/st/stm32cubeclt_1.21.0/GNU-tools-for-STM32/lib/gcc/arm-none-eabi/14.3.1/include/arm_mve.h **** __attribute__ ((__always_inline__, __gnu_inline__, __artificial__))
1157:/opt/st/stm32cubeclt_1.21.0/GNU-tools-for-STM32/lib/gcc/arm-none-eabi/14.3.1/include/arm_mve.h **** __arm_vstrbq_scatter_offset_u8 (uint8_t * __base, uint8x16_t __offset, uint8x16_t __value)
1158:/opt/st/stm32cubeclt_1.21.0/GNU-tools-for-STM32/lib/gcc/arm-none-eabi/14.3.1/include/arm_mve.h **** {
1159:/opt/st/stm32cubeclt_1.21.0/GNU-tools-for-STM32/lib/gcc/arm-none-eabi/14.3.1/include/arm_mve.h ****   __builtin_mve_vstrbq_scatter_offset_uv16qi ((__builtin_neon_qi *) __base, __offset, __value);
1160:/opt/st/stm32cubeclt_1.21.0/GNU-tools-for-STM32/lib/gcc/arm-none-eabi/14.3.1/include/arm_mve.h **** }
1161:/opt/st/stm32cubeclt_1.21.0/GNU-tools-for-STM32/lib/gcc/arm-none-eabi/14.3.1/include/arm_mve.h **** 
1162:/opt/st/stm32cubeclt_1.21.0/GNU-tools-for-STM32/lib/gcc/arm-none-eabi/14.3.1/include/arm_mve.h **** __extension__ extern __inline void
1163:/opt/st/stm32cubeclt_1.21.0/GNU-tools-for-STM32/lib/gcc/arm-none-eabi/14.3.1/include/arm_mve.h **** __attribute__ ((__always_inline__, __gnu_inline__, __artificial__))
1164:/opt/st/stm32cubeclt_1.21.0/GNU-tools-for-STM32/lib/gcc/arm-none-eabi/14.3.1/include/arm_mve.h **** __arm_vstrbq_scatter_offset_u32 (uint8_t * __base, uint32x4_t __offset, uint32x4_t __value)
1165:/opt/st/stm32cubeclt_1.21.0/GNU-tools-for-STM32/lib/gcc/arm-none-eabi/14.3.1/include/arm_mve.h **** {
1166:/opt/st/stm32cubeclt_1.21.0/GNU-tools-for-STM32/lib/gcc/arm-none-eabi/14.3.1/include/arm_mve.h ****   __builtin_mve_vstrbq_scatter_offset_uv4si ((__builtin_neon_qi *) __base, __offset, __value);
1167:/opt/st/stm32cubeclt_1.21.0/GNU-tools-for-STM32/lib/gcc/arm-none-eabi/14.3.1/include/arm_mve.h **** }
1168:/opt/st/stm32cubeclt_1.21.0/GNU-tools-for-STM32/lib/gcc/arm-none-eabi/14.3.1/include/arm_mve.h **** 
1169:/opt/st/stm32cubeclt_1.21.0/GNU-tools-for-STM32/lib/gcc/arm-none-eabi/14.3.1/include/arm_mve.h **** __extension__ extern __inline void
1170:/opt/st/stm32cubeclt_1.21.0/GNU-tools-for-STM32/lib/gcc/arm-none-eabi/14.3.1/include/arm_mve.h **** __attribute__ ((__always_inline__, __gnu_inline__, __artificial__))
1171:/opt/st/stm32cubeclt_1.21.0/GNU-tools-for-STM32/lib/gcc/arm-none-eabi/14.3.1/include/arm_mve.h **** __arm_vstrbq_scatter_offset_u16 (uint8_t * __base, uint16x8_t __offset, uint16x8_t __value)
1172:/opt/st/stm32cubeclt_1.21.0/GNU-tools-for-STM32/lib/gcc/arm-none-eabi/14.3.1/include/arm_mve.h **** {
1173:/opt/st/stm32cubeclt_1.21.0/GNU-tools-for-STM32/lib/gcc/arm-none-eabi/14.3.1/include/arm_mve.h ****   __builtin_mve_vstrbq_scatter_offset_uv8hi ((__builtin_neon_qi *) __base, __offset, __value);
1174:/opt/st/stm32cubeclt_1.21.0/GNU-tools-for-STM32/lib/gcc/arm-none-eabi/14.3.1/include/arm_mve.h **** }
1175:/opt/st/stm32cubeclt_1.21.0/GNU-tools-for-STM32/lib/gcc/arm-none-eabi/14.3.1/include/arm_mve.h **** 
1176:/opt/st/stm32cubeclt_1.21.0/GNU-tools-for-STM32/lib/gcc/arm-none-eabi/14.3.1/include/arm_mve.h **** __extension__ extern __inline void
1177:/opt/st/stm32cubeclt_1.21.0/GNU-tools-for-STM32/lib/gcc/arm-none-eabi/14.3.1/include/arm_mve.h **** __attribute__ ((__always_inline__, __gnu_inline__, __artificial__))
1178:/opt/st/stm32cubeclt_1.21.0/GNU-tools-for-STM32/lib/gcc/arm-none-eabi/14.3.1/include/arm_mve.h **** __arm_vstrbq_s8 (int8_t * __addr, int8x16_t __value)
1179:/opt/st/stm32cubeclt_1.21.0/GNU-tools-for-STM32/lib/gcc/arm-none-eabi/14.3.1/include/arm_mve.h **** {
1180:/opt/st/stm32cubeclt_1.21.0/GNU-tools-for-STM32/lib/gcc/arm-none-eabi/14.3.1/include/arm_mve.h ****   __builtin_mve_vstrbq_sv16qi ((__builtin_neon_qi *) __addr, __value);
1181:/opt/st/stm32cubeclt_1.21.0/GNU-tools-for-STM32/lib/gcc/arm-none-eabi/14.3.1/include/arm_mve.h **** }
1182:/opt/st/stm32cubeclt_1.21.0/GNU-tools-for-STM32/lib/gcc/arm-none-eabi/14.3.1/include/arm_mve.h **** 
1183:/opt/st/stm32cubeclt_1.21.0/GNU-tools-for-STM32/lib/gcc/arm-none-eabi/14.3.1/include/arm_mve.h **** __extension__ extern __inline void
1184:/opt/st/stm32cubeclt_1.21.0/GNU-tools-for-STM32/lib/gcc/arm-none-eabi/14.3.1/include/arm_mve.h **** __attribute__ ((__always_inline__, __gnu_inline__, __artificial__))
1185:/opt/st/stm32cubeclt_1.21.0/GNU-tools-for-STM32/lib/gcc/arm-none-eabi/14.3.1/include/arm_mve.h **** __arm_vstrbq_s32 (int8_t * __addr, int32x4_t __value)
1186:/opt/st/stm32cubeclt_1.21.0/GNU-tools-for-STM32/lib/gcc/arm-none-eabi/14.3.1/include/arm_mve.h **** {
1187:/opt/st/stm32cubeclt_1.21.0/GNU-tools-for-STM32/lib/gcc/arm-none-eabi/14.3.1/include/arm_mve.h ****   __builtin_mve_vstrbq_sv4si ((__builtin_neon_qi *) __addr, __value);
1188:/opt/st/stm32cubeclt_1.21.0/GNU-tools-for-STM32/lib/gcc/arm-none-eabi/14.3.1/include/arm_mve.h **** }
1189:/opt/st/stm32cubeclt_1.21.0/GNU-tools-for-STM32/lib/gcc/arm-none-eabi/14.3.1/include/arm_mve.h **** 
1190:/opt/st/stm32cubeclt_1.21.0/GNU-tools-for-STM32/lib/gcc/arm-none-eabi/14.3.1/include/arm_mve.h **** __extension__ extern __inline void
1191:/opt/st/stm32cubeclt_1.21.0/GNU-tools-for-STM32/lib/gcc/arm-none-eabi/14.3.1/include/arm_mve.h **** __attribute__ ((__always_inline__, __gnu_inline__, __artificial__))
1192:/opt/st/stm32cubeclt_1.21.0/GNU-tools-for-STM32/lib/gcc/arm-none-eabi/14.3.1/include/arm_mve.h **** __arm_vstrbq_s16 (int8_t * __addr, int16x8_t __value)
1193:/opt/st/stm32cubeclt_1.21.0/GNU-tools-for-STM32/lib/gcc/arm-none-eabi/14.3.1/include/arm_mve.h **** {
1194:/opt/st/stm32cubeclt_1.21.0/GNU-tools-for-STM32/lib/gcc/arm-none-eabi/14.3.1/include/arm_mve.h ****   __builtin_mve_vstrbq_sv8hi ((__builtin_neon_qi *) __addr, __value);
1195:/opt/st/stm32cubeclt_1.21.0/GNU-tools-for-STM32/lib/gcc/arm-none-eabi/14.3.1/include/arm_mve.h **** }
1196:/opt/st/stm32cubeclt_1.21.0/GNU-tools-for-STM32/lib/gcc/arm-none-eabi/14.3.1/include/arm_mve.h **** 
1197:/opt/st/stm32cubeclt_1.21.0/GNU-tools-for-STM32/lib/gcc/arm-none-eabi/14.3.1/include/arm_mve.h **** __extension__ extern __inline void
1198:/opt/st/stm32cubeclt_1.21.0/GNU-tools-for-STM32/lib/gcc/arm-none-eabi/14.3.1/include/arm_mve.h **** __attribute__ ((__always_inline__, __gnu_inline__, __artificial__))
1199:/opt/st/stm32cubeclt_1.21.0/GNU-tools-for-STM32/lib/gcc/arm-none-eabi/14.3.1/include/arm_mve.h **** __arm_vstrbq_u8 (uint8_t * __addr, uint8x16_t __value)
1200:/opt/st/stm32cubeclt_1.21.0/GNU-tools-for-STM32/lib/gcc/arm-none-eabi/14.3.1/include/arm_mve.h **** {
1201:/opt/st/stm32cubeclt_1.21.0/GNU-tools-for-STM32/lib/gcc/arm-none-eabi/14.3.1/include/arm_mve.h ****   __builtin_mve_vstrbq_uv16qi ((__builtin_neon_qi *) __addr, __value);
1202:/opt/st/stm32cubeclt_1.21.0/GNU-tools-for-STM32/lib/gcc/arm-none-eabi/14.3.1/include/arm_mve.h **** }
1203:/opt/st/stm32cubeclt_1.21.0/GNU-tools-for-STM32/lib/gcc/arm-none-eabi/14.3.1/include/arm_mve.h **** 
1204:/opt/st/stm32cubeclt_1.21.0/GNU-tools-for-STM32/lib/gcc/arm-none-eabi/14.3.1/include/arm_mve.h **** __extension__ extern __inline void
1205:/opt/st/stm32cubeclt_1.21.0/GNU-tools-for-STM32/lib/gcc/arm-none-eabi/14.3.1/include/arm_mve.h **** __attribute__ ((__always_inline__, __gnu_inline__, __artificial__))
1206:/opt/st/stm32cubeclt_1.21.0/GNU-tools-for-STM32/lib/gcc/arm-none-eabi/14.3.1/include/arm_mve.h **** __arm_vstrbq_u32 (uint8_t * __addr, uint32x4_t __value)
1207:/opt/st/stm32cubeclt_1.21.0/GNU-tools-for-STM32/lib/gcc/arm-none-eabi/14.3.1/include/arm_mve.h **** {
1208:/opt/st/stm32cubeclt_1.21.0/GNU-tools-for-STM32/lib/gcc/arm-none-eabi/14.3.1/include/arm_mve.h ****   __builtin_mve_vstrbq_uv4si ((__builtin_neon_qi *) __addr, __value);
1209:/opt/st/stm32cubeclt_1.21.0/GNU-tools-for-STM32/lib/gcc/arm-none-eabi/14.3.1/include/arm_mve.h **** }
1210:/opt/st/stm32cubeclt_1.21.0/GNU-tools-for-STM32/lib/gcc/arm-none-eabi/14.3.1/include/arm_mve.h **** 
1211:/opt/st/stm32cubeclt_1.21.0/GNU-tools-for-STM32/lib/gcc/arm-none-eabi/14.3.1/include/arm_mve.h **** __extension__ extern __inline void
ARM GAS  /tmp/ccfH7U9I.s 			page 24


1212:/opt/st/stm32cubeclt_1.21.0/GNU-tools-for-STM32/lib/gcc/arm-none-eabi/14.3.1/include/arm_mve.h **** __attribute__ ((__always_inline__, __gnu_inline__, __artificial__))
1213:/opt/st/stm32cubeclt_1.21.0/GNU-tools-for-STM32/lib/gcc/arm-none-eabi/14.3.1/include/arm_mve.h **** __arm_vstrbq_u16 (uint8_t * __addr, uint16x8_t __value)
1214:/opt/st/stm32cubeclt_1.21.0/GNU-tools-for-STM32/lib/gcc/arm-none-eabi/14.3.1/include/arm_mve.h **** {
1215:/opt/st/stm32cubeclt_1.21.0/GNU-tools-for-STM32/lib/gcc/arm-none-eabi/14.3.1/include/arm_mve.h ****   __builtin_mve_vstrbq_uv8hi ((__builtin_neon_qi *) __addr, __value);
1216:/opt/st/stm32cubeclt_1.21.0/GNU-tools-for-STM32/lib/gcc/arm-none-eabi/14.3.1/include/arm_mve.h **** }
1217:/opt/st/stm32cubeclt_1.21.0/GNU-tools-for-STM32/lib/gcc/arm-none-eabi/14.3.1/include/arm_mve.h **** 
1218:/opt/st/stm32cubeclt_1.21.0/GNU-tools-for-STM32/lib/gcc/arm-none-eabi/14.3.1/include/arm_mve.h **** __extension__ extern __inline void
1219:/opt/st/stm32cubeclt_1.21.0/GNU-tools-for-STM32/lib/gcc/arm-none-eabi/14.3.1/include/arm_mve.h **** __attribute__ ((__always_inline__, __gnu_inline__, __artificial__))
1220:/opt/st/stm32cubeclt_1.21.0/GNU-tools-for-STM32/lib/gcc/arm-none-eabi/14.3.1/include/arm_mve.h **** __arm_vstrwq_scatter_base_s32 (uint32x4_t __addr, const int __offset, int32x4_t __value)
1221:/opt/st/stm32cubeclt_1.21.0/GNU-tools-for-STM32/lib/gcc/arm-none-eabi/14.3.1/include/arm_mve.h **** {
1222:/opt/st/stm32cubeclt_1.21.0/GNU-tools-for-STM32/lib/gcc/arm-none-eabi/14.3.1/include/arm_mve.h ****   __builtin_mve_vstrwq_scatter_base_sv4si (__addr, __offset, __value);
1223:/opt/st/stm32cubeclt_1.21.0/GNU-tools-for-STM32/lib/gcc/arm-none-eabi/14.3.1/include/arm_mve.h **** }
1224:/opt/st/stm32cubeclt_1.21.0/GNU-tools-for-STM32/lib/gcc/arm-none-eabi/14.3.1/include/arm_mve.h **** 
1225:/opt/st/stm32cubeclt_1.21.0/GNU-tools-for-STM32/lib/gcc/arm-none-eabi/14.3.1/include/arm_mve.h **** __extension__ extern __inline void
1226:/opt/st/stm32cubeclt_1.21.0/GNU-tools-for-STM32/lib/gcc/arm-none-eabi/14.3.1/include/arm_mve.h **** __attribute__ ((__always_inline__, __gnu_inline__, __artificial__))
1227:/opt/st/stm32cubeclt_1.21.0/GNU-tools-for-STM32/lib/gcc/arm-none-eabi/14.3.1/include/arm_mve.h **** __arm_vstrwq_scatter_base_u32 (uint32x4_t __addr, const int __offset, uint32x4_t __value)
1228:/opt/st/stm32cubeclt_1.21.0/GNU-tools-for-STM32/lib/gcc/arm-none-eabi/14.3.1/include/arm_mve.h **** {
1229:/opt/st/stm32cubeclt_1.21.0/GNU-tools-for-STM32/lib/gcc/arm-none-eabi/14.3.1/include/arm_mve.h ****   __builtin_mve_vstrwq_scatter_base_uv4si (__addr, __offset, __value);
1230:/opt/st/stm32cubeclt_1.21.0/GNU-tools-for-STM32/lib/gcc/arm-none-eabi/14.3.1/include/arm_mve.h **** }
1231:/opt/st/stm32cubeclt_1.21.0/GNU-tools-for-STM32/lib/gcc/arm-none-eabi/14.3.1/include/arm_mve.h **** 
1232:/opt/st/stm32cubeclt_1.21.0/GNU-tools-for-STM32/lib/gcc/arm-none-eabi/14.3.1/include/arm_mve.h **** __extension__ extern __inline uint8x16_t
1233:/opt/st/stm32cubeclt_1.21.0/GNU-tools-for-STM32/lib/gcc/arm-none-eabi/14.3.1/include/arm_mve.h **** __attribute__ ((__always_inline__, __gnu_inline__, __artificial__))
1234:/opt/st/stm32cubeclt_1.21.0/GNU-tools-for-STM32/lib/gcc/arm-none-eabi/14.3.1/include/arm_mve.h **** __arm_vldrbq_gather_offset_u8 (uint8_t const * __base, uint8x16_t __offset)
1235:/opt/st/stm32cubeclt_1.21.0/GNU-tools-for-STM32/lib/gcc/arm-none-eabi/14.3.1/include/arm_mve.h **** {
1236:/opt/st/stm32cubeclt_1.21.0/GNU-tools-for-STM32/lib/gcc/arm-none-eabi/14.3.1/include/arm_mve.h ****   return __builtin_mve_vldrbq_gather_offset_uv16qi ((__builtin_neon_qi *) __base, __offset);
1237:/opt/st/stm32cubeclt_1.21.0/GNU-tools-for-STM32/lib/gcc/arm-none-eabi/14.3.1/include/arm_mve.h **** }
1238:/opt/st/stm32cubeclt_1.21.0/GNU-tools-for-STM32/lib/gcc/arm-none-eabi/14.3.1/include/arm_mve.h **** 
1239:/opt/st/stm32cubeclt_1.21.0/GNU-tools-for-STM32/lib/gcc/arm-none-eabi/14.3.1/include/arm_mve.h **** __extension__ extern __inline int8x16_t
1240:/opt/st/stm32cubeclt_1.21.0/GNU-tools-for-STM32/lib/gcc/arm-none-eabi/14.3.1/include/arm_mve.h **** __attribute__ ((__always_inline__, __gnu_inline__, __artificial__))
1241:/opt/st/stm32cubeclt_1.21.0/GNU-tools-for-STM32/lib/gcc/arm-none-eabi/14.3.1/include/arm_mve.h **** __arm_vldrbq_gather_offset_s8 (int8_t const * __base, uint8x16_t __offset)
1242:/opt/st/stm32cubeclt_1.21.0/GNU-tools-for-STM32/lib/gcc/arm-none-eabi/14.3.1/include/arm_mve.h **** {
1243:/opt/st/stm32cubeclt_1.21.0/GNU-tools-for-STM32/lib/gcc/arm-none-eabi/14.3.1/include/arm_mve.h ****   return __builtin_mve_vldrbq_gather_offset_sv16qi ((__builtin_neon_qi *) __base, __offset);
1244:/opt/st/stm32cubeclt_1.21.0/GNU-tools-for-STM32/lib/gcc/arm-none-eabi/14.3.1/include/arm_mve.h **** }
1245:/opt/st/stm32cubeclt_1.21.0/GNU-tools-for-STM32/lib/gcc/arm-none-eabi/14.3.1/include/arm_mve.h **** 
1246:/opt/st/stm32cubeclt_1.21.0/GNU-tools-for-STM32/lib/gcc/arm-none-eabi/14.3.1/include/arm_mve.h **** __extension__ extern __inline int8x16_t
1247:/opt/st/stm32cubeclt_1.21.0/GNU-tools-for-STM32/lib/gcc/arm-none-eabi/14.3.1/include/arm_mve.h **** __attribute__ ((__always_inline__, __gnu_inline__, __artificial__))
1248:/opt/st/stm32cubeclt_1.21.0/GNU-tools-for-STM32/lib/gcc/arm-none-eabi/14.3.1/include/arm_mve.h **** __arm_vldrbq_s8 (int8_t const * __base)
1249:/opt/st/stm32cubeclt_1.21.0/GNU-tools-for-STM32/lib/gcc/arm-none-eabi/14.3.1/include/arm_mve.h **** {
1250:/opt/st/stm32cubeclt_1.21.0/GNU-tools-for-STM32/lib/gcc/arm-none-eabi/14.3.1/include/arm_mve.h ****   return __builtin_mve_vldrbq_sv16qi ((__builtin_neon_qi *) __base);
1251:/opt/st/stm32cubeclt_1.21.0/GNU-tools-for-STM32/lib/gcc/arm-none-eabi/14.3.1/include/arm_mve.h **** }
1252:/opt/st/stm32cubeclt_1.21.0/GNU-tools-for-STM32/lib/gcc/arm-none-eabi/14.3.1/include/arm_mve.h **** 
1253:/opt/st/stm32cubeclt_1.21.0/GNU-tools-for-STM32/lib/gcc/arm-none-eabi/14.3.1/include/arm_mve.h **** __extension__ extern __inline uint8x16_t
1254:/opt/st/stm32cubeclt_1.21.0/GNU-tools-for-STM32/lib/gcc/arm-none-eabi/14.3.1/include/arm_mve.h **** __attribute__ ((__always_inline__, __gnu_inline__, __artificial__))
1255:/opt/st/stm32cubeclt_1.21.0/GNU-tools-for-STM32/lib/gcc/arm-none-eabi/14.3.1/include/arm_mve.h **** __arm_vldrbq_u8 (uint8_t const * __base)
1256:/opt/st/stm32cubeclt_1.21.0/GNU-tools-for-STM32/lib/gcc/arm-none-eabi/14.3.1/include/arm_mve.h **** {
1257:/opt/st/stm32cubeclt_1.21.0/GNU-tools-for-STM32/lib/gcc/arm-none-eabi/14.3.1/include/arm_mve.h ****   return __builtin_mve_vldrbq_uv16qi ((__builtin_neon_qi *) __base);
1258:/opt/st/stm32cubeclt_1.21.0/GNU-tools-for-STM32/lib/gcc/arm-none-eabi/14.3.1/include/arm_mve.h **** }
1259:/opt/st/stm32cubeclt_1.21.0/GNU-tools-for-STM32/lib/gcc/arm-none-eabi/14.3.1/include/arm_mve.h **** 
1260:/opt/st/stm32cubeclt_1.21.0/GNU-tools-for-STM32/lib/gcc/arm-none-eabi/14.3.1/include/arm_mve.h **** __extension__ extern __inline uint16x8_t
1261:/opt/st/stm32cubeclt_1.21.0/GNU-tools-for-STM32/lib/gcc/arm-none-eabi/14.3.1/include/arm_mve.h **** __attribute__ ((__always_inline__, __gnu_inline__, __artificial__))
1262:/opt/st/stm32cubeclt_1.21.0/GNU-tools-for-STM32/lib/gcc/arm-none-eabi/14.3.1/include/arm_mve.h **** __arm_vldrbq_gather_offset_u16 (uint8_t const * __base, uint16x8_t __offset)
1263:/opt/st/stm32cubeclt_1.21.0/GNU-tools-for-STM32/lib/gcc/arm-none-eabi/14.3.1/include/arm_mve.h **** {
1264:/opt/st/stm32cubeclt_1.21.0/GNU-tools-for-STM32/lib/gcc/arm-none-eabi/14.3.1/include/arm_mve.h ****   return __builtin_mve_vldrbq_gather_offset_uv8hi ((__builtin_neon_qi *) __base, __offset);
1265:/opt/st/stm32cubeclt_1.21.0/GNU-tools-for-STM32/lib/gcc/arm-none-eabi/14.3.1/include/arm_mve.h **** }
1266:/opt/st/stm32cubeclt_1.21.0/GNU-tools-for-STM32/lib/gcc/arm-none-eabi/14.3.1/include/arm_mve.h **** 
1267:/opt/st/stm32cubeclt_1.21.0/GNU-tools-for-STM32/lib/gcc/arm-none-eabi/14.3.1/include/arm_mve.h **** __extension__ extern __inline int16x8_t
1268:/opt/st/stm32cubeclt_1.21.0/GNU-tools-for-STM32/lib/gcc/arm-none-eabi/14.3.1/include/arm_mve.h **** __attribute__ ((__always_inline__, __gnu_inline__, __artificial__))
ARM GAS  /tmp/ccfH7U9I.s 			page 25


1269:/opt/st/stm32cubeclt_1.21.0/GNU-tools-for-STM32/lib/gcc/arm-none-eabi/14.3.1/include/arm_mve.h **** __arm_vldrbq_gather_offset_s16 (int8_t const * __base, uint16x8_t __offset)
1270:/opt/st/stm32cubeclt_1.21.0/GNU-tools-for-STM32/lib/gcc/arm-none-eabi/14.3.1/include/arm_mve.h **** {
1271:/opt/st/stm32cubeclt_1.21.0/GNU-tools-for-STM32/lib/gcc/arm-none-eabi/14.3.1/include/arm_mve.h ****   return __builtin_mve_vldrbq_gather_offset_sv8hi ((__builtin_neon_qi *) __base, __offset);
1272:/opt/st/stm32cubeclt_1.21.0/GNU-tools-for-STM32/lib/gcc/arm-none-eabi/14.3.1/include/arm_mve.h **** }
1273:/opt/st/stm32cubeclt_1.21.0/GNU-tools-for-STM32/lib/gcc/arm-none-eabi/14.3.1/include/arm_mve.h **** 
1274:/opt/st/stm32cubeclt_1.21.0/GNU-tools-for-STM32/lib/gcc/arm-none-eabi/14.3.1/include/arm_mve.h **** __extension__ extern __inline int16x8_t
1275:/opt/st/stm32cubeclt_1.21.0/GNU-tools-for-STM32/lib/gcc/arm-none-eabi/14.3.1/include/arm_mve.h **** __attribute__ ((__always_inline__, __gnu_inline__, __artificial__))
1276:/opt/st/stm32cubeclt_1.21.0/GNU-tools-for-STM32/lib/gcc/arm-none-eabi/14.3.1/include/arm_mve.h **** __arm_vldrbq_s16 (int8_t const * __base)
1277:/opt/st/stm32cubeclt_1.21.0/GNU-tools-for-STM32/lib/gcc/arm-none-eabi/14.3.1/include/arm_mve.h **** {
1278:/opt/st/stm32cubeclt_1.21.0/GNU-tools-for-STM32/lib/gcc/arm-none-eabi/14.3.1/include/arm_mve.h ****   return __builtin_mve_vldrbq_sv8hi ((__builtin_neon_qi *) __base);
1279:/opt/st/stm32cubeclt_1.21.0/GNU-tools-for-STM32/lib/gcc/arm-none-eabi/14.3.1/include/arm_mve.h **** }
1280:/opt/st/stm32cubeclt_1.21.0/GNU-tools-for-STM32/lib/gcc/arm-none-eabi/14.3.1/include/arm_mve.h **** 
1281:/opt/st/stm32cubeclt_1.21.0/GNU-tools-for-STM32/lib/gcc/arm-none-eabi/14.3.1/include/arm_mve.h **** __extension__ extern __inline uint16x8_t
1282:/opt/st/stm32cubeclt_1.21.0/GNU-tools-for-STM32/lib/gcc/arm-none-eabi/14.3.1/include/arm_mve.h **** __attribute__ ((__always_inline__, __gnu_inline__, __artificial__))
1283:/opt/st/stm32cubeclt_1.21.0/GNU-tools-for-STM32/lib/gcc/arm-none-eabi/14.3.1/include/arm_mve.h **** __arm_vldrbq_u16 (uint8_t const * __base)
1284:/opt/st/stm32cubeclt_1.21.0/GNU-tools-for-STM32/lib/gcc/arm-none-eabi/14.3.1/include/arm_mve.h **** {
1285:/opt/st/stm32cubeclt_1.21.0/GNU-tools-for-STM32/lib/gcc/arm-none-eabi/14.3.1/include/arm_mve.h ****   return __builtin_mve_vldrbq_uv8hi ((__builtin_neon_qi *) __base);
1286:/opt/st/stm32cubeclt_1.21.0/GNU-tools-for-STM32/lib/gcc/arm-none-eabi/14.3.1/include/arm_mve.h **** }
1287:/opt/st/stm32cubeclt_1.21.0/GNU-tools-for-STM32/lib/gcc/arm-none-eabi/14.3.1/include/arm_mve.h **** 
1288:/opt/st/stm32cubeclt_1.21.0/GNU-tools-for-STM32/lib/gcc/arm-none-eabi/14.3.1/include/arm_mve.h **** __extension__ extern __inline uint32x4_t
1289:/opt/st/stm32cubeclt_1.21.0/GNU-tools-for-STM32/lib/gcc/arm-none-eabi/14.3.1/include/arm_mve.h **** __attribute__ ((__always_inline__, __gnu_inline__, __artificial__))
1290:/opt/st/stm32cubeclt_1.21.0/GNU-tools-for-STM32/lib/gcc/arm-none-eabi/14.3.1/include/arm_mve.h **** __arm_vldrbq_gather_offset_u32 (uint8_t const * __base, uint32x4_t __offset)
1291:/opt/st/stm32cubeclt_1.21.0/GNU-tools-for-STM32/lib/gcc/arm-none-eabi/14.3.1/include/arm_mve.h **** {
1292:/opt/st/stm32cubeclt_1.21.0/GNU-tools-for-STM32/lib/gcc/arm-none-eabi/14.3.1/include/arm_mve.h ****   return __builtin_mve_vldrbq_gather_offset_uv4si ((__builtin_neon_qi *) __base, __offset);
1293:/opt/st/stm32cubeclt_1.21.0/GNU-tools-for-STM32/lib/gcc/arm-none-eabi/14.3.1/include/arm_mve.h **** }
1294:/opt/st/stm32cubeclt_1.21.0/GNU-tools-for-STM32/lib/gcc/arm-none-eabi/14.3.1/include/arm_mve.h **** 
1295:/opt/st/stm32cubeclt_1.21.0/GNU-tools-for-STM32/lib/gcc/arm-none-eabi/14.3.1/include/arm_mve.h **** __extension__ extern __inline int32x4_t
1296:/opt/st/stm32cubeclt_1.21.0/GNU-tools-for-STM32/lib/gcc/arm-none-eabi/14.3.1/include/arm_mve.h **** __attribute__ ((__always_inline__, __gnu_inline__, __artificial__))
1297:/opt/st/stm32cubeclt_1.21.0/GNU-tools-for-STM32/lib/gcc/arm-none-eabi/14.3.1/include/arm_mve.h **** __arm_vldrbq_gather_offset_s32 (int8_t const * __base, uint32x4_t __offset)
1298:/opt/st/stm32cubeclt_1.21.0/GNU-tools-for-STM32/lib/gcc/arm-none-eabi/14.3.1/include/arm_mve.h **** {
1299:/opt/st/stm32cubeclt_1.21.0/GNU-tools-for-STM32/lib/gcc/arm-none-eabi/14.3.1/include/arm_mve.h ****   return __builtin_mve_vldrbq_gather_offset_sv4si ((__builtin_neon_qi *) __base, __offset);
1300:/opt/st/stm32cubeclt_1.21.0/GNU-tools-for-STM32/lib/gcc/arm-none-eabi/14.3.1/include/arm_mve.h **** }
1301:/opt/st/stm32cubeclt_1.21.0/GNU-tools-for-STM32/lib/gcc/arm-none-eabi/14.3.1/include/arm_mve.h **** 
1302:/opt/st/stm32cubeclt_1.21.0/GNU-tools-for-STM32/lib/gcc/arm-none-eabi/14.3.1/include/arm_mve.h **** __extension__ extern __inline int32x4_t
1303:/opt/st/stm32cubeclt_1.21.0/GNU-tools-for-STM32/lib/gcc/arm-none-eabi/14.3.1/include/arm_mve.h **** __attribute__ ((__always_inline__, __gnu_inline__, __artificial__))
1304:/opt/st/stm32cubeclt_1.21.0/GNU-tools-for-STM32/lib/gcc/arm-none-eabi/14.3.1/include/arm_mve.h **** __arm_vldrbq_s32 (int8_t const * __base)
1305:/opt/st/stm32cubeclt_1.21.0/GNU-tools-for-STM32/lib/gcc/arm-none-eabi/14.3.1/include/arm_mve.h **** {
1306:/opt/st/stm32cubeclt_1.21.0/GNU-tools-for-STM32/lib/gcc/arm-none-eabi/14.3.1/include/arm_mve.h ****   return __builtin_mve_vldrbq_sv4si ((__builtin_neon_qi *) __base);
1307:/opt/st/stm32cubeclt_1.21.0/GNU-tools-for-STM32/lib/gcc/arm-none-eabi/14.3.1/include/arm_mve.h **** }
1308:/opt/st/stm32cubeclt_1.21.0/GNU-tools-for-STM32/lib/gcc/arm-none-eabi/14.3.1/include/arm_mve.h **** 
1309:/opt/st/stm32cubeclt_1.21.0/GNU-tools-for-STM32/lib/gcc/arm-none-eabi/14.3.1/include/arm_mve.h **** __extension__ extern __inline uint32x4_t
1310:/opt/st/stm32cubeclt_1.21.0/GNU-tools-for-STM32/lib/gcc/arm-none-eabi/14.3.1/include/arm_mve.h **** __attribute__ ((__always_inline__, __gnu_inline__, __artificial__))
1311:/opt/st/stm32cubeclt_1.21.0/GNU-tools-for-STM32/lib/gcc/arm-none-eabi/14.3.1/include/arm_mve.h **** __arm_vldrbq_u32 (uint8_t const * __base)
1312:/opt/st/stm32cubeclt_1.21.0/GNU-tools-for-STM32/lib/gcc/arm-none-eabi/14.3.1/include/arm_mve.h **** {
1313:/opt/st/stm32cubeclt_1.21.0/GNU-tools-for-STM32/lib/gcc/arm-none-eabi/14.3.1/include/arm_mve.h ****   return __builtin_mve_vldrbq_uv4si ((__builtin_neon_qi *) __base);
1314:/opt/st/stm32cubeclt_1.21.0/GNU-tools-for-STM32/lib/gcc/arm-none-eabi/14.3.1/include/arm_mve.h **** }
1315:/opt/st/stm32cubeclt_1.21.0/GNU-tools-for-STM32/lib/gcc/arm-none-eabi/14.3.1/include/arm_mve.h **** 
1316:/opt/st/stm32cubeclt_1.21.0/GNU-tools-for-STM32/lib/gcc/arm-none-eabi/14.3.1/include/arm_mve.h **** __extension__ extern __inline int32x4_t
1317:/opt/st/stm32cubeclt_1.21.0/GNU-tools-for-STM32/lib/gcc/arm-none-eabi/14.3.1/include/arm_mve.h **** __attribute__ ((__always_inline__, __gnu_inline__, __artificial__))
1318:/opt/st/stm32cubeclt_1.21.0/GNU-tools-for-STM32/lib/gcc/arm-none-eabi/14.3.1/include/arm_mve.h **** __arm_vldrwq_gather_base_s32 (uint32x4_t __addr, const int __offset)
1319:/opt/st/stm32cubeclt_1.21.0/GNU-tools-for-STM32/lib/gcc/arm-none-eabi/14.3.1/include/arm_mve.h **** {
1320:/opt/st/stm32cubeclt_1.21.0/GNU-tools-for-STM32/lib/gcc/arm-none-eabi/14.3.1/include/arm_mve.h ****   return __builtin_mve_vldrwq_gather_base_sv4si (__addr, __offset);
1321:/opt/st/stm32cubeclt_1.21.0/GNU-tools-for-STM32/lib/gcc/arm-none-eabi/14.3.1/include/arm_mve.h **** }
1322:/opt/st/stm32cubeclt_1.21.0/GNU-tools-for-STM32/lib/gcc/arm-none-eabi/14.3.1/include/arm_mve.h **** 
1323:/opt/st/stm32cubeclt_1.21.0/GNU-tools-for-STM32/lib/gcc/arm-none-eabi/14.3.1/include/arm_mve.h **** __extension__ extern __inline uint32x4_t
1324:/opt/st/stm32cubeclt_1.21.0/GNU-tools-for-STM32/lib/gcc/arm-none-eabi/14.3.1/include/arm_mve.h **** __attribute__ ((__always_inline__, __gnu_inline__, __artificial__))
1325:/opt/st/stm32cubeclt_1.21.0/GNU-tools-for-STM32/lib/gcc/arm-none-eabi/14.3.1/include/arm_mve.h **** __arm_vldrwq_gather_base_u32 (uint32x4_t __addr, const int __offset)
ARM GAS  /tmp/ccfH7U9I.s 			page 26


1326:/opt/st/stm32cubeclt_1.21.0/GNU-tools-for-STM32/lib/gcc/arm-none-eabi/14.3.1/include/arm_mve.h **** {
1327:/opt/st/stm32cubeclt_1.21.0/GNU-tools-for-STM32/lib/gcc/arm-none-eabi/14.3.1/include/arm_mve.h ****   return __builtin_mve_vldrwq_gather_base_uv4si (__addr, __offset);
1328:/opt/st/stm32cubeclt_1.21.0/GNU-tools-for-STM32/lib/gcc/arm-none-eabi/14.3.1/include/arm_mve.h **** }
1329:/opt/st/stm32cubeclt_1.21.0/GNU-tools-for-STM32/lib/gcc/arm-none-eabi/14.3.1/include/arm_mve.h **** 
1330:/opt/st/stm32cubeclt_1.21.0/GNU-tools-for-STM32/lib/gcc/arm-none-eabi/14.3.1/include/arm_mve.h **** __extension__ extern __inline void
1331:/opt/st/stm32cubeclt_1.21.0/GNU-tools-for-STM32/lib/gcc/arm-none-eabi/14.3.1/include/arm_mve.h **** __attribute__ ((__always_inline__, __gnu_inline__, __artificial__))
1332:/opt/st/stm32cubeclt_1.21.0/GNU-tools-for-STM32/lib/gcc/arm-none-eabi/14.3.1/include/arm_mve.h **** __arm_vstrbq_p_s8 (int8_t * __addr, int8x16_t __value, mve_pred16_t __p)
1333:/opt/st/stm32cubeclt_1.21.0/GNU-tools-for-STM32/lib/gcc/arm-none-eabi/14.3.1/include/arm_mve.h **** {
1334:/opt/st/stm32cubeclt_1.21.0/GNU-tools-for-STM32/lib/gcc/arm-none-eabi/14.3.1/include/arm_mve.h ****   __builtin_mve_vstrbq_p_sv16qi ((__builtin_neon_qi *) __addr, __value, __p);
1335:/opt/st/stm32cubeclt_1.21.0/GNU-tools-for-STM32/lib/gcc/arm-none-eabi/14.3.1/include/arm_mve.h **** }
1336:/opt/st/stm32cubeclt_1.21.0/GNU-tools-for-STM32/lib/gcc/arm-none-eabi/14.3.1/include/arm_mve.h **** 
1337:/opt/st/stm32cubeclt_1.21.0/GNU-tools-for-STM32/lib/gcc/arm-none-eabi/14.3.1/include/arm_mve.h **** __extension__ extern __inline void
1338:/opt/st/stm32cubeclt_1.21.0/GNU-tools-for-STM32/lib/gcc/arm-none-eabi/14.3.1/include/arm_mve.h **** __attribute__ ((__always_inline__, __gnu_inline__, __artificial__))
1339:/opt/st/stm32cubeclt_1.21.0/GNU-tools-for-STM32/lib/gcc/arm-none-eabi/14.3.1/include/arm_mve.h **** __arm_vstrbq_p_s32 (int8_t * __addr, int32x4_t __value, mve_pred16_t __p)
1340:/opt/st/stm32cubeclt_1.21.0/GNU-tools-for-STM32/lib/gcc/arm-none-eabi/14.3.1/include/arm_mve.h **** {
1341:/opt/st/stm32cubeclt_1.21.0/GNU-tools-for-STM32/lib/gcc/arm-none-eabi/14.3.1/include/arm_mve.h ****   __builtin_mve_vstrbq_p_sv4si ((__builtin_neon_qi *) __addr, __value, __p);
1342:/opt/st/stm32cubeclt_1.21.0/GNU-tools-for-STM32/lib/gcc/arm-none-eabi/14.3.1/include/arm_mve.h **** }
1343:/opt/st/stm32cubeclt_1.21.0/GNU-tools-for-STM32/lib/gcc/arm-none-eabi/14.3.1/include/arm_mve.h **** 
1344:/opt/st/stm32cubeclt_1.21.0/GNU-tools-for-STM32/lib/gcc/arm-none-eabi/14.3.1/include/arm_mve.h **** __extension__ extern __inline void
1345:/opt/st/stm32cubeclt_1.21.0/GNU-tools-for-STM32/lib/gcc/arm-none-eabi/14.3.1/include/arm_mve.h **** __attribute__ ((__always_inline__, __gnu_inline__, __artificial__))
1346:/opt/st/stm32cubeclt_1.21.0/GNU-tools-for-STM32/lib/gcc/arm-none-eabi/14.3.1/include/arm_mve.h **** __arm_vstrbq_p_s16 (int8_t * __addr, int16x8_t __value, mve_pred16_t __p)
1347:/opt/st/stm32cubeclt_1.21.0/GNU-tools-for-STM32/lib/gcc/arm-none-eabi/14.3.1/include/arm_mve.h **** {
1348:/opt/st/stm32cubeclt_1.21.0/GNU-tools-for-STM32/lib/gcc/arm-none-eabi/14.3.1/include/arm_mve.h ****   __builtin_mve_vstrbq_p_sv8hi ((__builtin_neon_qi *) __addr, __value, __p);
1349:/opt/st/stm32cubeclt_1.21.0/GNU-tools-for-STM32/lib/gcc/arm-none-eabi/14.3.1/include/arm_mve.h **** }
1350:/opt/st/stm32cubeclt_1.21.0/GNU-tools-for-STM32/lib/gcc/arm-none-eabi/14.3.1/include/arm_mve.h **** 
1351:/opt/st/stm32cubeclt_1.21.0/GNU-tools-for-STM32/lib/gcc/arm-none-eabi/14.3.1/include/arm_mve.h **** __extension__ extern __inline void
1352:/opt/st/stm32cubeclt_1.21.0/GNU-tools-for-STM32/lib/gcc/arm-none-eabi/14.3.1/include/arm_mve.h **** __attribute__ ((__always_inline__, __gnu_inline__, __artificial__))
1353:/opt/st/stm32cubeclt_1.21.0/GNU-tools-for-STM32/lib/gcc/arm-none-eabi/14.3.1/include/arm_mve.h **** __arm_vstrbq_p_u8 (uint8_t * __addr, uint8x16_t __value, mve_pred16_t __p)
1354:/opt/st/stm32cubeclt_1.21.0/GNU-tools-for-STM32/lib/gcc/arm-none-eabi/14.3.1/include/arm_mve.h **** {
1355:/opt/st/stm32cubeclt_1.21.0/GNU-tools-for-STM32/lib/gcc/arm-none-eabi/14.3.1/include/arm_mve.h ****   __builtin_mve_vstrbq_p_uv16qi ((__builtin_neon_qi *) __addr, __value, __p);
1356:/opt/st/stm32cubeclt_1.21.0/GNU-tools-for-STM32/lib/gcc/arm-none-eabi/14.3.1/include/arm_mve.h **** }
1357:/opt/st/stm32cubeclt_1.21.0/GNU-tools-for-STM32/lib/gcc/arm-none-eabi/14.3.1/include/arm_mve.h **** 
1358:/opt/st/stm32cubeclt_1.21.0/GNU-tools-for-STM32/lib/gcc/arm-none-eabi/14.3.1/include/arm_mve.h **** __extension__ extern __inline void
1359:/opt/st/stm32cubeclt_1.21.0/GNU-tools-for-STM32/lib/gcc/arm-none-eabi/14.3.1/include/arm_mve.h **** __attribute__ ((__always_inline__, __gnu_inline__, __artificial__))
1360:/opt/st/stm32cubeclt_1.21.0/GNU-tools-for-STM32/lib/gcc/arm-none-eabi/14.3.1/include/arm_mve.h **** __arm_vstrbq_p_u32 (uint8_t * __addr, uint32x4_t __value, mve_pred16_t __p)
1361:/opt/st/stm32cubeclt_1.21.0/GNU-tools-for-STM32/lib/gcc/arm-none-eabi/14.3.1/include/arm_mve.h **** {
1362:/opt/st/stm32cubeclt_1.21.0/GNU-tools-for-STM32/lib/gcc/arm-none-eabi/14.3.1/include/arm_mve.h ****   __builtin_mve_vstrbq_p_uv4si ((__builtin_neon_qi *) __addr, __value, __p);
1363:/opt/st/stm32cubeclt_1.21.0/GNU-tools-for-STM32/lib/gcc/arm-none-eabi/14.3.1/include/arm_mve.h **** }
1364:/opt/st/stm32cubeclt_1.21.0/GNU-tools-for-STM32/lib/gcc/arm-none-eabi/14.3.1/include/arm_mve.h **** 
1365:/opt/st/stm32cubeclt_1.21.0/GNU-tools-for-STM32/lib/gcc/arm-none-eabi/14.3.1/include/arm_mve.h **** __extension__ extern __inline void
1366:/opt/st/stm32cubeclt_1.21.0/GNU-tools-for-STM32/lib/gcc/arm-none-eabi/14.3.1/include/arm_mve.h **** __attribute__ ((__always_inline__, __gnu_inline__, __artificial__))
1367:/opt/st/stm32cubeclt_1.21.0/GNU-tools-for-STM32/lib/gcc/arm-none-eabi/14.3.1/include/arm_mve.h **** __arm_vstrbq_p_u16 (uint8_t * __addr, uint16x8_t __value, mve_pred16_t __p)
1368:/opt/st/stm32cubeclt_1.21.0/GNU-tools-for-STM32/lib/gcc/arm-none-eabi/14.3.1/include/arm_mve.h **** {
1369:/opt/st/stm32cubeclt_1.21.0/GNU-tools-for-STM32/lib/gcc/arm-none-eabi/14.3.1/include/arm_mve.h ****   __builtin_mve_vstrbq_p_uv8hi ((__builtin_neon_qi *) __addr, __value, __p);
1370:/opt/st/stm32cubeclt_1.21.0/GNU-tools-for-STM32/lib/gcc/arm-none-eabi/14.3.1/include/arm_mve.h **** }
1371:/opt/st/stm32cubeclt_1.21.0/GNU-tools-for-STM32/lib/gcc/arm-none-eabi/14.3.1/include/arm_mve.h **** 
1372:/opt/st/stm32cubeclt_1.21.0/GNU-tools-for-STM32/lib/gcc/arm-none-eabi/14.3.1/include/arm_mve.h **** __extension__ extern __inline void
1373:/opt/st/stm32cubeclt_1.21.0/GNU-tools-for-STM32/lib/gcc/arm-none-eabi/14.3.1/include/arm_mve.h **** __attribute__ ((__always_inline__, __gnu_inline__, __artificial__))
1374:/opt/st/stm32cubeclt_1.21.0/GNU-tools-for-STM32/lib/gcc/arm-none-eabi/14.3.1/include/arm_mve.h **** __arm_vstrbq_scatter_offset_p_s8 (int8_t * __base, uint8x16_t __offset, int8x16_t __value, mve_pred
1375:/opt/st/stm32cubeclt_1.21.0/GNU-tools-for-STM32/lib/gcc/arm-none-eabi/14.3.1/include/arm_mve.h **** {
1376:/opt/st/stm32cubeclt_1.21.0/GNU-tools-for-STM32/lib/gcc/arm-none-eabi/14.3.1/include/arm_mve.h ****   __builtin_mve_vstrbq_scatter_offset_p_sv16qi ((__builtin_neon_qi *) __base, __offset, __value, __
1377:/opt/st/stm32cubeclt_1.21.0/GNU-tools-for-STM32/lib/gcc/arm-none-eabi/14.3.1/include/arm_mve.h **** }
1378:/opt/st/stm32cubeclt_1.21.0/GNU-tools-for-STM32/lib/gcc/arm-none-eabi/14.3.1/include/arm_mve.h **** 
1379:/opt/st/stm32cubeclt_1.21.0/GNU-tools-for-STM32/lib/gcc/arm-none-eabi/14.3.1/include/arm_mve.h **** __extension__ extern __inline void
1380:/opt/st/stm32cubeclt_1.21.0/GNU-tools-for-STM32/lib/gcc/arm-none-eabi/14.3.1/include/arm_mve.h **** __attribute__ ((__always_inline__, __gnu_inline__, __artificial__))
1381:/opt/st/stm32cubeclt_1.21.0/GNU-tools-for-STM32/lib/gcc/arm-none-eabi/14.3.1/include/arm_mve.h **** __arm_vstrbq_scatter_offset_p_s32 (int8_t * __base, uint32x4_t __offset, int32x4_t __value, mve_pre
1382:/opt/st/stm32cubeclt_1.21.0/GNU-tools-for-STM32/lib/gcc/arm-none-eabi/14.3.1/include/arm_mve.h **** {
ARM GAS  /tmp/ccfH7U9I.s 			page 27


1383:/opt/st/stm32cubeclt_1.21.0/GNU-tools-for-STM32/lib/gcc/arm-none-eabi/14.3.1/include/arm_mve.h ****   __builtin_mve_vstrbq_scatter_offset_p_sv4si ((__builtin_neon_qi *) __base, __offset, __value, __p
1384:/opt/st/stm32cubeclt_1.21.0/GNU-tools-for-STM32/lib/gcc/arm-none-eabi/14.3.1/include/arm_mve.h **** }
1385:/opt/st/stm32cubeclt_1.21.0/GNU-tools-for-STM32/lib/gcc/arm-none-eabi/14.3.1/include/arm_mve.h **** 
1386:/opt/st/stm32cubeclt_1.21.0/GNU-tools-for-STM32/lib/gcc/arm-none-eabi/14.3.1/include/arm_mve.h **** __extension__ extern __inline void
1387:/opt/st/stm32cubeclt_1.21.0/GNU-tools-for-STM32/lib/gcc/arm-none-eabi/14.3.1/include/arm_mve.h **** __attribute__ ((__always_inline__, __gnu_inline__, __artificial__))
1388:/opt/st/stm32cubeclt_1.21.0/GNU-tools-for-STM32/lib/gcc/arm-none-eabi/14.3.1/include/arm_mve.h **** __arm_vstrbq_scatter_offset_p_s16 (int8_t * __base, uint16x8_t __offset, int16x8_t __value, mve_pre
1389:/opt/st/stm32cubeclt_1.21.0/GNU-tools-for-STM32/lib/gcc/arm-none-eabi/14.3.1/include/arm_mve.h **** {
1390:/opt/st/stm32cubeclt_1.21.0/GNU-tools-for-STM32/lib/gcc/arm-none-eabi/14.3.1/include/arm_mve.h ****   __builtin_mve_vstrbq_scatter_offset_p_sv8hi ((__builtin_neon_qi *) __base, __offset, __value, __p
1391:/opt/st/stm32cubeclt_1.21.0/GNU-tools-for-STM32/lib/gcc/arm-none-eabi/14.3.1/include/arm_mve.h **** }
1392:/opt/st/stm32cubeclt_1.21.0/GNU-tools-for-STM32/lib/gcc/arm-none-eabi/14.3.1/include/arm_mve.h **** 
1393:/opt/st/stm32cubeclt_1.21.0/GNU-tools-for-STM32/lib/gcc/arm-none-eabi/14.3.1/include/arm_mve.h **** __extension__ extern __inline void
1394:/opt/st/stm32cubeclt_1.21.0/GNU-tools-for-STM32/lib/gcc/arm-none-eabi/14.3.1/include/arm_mve.h **** __attribute__ ((__always_inline__, __gnu_inline__, __artificial__))
1395:/opt/st/stm32cubeclt_1.21.0/GNU-tools-for-STM32/lib/gcc/arm-none-eabi/14.3.1/include/arm_mve.h **** __arm_vstrbq_scatter_offset_p_u8 (uint8_t * __base, uint8x16_t __offset, uint8x16_t __value, mve_pr
1396:/opt/st/stm32cubeclt_1.21.0/GNU-tools-for-STM32/lib/gcc/arm-none-eabi/14.3.1/include/arm_mve.h **** {
1397:/opt/st/stm32cubeclt_1.21.0/GNU-tools-for-STM32/lib/gcc/arm-none-eabi/14.3.1/include/arm_mve.h ****   __builtin_mve_vstrbq_scatter_offset_p_uv16qi ((__builtin_neon_qi *) __base, __offset, __value, __
1398:/opt/st/stm32cubeclt_1.21.0/GNU-tools-for-STM32/lib/gcc/arm-none-eabi/14.3.1/include/arm_mve.h **** }
1399:/opt/st/stm32cubeclt_1.21.0/GNU-tools-for-STM32/lib/gcc/arm-none-eabi/14.3.1/include/arm_mve.h **** 
1400:/opt/st/stm32cubeclt_1.21.0/GNU-tools-for-STM32/lib/gcc/arm-none-eabi/14.3.1/include/arm_mve.h **** __extension__ extern __inline void
1401:/opt/st/stm32cubeclt_1.21.0/GNU-tools-for-STM32/lib/gcc/arm-none-eabi/14.3.1/include/arm_mve.h **** __attribute__ ((__always_inline__, __gnu_inline__, __artificial__))
1402:/opt/st/stm32cubeclt_1.21.0/GNU-tools-for-STM32/lib/gcc/arm-none-eabi/14.3.1/include/arm_mve.h **** __arm_vstrbq_scatter_offset_p_u32 (uint8_t * __base, uint32x4_t __offset, uint32x4_t __value, mve_p
1403:/opt/st/stm32cubeclt_1.21.0/GNU-tools-for-STM32/lib/gcc/arm-none-eabi/14.3.1/include/arm_mve.h **** {
1404:/opt/st/stm32cubeclt_1.21.0/GNU-tools-for-STM32/lib/gcc/arm-none-eabi/14.3.1/include/arm_mve.h ****   __builtin_mve_vstrbq_scatter_offset_p_uv4si ((__builtin_neon_qi *) __base, __offset, __value, __p
1405:/opt/st/stm32cubeclt_1.21.0/GNU-tools-for-STM32/lib/gcc/arm-none-eabi/14.3.1/include/arm_mve.h **** }
1406:/opt/st/stm32cubeclt_1.21.0/GNU-tools-for-STM32/lib/gcc/arm-none-eabi/14.3.1/include/arm_mve.h **** 
1407:/opt/st/stm32cubeclt_1.21.0/GNU-tools-for-STM32/lib/gcc/arm-none-eabi/14.3.1/include/arm_mve.h **** __extension__ extern __inline void
1408:/opt/st/stm32cubeclt_1.21.0/GNU-tools-for-STM32/lib/gcc/arm-none-eabi/14.3.1/include/arm_mve.h **** __attribute__ ((__always_inline__, __gnu_inline__, __artificial__))
1409:/opt/st/stm32cubeclt_1.21.0/GNU-tools-for-STM32/lib/gcc/arm-none-eabi/14.3.1/include/arm_mve.h **** __arm_vstrbq_scatter_offset_p_u16 (uint8_t * __base, uint16x8_t __offset, uint16x8_t __value, mve_p
1410:/opt/st/stm32cubeclt_1.21.0/GNU-tools-for-STM32/lib/gcc/arm-none-eabi/14.3.1/include/arm_mve.h **** {
1411:/opt/st/stm32cubeclt_1.21.0/GNU-tools-for-STM32/lib/gcc/arm-none-eabi/14.3.1/include/arm_mve.h ****   __builtin_mve_vstrbq_scatter_offset_p_uv8hi ((__builtin_neon_qi *) __base, __offset, __value, __p
1412:/opt/st/stm32cubeclt_1.21.0/GNU-tools-for-STM32/lib/gcc/arm-none-eabi/14.3.1/include/arm_mve.h **** }
1413:/opt/st/stm32cubeclt_1.21.0/GNU-tools-for-STM32/lib/gcc/arm-none-eabi/14.3.1/include/arm_mve.h **** 
1414:/opt/st/stm32cubeclt_1.21.0/GNU-tools-for-STM32/lib/gcc/arm-none-eabi/14.3.1/include/arm_mve.h **** __extension__ extern __inline void
1415:/opt/st/stm32cubeclt_1.21.0/GNU-tools-for-STM32/lib/gcc/arm-none-eabi/14.3.1/include/arm_mve.h **** __attribute__ ((__always_inline__, __gnu_inline__, __artificial__))
1416:/opt/st/stm32cubeclt_1.21.0/GNU-tools-for-STM32/lib/gcc/arm-none-eabi/14.3.1/include/arm_mve.h **** __arm_vstrwq_scatter_base_p_s32 (uint32x4_t __addr, const int __offset, int32x4_t __value, mve_pred
1417:/opt/st/stm32cubeclt_1.21.0/GNU-tools-for-STM32/lib/gcc/arm-none-eabi/14.3.1/include/arm_mve.h **** {
1418:/opt/st/stm32cubeclt_1.21.0/GNU-tools-for-STM32/lib/gcc/arm-none-eabi/14.3.1/include/arm_mve.h ****   __builtin_mve_vstrwq_scatter_base_p_sv4si (__addr, __offset, __value, __p);
1419:/opt/st/stm32cubeclt_1.21.0/GNU-tools-for-STM32/lib/gcc/arm-none-eabi/14.3.1/include/arm_mve.h **** }
1420:/opt/st/stm32cubeclt_1.21.0/GNU-tools-for-STM32/lib/gcc/arm-none-eabi/14.3.1/include/arm_mve.h **** 
1421:/opt/st/stm32cubeclt_1.21.0/GNU-tools-for-STM32/lib/gcc/arm-none-eabi/14.3.1/include/arm_mve.h **** __extension__ extern __inline void
1422:/opt/st/stm32cubeclt_1.21.0/GNU-tools-for-STM32/lib/gcc/arm-none-eabi/14.3.1/include/arm_mve.h **** __attribute__ ((__always_inline__, __gnu_inline__, __artificial__))
1423:/opt/st/stm32cubeclt_1.21.0/GNU-tools-for-STM32/lib/gcc/arm-none-eabi/14.3.1/include/arm_mve.h **** __arm_vstrwq_scatter_base_p_u32 (uint32x4_t __addr, const int __offset, uint32x4_t __value, mve_pre
1424:/opt/st/stm32cubeclt_1.21.0/GNU-tools-for-STM32/lib/gcc/arm-none-eabi/14.3.1/include/arm_mve.h **** {
1425:/opt/st/stm32cubeclt_1.21.0/GNU-tools-for-STM32/lib/gcc/arm-none-eabi/14.3.1/include/arm_mve.h ****   __builtin_mve_vstrwq_scatter_base_p_uv4si (__addr, __offset, __value, __p);
1426:/opt/st/stm32cubeclt_1.21.0/GNU-tools-for-STM32/lib/gcc/arm-none-eabi/14.3.1/include/arm_mve.h **** }
1427:/opt/st/stm32cubeclt_1.21.0/GNU-tools-for-STM32/lib/gcc/arm-none-eabi/14.3.1/include/arm_mve.h **** 
1428:/opt/st/stm32cubeclt_1.21.0/GNU-tools-for-STM32/lib/gcc/arm-none-eabi/14.3.1/include/arm_mve.h **** __extension__ extern __inline int8x16_t
1429:/opt/st/stm32cubeclt_1.21.0/GNU-tools-for-STM32/lib/gcc/arm-none-eabi/14.3.1/include/arm_mve.h **** __attribute__ ((__always_inline__, __gnu_inline__, __artificial__))
1430:/opt/st/stm32cubeclt_1.21.0/GNU-tools-for-STM32/lib/gcc/arm-none-eabi/14.3.1/include/arm_mve.h **** __arm_vldrbq_gather_offset_z_s8 (int8_t const * __base, uint8x16_t __offset, mve_pred16_t __p)
1431:/opt/st/stm32cubeclt_1.21.0/GNU-tools-for-STM32/lib/gcc/arm-none-eabi/14.3.1/include/arm_mve.h **** {
1432:/opt/st/stm32cubeclt_1.21.0/GNU-tools-for-STM32/lib/gcc/arm-none-eabi/14.3.1/include/arm_mve.h ****   return __builtin_mve_vldrbq_gather_offset_z_sv16qi ((__builtin_neon_qi *) __base, __offset, __p);
1433:/opt/st/stm32cubeclt_1.21.0/GNU-tools-for-STM32/lib/gcc/arm-none-eabi/14.3.1/include/arm_mve.h **** }
1434:/opt/st/stm32cubeclt_1.21.0/GNU-tools-for-STM32/lib/gcc/arm-none-eabi/14.3.1/include/arm_mve.h **** 
1435:/opt/st/stm32cubeclt_1.21.0/GNU-tools-for-STM32/lib/gcc/arm-none-eabi/14.3.1/include/arm_mve.h **** __extension__ extern __inline int32x4_t
1436:/opt/st/stm32cubeclt_1.21.0/GNU-tools-for-STM32/lib/gcc/arm-none-eabi/14.3.1/include/arm_mve.h **** __attribute__ ((__always_inline__, __gnu_inline__, __artificial__))
1437:/opt/st/stm32cubeclt_1.21.0/GNU-tools-for-STM32/lib/gcc/arm-none-eabi/14.3.1/include/arm_mve.h **** __arm_vldrbq_gather_offset_z_s32 (int8_t const * __base, uint32x4_t __offset, mve_pred16_t __p)
1438:/opt/st/stm32cubeclt_1.21.0/GNU-tools-for-STM32/lib/gcc/arm-none-eabi/14.3.1/include/arm_mve.h **** {
1439:/opt/st/stm32cubeclt_1.21.0/GNU-tools-for-STM32/lib/gcc/arm-none-eabi/14.3.1/include/arm_mve.h ****   return __builtin_mve_vldrbq_gather_offset_z_sv4si ((__builtin_neon_qi *) __base, __offset, __p);
ARM GAS  /tmp/ccfH7U9I.s 			page 28


1440:/opt/st/stm32cubeclt_1.21.0/GNU-tools-for-STM32/lib/gcc/arm-none-eabi/14.3.1/include/arm_mve.h **** }
1441:/opt/st/stm32cubeclt_1.21.0/GNU-tools-for-STM32/lib/gcc/arm-none-eabi/14.3.1/include/arm_mve.h **** 
1442:/opt/st/stm32cubeclt_1.21.0/GNU-tools-for-STM32/lib/gcc/arm-none-eabi/14.3.1/include/arm_mve.h **** __extension__ extern __inline int16x8_t
1443:/opt/st/stm32cubeclt_1.21.0/GNU-tools-for-STM32/lib/gcc/arm-none-eabi/14.3.1/include/arm_mve.h **** __attribute__ ((__always_inline__, __gnu_inline__, __artificial__))
1444:/opt/st/stm32cubeclt_1.21.0/GNU-tools-for-STM32/lib/gcc/arm-none-eabi/14.3.1/include/arm_mve.h **** __arm_vldrbq_gather_offset_z_s16 (int8_t const * __base, uint16x8_t __offset, mve_pred16_t __p)
1445:/opt/st/stm32cubeclt_1.21.0/GNU-tools-for-STM32/lib/gcc/arm-none-eabi/14.3.1/include/arm_mve.h **** {
1446:/opt/st/stm32cubeclt_1.21.0/GNU-tools-for-STM32/lib/gcc/arm-none-eabi/14.3.1/include/arm_mve.h ****   return __builtin_mve_vldrbq_gather_offset_z_sv8hi ((__builtin_neon_qi *) __base, __offset, __p);
1447:/opt/st/stm32cubeclt_1.21.0/GNU-tools-for-STM32/lib/gcc/arm-none-eabi/14.3.1/include/arm_mve.h **** }
1448:/opt/st/stm32cubeclt_1.21.0/GNU-tools-for-STM32/lib/gcc/arm-none-eabi/14.3.1/include/arm_mve.h **** 
1449:/opt/st/stm32cubeclt_1.21.0/GNU-tools-for-STM32/lib/gcc/arm-none-eabi/14.3.1/include/arm_mve.h **** __extension__ extern __inline uint8x16_t
1450:/opt/st/stm32cubeclt_1.21.0/GNU-tools-for-STM32/lib/gcc/arm-none-eabi/14.3.1/include/arm_mve.h **** __attribute__ ((__always_inline__, __gnu_inline__, __artificial__))
1451:/opt/st/stm32cubeclt_1.21.0/GNU-tools-for-STM32/lib/gcc/arm-none-eabi/14.3.1/include/arm_mve.h **** __arm_vldrbq_gather_offset_z_u8 (uint8_t const * __base, uint8x16_t __offset, mve_pred16_t __p)
1452:/opt/st/stm32cubeclt_1.21.0/GNU-tools-for-STM32/lib/gcc/arm-none-eabi/14.3.1/include/arm_mve.h **** {
1453:/opt/st/stm32cubeclt_1.21.0/GNU-tools-for-STM32/lib/gcc/arm-none-eabi/14.3.1/include/arm_mve.h ****   return __builtin_mve_vldrbq_gather_offset_z_uv16qi ((__builtin_neon_qi *) __base, __offset, __p);
1454:/opt/st/stm32cubeclt_1.21.0/GNU-tools-for-STM32/lib/gcc/arm-none-eabi/14.3.1/include/arm_mve.h **** }
1455:/opt/st/stm32cubeclt_1.21.0/GNU-tools-for-STM32/lib/gcc/arm-none-eabi/14.3.1/include/arm_mve.h **** 
1456:/opt/st/stm32cubeclt_1.21.0/GNU-tools-for-STM32/lib/gcc/arm-none-eabi/14.3.1/include/arm_mve.h **** __extension__ extern __inline uint32x4_t
1457:/opt/st/stm32cubeclt_1.21.0/GNU-tools-for-STM32/lib/gcc/arm-none-eabi/14.3.1/include/arm_mve.h **** __attribute__ ((__always_inline__, __gnu_inline__, __artificial__))
1458:/opt/st/stm32cubeclt_1.21.0/GNU-tools-for-STM32/lib/gcc/arm-none-eabi/14.3.1/include/arm_mve.h **** __arm_vldrbq_gather_offset_z_u32 (uint8_t const * __base, uint32x4_t __offset, mve_pred16_t __p)
1459:/opt/st/stm32cubeclt_1.21.0/GNU-tools-for-STM32/lib/gcc/arm-none-eabi/14.3.1/include/arm_mve.h **** {
1460:/opt/st/stm32cubeclt_1.21.0/GNU-tools-for-STM32/lib/gcc/arm-none-eabi/14.3.1/include/arm_mve.h ****   return __builtin_mve_vldrbq_gather_offset_z_uv4si ((__builtin_neon_qi *) __base, __offset, __p);
1461:/opt/st/stm32cubeclt_1.21.0/GNU-tools-for-STM32/lib/gcc/arm-none-eabi/14.3.1/include/arm_mve.h **** }
1462:/opt/st/stm32cubeclt_1.21.0/GNU-tools-for-STM32/lib/gcc/arm-none-eabi/14.3.1/include/arm_mve.h **** 
1463:/opt/st/stm32cubeclt_1.21.0/GNU-tools-for-STM32/lib/gcc/arm-none-eabi/14.3.1/include/arm_mve.h **** __extension__ extern __inline uint16x8_t
1464:/opt/st/stm32cubeclt_1.21.0/GNU-tools-for-STM32/lib/gcc/arm-none-eabi/14.3.1/include/arm_mve.h **** __attribute__ ((__always_inline__, __gnu_inline__, __artificial__))
1465:/opt/st/stm32cubeclt_1.21.0/GNU-tools-for-STM32/lib/gcc/arm-none-eabi/14.3.1/include/arm_mve.h **** __arm_vldrbq_gather_offset_z_u16 (uint8_t const * __base, uint16x8_t __offset, mve_pred16_t __p)
1466:/opt/st/stm32cubeclt_1.21.0/GNU-tools-for-STM32/lib/gcc/arm-none-eabi/14.3.1/include/arm_mve.h **** {
1467:/opt/st/stm32cubeclt_1.21.0/GNU-tools-for-STM32/lib/gcc/arm-none-eabi/14.3.1/include/arm_mve.h ****   return __builtin_mve_vldrbq_gather_offset_z_uv8hi ((__builtin_neon_qi *) __base, __offset, __p);
1468:/opt/st/stm32cubeclt_1.21.0/GNU-tools-for-STM32/lib/gcc/arm-none-eabi/14.3.1/include/arm_mve.h **** }
1469:/opt/st/stm32cubeclt_1.21.0/GNU-tools-for-STM32/lib/gcc/arm-none-eabi/14.3.1/include/arm_mve.h **** 
1470:/opt/st/stm32cubeclt_1.21.0/GNU-tools-for-STM32/lib/gcc/arm-none-eabi/14.3.1/include/arm_mve.h **** __extension__ extern __inline int8x16_t
1471:/opt/st/stm32cubeclt_1.21.0/GNU-tools-for-STM32/lib/gcc/arm-none-eabi/14.3.1/include/arm_mve.h **** __attribute__ ((__always_inline__, __gnu_inline__, __artificial__))
1472:/opt/st/stm32cubeclt_1.21.0/GNU-tools-for-STM32/lib/gcc/arm-none-eabi/14.3.1/include/arm_mve.h **** __arm_vldrbq_z_s8 (int8_t const * __base, mve_pred16_t __p)
1473:/opt/st/stm32cubeclt_1.21.0/GNU-tools-for-STM32/lib/gcc/arm-none-eabi/14.3.1/include/arm_mve.h **** {
1474:/opt/st/stm32cubeclt_1.21.0/GNU-tools-for-STM32/lib/gcc/arm-none-eabi/14.3.1/include/arm_mve.h ****   return __builtin_mve_vldrbq_z_sv16qi ((__builtin_neon_qi *) __base, __p);
1475:/opt/st/stm32cubeclt_1.21.0/GNU-tools-for-STM32/lib/gcc/arm-none-eabi/14.3.1/include/arm_mve.h **** }
1476:/opt/st/stm32cubeclt_1.21.0/GNU-tools-for-STM32/lib/gcc/arm-none-eabi/14.3.1/include/arm_mve.h **** 
1477:/opt/st/stm32cubeclt_1.21.0/GNU-tools-for-STM32/lib/gcc/arm-none-eabi/14.3.1/include/arm_mve.h **** __extension__ extern __inline int32x4_t
1478:/opt/st/stm32cubeclt_1.21.0/GNU-tools-for-STM32/lib/gcc/arm-none-eabi/14.3.1/include/arm_mve.h **** __attribute__ ((__always_inline__, __gnu_inline__, __artificial__))
1479:/opt/st/stm32cubeclt_1.21.0/GNU-tools-for-STM32/lib/gcc/arm-none-eabi/14.3.1/include/arm_mve.h **** __arm_vldrbq_z_s32 (int8_t const * __base, mve_pred16_t __p)
1480:/opt/st/stm32cubeclt_1.21.0/GNU-tools-for-STM32/lib/gcc/arm-none-eabi/14.3.1/include/arm_mve.h **** {
1481:/opt/st/stm32cubeclt_1.21.0/GNU-tools-for-STM32/lib/gcc/arm-none-eabi/14.3.1/include/arm_mve.h ****   return __builtin_mve_vldrbq_z_sv4si ((__builtin_neon_qi *) __base, __p);
1482:/opt/st/stm32cubeclt_1.21.0/GNU-tools-for-STM32/lib/gcc/arm-none-eabi/14.3.1/include/arm_mve.h **** }
1483:/opt/st/stm32cubeclt_1.21.0/GNU-tools-for-STM32/lib/gcc/arm-none-eabi/14.3.1/include/arm_mve.h **** 
1484:/opt/st/stm32cubeclt_1.21.0/GNU-tools-for-STM32/lib/gcc/arm-none-eabi/14.3.1/include/arm_mve.h **** __extension__ extern __inline int16x8_t
1485:/opt/st/stm32cubeclt_1.21.0/GNU-tools-for-STM32/lib/gcc/arm-none-eabi/14.3.1/include/arm_mve.h **** __attribute__ ((__always_inline__, __gnu_inline__, __artificial__))
1486:/opt/st/stm32cubeclt_1.21.0/GNU-tools-for-STM32/lib/gcc/arm-none-eabi/14.3.1/include/arm_mve.h **** __arm_vldrbq_z_s16 (int8_t const * __base, mve_pred16_t __p)
1487:/opt/st/stm32cubeclt_1.21.0/GNU-tools-for-STM32/lib/gcc/arm-none-eabi/14.3.1/include/arm_mve.h **** {
1488:/opt/st/stm32cubeclt_1.21.0/GNU-tools-for-STM32/lib/gcc/arm-none-eabi/14.3.1/include/arm_mve.h ****   return __builtin_mve_vldrbq_z_sv8hi ((__builtin_neon_qi *) __base, __p);
1489:/opt/st/stm32cubeclt_1.21.0/GNU-tools-for-STM32/lib/gcc/arm-none-eabi/14.3.1/include/arm_mve.h **** }
1490:/opt/st/stm32cubeclt_1.21.0/GNU-tools-for-STM32/lib/gcc/arm-none-eabi/14.3.1/include/arm_mve.h **** 
1491:/opt/st/stm32cubeclt_1.21.0/GNU-tools-for-STM32/lib/gcc/arm-none-eabi/14.3.1/include/arm_mve.h **** __extension__ extern __inline uint8x16_t
1492:/opt/st/stm32cubeclt_1.21.0/GNU-tools-for-STM32/lib/gcc/arm-none-eabi/14.3.1/include/arm_mve.h **** __attribute__ ((__always_inline__, __gnu_inline__, __artificial__))
1493:/opt/st/stm32cubeclt_1.21.0/GNU-tools-for-STM32/lib/gcc/arm-none-eabi/14.3.1/include/arm_mve.h **** __arm_vldrbq_z_u8 (uint8_t const * __base, mve_pred16_t __p)
1494:/opt/st/stm32cubeclt_1.21.0/GNU-tools-for-STM32/lib/gcc/arm-none-eabi/14.3.1/include/arm_mve.h **** {
1495:/opt/st/stm32cubeclt_1.21.0/GNU-tools-for-STM32/lib/gcc/arm-none-eabi/14.3.1/include/arm_mve.h ****   return __builtin_mve_vldrbq_z_uv16qi ((__builtin_neon_qi *) __base, __p);
1496:/opt/st/stm32cubeclt_1.21.0/GNU-tools-for-STM32/lib/gcc/arm-none-eabi/14.3.1/include/arm_mve.h **** }
ARM GAS  /tmp/ccfH7U9I.s 			page 29


